
TP-info2_6_2.elf:     file format elf32-littlearm

Sections:
Idx Name          Size      VMA       LMA       File off  Algn
  0 .text         0000c138  00000000  00000000  00010000  2**3
                  CONTENTS, ALLOC, LOAD, READONLY, CODE
  1 .ARM.exidx    00000008  0000c138  0000c138  0001c138  2**2
                  CONTENTS, ALLOC, LOAD, READONLY, DATA
  2 .relocate     000008c4  20000000  0000c140  00020000  2**3
                  CONTENTS, ALLOC, LOAD, DATA
  3 .bss          0000026c  200008c4  0000ca04  000208c4  2**2
                  ALLOC
  4 .stack        00002000  20000b30  0000cc70  000208c4  2**0
                  ALLOC
  5 .ARM.attributes 00000028  00000000  00000000  000208c4  2**0
                  CONTENTS, READONLY
  6 .comment      00000059  00000000  00000000  000208ec  2**0
                  CONTENTS, READONLY
  7 .debug_info   00010087  00000000  00000000  00020945  2**0
                  CONTENTS, READONLY, DEBUGGING
  8 .debug_abbrev 0000152e  00000000  00000000  000309cc  2**0
                  CONTENTS, READONLY, DEBUGGING
  9 .debug_loc    000014bc  00000000  00000000  00031efa  2**0
                  CONTENTS, READONLY, DEBUGGING
 10 .debug_aranges 00000490  00000000  00000000  000333b6  2**0
                  CONTENTS, READONLY, DEBUGGING
 11 .debug_ranges 00000390  00000000  00000000  00033846  2**0
                  CONTENTS, READONLY, DEBUGGING
 12 .debug_macro  00015bb0  00000000  00000000  00033bd6  2**0
                  CONTENTS, READONLY, DEBUGGING
 13 .debug_line   00007a85  00000000  00000000  00049786  2**0
                  CONTENTS, READONLY, DEBUGGING
 14 .debug_str    000751fa  00000000  00000000  0005120b  2**0
                  CONTENTS, READONLY, DEBUGGING
 15 .debug_frame  000022f0  00000000  00000000  000c6408  2**2
                  CONTENTS, READONLY, DEBUGGING
 16 .stab         00000024  00000000  00000000  000c86f8  2**2
                  CONTENTS, READONLY, DEBUGGING
 17 .stabstr      0000003c  00000000  00000000  000c871c  2**0
                  CONTENTS, READONLY, DEBUGGING

Disassembly of section .text:

00000000 <_sfixed>:
       0:	20002b30 	.word	0x20002b30
       4:	00000115 	.word	0x00000115
       8:	00000199 	.word	0x00000199
       c:	00000199 	.word	0x00000199
	...
      2c:	00000199 	.word	0x00000199
	...
      38:	00000199 	.word	0x00000199
      3c:	00000199 	.word	0x00000199
      40:	00000199 	.word	0x00000199
      44:	00000199 	.word	0x00000199
      48:	00000199 	.word	0x00000199
      4c:	00000199 	.word	0x00000199
      50:	00001e91 	.word	0x00001e91
      54:	00000199 	.word	0x00000199
      58:	00000199 	.word	0x00000199
      5c:	00000199 	.word	0x00000199
      60:	00000199 	.word	0x00000199
      64:	00000199 	.word	0x00000199
      68:	00000199 	.word	0x00000199
      6c:	00000199 	.word	0x00000199
      70:	00000199 	.word	0x00000199
      74:	00000199 	.word	0x00000199
      78:	00000199 	.word	0x00000199
      7c:	00000199 	.word	0x00000199
      80:	00000199 	.word	0x00000199
      84:	00000199 	.word	0x00000199
      88:	00000199 	.word	0x00000199
      8c:	00000199 	.word	0x00000199
      90:	00000199 	.word	0x00000199
      94:	00000199 	.word	0x00000199
      98:	00000199 	.word	0x00000199
      9c:	00000199 	.word	0x00000199
      a0:	00000199 	.word	0x00000199
      a4:	00000199 	.word	0x00000199
      a8:	00000199 	.word	0x00000199
      ac:	00000199 	.word	0x00000199
      b0:	00000000 	.word	0x00000000

000000b4 <__do_global_dtors_aux>:
      b4:	b510      	push	{r4, lr}
      b6:	4c06      	ldr	r4, [pc, #24]	; (d0 <__do_global_dtors_aux+0x1c>)
      b8:	7823      	ldrb	r3, [r4, #0]
      ba:	2b00      	cmp	r3, #0
      bc:	d107      	bne.n	ce <__do_global_dtors_aux+0x1a>
      be:	4b05      	ldr	r3, [pc, #20]	; (d4 <__do_global_dtors_aux+0x20>)
      c0:	2b00      	cmp	r3, #0
      c2:	d002      	beq.n	ca <__do_global_dtors_aux+0x16>
      c4:	4804      	ldr	r0, [pc, #16]	; (d8 <__do_global_dtors_aux+0x24>)
      c6:	e000      	b.n	ca <__do_global_dtors_aux+0x16>
      c8:	bf00      	nop
      ca:	2301      	movs	r3, #1
      cc:	7023      	strb	r3, [r4, #0]
      ce:	bd10      	pop	{r4, pc}
      d0:	200008c4 	.word	0x200008c4
      d4:	00000000 	.word	0x00000000
      d8:	0000c140 	.word	0x0000c140

000000dc <frame_dummy>:
      dc:	4b08      	ldr	r3, [pc, #32]	; (100 <frame_dummy+0x24>)
      de:	b510      	push	{r4, lr}
      e0:	2b00      	cmp	r3, #0
      e2:	d003      	beq.n	ec <frame_dummy+0x10>
      e4:	4907      	ldr	r1, [pc, #28]	; (104 <frame_dummy+0x28>)
      e6:	4808      	ldr	r0, [pc, #32]	; (108 <frame_dummy+0x2c>)
      e8:	e000      	b.n	ec <frame_dummy+0x10>
      ea:	bf00      	nop
      ec:	4807      	ldr	r0, [pc, #28]	; (10c <frame_dummy+0x30>)
      ee:	6803      	ldr	r3, [r0, #0]
      f0:	2b00      	cmp	r3, #0
      f2:	d100      	bne.n	f6 <frame_dummy+0x1a>
      f4:	bd10      	pop	{r4, pc}
      f6:	4b06      	ldr	r3, [pc, #24]	; (110 <frame_dummy+0x34>)
      f8:	2b00      	cmp	r3, #0
      fa:	d0fb      	beq.n	f4 <frame_dummy+0x18>
      fc:	4798      	blx	r3
      fe:	e7f9      	b.n	f4 <frame_dummy+0x18>
     100:	00000000 	.word	0x00000000
     104:	200008c8 	.word	0x200008c8
     108:	0000c140 	.word	0x0000c140
     10c:	0000c140 	.word	0x0000c140
     110:	00000000 	.word	0x00000000

00000114 <Reset_Handler>:
/**
 * \brief This is the code that gets called on processor reset.
 * To initialize the device, and call the main() routine.
 */
void Reset_Handler(void)
{
     114:	b580      	push	{r7, lr}
     116:	b082      	sub	sp, #8
     118:	af00      	add	r7, sp, #0
        uint32_t *pSrc, *pDest;

        /* Initialize the relocate segment */
        pSrc = &_etext;
     11a:	4b16      	ldr	r3, [pc, #88]	; (174 <Reset_Handler+0x60>)
     11c:	607b      	str	r3, [r7, #4]
        pDest = &_srelocate;
     11e:	4b16      	ldr	r3, [pc, #88]	; (178 <Reset_Handler+0x64>)
     120:	603b      	str	r3, [r7, #0]

        if (pSrc != pDest) {
     122:	687a      	ldr	r2, [r7, #4]
     124:	683b      	ldr	r3, [r7, #0]
     126:	429a      	cmp	r2, r3
     128:	d00c      	beq.n	144 <Reset_Handler+0x30>
                for (; pDest < &_erelocate;) {
     12a:	e007      	b.n	13c <Reset_Handler+0x28>
                        *pDest++ = *pSrc++;
     12c:	683b      	ldr	r3, [r7, #0]
     12e:	1d1a      	adds	r2, r3, #4
     130:	603a      	str	r2, [r7, #0]
     132:	687a      	ldr	r2, [r7, #4]
     134:	1d11      	adds	r1, r2, #4
     136:	6079      	str	r1, [r7, #4]
     138:	6812      	ldr	r2, [r2, #0]
     13a:	601a      	str	r2, [r3, #0]
        /* Initialize the relocate segment */
        pSrc = &_etext;
        pDest = &_srelocate;

        if (pSrc != pDest) {
                for (; pDest < &_erelocate;) {
     13c:	683a      	ldr	r2, [r7, #0]
     13e:	4b0f      	ldr	r3, [pc, #60]	; (17c <Reset_Handler+0x68>)
     140:	429a      	cmp	r2, r3
     142:	d3f3      	bcc.n	12c <Reset_Handler+0x18>
                        *pDest++ = *pSrc++;
                }
        }

        /* Clear the zero segment */
        for (pDest = &_szero; pDest < &_ezero;) {
     144:	4b0e      	ldr	r3, [pc, #56]	; (180 <Reset_Handler+0x6c>)
     146:	603b      	str	r3, [r7, #0]
     148:	e004      	b.n	154 <Reset_Handler+0x40>
                *pDest++ = 0;
     14a:	683b      	ldr	r3, [r7, #0]
     14c:	1d1a      	adds	r2, r3, #4
     14e:	603a      	str	r2, [r7, #0]
     150:	2200      	movs	r2, #0
     152:	601a      	str	r2, [r3, #0]
                        *pDest++ = *pSrc++;
                }
        }

        /* Clear the zero segment */
        for (pDest = &_szero; pDest < &_ezero;) {
     154:	683a      	ldr	r2, [r7, #0]
     156:	4b0b      	ldr	r3, [pc, #44]	; (184 <Reset_Handler+0x70>)
     158:	429a      	cmp	r2, r3
     15a:	d3f6      	bcc.n	14a <Reset_Handler+0x36>
                *pDest++ = 0;
        }

        /* Set the vector table base address */
        pSrc = (uint32_t *) & _sfixed;
     15c:	4b0a      	ldr	r3, [pc, #40]	; (188 <Reset_Handler+0x74>)
     15e:	607b      	str	r3, [r7, #4]
        SCB->VTOR = ((uint32_t) pSrc & SCB_VTOR_TBLOFF_Msk);
     160:	4b0a      	ldr	r3, [pc, #40]	; (18c <Reset_Handler+0x78>)
     162:	687a      	ldr	r2, [r7, #4]
     164:	21ff      	movs	r1, #255	; 0xff
     166:	438a      	bics	r2, r1
     168:	609a      	str	r2, [r3, #8]

        /* Initialize the C library */
        __libc_init_array();
     16a:	4b09      	ldr	r3, [pc, #36]	; (190 <Reset_Handler+0x7c>)
     16c:	4798      	blx	r3

        /* Branch to main function */
        main();
     16e:	4b09      	ldr	r3, [pc, #36]	; (194 <Reset_Handler+0x80>)
     170:	4798      	blx	r3

        /* Infinite loop */
        while (1);
     172:	e7fe      	b.n	172 <Reset_Handler+0x5e>
     174:	0000c140 	.word	0x0000c140
     178:	20000000 	.word	0x20000000
     17c:	200008c4 	.word	0x200008c4
     180:	200008c4 	.word	0x200008c4
     184:	20000b30 	.word	0x20000b30
     188:	00000000 	.word	0x00000000
     18c:	e000ed00 	.word	0xe000ed00
     190:	0000697d 	.word	0x0000697d
     194:	00001961 	.word	0x00001961

00000198 <Dummy_Handler>:

/**
 * \brief Default interrupt handler for unused IRQs.
 */
void Dummy_Handler(void)
{
     198:	b580      	push	{r7, lr}
     19a:	af00      	add	r7, sp, #0
        while (1) {
        }
     19c:	e7fe      	b.n	19c <Dummy_Handler+0x4>
     19e:	46c0      	nop			; (mov r8, r8)

000001a0 <_sbrk>:
extern void _exit(int status);
extern void _kill(int pid, int sig);
extern int _getpid(void);

extern caddr_t _sbrk(int incr)
{
     1a0:	b580      	push	{r7, lr}
     1a2:	b084      	sub	sp, #16
     1a4:	af00      	add	r7, sp, #0
     1a6:	6078      	str	r0, [r7, #4]
	static unsigned char *heap = NULL;
	unsigned char *prev_heap;

	if (heap == NULL) {
     1a8:	4b0a      	ldr	r3, [pc, #40]	; (1d4 <_sbrk+0x34>)
     1aa:	681b      	ldr	r3, [r3, #0]
     1ac:	2b00      	cmp	r3, #0
     1ae:	d102      	bne.n	1b6 <_sbrk+0x16>
		heap = (unsigned char *)&_end;
     1b0:	4b08      	ldr	r3, [pc, #32]	; (1d4 <_sbrk+0x34>)
     1b2:	4a09      	ldr	r2, [pc, #36]	; (1d8 <_sbrk+0x38>)
     1b4:	601a      	str	r2, [r3, #0]
	}
	prev_heap = heap;
     1b6:	4b07      	ldr	r3, [pc, #28]	; (1d4 <_sbrk+0x34>)
     1b8:	681b      	ldr	r3, [r3, #0]
     1ba:	60fb      	str	r3, [r7, #12]

	heap += incr;
     1bc:	4b05      	ldr	r3, [pc, #20]	; (1d4 <_sbrk+0x34>)
     1be:	681a      	ldr	r2, [r3, #0]
     1c0:	687b      	ldr	r3, [r7, #4]
     1c2:	18d2      	adds	r2, r2, r3
     1c4:	4b03      	ldr	r3, [pc, #12]	; (1d4 <_sbrk+0x34>)
     1c6:	601a      	str	r2, [r3, #0]

	return (caddr_t) prev_heap;
     1c8:	68fb      	ldr	r3, [r7, #12]
}
     1ca:	0018      	movs	r0, r3
     1cc:	46bd      	mov	sp, r7
     1ce:	b004      	add	sp, #16
     1d0:	bd80      	pop	{r7, pc}
     1d2:	46c0      	nop			; (mov r8, r8)
     1d4:	200008e0 	.word	0x200008e0
     1d8:	20002b30 	.word	0x20002b30

000001dc <_close>:
{
	return -1;
}

extern int _close(int file)
{
     1dc:	b580      	push	{r7, lr}
     1de:	b082      	sub	sp, #8
     1e0:	af00      	add	r7, sp, #0
     1e2:	6078      	str	r0, [r7, #4]
	return -1;
     1e4:	2301      	movs	r3, #1
     1e6:	425b      	negs	r3, r3
}
     1e8:	0018      	movs	r0, r3
     1ea:	46bd      	mov	sp, r7
     1ec:	b002      	add	sp, #8
     1ee:	bd80      	pop	{r7, pc}

000001f0 <_fstat>:

extern int _fstat(int file, struct stat *st)
{
     1f0:	b580      	push	{r7, lr}
     1f2:	b082      	sub	sp, #8
     1f4:	af00      	add	r7, sp, #0
     1f6:	6078      	str	r0, [r7, #4]
     1f8:	6039      	str	r1, [r7, #0]
	st->st_mode = S_IFCHR;
     1fa:	683b      	ldr	r3, [r7, #0]
     1fc:	2280      	movs	r2, #128	; 0x80
     1fe:	0192      	lsls	r2, r2, #6
     200:	605a      	str	r2, [r3, #4]

	return 0;
     202:	2300      	movs	r3, #0
}
     204:	0018      	movs	r0, r3
     206:	46bd      	mov	sp, r7
     208:	b002      	add	sp, #8
     20a:	bd80      	pop	{r7, pc}

0000020c <_isatty>:

extern int _isatty(int file)
{
     20c:	b580      	push	{r7, lr}
     20e:	b082      	sub	sp, #8
     210:	af00      	add	r7, sp, #0
     212:	6078      	str	r0, [r7, #4]
	return 1;
     214:	2301      	movs	r3, #1
}
     216:	0018      	movs	r0, r3
     218:	46bd      	mov	sp, r7
     21a:	b002      	add	sp, #8
     21c:	bd80      	pop	{r7, pc}
     21e:	46c0      	nop			; (mov r8, r8)

00000220 <_lseek>:

extern int _lseek(int file, int ptr, int dir)
{
     220:	b580      	push	{r7, lr}
     222:	b084      	sub	sp, #16
     224:	af00      	add	r7, sp, #0
     226:	60f8      	str	r0, [r7, #12]
     228:	60b9      	str	r1, [r7, #8]
     22a:	607a      	str	r2, [r7, #4]
	return 0;
     22c:	2300      	movs	r3, #0
}
     22e:	0018      	movs	r0, r3
     230:	46bd      	mov	sp, r7
     232:	b004      	add	sp, #16
     234:	bd80      	pop	{r7, pc}
     236:	46c0      	nop			; (mov r8, r8)

00000238 <SystemInit>:
#define GENERIC_CLOCK_GENERATOR_OSC1M     (4u)
// Constants for Clock multiplexers
#define GENERIC_CLOCK_MULTIPLEXER_DFLL48M (0u)

void SystemInit( void )
{
     238:	b580      	push	{r7, lr}
     23a:	af00      	add	r7, sp, #0
  /* Set 1 Flash Wait State for 48MHz, cf tables 20.9 and 35.27 in SAMD21 Datasheet */
  NVMCTRL->CTRLB.bit.RWS = NVMCTRL_CTRLB_RWS_HALF_Val ;
     23c:	4a67      	ldr	r2, [pc, #412]	; (3dc <SystemInit+0x1a4>)
     23e:	6853      	ldr	r3, [r2, #4]
     240:	211e      	movs	r1, #30
     242:	438b      	bics	r3, r1
     244:	2102      	movs	r1, #2
     246:	430b      	orrs	r3, r1
     248:	6053      	str	r3, [r2, #4]

  /* Turn on the digital interface clock */
  PM->APBAMASK.reg |= PM_APBAMASK_GCLK ;
     24a:	4b65      	ldr	r3, [pc, #404]	; (3e0 <SystemInit+0x1a8>)
     24c:	4a64      	ldr	r2, [pc, #400]	; (3e0 <SystemInit+0x1a8>)
     24e:	6992      	ldr	r2, [r2, #24]
     250:	2108      	movs	r1, #8
     252:	430a      	orrs	r2, r1
     254:	619a      	str	r2, [r3, #24]

  /* ----------------------------------------------------------------------------------------------
   * 1) Enable XOSC32K clock (External on-board 32.768Hz oscillator)
   */
  SYSCTRL->XOSC32K.reg = SYSCTRL_XOSC32K_STARTUP( 0x6u ) | /* cf table 15.10 of product datasheet in chapter 15.8.6 */
     256:	4b63      	ldr	r3, [pc, #396]	; (3e4 <SystemInit+0x1ac>)
     258:	4a63      	ldr	r2, [pc, #396]	; (3e8 <SystemInit+0x1b0>)
     25a:	829a      	strh	r2, [r3, #20]
                         SYSCTRL_XOSC32K_XTALEN | SYSCTRL_XOSC32K_EN32K ;
  SYSCTRL->XOSC32K.bit.ENABLE = 1 ; /* separate call, as described in chapter 15.6.3 */
     25c:	4a61      	ldr	r2, [pc, #388]	; (3e4 <SystemInit+0x1ac>)
     25e:	8a93      	ldrh	r3, [r2, #20]
     260:	2102      	movs	r1, #2
     262:	430b      	orrs	r3, r1
     264:	8293      	strh	r3, [r2, #20]

  while ( (SYSCTRL->PCLKSR.reg & SYSCTRL_PCLKSR_XOSC32KRDY) == 0 )
     266:	46c0      	nop			; (mov r8, r8)
     268:	4b5e      	ldr	r3, [pc, #376]	; (3e4 <SystemInit+0x1ac>)
     26a:	68db      	ldr	r3, [r3, #12]
     26c:	2202      	movs	r2, #2
     26e:	4013      	ands	r3, r2
     270:	d0fa      	beq.n	268 <SystemInit+0x30>

  /* Software reset the module to ensure it is re-initialized correctly */
  /* Note: Due to synchronization, there is a delay from writing CTRL.SWRST until the reset is complete.
   * CTRL.SWRST and STATUS.SYNCBUSY will both be cleared when the reset is complete, as described in chapter 13.8.1
   */
  GCLK->CTRL.reg = GCLK_CTRL_SWRST ;
     272:	4b5e      	ldr	r3, [pc, #376]	; (3ec <SystemInit+0x1b4>)
     274:	2201      	movs	r2, #1
     276:	701a      	strb	r2, [r3, #0]

  while ( (GCLK->CTRL.reg & GCLK_CTRL_SWRST) && (GCLK->STATUS.reg & GCLK_STATUS_SYNCBUSY) )
     278:	46c0      	nop			; (mov r8, r8)
     27a:	4b5c      	ldr	r3, [pc, #368]	; (3ec <SystemInit+0x1b4>)
     27c:	781b      	ldrb	r3, [r3, #0]
     27e:	b2db      	uxtb	r3, r3
     280:	001a      	movs	r2, r3
     282:	2301      	movs	r3, #1
     284:	4013      	ands	r3, r2
     286:	d005      	beq.n	294 <SystemInit+0x5c>
     288:	4b58      	ldr	r3, [pc, #352]	; (3ec <SystemInit+0x1b4>)
     28a:	785b      	ldrb	r3, [r3, #1]
     28c:	b2db      	uxtb	r3, r3
     28e:	b25b      	sxtb	r3, r3
     290:	2b00      	cmp	r3, #0
     292:	dbf2      	blt.n	27a <SystemInit+0x42>
  }

  /* ----------------------------------------------------------------------------------------------
   * 2) Put XOSC32K as source of Generic Clock Generator 1
   */
  GCLK->GENDIV.reg = GCLK_GENDIV_ID( GENERIC_CLOCK_GENERATOR_XOSC32K ) ; // Generic Clock Generator 1
     294:	4b55      	ldr	r3, [pc, #340]	; (3ec <SystemInit+0x1b4>)
     296:	2201      	movs	r2, #1
     298:	609a      	str	r2, [r3, #8]

  while ( GCLK->STATUS.reg & GCLK_STATUS_SYNCBUSY )
     29a:	46c0      	nop			; (mov r8, r8)
     29c:	4b53      	ldr	r3, [pc, #332]	; (3ec <SystemInit+0x1b4>)
     29e:	785b      	ldrb	r3, [r3, #1]
     2a0:	b2db      	uxtb	r3, r3
     2a2:	b25b      	sxtb	r3, r3
     2a4:	2b00      	cmp	r3, #0
     2a6:	dbf9      	blt.n	29c <SystemInit+0x64>
  {
    /* Wait for synchronization */
  }

  /* Write Generic Clock Generator 1 configuration */
  GCLK->GENCTRL.reg = GCLK_GENCTRL_ID( GENERIC_CLOCK_GENERATOR_XOSC32K ) | // Generic Clock Generator 1
     2a8:	4b50      	ldr	r3, [pc, #320]	; (3ec <SystemInit+0x1b4>)
     2aa:	4a51      	ldr	r2, [pc, #324]	; (3f0 <SystemInit+0x1b8>)
     2ac:	605a      	str	r2, [r3, #4]
                      GCLK_GENCTRL_SRC_XOSC32K | // Selected source is External 32KHz Oscillator
//                      GCLK_GENCTRL_OE | // Output clock to a pin for tests
                      GCLK_GENCTRL_GENEN ;

  while ( GCLK->STATUS.reg & GCLK_STATUS_SYNCBUSY )
     2ae:	46c0      	nop			; (mov r8, r8)
     2b0:	4b4e      	ldr	r3, [pc, #312]	; (3ec <SystemInit+0x1b4>)
     2b2:	785b      	ldrb	r3, [r3, #1]
     2b4:	b2db      	uxtb	r3, r3
     2b6:	b25b      	sxtb	r3, r3
     2b8:	2b00      	cmp	r3, #0
     2ba:	dbf9      	blt.n	2b0 <SystemInit+0x78>
  }

  /* ----------------------------------------------------------------------------------------------
   * 3) Put Generic Clock Generator 1 as source for Generic Clock Multiplexer 0 (DFLL48M reference)
   */
  GCLK->CLKCTRL.reg = GCLK_CLKCTRL_ID( GENERIC_CLOCK_MULTIPLEXER_DFLL48M ) | // Generic Clock Multiplexer 0
     2bc:	4b4b      	ldr	r3, [pc, #300]	; (3ec <SystemInit+0x1b4>)
     2be:	2282      	movs	r2, #130	; 0x82
     2c0:	01d2      	lsls	r2, r2, #7
     2c2:	805a      	strh	r2, [r3, #2]
                      GCLK_CLKCTRL_GEN_GCLK1 | // Generic Clock Generator 1 is source
                      GCLK_CLKCTRL_CLKEN ;

  while ( GCLK->STATUS.reg & GCLK_STATUS_SYNCBUSY )
     2c4:	46c0      	nop			; (mov r8, r8)
     2c6:	4b49      	ldr	r3, [pc, #292]	; (3ec <SystemInit+0x1b4>)
     2c8:	785b      	ldrb	r3, [r3, #1]
     2ca:	b2db      	uxtb	r3, r3
     2cc:	b25b      	sxtb	r3, r3
     2ce:	2b00      	cmp	r3, #0
     2d0:	dbf9      	blt.n	2c6 <SystemInit+0x8e>
   */

  /* DFLL Configuration in Closed Loop mode, cf product datasheet chapter 15.6.7.1 - Closed-Loop Operation */

  /* Remove the OnDemand mode, Bug http://avr32.icgroup.norway.atmel.com/bugzilla/show_bug.cgi?id=9905 */
  SYSCTRL->DFLLCTRL.bit.ONDEMAND = 0 ;
     2d2:	4a44      	ldr	r2, [pc, #272]	; (3e4 <SystemInit+0x1ac>)
     2d4:	8c93      	ldrh	r3, [r2, #36]	; 0x24
     2d6:	2180      	movs	r1, #128	; 0x80
     2d8:	438b      	bics	r3, r1
     2da:	8493      	strh	r3, [r2, #36]	; 0x24

  while ( (SYSCTRL->PCLKSR.reg & SYSCTRL_PCLKSR_DFLLRDY) == 0 )
     2dc:	46c0      	nop			; (mov r8, r8)
     2de:	4b41      	ldr	r3, [pc, #260]	; (3e4 <SystemInit+0x1ac>)
     2e0:	68db      	ldr	r3, [r3, #12]
     2e2:	2210      	movs	r2, #16
     2e4:	4013      	ands	r3, r2
     2e6:	d0fa      	beq.n	2de <SystemInit+0xa6>
  {
    /* Wait for synchronization */
  }

  SYSCTRL->DFLLMUL.reg = SYSCTRL_DFLLMUL_CSTEP( 31 ) | // Coarse step is 31, half of the max value
     2e8:	4b3e      	ldr	r3, [pc, #248]	; (3e4 <SystemInit+0x1ac>)
     2ea:	4a42      	ldr	r2, [pc, #264]	; (3f4 <SystemInit+0x1bc>)
     2ec:	62da      	str	r2, [r3, #44]	; 0x2c
                         SYSCTRL_DFLLMUL_FSTEP( 511 ) | // Fine step is 511, half of the max value
                         SYSCTRL_DFLLMUL_MUL( (__CLOCK_48MHz/__CLOCK_32KHz) ) ; // External 32KHz is the reference

  while ( (SYSCTRL->PCLKSR.reg & SYSCTRL_PCLKSR_DFLLRDY) == 0 )
     2ee:	46c0      	nop			; (mov r8, r8)
     2f0:	4b3c      	ldr	r3, [pc, #240]	; (3e4 <SystemInit+0x1ac>)
     2f2:	68db      	ldr	r3, [r3, #12]
     2f4:	2210      	movs	r2, #16
     2f6:	4013      	ands	r3, r2
     2f8:	d0fa      	beq.n	2f0 <SystemInit+0xb8>
  {
    /* Wait for synchronization */
  }

  /* Write full configuration to DFLL control register */
  SYSCTRL->DFLLCTRL.reg |= SYSCTRL_DFLLCTRL_MODE | /* Enable the closed loop mode */
     2fa:	4a3a      	ldr	r2, [pc, #232]	; (3e4 <SystemInit+0x1ac>)
     2fc:	4b39      	ldr	r3, [pc, #228]	; (3e4 <SystemInit+0x1ac>)
     2fe:	8c9b      	ldrh	r3, [r3, #36]	; 0x24
     300:	b29b      	uxth	r3, r3
     302:	493d      	ldr	r1, [pc, #244]	; (3f8 <SystemInit+0x1c0>)
     304:	430b      	orrs	r3, r1
     306:	b29b      	uxth	r3, r3
     308:	8493      	strh	r3, [r2, #36]	; 0x24
                           SYSCTRL_DFLLCTRL_WAITLOCK |
                           SYSCTRL_DFLLCTRL_QLDIS ; /* Disable Quick lock */

  while ( (SYSCTRL->PCLKSR.reg & SYSCTRL_PCLKSR_DFLLRDY) == 0 )
     30a:	46c0      	nop			; (mov r8, r8)
     30c:	4b35      	ldr	r3, [pc, #212]	; (3e4 <SystemInit+0x1ac>)
     30e:	68db      	ldr	r3, [r3, #12]
     310:	2210      	movs	r2, #16
     312:	4013      	ands	r3, r2
     314:	d0fa      	beq.n	30c <SystemInit+0xd4>
  {
    /* Wait for synchronization */
  }

  /* Enable the DFLL */
  SYSCTRL->DFLLCTRL.reg |= SYSCTRL_DFLLCTRL_ENABLE ;
     316:	4a33      	ldr	r2, [pc, #204]	; (3e4 <SystemInit+0x1ac>)
     318:	4b32      	ldr	r3, [pc, #200]	; (3e4 <SystemInit+0x1ac>)
     31a:	8c9b      	ldrh	r3, [r3, #36]	; 0x24
     31c:	b29b      	uxth	r3, r3
     31e:	2102      	movs	r1, #2
     320:	430b      	orrs	r3, r1
     322:	b29b      	uxth	r3, r3
     324:	8493      	strh	r3, [r2, #36]	; 0x24

  while ( (SYSCTRL->PCLKSR.reg & SYSCTRL_PCLKSR_DFLLLCKC) == 0 ||
     326:	46c0      	nop			; (mov r8, r8)
     328:	4b2e      	ldr	r3, [pc, #184]	; (3e4 <SystemInit+0x1ac>)
     32a:	68db      	ldr	r3, [r3, #12]
     32c:	2280      	movs	r2, #128	; 0x80
     32e:	4013      	ands	r3, r2
     330:	d0fa      	beq.n	328 <SystemInit+0xf0>
          (SYSCTRL->PCLKSR.reg & SYSCTRL_PCLKSR_DFLLLCKF) == 0 )
     332:	4b2c      	ldr	r3, [pc, #176]	; (3e4 <SystemInit+0x1ac>)
     334:	68db      	ldr	r3, [r3, #12]
     336:	2240      	movs	r2, #64	; 0x40
     338:	4013      	ands	r3, r2
  }

  /* Enable the DFLL */
  SYSCTRL->DFLLCTRL.reg |= SYSCTRL_DFLLCTRL_ENABLE ;

  while ( (SYSCTRL->PCLKSR.reg & SYSCTRL_PCLKSR_DFLLLCKC) == 0 ||
     33a:	d0f5      	beq.n	328 <SystemInit+0xf0>
          (SYSCTRL->PCLKSR.reg & SYSCTRL_PCLKSR_DFLLLCKF) == 0 )
  {
    /* Wait for locks flags */
  }

  while ( (SYSCTRL->PCLKSR.reg & SYSCTRL_PCLKSR_DFLLRDY) == 0 )
     33c:	46c0      	nop			; (mov r8, r8)
     33e:	4b29      	ldr	r3, [pc, #164]	; (3e4 <SystemInit+0x1ac>)
     340:	68db      	ldr	r3, [r3, #12]
     342:	2210      	movs	r2, #16
     344:	4013      	ands	r3, r2
     346:	d0fa      	beq.n	33e <SystemInit+0x106>
  }

  /* ----------------------------------------------------------------------------------------------
   * 5) Switch Generic Clock Generator 0 to DFLL48M. CPU will run at 48MHz.
   */
  GCLK->GENDIV.reg = GCLK_GENDIV_ID( GENERIC_CLOCK_GENERATOR_MAIN ) ; // Generic Clock Generator 0
     348:	4b28      	ldr	r3, [pc, #160]	; (3ec <SystemInit+0x1b4>)
     34a:	2200      	movs	r2, #0
     34c:	609a      	str	r2, [r3, #8]

  while ( GCLK->STATUS.reg & GCLK_STATUS_SYNCBUSY )
     34e:	46c0      	nop			; (mov r8, r8)
     350:	4b26      	ldr	r3, [pc, #152]	; (3ec <SystemInit+0x1b4>)
     352:	785b      	ldrb	r3, [r3, #1]
     354:	b2db      	uxtb	r3, r3
     356:	b25b      	sxtb	r3, r3
     358:	2b00      	cmp	r3, #0
     35a:	dbf9      	blt.n	350 <SystemInit+0x118>
  {
    /* Wait for synchronization */
  }

  /* Write Generic Clock Generator 0 configuration */
  GCLK->GENCTRL.reg = GCLK_GENCTRL_ID( GENERIC_CLOCK_GENERATOR_MAIN ) | // Generic Clock Generator 0
     35c:	4b23      	ldr	r3, [pc, #140]	; (3ec <SystemInit+0x1b4>)
     35e:	4a27      	ldr	r2, [pc, #156]	; (3fc <SystemInit+0x1c4>)
     360:	605a      	str	r2, [r3, #4]
                      GCLK_GENCTRL_SRC_DFLL48M | // Selected source is DFLL 48MHz
//                      GCLK_GENCTRL_OE | // Output clock to a pin for tests
                      GCLK_GENCTRL_IDC | // Set 50/50 duty cycle
                      GCLK_GENCTRL_GENEN ;

  while ( GCLK->STATUS.reg & GCLK_STATUS_SYNCBUSY )
     362:	46c0      	nop			; (mov r8, r8)
     364:	4b21      	ldr	r3, [pc, #132]	; (3ec <SystemInit+0x1b4>)
     366:	785b      	ldrb	r3, [r3, #1]
     368:	b2db      	uxtb	r3, r3
     36a:	b25b      	sxtb	r3, r3
     36c:	2b00      	cmp	r3, #0
     36e:	dbf9      	blt.n	364 <SystemInit+0x12c>
  }

  /* ----------------------------------------------------------------------------------------------
   * 6) Modify PRESCaler value of OSC8M to have 8MHz
   */
  SYSCTRL->OSC8M.bit.PRESC = SYSCTRL_OSC8M_PRESC_0_Val ;
     370:	4a1c      	ldr	r2, [pc, #112]	; (3e4 <SystemInit+0x1ac>)
     372:	6a13      	ldr	r3, [r2, #32]
     374:	4922      	ldr	r1, [pc, #136]	; (400 <SystemInit+0x1c8>)
     376:	400b      	ands	r3, r1
     378:	6213      	str	r3, [r2, #32]
  SYSCTRL->OSC8M.bit.ONDEMAND = 0 ;
     37a:	4a1a      	ldr	r2, [pc, #104]	; (3e4 <SystemInit+0x1ac>)
     37c:	6a13      	ldr	r3, [r2, #32]
     37e:	2180      	movs	r1, #128	; 0x80
     380:	438b      	bics	r3, r1
     382:	6213      	str	r3, [r2, #32]

  /* ----------------------------------------------------------------------------------------------
   * 7) Put OSC8M as source for Generic Clock Generator 3
   */
  GCLK->GENDIV.reg = GCLK_GENDIV_ID( GENERIC_CLOCK_GENERATOR_OSC8M ) ; // Generic Clock Generator 3
     384:	4b19      	ldr	r3, [pc, #100]	; (3ec <SystemInit+0x1b4>)
     386:	2203      	movs	r2, #3
     388:	609a      	str	r2, [r3, #8]

  /* Write Generic Clock Generator 3 configuration */
  GCLK->GENCTRL.reg = GCLK_GENCTRL_ID( GENERIC_CLOCK_GENERATOR_OSC8M ) | // Generic Clock Generator 3
     38a:	4b18      	ldr	r3, [pc, #96]	; (3ec <SystemInit+0x1b4>)
     38c:	4a1d      	ldr	r2, [pc, #116]	; (404 <SystemInit+0x1cc>)
     38e:	605a      	str	r2, [r3, #4]
                      GCLK_GENCTRL_SRC_OSC8M | // Selected source is RC OSC 8MHz (already enabled at reset)
//                      GCLK_GENCTRL_OE | // Output clock to a pin for tests
                      GCLK_GENCTRL_GENEN ;

  while ( GCLK->STATUS.reg & GCLK_STATUS_SYNCBUSY )
     390:	46c0      	nop			; (mov r8, r8)
     392:	4b16      	ldr	r3, [pc, #88]	; (3ec <SystemInit+0x1b4>)
     394:	785b      	ldrb	r3, [r3, #1]
     396:	b2db      	uxtb	r3, r3
     398:	b25b      	sxtb	r3, r3
     39a:	2b00      	cmp	r3, #0
     39c:	dbf9      	blt.n	392 <SystemInit+0x15a>
  }

  /* ----------------------------------------------------------------------------------------------
   * 8) Put OSC8M as source for Generic Clock Generator 2, with freq/8
   */
  GCLK->GENDIV.reg = GCLK_GENDIV_ID( GENERIC_CLOCK_GENERATOR_OSC1M ) | 8 << 8; // Generic Clock Generator 4
     39e:	4b13      	ldr	r3, [pc, #76]	; (3ec <SystemInit+0x1b4>)
     3a0:	4a19      	ldr	r2, [pc, #100]	; (408 <SystemInit+0x1d0>)
     3a2:	609a      	str	r2, [r3, #8]

  /* Write Generic Clock Generator 3 configuration */
  GCLK->GENCTRL.reg = GCLK_GENCTRL_ID( GENERIC_CLOCK_GENERATOR_OSC1M ) | // Generic Clock Generator 4
     3a4:	4b11      	ldr	r3, [pc, #68]	; (3ec <SystemInit+0x1b4>)
     3a6:	4a19      	ldr	r2, [pc, #100]	; (40c <SystemInit+0x1d4>)
     3a8:	605a      	str	r2, [r3, #4]
                      GCLK_GENCTRL_SRC_OSC8M | // Selected source is RC OSC 8MHz (already enabled at reset)
//                      GCLK_GENCTRL_OE | // Output clock to a pin for tests
                      GCLK_GENCTRL_GENEN ;

  while ( GCLK->STATUS.reg & GCLK_STATUS_SYNCBUSY )
     3aa:	46c0      	nop			; (mov r8, r8)
     3ac:	4b0f      	ldr	r3, [pc, #60]	; (3ec <SystemInit+0x1b4>)
     3ae:	785b      	ldrb	r3, [r3, #1]
     3b0:	b2db      	uxtb	r3, r3
     3b2:	b25b      	sxtb	r3, r3
     3b4:	2b00      	cmp	r3, #0
     3b6:	dbf9      	blt.n	3ac <SystemInit+0x174>

  /*
   * Now that all system clocks are configured, we can set CPU and APBx BUS clocks.
   * There values are normally the one present after Reset.
   */
  PM->CPUSEL.reg  = PM_CPUSEL_CPUDIV_DIV1 ;
     3b8:	4b09      	ldr	r3, [pc, #36]	; (3e0 <SystemInit+0x1a8>)
     3ba:	2200      	movs	r2, #0
     3bc:	721a      	strb	r2, [r3, #8]
  PM->APBASEL.reg = PM_APBASEL_APBADIV_DIV1_Val ;
     3be:	4b08      	ldr	r3, [pc, #32]	; (3e0 <SystemInit+0x1a8>)
     3c0:	2200      	movs	r2, #0
     3c2:	725a      	strb	r2, [r3, #9]
  PM->APBBSEL.reg = PM_APBBSEL_APBBDIV_DIV1_Val ;
     3c4:	4b06      	ldr	r3, [pc, #24]	; (3e0 <SystemInit+0x1a8>)
     3c6:	2200      	movs	r2, #0
     3c8:	729a      	strb	r2, [r3, #10]
  PM->APBCSEL.reg = PM_APBCSEL_APBCDIV_DIV1_Val ;
     3ca:	4b05      	ldr	r3, [pc, #20]	; (3e0 <SystemInit+0x1a8>)
     3cc:	2200      	movs	r2, #0
     3ce:	72da      	strb	r2, [r3, #11]

  SystemCoreClock=__CLOCK_48MHz ;
     3d0:	4b0f      	ldr	r3, [pc, #60]	; (410 <SystemInit+0x1d8>)
     3d2:	4a10      	ldr	r2, [pc, #64]	; (414 <SystemInit+0x1dc>)
     3d4:	601a      	str	r2, [r3, #0]

	return;
     3d6:	46c0      	nop			; (mov r8, r8)
}
     3d8:	46bd      	mov	sp, r7
     3da:	bd80      	pop	{r7, pc}
     3dc:	41004000 	.word	0x41004000
     3e0:	40000400 	.word	0x40000400
     3e4:	40000800 	.word	0x40000800
     3e8:	0000060c 	.word	0x0000060c
     3ec:	40000c00 	.word	0x40000c00
     3f0:	00010501 	.word	0x00010501
     3f4:	7dff05dc 	.word	0x7dff05dc
     3f8:	00000a04 	.word	0x00000a04
     3fc:	00030700 	.word	0x00030700
     400:	fffffcff 	.word	0xfffffcff
     404:	00010603 	.word	0x00010603
     408:	00000804 	.word	0x00000804
     40c:	00010604 	.word	0x00010604
     410:	20000000 	.word	0x20000000
     414:	02dc6c00 	.word	0x02dc6c00

00000418 <ADCInit>:
#include "adc.h"
#include "clock.h"
#include "pinMux.h"
#include "pinAccess.h"

int ADCInit() {
     418:	b5f0      	push	{r4, r5, r6, r7, lr}
     41a:	af00      	add	r7, sp, #0
	//Power Management.
	PM->APBCMASK.reg |= 1 << 16; //ADC
     41c:	4b1e      	ldr	r3, [pc, #120]	; (498 <ADCInit+0x80>)
     41e:	481e      	ldr	r0, [pc, #120]	; (498 <ADCInit+0x80>)
     420:	6a00      	ldr	r0, [r0, #32]
     422:	2480      	movs	r4, #128	; 0x80
     424:	0264      	lsls	r4, r4, #9
     426:	4320      	orrs	r0, r4
     428:	6218      	str	r0, [r3, #32]
	
	//horloge: generateur 3 (8MHz)
	GCLK->CLKCTRL.reg = 1 <<14 | //enable
     42a:	4b1c      	ldr	r3, [pc, #112]	; (49c <ADCInit+0x84>)
     42c:	481c      	ldr	r0, [pc, #112]	; (4a0 <ADCInit+0x88>)
     42e:	8058      	strh	r0, [r3, #2]
						F8MHZ << 8 | //generator
						0x1E;	 //ADC
	//calibration d'usine:
	ADC->CALIB.reg =
     430:	4e1c      	ldr	r6, [pc, #112]	; (4a4 <ADCInit+0x8c>)
		ADC_CALIB_BIAS_CAL(
     432:	4b1d      	ldr	r3, [pc, #116]	; (4a8 <ADCInit+0x90>)
     434:	681b      	ldr	r3, [r3, #0]
     436:	08db      	lsrs	r3, r3, #3
	//horloge: generateur 3 (8MHz)
	GCLK->CLKCTRL.reg = 1 <<14 | //enable
						F8MHZ << 8 | //generator
						0x1E;	 //ADC
	//calibration d'usine:
	ADC->CALIB.reg =
     438:	b29b      	uxth	r3, r3
     43a:	021b      	lsls	r3, r3, #8
     43c:	b298      	uxth	r0, r3
     43e:	23e0      	movs	r3, #224	; 0xe0
     440:	00db      	lsls	r3, r3, #3
     442:	4003      	ands	r3, r0
     444:	b298      	uxth	r0, r3
		ADC_CALIB_BIAS_CAL(
			(*(uint32_t *)ADC_FUSES_BIASCAL_ADDR >> ADC_FUSES_BIASCAL_Pos)
		) |
		ADC_CALIB_LINEARITY_CAL(
     446:	4b19      	ldr	r3, [pc, #100]	; (4ac <ADCInit+0x94>)
     448:	685c      	ldr	r4, [r3, #4]
     44a:	681b      	ldr	r3, [r3, #0]
     44c:	0165      	lsls	r5, r4, #5
     44e:	0ed9      	lsrs	r1, r3, #27
     450:	4329      	orrs	r1, r5
     452:	0ee2      	lsrs	r2, r4, #27
	//horloge: generateur 3 (8MHz)
	GCLK->CLKCTRL.reg = 1 <<14 | //enable
						F8MHZ << 8 | //generator
						0x1E;	 //ADC
	//calibration d'usine:
	ADC->CALIB.reg =
     454:	b28b      	uxth	r3, r1
     456:	22ff      	movs	r2, #255	; 0xff
     458:	4013      	ands	r3, r2
     45a:	b29b      	uxth	r3, r3
     45c:	4303      	orrs	r3, r0
     45e:	b29b      	uxth	r3, r3
     460:	8533      	strh	r3, [r6, #40]	; 0x28
		ADC_CALIB_LINEARITY_CAL(
			(*(uint64_t *)ADC_FUSES_LINEARITY_0_ADDR >> ADC_FUSES_LINEARITY_0_Pos)
	);

	//config ADC
	ADC->REFCTRL.reg |= 0x2; // ref analogique: 1/2 VDDANA
     462:	4a10      	ldr	r2, [pc, #64]	; (4a4 <ADCInit+0x8c>)
     464:	4b0f      	ldr	r3, [pc, #60]	; (4a4 <ADCInit+0x8c>)
     466:	785b      	ldrb	r3, [r3, #1]
     468:	b2db      	uxtb	r3, r3
     46a:	2102      	movs	r1, #2
     46c:	430b      	orrs	r3, r1
     46e:	b2db      	uxtb	r3, r3
     470:	7053      	strb	r3, [r2, #1]
	ADC->CTRLB.reg = 1 << 8; // clk/8 (=> 1MHz)
     472:	4b0c      	ldr	r3, [pc, #48]	; (4a4 <ADCInit+0x8c>)
     474:	2280      	movs	r2, #128	; 0x80
     476:	0052      	lsls	r2, r2, #1
     478:	809a      	strh	r2, [r3, #4]
	ADC->INPUTCTRL.reg =	0xF << 24 | //gain/2
     47a:	4b0a      	ldr	r3, [pc, #40]	; (4a4 <ADCInit+0x8c>)
     47c:	4a0c      	ldr	r2, [pc, #48]	; (4b0 <ADCInit+0x98>)
     47e:	611a      	str	r2, [r3, #16]
							0x18 << 8 | //ref negative: GND
							0x7  << 0;  //ref positive: ADC AIN7 pin
	//démarrage de l'ADC.
	ADC->CTRLA.reg |= 1<<1; //enable
     480:	4a08      	ldr	r2, [pc, #32]	; (4a4 <ADCInit+0x8c>)
     482:	4b08      	ldr	r3, [pc, #32]	; (4a4 <ADCInit+0x8c>)
     484:	781b      	ldrb	r3, [r3, #0]
     486:	b2db      	uxtb	r3, r3
     488:	2102      	movs	r1, #2
     48a:	430b      	orrs	r3, r1
     48c:	b2db      	uxtb	r3, r3
     48e:	7013      	strb	r3, [r2, #0]
	return 0;	
     490:	2300      	movs	r3, #0
}
     492:	0018      	movs	r0, r3
     494:	46bd      	mov	sp, r7
     496:	bdf0      	pop	{r4, r5, r6, r7, pc}
     498:	40000400 	.word	0x40000400
     49c:	40000c00 	.word	0x40000c00
     4a0:	0000431e 	.word	0x0000431e
     4a4:	42004000 	.word	0x42004000
     4a8:	00806024 	.word	0x00806024
     4ac:	00806020 	.word	0x00806020
     4b0:	0f001807 	.word	0x0f001807

000004b4 <EICConfig>:
#include "pinMux.h"

int EICConfig(unsigned char eicNum,
              unsigned char withFilter,
              unsigned char edgeType)
{
     4b4:	b590      	push	{r4, r7, lr}
     4b6:	b089      	sub	sp, #36	; 0x24
     4b8:	af00      	add	r7, sp, #0
     4ba:	0004      	movs	r4, r0
     4bc:	0008      	movs	r0, r1
     4be:	0011      	movs	r1, r2
     4c0:	1dfb      	adds	r3, r7, #7
     4c2:	1c22      	adds	r2, r4, #0
     4c4:	701a      	strb	r2, [r3, #0]
     4c6:	1dbb      	adds	r3, r7, #6
     4c8:	1c02      	adds	r2, r0, #0
     4ca:	701a      	strb	r2, [r3, #0]
     4cc:	1d7b      	adds	r3, r7, #5
     4ce:	1c0a      	adds	r2, r1, #0
     4d0:	701a      	strb	r2, [r3, #0]
	int result = 0;
     4d2:	2300      	movs	r3, #0
     4d4:	61fb      	str	r3, [r7, #28]
	if((eicNum>15) || (edgeType>3)) result = 1;
     4d6:	1dfb      	adds	r3, r7, #7
     4d8:	781b      	ldrb	r3, [r3, #0]
     4da:	2b0f      	cmp	r3, #15
     4dc:	d803      	bhi.n	4e6 <EICConfig+0x32>
     4de:	1d7b      	adds	r3, r7, #5
     4e0:	781b      	ldrb	r3, [r3, #0]
     4e2:	2b03      	cmp	r3, #3
     4e4:	d902      	bls.n	4ec <EICConfig+0x38>
     4e6:	2301      	movs	r3, #1
     4e8:	61fb      	str	r3, [r7, #28]
     4ea:	e044      	b.n	576 <EICConfig+0xc2>
	else {
		//arguments vérifiés
		const int configIndex = eicNum >> 3; // <=> div par 8
     4ec:	1dfb      	adds	r3, r7, #7
     4ee:	781b      	ldrb	r3, [r3, #0]
     4f0:	08db      	lsrs	r3, r3, #3
     4f2:	b2db      	uxtb	r3, r3
     4f4:	617b      	str	r3, [r7, #20]
		const int offset = (eicNum & 0x7) << 2;
     4f6:	1dfb      	adds	r3, r7, #7
     4f8:	781b      	ldrb	r3, [r3, #0]
     4fa:	009b      	lsls	r3, r3, #2
     4fc:	221c      	movs	r2, #28
     4fe:	4013      	ands	r3, r2
     500:	613b      	str	r3, [r7, #16]
		//RAZ config precedente
		const int mask = 0xF << offset; //4 bits
     502:	220f      	movs	r2, #15
     504:	693b      	ldr	r3, [r7, #16]
     506:	409a      	lsls	r2, r3
     508:	0013      	movs	r3, r2
     50a:	60fb      	str	r3, [r7, #12]
		EIC->CONFIG[configIndex].reg &= ~mask;
     50c:	491c      	ldr	r1, [pc, #112]	; (580 <EICConfig+0xcc>)
     50e:	4a1c      	ldr	r2, [pc, #112]	; (580 <EICConfig+0xcc>)
     510:	697b      	ldr	r3, [r7, #20]
     512:	3306      	adds	r3, #6
     514:	009b      	lsls	r3, r3, #2
     516:	589b      	ldr	r3, [r3, r2]
     518:	68fa      	ldr	r2, [r7, #12]
     51a:	43d2      	mvns	r2, r2
     51c:	401a      	ands	r2, r3
     51e:	697b      	ldr	r3, [r7, #20]
     520:	3306      	adds	r3, #6
     522:	009b      	lsls	r3, r3, #2
     524:	505a      	str	r2, [r3, r1]
		//choix nouvelle config
		int config = 0;
     526:	2300      	movs	r3, #0
     528:	61bb      	str	r3, [r7, #24]
		if(withFilter) config |= 8;
     52a:	1dbb      	adds	r3, r7, #6
     52c:	781b      	ldrb	r3, [r3, #0]
     52e:	2b00      	cmp	r3, #0
     530:	d003      	beq.n	53a <EICConfig+0x86>
     532:	69bb      	ldr	r3, [r7, #24]
     534:	2208      	movs	r2, #8
     536:	4313      	orrs	r3, r2
     538:	61bb      	str	r3, [r7, #24]
		config |= edgeType;
     53a:	1d7b      	adds	r3, r7, #5
     53c:	781b      	ldrb	r3, [r3, #0]
     53e:	69ba      	ldr	r2, [r7, #24]
     540:	4313      	orrs	r3, r2
     542:	61bb      	str	r3, [r7, #24]
		EIC->CONFIG[configIndex].reg |= config << offset;
     544:	480e      	ldr	r0, [pc, #56]	; (580 <EICConfig+0xcc>)
     546:	4a0e      	ldr	r2, [pc, #56]	; (580 <EICConfig+0xcc>)
     548:	697b      	ldr	r3, [r7, #20]
     54a:	3306      	adds	r3, #6
     54c:	009b      	lsls	r3, r3, #2
     54e:	589b      	ldr	r3, [r3, r2]
     550:	69b9      	ldr	r1, [r7, #24]
     552:	693a      	ldr	r2, [r7, #16]
     554:	4091      	lsls	r1, r2
     556:	000a      	movs	r2, r1
     558:	431a      	orrs	r2, r3
     55a:	697b      	ldr	r3, [r7, #20]
     55c:	3306      	adds	r3, #6
     55e:	009b      	lsls	r3, r3, #2
     560:	501a      	str	r2, [r3, r0]
		//validation de l'entrée externe
		EIC->INTENSET.reg = 1<<eicNum;
     562:	4b07      	ldr	r3, [pc, #28]	; (580 <EICConfig+0xcc>)
     564:	1dfa      	adds	r2, r7, #7
     566:	7812      	ldrb	r2, [r2, #0]
     568:	2101      	movs	r1, #1
     56a:	4091      	lsls	r1, r2
     56c:	000a      	movs	r2, r1
     56e:	60da      	str	r2, [r3, #12]
		//démarrage du module
		EIC->CTRL.reg = 2;
     570:	4b03      	ldr	r3, [pc, #12]	; (580 <EICConfig+0xcc>)
     572:	2202      	movs	r2, #2
     574:	701a      	strb	r2, [r3, #0]
	}
	return result;
     576:	69fb      	ldr	r3, [r7, #28]
}
     578:	0018      	movs	r0, r3
     57a:	46bd      	mov	sp, r7
     57c:	b009      	add	sp, #36	; 0x24
     57e:	bd90      	pop	{r4, r7, pc}
     580:	40001800 	.word	0x40001800

00000584 <EICInitClock>:

int EICInitClock(int source)
{
     584:	b580      	push	{r7, lr}
     586:	b084      	sub	sp, #16
     588:	af00      	add	r7, sp, #0
     58a:	6078      	str	r0, [r7, #4]
	int result = 0;
     58c:	2300      	movs	r3, #0
     58e:	60fb      	str	r3, [r7, #12]
	if(source > 4) result = 1;
     590:	687b      	ldr	r3, [r7, #4]
     592:	2b04      	cmp	r3, #4
     594:	dd02      	ble.n	59c <EICInitClock+0x18>
     596:	2301      	movs	r3, #1
     598:	60fb      	str	r3, [r7, #12]
     59a:	e008      	b.n	5ae <EICInitClock+0x2a>
	else {
		//pas de power management (PM), car validé par défaut.
		//clock control
		GCLK->CLKCTRL.reg = 1 <<14 | //enable
     59c:	4a06      	ldr	r2, [pc, #24]	; (5b8 <EICInitClock+0x34>)
							source << 8 | //generator
     59e:	687b      	ldr	r3, [r7, #4]
     5a0:	021b      	lsls	r3, r3, #8
	int result = 0;
	if(source > 4) result = 1;
	else {
		//pas de power management (PM), car validé par défaut.
		//clock control
		GCLK->CLKCTRL.reg = 1 <<14 | //enable
     5a2:	b21b      	sxth	r3, r3
     5a4:	4905      	ldr	r1, [pc, #20]	; (5bc <EICInitClock+0x38>)
     5a6:	430b      	orrs	r3, r1
     5a8:	b21b      	sxth	r3, r3
     5aa:	b29b      	uxth	r3, r3
     5ac:	8053      	strh	r3, [r2, #2]
							source << 8 | //generator
							5; //peripheral associated -> EIC
	}
	return result;
     5ae:	68fb      	ldr	r3, [r7, #12]
}
     5b0:	0018      	movs	r0, r3
     5b2:	46bd      	mov	sp, r7
     5b4:	b004      	add	sp, #16
     5b6:	bd80      	pop	{r7, pc}
     5b8:	40000c00 	.word	0x40000c00
     5bc:	00004005 	.word	0x00004005

000005c0 <ssd1306_set_page_address>:
 * RAM.
 *
 * \param address the page address
 */
static inline void ssd1306_set_page_address(uint8_t address)
{
     5c0:	b580      	push	{r7, lr}
     5c2:	b082      	sub	sp, #8
     5c4:	af00      	add	r7, sp, #0
     5c6:	0002      	movs	r2, r0
     5c8:	1dfb      	adds	r3, r7, #7
     5ca:	701a      	strb	r2, [r3, #0]
	// Make sure that the address is 4 bits (only 8 pages)
	address &= 0x0F;
     5cc:	1dfb      	adds	r3, r7, #7
     5ce:	1dfa      	adds	r2, r7, #7
     5d0:	7812      	ldrb	r2, [r2, #0]
     5d2:	210f      	movs	r1, #15
     5d4:	400a      	ands	r2, r1
     5d6:	701a      	strb	r2, [r3, #0]
	ssd1306_write_command(SSD1306_CMD_SET_PAGE_START_ADDRESS(address));
     5d8:	1dfb      	adds	r3, r7, #7
     5da:	781b      	ldrb	r3, [r3, #0]
     5dc:	2250      	movs	r2, #80	; 0x50
     5de:	4252      	negs	r2, r2
     5e0:	4313      	orrs	r3, r2
     5e2:	b2db      	uxtb	r3, r3
     5e4:	0018      	movs	r0, r3
     5e6:	4b03      	ldr	r3, [pc, #12]	; (5f4 <ssd1306_set_page_address+0x34>)
     5e8:	4798      	blx	r3
}
     5ea:	46c0      	nop			; (mov r8, r8)
     5ec:	46bd      	mov	sp, r7
     5ee:	b002      	add	sp, #8
     5f0:	bd80      	pop	{r7, pc}
     5f2:	46c0      	nop			; (mov r8, r8)
     5f4:	000009e5 	.word	0x000009e5

000005f8 <ssd1306_set_column_address>:
 * \brief Set current column in display RAM
 *
 * \param address the column address
 */
static inline void ssd1306_set_column_address(uint8_t address)
{
     5f8:	b580      	push	{r7, lr}
     5fa:	b082      	sub	sp, #8
     5fc:	af00      	add	r7, sp, #0
     5fe:	0002      	movs	r2, r0
     600:	1dfb      	adds	r3, r7, #7
     602:	701a      	strb	r2, [r3, #0]
	// Make sure the address is 7 bits
	address &= 0x7F;
     604:	1dfb      	adds	r3, r7, #7
     606:	1dfa      	adds	r2, r7, #7
     608:	7812      	ldrb	r2, [r2, #0]
     60a:	217f      	movs	r1, #127	; 0x7f
     60c:	400a      	ands	r2, r1
     60e:	701a      	strb	r2, [r3, #0]
	ssd1306_write_command(SSD1306_CMD_COL_ADD_SET_MSB(address >> 4));
     610:	1dfb      	adds	r3, r7, #7
     612:	781b      	ldrb	r3, [r3, #0]
     614:	091b      	lsrs	r3, r3, #4
     616:	b2db      	uxtb	r3, r3
     618:	2210      	movs	r2, #16
     61a:	4313      	orrs	r3, r2
     61c:	b2db      	uxtb	r3, r3
     61e:	0018      	movs	r0, r3
     620:	4b06      	ldr	r3, [pc, #24]	; (63c <ssd1306_set_column_address+0x44>)
     622:	4798      	blx	r3
	ssd1306_write_command(SSD1306_CMD_COL_ADD_SET_LSB(address & 0x0F));
     624:	1dfb      	adds	r3, r7, #7
     626:	781b      	ldrb	r3, [r3, #0]
     628:	220f      	movs	r2, #15
     62a:	4013      	ands	r3, r2
     62c:	b2db      	uxtb	r3, r3
     62e:	0018      	movs	r0, r3
     630:	4b02      	ldr	r3, [pc, #8]	; (63c <ssd1306_set_column_address+0x44>)
     632:	4798      	blx	r3
}
     634:	46c0      	nop			; (mov r8, r8)
     636:	46bd      	mov	sp, r7
     638:	b002      	add	sp, #8
     63a:	bd80      	pop	{r7, pc}
     63c:	000009e5 	.word	0x000009e5

00000640 <ssd1306_set_display_start_line_address>:
 * \brief Set the display start draw line address
 *
 * This function will set which line should be the start draw line for the OLED.
 */
static inline void ssd1306_set_display_start_line_address(uint8_t address)
{
     640:	b580      	push	{r7, lr}
     642:	b082      	sub	sp, #8
     644:	af00      	add	r7, sp, #0
     646:	0002      	movs	r2, r0
     648:	1dfb      	adds	r3, r7, #7
     64a:	701a      	strb	r2, [r3, #0]
	// Make sure address is 6 bits
	address &= 0x3F;
     64c:	1dfb      	adds	r3, r7, #7
     64e:	1dfa      	adds	r2, r7, #7
     650:	7812      	ldrb	r2, [r2, #0]
     652:	213f      	movs	r1, #63	; 0x3f
     654:	400a      	ands	r2, r1
     656:	701a      	strb	r2, [r3, #0]
	ssd1306_write_command(SSD1306_CMD_SET_DISPLAY_START_LINE(address));
     658:	1dfb      	adds	r3, r7, #7
     65a:	781b      	ldrb	r3, [r3, #0]
     65c:	2240      	movs	r2, #64	; 0x40
     65e:	4313      	orrs	r3, r2
     660:	b2db      	uxtb	r3, r3
     662:	0018      	movs	r0, r3
     664:	4b02      	ldr	r3, [pc, #8]	; (670 <ssd1306_set_display_start_line_address+0x30>)
     666:	4798      	blx	r3
}
     668:	46c0      	nop			; (mov r8, r8)
     66a:	46bd      	mov	sp, r7
     66c:	b002      	add	sp, #8
     66e:	bd80      	pop	{r7, pc}
     670:	000009e5 	.word	0x000009e5

00000674 <ssd1306_display_on>:
 * \brief Turn the OLED display on
 *
 * This function will turn on the OLED.
 */
static inline void ssd1306_display_on(void)
{
     674:	b580      	push	{r7, lr}
     676:	af00      	add	r7, sp, #0
	ssd1306_write_command(SSD1306_CMD_SET_DISPLAY_ON);
     678:	20af      	movs	r0, #175	; 0xaf
     67a:	4b02      	ldr	r3, [pc, #8]	; (684 <ssd1306_display_on+0x10>)
     67c:	4798      	blx	r3
}
     67e:	46c0      	nop			; (mov r8, r8)
     680:	46bd      	mov	sp, r7
     682:	bd80      	pop	{r7, pc}
     684:	000009e5 	.word	0x000009e5

00000688 <ssd1306_set_contrast>:
 * \param contrast a number between 0 and 0xFF
 *
 * \retval contrast the contrast value written to the OLED controller
 */
static inline uint8_t ssd1306_set_contrast(uint8_t contrast)
{
     688:	b580      	push	{r7, lr}
     68a:	b082      	sub	sp, #8
     68c:	af00      	add	r7, sp, #0
     68e:	0002      	movs	r2, r0
     690:	1dfb      	adds	r3, r7, #7
     692:	701a      	strb	r2, [r3, #0]
	ssd1306_write_command(SSD1306_CMD_SET_CONTRAST_CONTROL_FOR_BANK0);
     694:	2081      	movs	r0, #129	; 0x81
     696:	4b06      	ldr	r3, [pc, #24]	; (6b0 <ssd1306_set_contrast+0x28>)
     698:	4798      	blx	r3
	ssd1306_write_command(contrast);
     69a:	1dfb      	adds	r3, r7, #7
     69c:	781b      	ldrb	r3, [r3, #0]
     69e:	0018      	movs	r0, r3
     6a0:	4b03      	ldr	r3, [pc, #12]	; (6b0 <ssd1306_set_contrast+0x28>)
     6a2:	4798      	blx	r3
	return contrast;
     6a4:	1dfb      	adds	r3, r7, #7
     6a6:	781b      	ldrb	r3, [r3, #0]
}
     6a8:	0018      	movs	r0, r3
     6aa:	46bd      	mov	sp, r7
     6ac:	b002      	add	sp, #8
     6ae:	bd80      	pop	{r7, pc}
     6b0:	000009e5 	.word	0x000009e5

000006b4 <ssd1306_display_invert_disable>:
 *
 * This function will disable invert on all pixels on the OLED
 *
 */
static inline void ssd1306_display_invert_disable(void)
{
     6b4:	b580      	push	{r7, lr}
     6b6:	af00      	add	r7, sp, #0
	ssd1306_write_command(SSD1306_CMD_SET_NORMAL_DISPLAY);
     6b8:	20a6      	movs	r0, #166	; 0xa6
     6ba:	4b02      	ldr	r3, [pc, #8]	; (6c4 <ssd1306_display_invert_disable+0x10>)
     6bc:	4798      	blx	r3
}
     6be:	46c0      	nop			; (mov r8, r8)
     6c0:	46bd      	mov	sp, r7
     6c2:	bd80      	pop	{r7, pc}
     6c4:	000009e5 	.word	0x000009e5

000006c8 <OLEDInit>:
//IUT de Nantes, dept GEII.
//toutes ces fonctions commencent par 'OLED'
//****************************************************************************
//taile des carateres: largeur 6, hauteur 7
void OLEDInit(unsigned char withLogo)
{
     6c8:	b590      	push	{r4, r7, lr}
     6ca:	b083      	sub	sp, #12
     6cc:	af00      	add	r7, sp, #0
     6ce:	0002      	movs	r2, r0
     6d0:	1dfb      	adds	r3, r7, #7
     6d2:	701a      	strb	r2, [r3, #0]
	gfx_mono_init();
     6d4:	4b10      	ldr	r3, [pc, #64]	; (718 <OLEDInit+0x50>)
     6d6:	4798      	blx	r3
	if(withLogo)
     6d8:	1dfb      	adds	r3, r7, #7
     6da:	781b      	ldrb	r3, [r3, #0]
     6dc:	2b00      	cmp	r3, #0
     6de:	d017      	beq.n	710 <OLEDInit+0x48>
	{
		//logo IUT!
		gfx_mono_generic_put_bitmap(&logoIUT,0,0);
     6e0:	4b0e      	ldr	r3, [pc, #56]	; (71c <OLEDInit+0x54>)
     6e2:	2200      	movs	r2, #0
     6e4:	2100      	movs	r1, #0
     6e6:	0018      	movs	r0, r3
     6e8:	4b0d      	ldr	r3, [pc, #52]	; (720 <OLEDInit+0x58>)
     6ea:	4798      	blx	r3
		gfx_mono_draw_string("IUT de Nantes",43,2,&sysfont);
     6ec:	4b0d      	ldr	r3, [pc, #52]	; (724 <OLEDInit+0x5c>)
     6ee:	480e      	ldr	r0, [pc, #56]	; (728 <OLEDInit+0x60>)
     6f0:	2202      	movs	r2, #2
     6f2:	212b      	movs	r1, #43	; 0x2b
     6f4:	4c0d      	ldr	r4, [pc, #52]	; (72c <OLEDInit+0x64>)
     6f6:	47a0      	blx	r4
		gfx_mono_draw_string("Dept GEII",53,19,&sysfont);
     6f8:	4b0a      	ldr	r3, [pc, #40]	; (724 <OLEDInit+0x5c>)
     6fa:	480d      	ldr	r0, [pc, #52]	; (730 <OLEDInit+0x68>)
     6fc:	2213      	movs	r2, #19
     6fe:	2135      	movs	r1, #53	; 0x35
     700:	4c0a      	ldr	r4, [pc, #40]	; (72c <OLEDInit+0x64>)
     702:	47a0      	blx	r4
		gfx_mono_draw_horizontal_line(63,29,34,GFX_PIXEL_SET);
     704:	2301      	movs	r3, #1
     706:	2222      	movs	r2, #34	; 0x22
     708:	211d      	movs	r1, #29
     70a:	203f      	movs	r0, #63	; 0x3f
     70c:	4c09      	ldr	r4, [pc, #36]	; (734 <OLEDInit+0x6c>)
     70e:	47a0      	blx	r4
	}
}
     710:	46c0      	nop			; (mov r8, r8)
     712:	46bd      	mov	sp, r7
     714:	b003      	add	sp, #12
     716:	bd90      	pop	{r4, r7, pc}
     718:	0000122d 	.word	0x0000122d
     71c:	20000004 	.word	0x20000004
     720:	00000e51 	.word	0x00000e51
     724:	2000000c 	.word	0x2000000c
     728:	0000b8cc 	.word	0x0000b8cc
     72c:	00001179 	.word	0x00001179
     730:	0000b8dc 	.word	0x0000b8dc
     734:	00000c19 	.word	0x00000c19

00000738 <OLEDSetLine>:

void OLEDSetLine(int line)
{
     738:	b580      	push	{r7, lr}
     73a:	b082      	sub	sp, #8
     73c:	af00      	add	r7, sp, #0
     73e:	6078      	str	r0, [r7, #4]
	if(line > 3) return; //valeur entre 0 et 3.
     740:	687b      	ldr	r3, [r7, #4]
     742:	2b03      	cmp	r3, #3
     744:	dc07      	bgt.n	756 <OLEDSetLine+0x1e>
	__oledCurseurY = line*8;
     746:	687b      	ldr	r3, [r7, #4]
     748:	00da      	lsls	r2, r3, #3
     74a:	4b05      	ldr	r3, [pc, #20]	; (760 <OLEDSetLine+0x28>)
     74c:	601a      	str	r2, [r3, #0]
	__oledCurseurX = 0;
     74e:	4b05      	ldr	r3, [pc, #20]	; (764 <OLEDSetLine+0x2c>)
     750:	2200      	movs	r2, #0
     752:	601a      	str	r2, [r3, #0]
     754:	e000      	b.n	758 <OLEDSetLine+0x20>
	}
}

void OLEDSetLine(int line)
{
	if(line > 3) return; //valeur entre 0 et 3.
     756:	46c0      	nop			; (mov r8, r8)
	__oledCurseurY = line*8;
	__oledCurseurX = 0;
}
     758:	46bd      	mov	sp, r7
     75a:	b002      	add	sp, #8
     75c:	bd80      	pop	{r7, pc}
     75e:	46c0      	nop			; (mov r8, r8)
     760:	20000b20 	.word	0x20000b20
     764:	20000b24 	.word	0x20000b24

00000768 <OLEDPrintChar>:
		__oledCurseurX = pos;
	}
}

void OLEDPrintChar(char car)
{
     768:	b590      	push	{r4, r7, lr}
     76a:	b083      	sub	sp, #12
     76c:	af00      	add	r7, sp, #0
     76e:	0002      	movs	r2, r0
     770:	1dfb      	adds	r3, r7, #7
     772:	701a      	strb	r2, [r3, #0]
	if(car == '\n') {
     774:	1dfb      	adds	r3, r7, #7
     776:	781b      	ldrb	r3, [r3, #0]
     778:	2b0a      	cmp	r3, #10
     77a:	d111      	bne.n	7a0 <OLEDPrintChar+0x38>
		//passage à la ligne
		__oledCurseurX = 0;
     77c:	4b1d      	ldr	r3, [pc, #116]	; (7f4 <OLEDPrintChar+0x8c>)
     77e:	2200      	movs	r2, #0
     780:	601a      	str	r2, [r3, #0]
		__oledCurseurY = (__oledCurseurY+8)%32;
     782:	4b1d      	ldr	r3, [pc, #116]	; (7f8 <OLEDPrintChar+0x90>)
     784:	681b      	ldr	r3, [r3, #0]
     786:	3308      	adds	r3, #8
     788:	4a1c      	ldr	r2, [pc, #112]	; (7fc <OLEDPrintChar+0x94>)
     78a:	4013      	ands	r3, r2
     78c:	d504      	bpl.n	798 <OLEDPrintChar+0x30>
     78e:	3b01      	subs	r3, #1
     790:	2220      	movs	r2, #32
     792:	4252      	negs	r2, r2
     794:	4313      	orrs	r3, r2
     796:	3301      	adds	r3, #1
     798:	001a      	movs	r2, r3
     79a:	4b17      	ldr	r3, [pc, #92]	; (7f8 <OLEDPrintChar+0x90>)
     79c:	601a      	str	r2, [r3, #0]
			//passage à la ligne.
			__oledCurseurX = 0;
			__oledCurseurY = (__oledCurseurY+8)%32;
		}
	}
}
     79e:	e025      	b.n	7ec <OLEDPrintChar+0x84>
	if(car == '\n') {
		//passage à la ligne
		__oledCurseurX = 0;
		__oledCurseurY = (__oledCurseurY+8)%32;
	} else {
		gfx_mono_draw_char(car,__oledCurseurX,__oledCurseurY,&sysfont);
     7a0:	4b14      	ldr	r3, [pc, #80]	; (7f4 <OLEDPrintChar+0x8c>)
     7a2:	681b      	ldr	r3, [r3, #0]
     7a4:	b2d9      	uxtb	r1, r3
     7a6:	4b14      	ldr	r3, [pc, #80]	; (7f8 <OLEDPrintChar+0x90>)
     7a8:	681b      	ldr	r3, [r3, #0]
     7aa:	b2da      	uxtb	r2, r3
     7ac:	4c14      	ldr	r4, [pc, #80]	; (800 <OLEDPrintChar+0x98>)
     7ae:	1dfb      	adds	r3, r7, #7
     7b0:	7818      	ldrb	r0, [r3, #0]
     7b2:	0023      	movs	r3, r4
     7b4:	4c13      	ldr	r4, [pc, #76]	; (804 <OLEDPrintChar+0x9c>)
     7b6:	47a0      	blx	r4
		__oledCurseurX += SYSFONT_WIDTH;
     7b8:	4b0e      	ldr	r3, [pc, #56]	; (7f4 <OLEDPrintChar+0x8c>)
     7ba:	681b      	ldr	r3, [r3, #0]
     7bc:	1d9a      	adds	r2, r3, #6
     7be:	4b0d      	ldr	r3, [pc, #52]	; (7f4 <OLEDPrintChar+0x8c>)
     7c0:	601a      	str	r2, [r3, #0]
		if(__oledCurseurX >= 128) 
     7c2:	4b0c      	ldr	r3, [pc, #48]	; (7f4 <OLEDPrintChar+0x8c>)
     7c4:	681b      	ldr	r3, [r3, #0]
     7c6:	2b7f      	cmp	r3, #127	; 0x7f
     7c8:	dd10      	ble.n	7ec <OLEDPrintChar+0x84>
		{
			//passage à la ligne.
			__oledCurseurX = 0;
     7ca:	4b0a      	ldr	r3, [pc, #40]	; (7f4 <OLEDPrintChar+0x8c>)
     7cc:	2200      	movs	r2, #0
     7ce:	601a      	str	r2, [r3, #0]
			__oledCurseurY = (__oledCurseurY+8)%32;
     7d0:	4b09      	ldr	r3, [pc, #36]	; (7f8 <OLEDPrintChar+0x90>)
     7d2:	681b      	ldr	r3, [r3, #0]
     7d4:	3308      	adds	r3, #8
     7d6:	4a09      	ldr	r2, [pc, #36]	; (7fc <OLEDPrintChar+0x94>)
     7d8:	4013      	ands	r3, r2
     7da:	d504      	bpl.n	7e6 <OLEDPrintChar+0x7e>
     7dc:	3b01      	subs	r3, #1
     7de:	2220      	movs	r2, #32
     7e0:	4252      	negs	r2, r2
     7e2:	4313      	orrs	r3, r2
     7e4:	3301      	adds	r3, #1
     7e6:	001a      	movs	r2, r3
     7e8:	4b03      	ldr	r3, [pc, #12]	; (7f8 <OLEDPrintChar+0x90>)
     7ea:	601a      	str	r2, [r3, #0]
		}
	}
}
     7ec:	46c0      	nop			; (mov r8, r8)
     7ee:	46bd      	mov	sp, r7
     7f0:	b003      	add	sp, #12
     7f2:	bd90      	pop	{r4, r7, pc}
     7f4:	20000b24 	.word	0x20000b24
     7f8:	20000b20 	.word	0x20000b20
     7fc:	8000001f 	.word	0x8000001f
     800:	2000000c 	.word	0x2000000c
     804:	00001111 	.word	0x00001111

00000808 <OLEDClear>:
		str++;
	}
}

void OLEDClear()
{
     808:	b590      	push	{r4, r7, lr}
     80a:	b083      	sub	sp, #12
     80c:	af00      	add	r7, sp, #0
	int page, column;
	for (page = 0; page < 4; page++) {
     80e:	2300      	movs	r3, #0
     810:	607b      	str	r3, [r7, #4]
     812:	e013      	b.n	83c <OLEDClear+0x34>
		for (column = 0; column < 128; column++) {
     814:	2300      	movs	r3, #0
     816:	603b      	str	r3, [r7, #0]
     818:	e00a      	b.n	830 <OLEDClear+0x28>
			gfx_mono_ssd1306_put_byte(page, column, 0x00, true);
     81a:	687b      	ldr	r3, [r7, #4]
     81c:	b2d8      	uxtb	r0, r3
     81e:	683b      	ldr	r3, [r7, #0]
     820:	b2d9      	uxtb	r1, r3
     822:	2301      	movs	r3, #1
     824:	2200      	movs	r2, #0
     826:	4c0c      	ldr	r4, [pc, #48]	; (858 <OLEDClear+0x50>)
     828:	47a0      	blx	r4

void OLEDClear()
{
	int page, column;
	for (page = 0; page < 4; page++) {
		for (column = 0; column < 128; column++) {
     82a:	683b      	ldr	r3, [r7, #0]
     82c:	3301      	adds	r3, #1
     82e:	603b      	str	r3, [r7, #0]
     830:	683b      	ldr	r3, [r7, #0]
     832:	2b7f      	cmp	r3, #127	; 0x7f
     834:	ddf1      	ble.n	81a <OLEDClear+0x12>
}

void OLEDClear()
{
	int page, column;
	for (page = 0; page < 4; page++) {
     836:	687b      	ldr	r3, [r7, #4]
     838:	3301      	adds	r3, #1
     83a:	607b      	str	r3, [r7, #4]
     83c:	687b      	ldr	r3, [r7, #4]
     83e:	2b03      	cmp	r3, #3
     840:	dde8      	ble.n	814 <OLEDClear+0xc>
		for (column = 0; column < 128; column++) {
			gfx_mono_ssd1306_put_byte(page, column, 0x00, true);
		}
	}
	__oledCurseurX = 0;
     842:	4b06      	ldr	r3, [pc, #24]	; (85c <OLEDClear+0x54>)
     844:	2200      	movs	r2, #0
     846:	601a      	str	r2, [r3, #0]
	__oledCurseurY = 0;
     848:	4b05      	ldr	r3, [pc, #20]	; (860 <OLEDClear+0x58>)
     84a:	2200      	movs	r2, #0
     84c:	601a      	str	r2, [r3, #0]
}
     84e:	46c0      	nop			; (mov r8, r8)
     850:	46bd      	mov	sp, r7
     852:	b003      	add	sp, #12
     854:	bd90      	pop	{r4, r7, pc}
     856:	46c0      	nop			; (mov r8, r8)
     858:	0000141d 	.word	0x0000141d
     85c:	20000b24 	.word	0x20000b24
     860:	20000b20 	.word	0x20000b20

00000864 <OLEDClearLine>:

void OLEDClearLine(char line)
{
     864:	b590      	push	{r4, r7, lr}
     866:	b085      	sub	sp, #20
     868:	af00      	add	r7, sp, #0
     86a:	0002      	movs	r2, r0
     86c:	1dfb      	adds	r3, r7, #7
     86e:	701a      	strb	r2, [r3, #0]
	int column;
	for (column = 0; column < 128; column++) {
     870:	2300      	movs	r3, #0
     872:	60fb      	str	r3, [r7, #12]
     874:	e00a      	b.n	88c <OLEDClearLine+0x28>
		gfx_mono_ssd1306_put_byte(line, column, 0x00, true);
     876:	68fb      	ldr	r3, [r7, #12]
     878:	b2d9      	uxtb	r1, r3
     87a:	1dfb      	adds	r3, r7, #7
     87c:	7818      	ldrb	r0, [r3, #0]
     87e:	2301      	movs	r3, #1
     880:	2200      	movs	r2, #0
     882:	4c09      	ldr	r4, [pc, #36]	; (8a8 <OLEDClearLine+0x44>)
     884:	47a0      	blx	r4
}

void OLEDClearLine(char line)
{
	int column;
	for (column = 0; column < 128; column++) {
     886:	68fb      	ldr	r3, [r7, #12]
     888:	3301      	adds	r3, #1
     88a:	60fb      	str	r3, [r7, #12]
     88c:	68fb      	ldr	r3, [r7, #12]
     88e:	2b7f      	cmp	r3, #127	; 0x7f
     890:	ddf1      	ble.n	876 <OLEDClearLine+0x12>
		gfx_mono_ssd1306_put_byte(line, column, 0x00, true);
	}
	__oledCurseurX = 0;
     892:	4b06      	ldr	r3, [pc, #24]	; (8ac <OLEDClearLine+0x48>)
     894:	2200      	movs	r2, #0
     896:	601a      	str	r2, [r3, #0]
	__oledCurseurY = 0;
     898:	4b05      	ldr	r3, [pc, #20]	; (8b0 <OLEDClearLine+0x4c>)
     89a:	2200      	movs	r2, #0
     89c:	601a      	str	r2, [r3, #0]
}
     89e:	46c0      	nop			; (mov r8, r8)
     8a0:	46bd      	mov	sp, r7
     8a2:	b005      	add	sp, #20
     8a4:	bd90      	pop	{r4, r7, pc}
     8a6:	46c0      	nop			; (mov r8, r8)
     8a8:	0000141d 	.word	0x0000141d
     8ac:	20000b24 	.word	0x20000b24
     8b0:	20000b20 	.word	0x20000b20

000008b4 <oledWait10us>:
#define OLED_SS_PIN    PORTB,17
#define OLED_CLK_PIN   PORTB,23
#define OLED_MOSI_PIN  PORTB,22

void oledWait10us()
{
     8b4:	b580      	push	{r7, lr}
     8b6:	b082      	sub	sp, #8
     8b8:	af00      	add	r7, sp, #0
	for(volatile int i = 0; i < 1000;i++); //10us min TODO, check
     8ba:	2300      	movs	r3, #0
     8bc:	607b      	str	r3, [r7, #4]
     8be:	e002      	b.n	8c6 <oledWait10us+0x12>
     8c0:	687b      	ldr	r3, [r7, #4]
     8c2:	3301      	adds	r3, #1
     8c4:	607b      	str	r3, [r7, #4]
     8c6:	687b      	ldr	r3, [r7, #4]
     8c8:	4a03      	ldr	r2, [pc, #12]	; (8d8 <oledWait10us+0x24>)
     8ca:	4293      	cmp	r3, r2
     8cc:	ddf8      	ble.n	8c0 <oledWait10us+0xc>
}
     8ce:	46c0      	nop			; (mov r8, r8)
     8d0:	46bd      	mov	sp, r7
     8d2:	b002      	add	sp, #8
     8d4:	bd80      	pop	{r7, pc}
     8d6:	46c0      	nop			; (mov r8, r8)
     8d8:	000003e7 	.word	0x000003e7

000008dc <ssd1306_hard_reset>:

void ssd1306_hard_reset()
{
     8dc:	b580      	push	{r7, lr}
     8de:	af00      	add	r7, sp, #0
	pinMode(OLED_RESET_PIN,OUTPUT);
     8e0:	2201      	movs	r2, #1
     8e2:	211b      	movs	r1, #27
     8e4:	2000      	movs	r0, #0
     8e6:	4b09      	ldr	r3, [pc, #36]	; (90c <ssd1306_hard_reset+0x30>)
     8e8:	4798      	blx	r3
	digitalWrite(OLED_RESET_PIN,0);
     8ea:	2200      	movs	r2, #0
     8ec:	211b      	movs	r1, #27
     8ee:	2000      	movs	r0, #0
     8f0:	4b07      	ldr	r3, [pc, #28]	; (910 <ssd1306_hard_reset+0x34>)
     8f2:	4798      	blx	r3
	oledWait10us();
     8f4:	4b07      	ldr	r3, [pc, #28]	; (914 <ssd1306_hard_reset+0x38>)
     8f6:	4798      	blx	r3
	digitalWrite(OLED_RESET_PIN,1);
     8f8:	2201      	movs	r2, #1
     8fa:	211b      	movs	r1, #27
     8fc:	2000      	movs	r0, #0
     8fe:	4b04      	ldr	r3, [pc, #16]	; (910 <ssd1306_hard_reset+0x34>)
     900:	4798      	blx	r3
	oledWait10us();
     902:	4b04      	ldr	r3, [pc, #16]	; (914 <ssd1306_hard_reset+0x38>)
     904:	4798      	blx	r3
}
     906:	46c0      	nop			; (mov r8, r8)
     908:	46bd      	mov	sp, r7
     90a:	bd80      	pop	{r7, pc}
     90c:	000014e5 	.word	0x000014e5
     910:	00001685 	.word	0x00001685
     914:	000008b5 	.word	0x000008b5

00000918 <OLEDSpiInit>:

void OLEDSpiInit()
{
     918:	b580      	push	{r7, lr}
     91a:	af00      	add	r7, sp, #0
	//broches accès SPI
	pinMux(OLED_SS_PIN,CONFIG_C);   //config C => SERCOM5 - pad 1 
     91c:	2202      	movs	r2, #2
     91e:	2111      	movs	r1, #17
     920:	2001      	movs	r0, #1
     922:	4b1d      	ldr	r3, [pc, #116]	; (998 <OLEDSpiInit+0x80>)
     924:	4798      	blx	r3
	pinMux(OLED_MOSI_PIN,CONFIG_D); //config D => SERCOM5 - pad 2
     926:	2203      	movs	r2, #3
     928:	2116      	movs	r1, #22
     92a:	2001      	movs	r0, #1
     92c:	4b1a      	ldr	r3, [pc, #104]	; (998 <OLEDSpiInit+0x80>)
     92e:	4798      	blx	r3
	pinMux(OLED_CLK_PIN,CONFIG_D);  //config D => SERCOM5 - pad 3
     930:	2203      	movs	r2, #3
     932:	2117      	movs	r1, #23
     934:	2001      	movs	r0, #1
     936:	4b18      	ldr	r3, [pc, #96]	; (998 <OLEDSpiInit+0x80>)
     938:	4798      	blx	r3

	//Power Management.
	PM->APBCMASK.reg |= 1<<7; //sercom5
     93a:	4b18      	ldr	r3, [pc, #96]	; (99c <OLEDSpiInit+0x84>)
     93c:	4a17      	ldr	r2, [pc, #92]	; (99c <OLEDSpiInit+0x84>)
     93e:	6a12      	ldr	r2, [r2, #32]
     940:	2180      	movs	r1, #128	; 0x80
     942:	430a      	orrs	r2, r1
     944:	621a      	str	r2, [r3, #32]
	
	//horloge: generateur 3 (8MHz)
	GCLK->CLKCTRL.reg = 1 <<14 | //enable
     946:	4b16      	ldr	r3, [pc, #88]	; (9a0 <OLEDSpiInit+0x88>)
     948:	4a16      	ldr	r2, [pc, #88]	; (9a4 <OLEDSpiInit+0x8c>)
     94a:	805a      	strh	r2, [r3, #2]
						3 << 8 | //generator 3 => 8MHz
						0x19;	 //SERCOM5
	//config SPI:
	SERCOM5->SPI.CTRLA.bit.SWRST = 1;
     94c:	4a16      	ldr	r2, [pc, #88]	; (9a8 <OLEDSpiInit+0x90>)
     94e:	6813      	ldr	r3, [r2, #0]
     950:	2101      	movs	r1, #1
     952:	430b      	orrs	r3, r1
     954:	6013      	str	r3, [r2, #0]
	while ( SERCOM5->SPI.CTRLA.bit.SWRST || SERCOM5->SPI.SYNCBUSY.bit.SWRST );
     956:	46c0      	nop			; (mov r8, r8)
     958:	4b13      	ldr	r3, [pc, #76]	; (9a8 <OLEDSpiInit+0x90>)
     95a:	681b      	ldr	r3, [r3, #0]
     95c:	07db      	lsls	r3, r3, #31
     95e:	0fdb      	lsrs	r3, r3, #31
     960:	b2db      	uxtb	r3, r3
     962:	2b00      	cmp	r3, #0
     964:	d1f8      	bne.n	958 <OLEDSpiInit+0x40>
     966:	4b10      	ldr	r3, [pc, #64]	; (9a8 <OLEDSpiInit+0x90>)
     968:	69db      	ldr	r3, [r3, #28]
     96a:	07db      	lsls	r3, r3, #31
     96c:	0fdb      	lsrs	r3, r3, #31
     96e:	b2db      	uxtb	r3, r3
     970:	2b00      	cmp	r3, #0
     972:	d1f1      	bne.n	958 <OLEDSpiInit+0x40>
	SERCOM5->SPI.CTRLA.reg =	1 << 16 |	//DOPO = 1 => pad1=SS - pad2=DO - pad3=SCK
     974:	4b0c      	ldr	r3, [pc, #48]	; (9a8 <OLEDSpiInit+0x90>)
     976:	4a0d      	ldr	r2, [pc, #52]	; (9ac <OLEDSpiInit+0x94>)
     978:	601a      	str	r2, [r3, #0]
								1 << 7	|	//RUNSTDBY
								3 << 2  ;	//Mode Master
	SERCOM5->SPI.CTRLB.reg =    1 << 17 |	//RXEN
     97a:	4b0b      	ldr	r3, [pc, #44]	; (9a8 <OLEDSpiInit+0x90>)
     97c:	4a0c      	ldr	r2, [pc, #48]	; (9b0 <OLEDSpiInit+0x98>)
     97e:	605a      	str	r2, [r3, #4]
								1 << 13 |	//MSSEN (hardware SS).
								1 << 9  ;	//SSDE
	SERCOM5->SPI.BAUD.reg = 3; // p.427 (synchronous) => Fbaud=Fref(2*(baud+1)) => Fref=8MHz => FBaud = 1MHz
     980:	4b09      	ldr	r3, [pc, #36]	; (9a8 <OLEDSpiInit+0x90>)
     982:	2203      	movs	r2, #3
     984:	731a      	strb	r2, [r3, #12]
	//validation spi
	SERCOM5->SPI.CTRLA.reg |= 0x02;
     986:	4b08      	ldr	r3, [pc, #32]	; (9a8 <OLEDSpiInit+0x90>)
     988:	4a07      	ldr	r2, [pc, #28]	; (9a8 <OLEDSpiInit+0x90>)
     98a:	6812      	ldr	r2, [r2, #0]
     98c:	2102      	movs	r1, #2
     98e:	430a      	orrs	r2, r1
     990:	601a      	str	r2, [r3, #0]
}
     992:	46c0      	nop			; (mov r8, r8)
     994:	46bd      	mov	sp, r7
     996:	bd80      	pop	{r7, pc}
     998:	000016f5 	.word	0x000016f5
     99c:	40000400 	.word	0x40000400
     9a0:	40000c00 	.word	0x40000c00
     9a4:	00004319 	.word	0x00004319
     9a8:	42001c00 	.word	0x42001c00
     9ac:	0001008c 	.word	0x0001008c
     9b0:	00022200 	.word	0x00022200

000009b4 <ssd1306_write_first_command>:

void ssd1306_write_first_command(uint8_t command)
{
     9b4:	b580      	push	{r7, lr}
     9b6:	b082      	sub	sp, #8
     9b8:	af00      	add	r7, sp, #0
     9ba:	0002      	movs	r2, r0
     9bc:	1dfb      	adds	r3, r7, #7
     9be:	701a      	strb	r2, [r3, #0]
	digitalWrite(OLED_CMD_PIN,0);
     9c0:	2200      	movs	r2, #0
     9c2:	211e      	movs	r1, #30
     9c4:	2001      	movs	r0, #1
     9c6:	4b05      	ldr	r3, [pc, #20]	; (9dc <ssd1306_write_first_command+0x28>)
     9c8:	4798      	blx	r3
	SERCOM5->SPI.DATA.reg = (command); //note: hardware SS
     9ca:	4b05      	ldr	r3, [pc, #20]	; (9e0 <ssd1306_write_first_command+0x2c>)
     9cc:	1dfa      	adds	r2, r7, #7
     9ce:	7812      	ldrb	r2, [r2, #0]
     9d0:	629a      	str	r2, [r3, #40]	; 0x28
}
     9d2:	46c0      	nop			; (mov r8, r8)
     9d4:	46bd      	mov	sp, r7
     9d6:	b002      	add	sp, #8
     9d8:	bd80      	pop	{r7, pc}
     9da:	46c0      	nop			; (mov r8, r8)
     9dc:	00001685 	.word	0x00001685
     9e0:	42001c00 	.word	0x42001c00

000009e4 <ssd1306_write_command>:

void ssd1306_write_command(uint8_t command)
{
     9e4:	b580      	push	{r7, lr}
     9e6:	b082      	sub	sp, #8
     9e8:	af00      	add	r7, sp, #0
     9ea:	0002      	movs	r2, r0
     9ec:	1dfb      	adds	r3, r7, #7
     9ee:	701a      	strb	r2, [r3, #0]
	while(! (SERCOM5->SPI.INTFLAG.bit.TXC));  //attente fin transmission précédente
     9f0:	46c0      	nop			; (mov r8, r8)
     9f2:	4b0a      	ldr	r3, [pc, #40]	; (a1c <ssd1306_write_command+0x38>)
     9f4:	7e1b      	ldrb	r3, [r3, #24]
     9f6:	079b      	lsls	r3, r3, #30
     9f8:	0fdb      	lsrs	r3, r3, #31
     9fa:	b2db      	uxtb	r3, r3
     9fc:	2b00      	cmp	r3, #0
     9fe:	d0f8      	beq.n	9f2 <ssd1306_write_command+0xe>
	//il faut un peu d'attente entre 2 transaction (trop rapide pour ssd1306 sinon)
	PORT->Group[PORTB].OUTCLR.reg = 1 << 30; //OLED_CMD_PIN = 0 (+rapide que digitalWrite)
     a00:	4907      	ldr	r1, [pc, #28]	; (a20 <ssd1306_write_command+0x3c>)
     a02:	2294      	movs	r2, #148	; 0x94
     a04:	2380      	movs	r3, #128	; 0x80
     a06:	05db      	lsls	r3, r3, #23
     a08:	508b      	str	r3, [r1, r2]
	SERCOM5->SPI.DATA.reg = (command); //note: hardware SS
     a0a:	4b04      	ldr	r3, [pc, #16]	; (a1c <ssd1306_write_command+0x38>)
     a0c:	1dfa      	adds	r2, r7, #7
     a0e:	7812      	ldrb	r2, [r2, #0]
     a10:	629a      	str	r2, [r3, #40]	; 0x28
}
     a12:	46c0      	nop			; (mov r8, r8)
     a14:	46bd      	mov	sp, r7
     a16:	b002      	add	sp, #8
     a18:	bd80      	pop	{r7, pc}
     a1a:	46c0      	nop			; (mov r8, r8)
     a1c:	42001c00 	.word	0x42001c00
     a20:	41004400 	.word	0x41004400

00000a24 <ssd1306_write_data>:

void ssd1306_write_data(uint8_t data)
{
     a24:	b580      	push	{r7, lr}
     a26:	b082      	sub	sp, #8
     a28:	af00      	add	r7, sp, #0
     a2a:	0002      	movs	r2, r0
     a2c:	1dfb      	adds	r3, r7, #7
     a2e:	701a      	strb	r2, [r3, #0]
	while(! (SERCOM5->SPI.INTFLAG.bit.TXC));  //attente fin transmission précédente
     a30:	46c0      	nop			; (mov r8, r8)
     a32:	4b0a      	ldr	r3, [pc, #40]	; (a5c <ssd1306_write_data+0x38>)
     a34:	7e1b      	ldrb	r3, [r3, #24]
     a36:	079b      	lsls	r3, r3, #30
     a38:	0fdb      	lsrs	r3, r3, #31
     a3a:	b2db      	uxtb	r3, r3
     a3c:	2b00      	cmp	r3, #0
     a3e:	d0f8      	beq.n	a32 <ssd1306_write_data+0xe>
	//il faut un peu d'attente entre 2 transaction (trop rapide pour ssd1306 sinon)
	PORT->Group[PORTB].OUTSET.reg = 1 << 30; //OLED_CMD_PIN = 1 (+rapide que digitalWrite)
     a40:	4907      	ldr	r1, [pc, #28]	; (a60 <ssd1306_write_data+0x3c>)
     a42:	2298      	movs	r2, #152	; 0x98
     a44:	2380      	movs	r3, #128	; 0x80
     a46:	05db      	lsls	r3, r3, #23
     a48:	508b      	str	r3, [r1, r2]
	SERCOM5->SPI.DATA.reg = (data); //note: hardware SS
     a4a:	4b04      	ldr	r3, [pc, #16]	; (a5c <ssd1306_write_data+0x38>)
     a4c:	1dfa      	adds	r2, r7, #7
     a4e:	7812      	ldrb	r2, [r2, #0]
     a50:	629a      	str	r2, [r3, #40]	; 0x28
}
     a52:	46c0      	nop			; (mov r8, r8)
     a54:	46bd      	mov	sp, r7
     a56:	b002      	add	sp, #8
     a58:	bd80      	pop	{r7, pc}
     a5a:	46c0      	nop			; (mov r8, r8)
     a5c:	42001c00 	.word	0x42001c00
     a60:	41004400 	.word	0x41004400

00000a64 <ssd1306_init>:

void ssd1306_init()
{
     a64:	b580      	push	{r7, lr}
     a66:	af00      	add	r7, sp, #0
	pinMode(OLED_CMD_PIN,OUTPUT);	
     a68:	2201      	movs	r2, #1
     a6a:	211e      	movs	r1, #30
     a6c:	2001      	movs	r0, #1
     a6e:	4b23      	ldr	r3, [pc, #140]	; (afc <ssd1306_init+0x98>)
     a70:	4798      	blx	r3
	ssd1306_hard_reset();
     a72:	4b23      	ldr	r3, [pc, #140]	; (b00 <ssd1306_init+0x9c>)
     a74:	4798      	blx	r3

	OLEDSpiInit();
     a76:	4b23      	ldr	r3, [pc, #140]	; (b04 <ssd1306_init+0xa0>)
     a78:	4798      	blx	r3

	//suite init reprise des fichiers ASF.

	// 1/32 Duty (0x0F~0x3F)
	ssd1306_write_first_command(SSD1306_CMD_SET_MULTIPLEX_RATIO); //first command (sans attente TX precedent)
     a7a:	20a8      	movs	r0, #168	; 0xa8
     a7c:	4b22      	ldr	r3, [pc, #136]	; (b08 <ssd1306_init+0xa4>)
     a7e:	4798      	blx	r3
	ssd1306_write_command(0x1F);
     a80:	201f      	movs	r0, #31
     a82:	4b22      	ldr	r3, [pc, #136]	; (b0c <ssd1306_init+0xa8>)
     a84:	4798      	blx	r3

	// Shift Mapping RAM Counter (0x00~0x3F)
	ssd1306_write_command(SSD1306_CMD_SET_DISPLAY_OFFSET);
     a86:	20d3      	movs	r0, #211	; 0xd3
     a88:	4b20      	ldr	r3, [pc, #128]	; (b0c <ssd1306_init+0xa8>)
     a8a:	4798      	blx	r3
	ssd1306_write_command(0x00);
     a8c:	2000      	movs	r0, #0
     a8e:	4b1f      	ldr	r3, [pc, #124]	; (b0c <ssd1306_init+0xa8>)
     a90:	4798      	blx	r3

	// Set Mapping RAM Display Start Line (0x00~0x3F)
	ssd1306_write_command(SSD1306_CMD_SET_DISPLAY_START_LINE(0x00));
     a92:	2040      	movs	r0, #64	; 0x40
     a94:	4b1d      	ldr	r3, [pc, #116]	; (b0c <ssd1306_init+0xa8>)
     a96:	4798      	blx	r3

	// Set Column Address 0 Mapped to SEG0
	ssd1306_write_command(SSD1306_CMD_SET_SEGMENT_RE_MAP_COL127_SEG0);
     a98:	20a1      	movs	r0, #161	; 0xa1
     a9a:	4b1c      	ldr	r3, [pc, #112]	; (b0c <ssd1306_init+0xa8>)
     a9c:	4798      	blx	r3

	// Set COM/Row Scan Scan from COM63 to 0
	ssd1306_write_command(SSD1306_CMD_SET_COM_OUTPUT_SCAN_DOWN);
     a9e:	20c8      	movs	r0, #200	; 0xc8
     aa0:	4b1a      	ldr	r3, [pc, #104]	; (b0c <ssd1306_init+0xa8>)
     aa2:	4798      	blx	r3

	// Set COM Pins hardware configuration
	ssd1306_write_command(SSD1306_CMD_SET_COM_PINS);
     aa4:	20da      	movs	r0, #218	; 0xda
     aa6:	4b19      	ldr	r3, [pc, #100]	; (b0c <ssd1306_init+0xa8>)
     aa8:	4798      	blx	r3
	ssd1306_write_command(0x02);
     aaa:	2002      	movs	r0, #2
     aac:	4b17      	ldr	r3, [pc, #92]	; (b0c <ssd1306_init+0xa8>)
     aae:	4798      	blx	r3

	ssd1306_set_contrast(0x8F);
     ab0:	208f      	movs	r0, #143	; 0x8f
     ab2:	4b17      	ldr	r3, [pc, #92]	; (b10 <ssd1306_init+0xac>)
     ab4:	4798      	blx	r3

	// Disable Entire display On
	ssd1306_write_command(SSD1306_CMD_ENTIRE_DISPLAY_AND_GDDRAM_ON);
     ab6:	20a4      	movs	r0, #164	; 0xa4
     ab8:	4b14      	ldr	r3, [pc, #80]	; (b0c <ssd1306_init+0xa8>)
     aba:	4798      	blx	r3

	ssd1306_display_invert_disable();
     abc:	4b15      	ldr	r3, [pc, #84]	; (b14 <ssd1306_init+0xb0>)
     abe:	4798      	blx	r3

	// Set Display Clock Divide Ratio / Oscillator Frequency (Default => 0x80)
	ssd1306_write_command(SSD1306_CMD_SET_DISPLAY_CLOCK_DIVIDE_RATIO);
     ac0:	20d5      	movs	r0, #213	; 0xd5
     ac2:	4b12      	ldr	r3, [pc, #72]	; (b0c <ssd1306_init+0xa8>)
     ac4:	4798      	blx	r3
	ssd1306_write_command(0x80);
     ac6:	2080      	movs	r0, #128	; 0x80
     ac8:	4b10      	ldr	r3, [pc, #64]	; (b0c <ssd1306_init+0xa8>)
     aca:	4798      	blx	r3

	// Enable charge pump regulator
	ssd1306_write_command(SSD1306_CMD_SET_CHARGE_PUMP_SETTING);
     acc:	208d      	movs	r0, #141	; 0x8d
     ace:	4b0f      	ldr	r3, [pc, #60]	; (b0c <ssd1306_init+0xa8>)
     ad0:	4798      	blx	r3
	ssd1306_write_command(0x14);
     ad2:	2014      	movs	r0, #20
     ad4:	4b0d      	ldr	r3, [pc, #52]	; (b0c <ssd1306_init+0xa8>)
     ad6:	4798      	blx	r3

	// Set VCOMH Deselect Level
	ssd1306_write_command(SSD1306_CMD_SET_VCOMH_DESELECT_LEVEL);
     ad8:	20db      	movs	r0, #219	; 0xdb
     ada:	4b0c      	ldr	r3, [pc, #48]	; (b0c <ssd1306_init+0xa8>)
     adc:	4798      	blx	r3
	ssd1306_write_command(0x40); // Default => 0x20 (0.77*VCC)
     ade:	2040      	movs	r0, #64	; 0x40
     ae0:	4b0a      	ldr	r3, [pc, #40]	; (b0c <ssd1306_init+0xa8>)
     ae2:	4798      	blx	r3

	// Set Pre-Charge as 15 Clocks & Discharge as 1 Clock
	ssd1306_write_command(SSD1306_CMD_SET_PRE_CHARGE_PERIOD);
     ae4:	20d9      	movs	r0, #217	; 0xd9
     ae6:	4b09      	ldr	r3, [pc, #36]	; (b0c <ssd1306_init+0xa8>)
     ae8:	4798      	blx	r3
	ssd1306_write_command(0xF1);
     aea:	20f1      	movs	r0, #241	; 0xf1
     aec:	4b07      	ldr	r3, [pc, #28]	; (b0c <ssd1306_init+0xa8>)
     aee:	4798      	blx	r3

	ssd1306_display_on();	
     af0:	4b09      	ldr	r3, [pc, #36]	; (b18 <ssd1306_init+0xb4>)
     af2:	4798      	blx	r3
}
     af4:	46c0      	nop			; (mov r8, r8)
     af6:	46bd      	mov	sp, r7
     af8:	bd80      	pop	{r7, pc}
     afa:	46c0      	nop			; (mov r8, r8)
     afc:	000014e5 	.word	0x000014e5
     b00:	000008dd 	.word	0x000008dd
     b04:	00000919 	.word	0x00000919
     b08:	000009b5 	.word	0x000009b5
     b0c:	000009e5 	.word	0x000009e5
     b10:	00000689 	.word	0x00000689
     b14:	000006b5 	.word	0x000006b5
     b18:	00000675 	.word	0x00000675

00000b1c <gfx_mono_set_framebuffer>:
//from ASF file gfx_mono_frame_buffer.c

/* Pointer to the framebuffer; updated by the gfx_mono_set_framebuffer function */
static uint8_t *fbpointer;
void gfx_mono_set_framebuffer(uint8_t *framebuffer)
{
     b1c:	b580      	push	{r7, lr}
     b1e:	b082      	sub	sp, #8
     b20:	af00      	add	r7, sp, #0
     b22:	6078      	str	r0, [r7, #4]
	fbpointer = framebuffer;
     b24:	4b03      	ldr	r3, [pc, #12]	; (b34 <gfx_mono_set_framebuffer+0x18>)
     b26:	687a      	ldr	r2, [r7, #4]
     b28:	601a      	str	r2, [r3, #0]
}
     b2a:	46c0      	nop			; (mov r8, r8)
     b2c:	46bd      	mov	sp, r7
     b2e:	b002      	add	sp, #8
     b30:	bd80      	pop	{r7, pc}
     b32:	46c0      	nop			; (mov r8, r8)
     b34:	200008e4 	.word	0x200008e4

00000b38 <gfx_mono_framebuffer_put_page>:
	gfx_mono_framebuffer_put_page(data_buf, 0, 10, 32);
\endcode
 */
void gfx_mono_framebuffer_put_page(gfx_mono_color_t *data, gfx_coord_t page,
		gfx_coord_t column, gfx_coord_t width)
{
     b38:	b590      	push	{r4, r7, lr}
     b3a:	b085      	sub	sp, #20
     b3c:	af00      	add	r7, sp, #0
     b3e:	6078      	str	r0, [r7, #4]
     b40:	000c      	movs	r4, r1
     b42:	0010      	movs	r0, r2
     b44:	0019      	movs	r1, r3
     b46:	1cfb      	adds	r3, r7, #3
     b48:	1c22      	adds	r2, r4, #0
     b4a:	701a      	strb	r2, [r3, #0]
     b4c:	1cbb      	adds	r3, r7, #2
     b4e:	1c02      	adds	r2, r0, #0
     b50:	701a      	strb	r2, [r3, #0]
     b52:	1c7b      	adds	r3, r7, #1
     b54:	1c0a      	adds	r2, r1, #0
     b56:	701a      	strb	r2, [r3, #0]
	gfx_mono_color_t *data_pt = data;
     b58:	687b      	ldr	r3, [r7, #4]
     b5a:	60fb      	str	r3, [r7, #12]
	gfx_coord_t *framebuffer_pt = fbpointer +
     b5c:	4b0f      	ldr	r3, [pc, #60]	; (b9c <gfx_mono_framebuffer_put_page+0x64>)
     b5e:	681b      	ldr	r3, [r3, #0]
			((page * GFX_MONO_LCD_WIDTH) + column);
     b60:	1cfa      	adds	r2, r7, #3
     b62:	7812      	ldrb	r2, [r2, #0]
     b64:	01d1      	lsls	r1, r2, #7
     b66:	1cba      	adds	r2, r7, #2
     b68:	7812      	ldrb	r2, [r2, #0]
     b6a:	188a      	adds	r2, r1, r2
 */
void gfx_mono_framebuffer_put_page(gfx_mono_color_t *data, gfx_coord_t page,
		gfx_coord_t column, gfx_coord_t width)
{
	gfx_mono_color_t *data_pt = data;
	gfx_coord_t *framebuffer_pt = fbpointer +
     b6c:	189b      	adds	r3, r3, r2
     b6e:	60bb      	str	r3, [r7, #8]
			((page * GFX_MONO_LCD_WIDTH) + column);

	do {
		*framebuffer_pt++ = *data_pt++;
     b70:	68bb      	ldr	r3, [r7, #8]
     b72:	1c5a      	adds	r2, r3, #1
     b74:	60ba      	str	r2, [r7, #8]
     b76:	68fa      	ldr	r2, [r7, #12]
     b78:	1c51      	adds	r1, r2, #1
     b7a:	60f9      	str	r1, [r7, #12]
     b7c:	7812      	ldrb	r2, [r2, #0]
     b7e:	701a      	strb	r2, [r3, #0]
	} while (--width > 0);
     b80:	1c7b      	adds	r3, r7, #1
     b82:	1c7a      	adds	r2, r7, #1
     b84:	7812      	ldrb	r2, [r2, #0]
     b86:	3a01      	subs	r2, #1
     b88:	701a      	strb	r2, [r3, #0]
     b8a:	1c7b      	adds	r3, r7, #1
     b8c:	781b      	ldrb	r3, [r3, #0]
     b8e:	2b00      	cmp	r3, #0
     b90:	d1ee      	bne.n	b70 <gfx_mono_framebuffer_put_page+0x38>
}
     b92:	46c0      	nop			; (mov r8, r8)
     b94:	46bd      	mov	sp, r7
     b96:	b005      	add	sp, #20
     b98:	bd90      	pop	{r4, r7, pc}
     b9a:	46c0      	nop			; (mov r8, r8)
     b9c:	200008e4 	.word	0x200008e4

00000ba0 <gfx_mono_framebuffer_put_byte>:
	gfx_mono_framebuffer_put_byte(0, 0, 0xFF);
\endcode
 */
void gfx_mono_framebuffer_put_byte(gfx_coord_t page, gfx_coord_t column,
		uint8_t data)
{
     ba0:	b590      	push	{r4, r7, lr}
     ba2:	b083      	sub	sp, #12
     ba4:	af00      	add	r7, sp, #0
     ba6:	0004      	movs	r4, r0
     ba8:	0008      	movs	r0, r1
     baa:	0011      	movs	r1, r2
     bac:	1dfb      	adds	r3, r7, #7
     bae:	1c22      	adds	r2, r4, #0
     bb0:	701a      	strb	r2, [r3, #0]
     bb2:	1dbb      	adds	r3, r7, #6
     bb4:	1c02      	adds	r2, r0, #0
     bb6:	701a      	strb	r2, [r3, #0]
     bb8:	1d7b      	adds	r3, r7, #5
     bba:	1c0a      	adds	r2, r1, #0
     bbc:	701a      	strb	r2, [r3, #0]
	*(fbpointer + (page * GFX_MONO_LCD_WIDTH) + column) = data;
     bbe:	4b08      	ldr	r3, [pc, #32]	; (be0 <gfx_mono_framebuffer_put_byte+0x40>)
     bc0:	681a      	ldr	r2, [r3, #0]
     bc2:	1dfb      	adds	r3, r7, #7
     bc4:	781b      	ldrb	r3, [r3, #0]
     bc6:	01db      	lsls	r3, r3, #7
     bc8:	0019      	movs	r1, r3
     bca:	1dbb      	adds	r3, r7, #6
     bcc:	781b      	ldrb	r3, [r3, #0]
     bce:	18cb      	adds	r3, r1, r3
     bd0:	18d3      	adds	r3, r2, r3
     bd2:	1d7a      	adds	r2, r7, #5
     bd4:	7812      	ldrb	r2, [r2, #0]
     bd6:	701a      	strb	r2, [r3, #0]
}
     bd8:	46c0      	nop			; (mov r8, r8)
     bda:	46bd      	mov	sp, r7
     bdc:	b003      	add	sp, #12
     bde:	bd90      	pop	{r4, r7, pc}
     be0:	200008e4 	.word	0x200008e4

00000be4 <gfx_mono_framebuffer_get_byte>:
 * \code
	data = gfx_mono_framebuffer_get_byte(0, 0);
\endcode
 */
uint8_t gfx_mono_framebuffer_get_byte(gfx_coord_t page, gfx_coord_t column)
{
     be4:	b580      	push	{r7, lr}
     be6:	b082      	sub	sp, #8
     be8:	af00      	add	r7, sp, #0
     bea:	0002      	movs	r2, r0
     bec:	1dfb      	adds	r3, r7, #7
     bee:	701a      	strb	r2, [r3, #0]
     bf0:	1dbb      	adds	r3, r7, #6
     bf2:	1c0a      	adds	r2, r1, #0
     bf4:	701a      	strb	r2, [r3, #0]
	return *(fbpointer + (page * GFX_MONO_LCD_WIDTH) + column);
     bf6:	4b07      	ldr	r3, [pc, #28]	; (c14 <gfx_mono_framebuffer_get_byte+0x30>)
     bf8:	681a      	ldr	r2, [r3, #0]
     bfa:	1dfb      	adds	r3, r7, #7
     bfc:	781b      	ldrb	r3, [r3, #0]
     bfe:	01db      	lsls	r3, r3, #7
     c00:	0019      	movs	r1, r3
     c02:	1dbb      	adds	r3, r7, #6
     c04:	781b      	ldrb	r3, [r3, #0]
     c06:	18cb      	adds	r3, r1, r3
     c08:	18d3      	adds	r3, r2, r3
     c0a:	781b      	ldrb	r3, [r3, #0]
}
     c0c:	0018      	movs	r0, r3
     c0e:	46bd      	mov	sp, r7
     c10:	b002      	add	sp, #8
     c12:	bd80      	pop	{r7, pc}
     c14:	200008e4 	.word	0x200008e4

00000c18 <gfx_mono_generic_draw_horizontal_line>:
 * \param[in]  length     Length of the line in pixels.
 * \param[in]  color      Pixel operation of the line.
 */
void gfx_mono_generic_draw_horizontal_line(gfx_coord_t x, gfx_coord_t y,
		gfx_coord_t length, enum gfx_mono_color color)
{
     c18:	b5b0      	push	{r4, r5, r7, lr}
     c1a:	b084      	sub	sp, #16
     c1c:	af00      	add	r7, sp, #0
     c1e:	0005      	movs	r5, r0
     c20:	000c      	movs	r4, r1
     c22:	0010      	movs	r0, r2
     c24:	0019      	movs	r1, r3
     c26:	1dfb      	adds	r3, r7, #7
     c28:	1c2a      	adds	r2, r5, #0
     c2a:	701a      	strb	r2, [r3, #0]
     c2c:	1dbb      	adds	r3, r7, #6
     c2e:	1c22      	adds	r2, r4, #0
     c30:	701a      	strb	r2, [r3, #0]
     c32:	1d7b      	adds	r3, r7, #5
     c34:	1c02      	adds	r2, r0, #0
     c36:	701a      	strb	r2, [r3, #0]
     c38:	1d3b      	adds	r3, r7, #4
     c3a:	1c0a      	adds	r2, r1, #0
     c3c:	701a      	strb	r2, [r3, #0]
	uint8_t page;
	uint8_t pixelmask;
	uint8_t temp;

	/* Clip line length if too long */
	if (x + length > GFX_MONO_LCD_WIDTH) {
     c3e:	1dfb      	adds	r3, r7, #7
     c40:	781a      	ldrb	r2, [r3, #0]
     c42:	1d7b      	adds	r3, r7, #5
     c44:	781b      	ldrb	r3, [r3, #0]
     c46:	18d3      	adds	r3, r2, r3
     c48:	2b80      	cmp	r3, #128	; 0x80
     c4a:	dd06      	ble.n	c5a <gfx_mono_generic_draw_horizontal_line+0x42>
		length = GFX_MONO_LCD_WIDTH - x;
     c4c:	1d7b      	adds	r3, r7, #5
     c4e:	1dfa      	adds	r2, r7, #7
     c50:	7812      	ldrb	r2, [r2, #0]
     c52:	2180      	movs	r1, #128	; 0x80
     c54:	4249      	negs	r1, r1
     c56:	1a8a      	subs	r2, r1, r2
     c58:	701a      	strb	r2, [r3, #0]
	}

	page = y / 8;
     c5a:	230f      	movs	r3, #15
     c5c:	18fb      	adds	r3, r7, r3
     c5e:	1dba      	adds	r2, r7, #6
     c60:	7812      	ldrb	r2, [r2, #0]
     c62:	08d2      	lsrs	r2, r2, #3
     c64:	701a      	strb	r2, [r3, #0]
	pixelmask = (1 << (y - (page * 8)));
     c66:	1dbb      	adds	r3, r7, #6
     c68:	781a      	ldrb	r2, [r3, #0]
     c6a:	230f      	movs	r3, #15
     c6c:	18fb      	adds	r3, r7, r3
     c6e:	781b      	ldrb	r3, [r3, #0]
     c70:	00db      	lsls	r3, r3, #3
     c72:	1ad3      	subs	r3, r2, r3
     c74:	2201      	movs	r2, #1
     c76:	409a      	lsls	r2, r3
     c78:	230e      	movs	r3, #14
     c7a:	18fb      	adds	r3, r7, r3
     c7c:	701a      	strb	r2, [r3, #0]

	if (length == 0) {
     c7e:	1d7b      	adds	r3, r7, #5
     c80:	781b      	ldrb	r3, [r3, #0]
     c82:	2b00      	cmp	r3, #0
     c84:	d100      	bne.n	c88 <gfx_mono_generic_draw_horizontal_line+0x70>
     c86:	e0a4      	b.n	dd2 <gfx_mono_generic_draw_horizontal_line+0x1ba>
		/* Nothing to do. Move along. */
		return;
	}

	switch (color) {
     c88:	1d3b      	adds	r3, r7, #4
     c8a:	781b      	ldrb	r3, [r3, #0]
     c8c:	2b01      	cmp	r3, #1
     c8e:	d02f      	beq.n	cf0 <gfx_mono_generic_draw_horizontal_line+0xd8>
     c90:	2b02      	cmp	r3, #2
     c92:	d100      	bne.n	c96 <gfx_mono_generic_draw_horizontal_line+0x7e>
     c94:	e095      	b.n	dc2 <gfx_mono_generic_draw_horizontal_line+0x1aa>
     c96:	2b00      	cmp	r3, #0
     c98:	d061      	beq.n	d5e <gfx_mono_generic_draw_horizontal_line+0x146>
			gfx_mono_put_byte(page, x + length, temp);
		}
		break;

	default:
		break;
     c9a:	e09b      	b.n	dd4 <gfx_mono_generic_draw_horizontal_line+0x1bc>
	}

	switch (color) {
	case GFX_PIXEL_SET:
		while (length-- > 0) {
			temp = gfx_mono_get_byte(page, x + length);
     c9c:	1dfa      	adds	r2, r7, #7
     c9e:	1d7b      	adds	r3, r7, #5
     ca0:	7812      	ldrb	r2, [r2, #0]
     ca2:	781b      	ldrb	r3, [r3, #0]
     ca4:	18d3      	adds	r3, r2, r3
     ca6:	b2da      	uxtb	r2, r3
     ca8:	230d      	movs	r3, #13
     caa:	18fc      	adds	r4, r7, r3
     cac:	230f      	movs	r3, #15
     cae:	18fb      	adds	r3, r7, r3
     cb0:	781b      	ldrb	r3, [r3, #0]
     cb2:	0011      	movs	r1, r2
     cb4:	0018      	movs	r0, r3
     cb6:	4b49      	ldr	r3, [pc, #292]	; (ddc <gfx_mono_generic_draw_horizontal_line+0x1c4>)
     cb8:	4798      	blx	r3
     cba:	0003      	movs	r3, r0
     cbc:	7023      	strb	r3, [r4, #0]
			temp |= pixelmask;
     cbe:	230d      	movs	r3, #13
     cc0:	18fb      	adds	r3, r7, r3
     cc2:	220d      	movs	r2, #13
     cc4:	18b9      	adds	r1, r7, r2
     cc6:	220e      	movs	r2, #14
     cc8:	18ba      	adds	r2, r7, r2
     cca:	7809      	ldrb	r1, [r1, #0]
     ccc:	7812      	ldrb	r2, [r2, #0]
     cce:	430a      	orrs	r2, r1
     cd0:	701a      	strb	r2, [r3, #0]
			gfx_mono_put_byte(page, x + length, temp);
     cd2:	1dfa      	adds	r2, r7, #7
     cd4:	1d7b      	adds	r3, r7, #5
     cd6:	7812      	ldrb	r2, [r2, #0]
     cd8:	781b      	ldrb	r3, [r3, #0]
     cda:	18d3      	adds	r3, r2, r3
     cdc:	b2d9      	uxtb	r1, r3
     cde:	230d      	movs	r3, #13
     ce0:	18fb      	adds	r3, r7, r3
     ce2:	781a      	ldrb	r2, [r3, #0]
     ce4:	230f      	movs	r3, #15
     ce6:	18fb      	adds	r3, r7, r3
     ce8:	7818      	ldrb	r0, [r3, #0]
     cea:	2300      	movs	r3, #0
     cec:	4c3c      	ldr	r4, [pc, #240]	; (de0 <gfx_mono_generic_draw_horizontal_line+0x1c8>)
     cee:	47a0      	blx	r4
		return;
	}

	switch (color) {
	case GFX_PIXEL_SET:
		while (length-- > 0) {
     cf0:	1d7b      	adds	r3, r7, #5
     cf2:	781b      	ldrb	r3, [r3, #0]
     cf4:	1d7a      	adds	r2, r7, #5
     cf6:	1e59      	subs	r1, r3, #1
     cf8:	7011      	strb	r1, [r2, #0]
     cfa:	2b00      	cmp	r3, #0
     cfc:	d1ce      	bne.n	c9c <gfx_mono_generic_draw_horizontal_line+0x84>
			temp = gfx_mono_get_byte(page, x + length);
			temp |= pixelmask;
			gfx_mono_put_byte(page, x + length, temp);
		}
		break;
     cfe:	e069      	b.n	dd4 <gfx_mono_generic_draw_horizontal_line+0x1bc>

	case GFX_PIXEL_CLR:
		while (length-- > 0) {
			temp = gfx_mono_get_byte(page, x + length);
     d00:	1dfa      	adds	r2, r7, #7
     d02:	1d7b      	adds	r3, r7, #5
     d04:	7812      	ldrb	r2, [r2, #0]
     d06:	781b      	ldrb	r3, [r3, #0]
     d08:	18d3      	adds	r3, r2, r3
     d0a:	b2da      	uxtb	r2, r3
     d0c:	230d      	movs	r3, #13
     d0e:	18fc      	adds	r4, r7, r3
     d10:	230f      	movs	r3, #15
     d12:	18fb      	adds	r3, r7, r3
     d14:	781b      	ldrb	r3, [r3, #0]
     d16:	0011      	movs	r1, r2
     d18:	0018      	movs	r0, r3
     d1a:	4b30      	ldr	r3, [pc, #192]	; (ddc <gfx_mono_generic_draw_horizontal_line+0x1c4>)
     d1c:	4798      	blx	r3
     d1e:	0003      	movs	r3, r0
     d20:	7023      	strb	r3, [r4, #0]
			temp &= ~pixelmask;
     d22:	230e      	movs	r3, #14
     d24:	18fb      	adds	r3, r7, r3
     d26:	781b      	ldrb	r3, [r3, #0]
     d28:	b25b      	sxtb	r3, r3
     d2a:	43db      	mvns	r3, r3
     d2c:	b25b      	sxtb	r3, r3
     d2e:	220d      	movs	r2, #13
     d30:	18ba      	adds	r2, r7, r2
     d32:	7812      	ldrb	r2, [r2, #0]
     d34:	b252      	sxtb	r2, r2
     d36:	4013      	ands	r3, r2
     d38:	b25a      	sxtb	r2, r3
     d3a:	230d      	movs	r3, #13
     d3c:	18fb      	adds	r3, r7, r3
     d3e:	701a      	strb	r2, [r3, #0]
			gfx_mono_put_byte(page, x + length, temp);
     d40:	1dfa      	adds	r2, r7, #7
     d42:	1d7b      	adds	r3, r7, #5
     d44:	7812      	ldrb	r2, [r2, #0]
     d46:	781b      	ldrb	r3, [r3, #0]
     d48:	18d3      	adds	r3, r2, r3
     d4a:	b2d9      	uxtb	r1, r3
     d4c:	230d      	movs	r3, #13
     d4e:	18fb      	adds	r3, r7, r3
     d50:	781a      	ldrb	r2, [r3, #0]
     d52:	230f      	movs	r3, #15
     d54:	18fb      	adds	r3, r7, r3
     d56:	7818      	ldrb	r0, [r3, #0]
     d58:	2300      	movs	r3, #0
     d5a:	4c21      	ldr	r4, [pc, #132]	; (de0 <gfx_mono_generic_draw_horizontal_line+0x1c8>)
     d5c:	47a0      	blx	r4
			gfx_mono_put_byte(page, x + length, temp);
		}
		break;

	case GFX_PIXEL_CLR:
		while (length-- > 0) {
     d5e:	1d7b      	adds	r3, r7, #5
     d60:	781b      	ldrb	r3, [r3, #0]
     d62:	1d7a      	adds	r2, r7, #5
     d64:	1e59      	subs	r1, r3, #1
     d66:	7011      	strb	r1, [r2, #0]
     d68:	2b00      	cmp	r3, #0
     d6a:	d1c9      	bne.n	d00 <gfx_mono_generic_draw_horizontal_line+0xe8>
			temp = gfx_mono_get_byte(page, x + length);
			temp &= ~pixelmask;
			gfx_mono_put_byte(page, x + length, temp);
		}
		break;
     d6c:	e032      	b.n	dd4 <gfx_mono_generic_draw_horizontal_line+0x1bc>

	case GFX_PIXEL_XOR:
		while (length-- > 0) {
			temp = gfx_mono_get_byte(page, x + length);
     d6e:	1dfa      	adds	r2, r7, #7
     d70:	1d7b      	adds	r3, r7, #5
     d72:	7812      	ldrb	r2, [r2, #0]
     d74:	781b      	ldrb	r3, [r3, #0]
     d76:	18d3      	adds	r3, r2, r3
     d78:	b2da      	uxtb	r2, r3
     d7a:	230d      	movs	r3, #13
     d7c:	18fc      	adds	r4, r7, r3
     d7e:	230f      	movs	r3, #15
     d80:	18fb      	adds	r3, r7, r3
     d82:	781b      	ldrb	r3, [r3, #0]
     d84:	0011      	movs	r1, r2
     d86:	0018      	movs	r0, r3
     d88:	4b14      	ldr	r3, [pc, #80]	; (ddc <gfx_mono_generic_draw_horizontal_line+0x1c4>)
     d8a:	4798      	blx	r3
     d8c:	0003      	movs	r3, r0
     d8e:	7023      	strb	r3, [r4, #0]
			temp ^= pixelmask;
     d90:	230d      	movs	r3, #13
     d92:	18fb      	adds	r3, r7, r3
     d94:	220d      	movs	r2, #13
     d96:	18b9      	adds	r1, r7, r2
     d98:	220e      	movs	r2, #14
     d9a:	18ba      	adds	r2, r7, r2
     d9c:	7809      	ldrb	r1, [r1, #0]
     d9e:	7812      	ldrb	r2, [r2, #0]
     da0:	404a      	eors	r2, r1
     da2:	701a      	strb	r2, [r3, #0]
			gfx_mono_put_byte(page, x + length, temp);
     da4:	1dfa      	adds	r2, r7, #7
     da6:	1d7b      	adds	r3, r7, #5
     da8:	7812      	ldrb	r2, [r2, #0]
     daa:	781b      	ldrb	r3, [r3, #0]
     dac:	18d3      	adds	r3, r2, r3
     dae:	b2d9      	uxtb	r1, r3
     db0:	230d      	movs	r3, #13
     db2:	18fb      	adds	r3, r7, r3
     db4:	781a      	ldrb	r2, [r3, #0]
     db6:	230f      	movs	r3, #15
     db8:	18fb      	adds	r3, r7, r3
     dba:	7818      	ldrb	r0, [r3, #0]
     dbc:	2300      	movs	r3, #0
     dbe:	4c08      	ldr	r4, [pc, #32]	; (de0 <gfx_mono_generic_draw_horizontal_line+0x1c8>)
     dc0:	47a0      	blx	r4
			gfx_mono_put_byte(page, x + length, temp);
		}
		break;

	case GFX_PIXEL_XOR:
		while (length-- > 0) {
     dc2:	1d7b      	adds	r3, r7, #5
     dc4:	781b      	ldrb	r3, [r3, #0]
     dc6:	1d7a      	adds	r2, r7, #5
     dc8:	1e59      	subs	r1, r3, #1
     dca:	7011      	strb	r1, [r2, #0]
     dcc:	2b00      	cmp	r3, #0
     dce:	d1ce      	bne.n	d6e <gfx_mono_generic_draw_horizontal_line+0x156>
			temp = gfx_mono_get_byte(page, x + length);
			temp ^= pixelmask;
			gfx_mono_put_byte(page, x + length, temp);
		}
		break;
     dd0:	e000      	b.n	dd4 <gfx_mono_generic_draw_horizontal_line+0x1bc>
	page = y / 8;
	pixelmask = (1 << (y - (page * 8)));

	if (length == 0) {
		/* Nothing to do. Move along. */
		return;
     dd2:	46c0      	nop			; (mov r8, r8)
		break;

	default:
		break;
	}
}
     dd4:	46bd      	mov	sp, r7
     dd6:	b004      	add	sp, #16
     dd8:	bdb0      	pop	{r4, r5, r7, pc}
     dda:	46c0      	nop			; (mov r8, r8)
     ddc:	000014b5 	.word	0x000014b5
     de0:	0000141d 	.word	0x0000141d

00000de4 <gfx_mono_generic_draw_filled_rect>:
 * \param[in]  color       Pixel operation of the line
 */
void gfx_mono_generic_draw_filled_rect(gfx_coord_t x, gfx_coord_t y,
		gfx_coord_t width, gfx_coord_t height,
		enum gfx_mono_color color)
{
     de4:	b5b0      	push	{r4, r5, r7, lr}
     de6:	b082      	sub	sp, #8
     de8:	af00      	add	r7, sp, #0
     dea:	0005      	movs	r5, r0
     dec:	000c      	movs	r4, r1
     dee:	0010      	movs	r0, r2
     df0:	0019      	movs	r1, r3
     df2:	1dfb      	adds	r3, r7, #7
     df4:	1c2a      	adds	r2, r5, #0
     df6:	701a      	strb	r2, [r3, #0]
     df8:	1dbb      	adds	r3, r7, #6
     dfa:	1c22      	adds	r2, r4, #0
     dfc:	701a      	strb	r2, [r3, #0]
     dfe:	1d7b      	adds	r3, r7, #5
     e00:	1c02      	adds	r2, r0, #0
     e02:	701a      	strb	r2, [r3, #0]
     e04:	1d3b      	adds	r3, r7, #4
     e06:	1c0a      	adds	r2, r1, #0
     e08:	701a      	strb	r2, [r3, #0]
	if (height == 0) {
     e0a:	1d3b      	adds	r3, r7, #4
     e0c:	781b      	ldrb	r3, [r3, #0]
     e0e:	2b00      	cmp	r3, #0
     e10:	d018      	beq.n	e44 <gfx_mono_generic_draw_filled_rect+0x60>
		/* Nothing to do. Move along. */
		return;
	}

	while (height-- > 0) {
     e12:	e00f      	b.n	e34 <gfx_mono_generic_draw_filled_rect+0x50>
		gfx_mono_draw_horizontal_line(x, y + height, width, color);
     e14:	1dba      	adds	r2, r7, #6
     e16:	1d3b      	adds	r3, r7, #4
     e18:	7812      	ldrb	r2, [r2, #0]
     e1a:	781b      	ldrb	r3, [r3, #0]
     e1c:	18d3      	adds	r3, r2, r3
     e1e:	b2d9      	uxtb	r1, r3
     e20:	2318      	movs	r3, #24
     e22:	18fb      	adds	r3, r7, r3
     e24:	781c      	ldrb	r4, [r3, #0]
     e26:	1d7b      	adds	r3, r7, #5
     e28:	781a      	ldrb	r2, [r3, #0]
     e2a:	1dfb      	adds	r3, r7, #7
     e2c:	7818      	ldrb	r0, [r3, #0]
     e2e:	0023      	movs	r3, r4
     e30:	4c06      	ldr	r4, [pc, #24]	; (e4c <gfx_mono_generic_draw_filled_rect+0x68>)
     e32:	47a0      	blx	r4
	if (height == 0) {
		/* Nothing to do. Move along. */
		return;
	}

	while (height-- > 0) {
     e34:	1d3b      	adds	r3, r7, #4
     e36:	781b      	ldrb	r3, [r3, #0]
     e38:	1d3a      	adds	r2, r7, #4
     e3a:	1e59      	subs	r1, r3, #1
     e3c:	7011      	strb	r1, [r2, #0]
     e3e:	2b00      	cmp	r3, #0
     e40:	d1e8      	bne.n	e14 <gfx_mono_generic_draw_filled_rect+0x30>
     e42:	e000      	b.n	e46 <gfx_mono_generic_draw_filled_rect+0x62>
		gfx_coord_t width, gfx_coord_t height,
		enum gfx_mono_color color)
{
	if (height == 0) {
		/* Nothing to do. Move along. */
		return;
     e44:	46c0      	nop			; (mov r8, r8)
	}

	while (height-- > 0) {
		gfx_mono_draw_horizontal_line(x, y + height, width, color);
	}
}
     e46:	46bd      	mov	sp, r7
     e48:	b002      	add	sp, #8
     e4a:	bdb0      	pop	{r4, r5, r7, pc}
     e4c:	00000c19 	.word	0x00000c19

00000e50 <gfx_mono_generic_put_bitmap>:
 * placing a bitmap at x = 10, y = 10 will put the bitmap at x = 10, y = 8
 *
 */
void gfx_mono_generic_put_bitmap(struct gfx_mono_bitmap *bitmap, gfx_coord_t x,
		gfx_coord_t y)
{
     e50:	b590      	push	{r4, r7, lr}
     e52:	b085      	sub	sp, #20
     e54:	af00      	add	r7, sp, #0
     e56:	6078      	str	r0, [r7, #4]
     e58:	0008      	movs	r0, r1
     e5a:	0011      	movs	r1, r2
     e5c:	1cfb      	adds	r3, r7, #3
     e5e:	1c02      	adds	r2, r0, #0
     e60:	701a      	strb	r2, [r3, #0]
     e62:	1cbb      	adds	r3, r7, #2
     e64:	1c0a      	adds	r2, r1, #0
     e66:	701a      	strb	r2, [r3, #0]
	gfx_coord_t num_pages = bitmap->height / 8;
     e68:	687b      	ldr	r3, [r7, #4]
     e6a:	785a      	ldrb	r2, [r3, #1]
     e6c:	230d      	movs	r3, #13
     e6e:	18fb      	adds	r3, r7, r3
     e70:	08d2      	lsrs	r2, r2, #3
     e72:	701a      	strb	r2, [r3, #0]
	gfx_coord_t page = y / 8;
     e74:	230c      	movs	r3, #12
     e76:	18fb      	adds	r3, r7, r3
     e78:	1cba      	adds	r2, r7, #2
     e7a:	7812      	ldrb	r2, [r2, #0]
     e7c:	08d2      	lsrs	r2, r2, #3
     e7e:	701a      	strb	r2, [r3, #0]
	gfx_coord_t column;
	gfx_coord_t i;
	gfx_mono_color_t temp;

	switch (bitmap->type) {
     e80:	687b      	ldr	r3, [r7, #4]
     e82:	789b      	ldrb	r3, [r3, #2]
     e84:	2b00      	cmp	r3, #0
     e86:	d051      	beq.n	f2c <gfx_mono_generic_put_bitmap+0xdc>
     e88:	2b01      	cmp	r3, #1
     e8a:	d000      	beq.n	e8e <gfx_mono_generic_put_bitmap+0x3e>
					bitmap->width);
		}
		break;

	default:
		break;
     e8c:	e07b      	b.n	f86 <gfx_mono_generic_put_bitmap+0x136>
	gfx_coord_t i;
	gfx_mono_color_t temp;

	switch (bitmap->type) {
	case GFX_MONO_BITMAP_PROGMEM:
		for (i = 0; i < num_pages; i++) {
     e8e:	230e      	movs	r3, #14
     e90:	18fb      	adds	r3, r7, r3
     e92:	2200      	movs	r2, #0
     e94:	701a      	strb	r2, [r3, #0]
     e96:	e040      	b.n	f1a <gfx_mono_generic_put_bitmap+0xca>
			for (column = 0; column < bitmap->width; column++) {
     e98:	230f      	movs	r3, #15
     e9a:	18fb      	adds	r3, r7, r3
     e9c:	2200      	movs	r2, #0
     e9e:	701a      	strb	r2, [r3, #0]
     ea0:	e02d      	b.n	efe <gfx_mono_generic_put_bitmap+0xae>
				temp = PROGMEM_READ_BYTE(bitmap->data.progmem
     ea2:	687b      	ldr	r3, [r7, #4]
     ea4:	685a      	ldr	r2, [r3, #4]
     ea6:	230e      	movs	r3, #14
     ea8:	18fb      	adds	r3, r7, r3
     eaa:	781b      	ldrb	r3, [r3, #0]
     eac:	6879      	ldr	r1, [r7, #4]
     eae:	7809      	ldrb	r1, [r1, #0]
     eb0:	434b      	muls	r3, r1
     eb2:	0019      	movs	r1, r3
     eb4:	230f      	movs	r3, #15
     eb6:	18fb      	adds	r3, r7, r3
     eb8:	781b      	ldrb	r3, [r3, #0]
     eba:	18cb      	adds	r3, r1, r3
     ebc:	18d2      	adds	r2, r2, r3
     ebe:	230b      	movs	r3, #11
     ec0:	18fb      	adds	r3, r7, r3
     ec2:	7812      	ldrb	r2, [r2, #0]
     ec4:	701a      	strb	r2, [r3, #0]
						+ (i * bitmap->width)
						+ column);
				gfx_mono_put_byte(i + page, column + x, temp);
     ec6:	230e      	movs	r3, #14
     ec8:	18fa      	adds	r2, r7, r3
     eca:	230c      	movs	r3, #12
     ecc:	18fb      	adds	r3, r7, r3
     ece:	7812      	ldrb	r2, [r2, #0]
     ed0:	781b      	ldrb	r3, [r3, #0]
     ed2:	18d3      	adds	r3, r2, r3
     ed4:	b2d8      	uxtb	r0, r3
     ed6:	230f      	movs	r3, #15
     ed8:	18fa      	adds	r2, r7, r3
     eda:	1cfb      	adds	r3, r7, #3
     edc:	7812      	ldrb	r2, [r2, #0]
     ede:	781b      	ldrb	r3, [r3, #0]
     ee0:	18d3      	adds	r3, r2, r3
     ee2:	b2d9      	uxtb	r1, r3
     ee4:	230b      	movs	r3, #11
     ee6:	18fb      	adds	r3, r7, r3
     ee8:	781a      	ldrb	r2, [r3, #0]
     eea:	2300      	movs	r3, #0
     eec:	4c28      	ldr	r4, [pc, #160]	; (f90 <gfx_mono_generic_put_bitmap+0x140>)
     eee:	47a0      	blx	r4
	gfx_mono_color_t temp;

	switch (bitmap->type) {
	case GFX_MONO_BITMAP_PROGMEM:
		for (i = 0; i < num_pages; i++) {
			for (column = 0; column < bitmap->width; column++) {
     ef0:	230f      	movs	r3, #15
     ef2:	18fb      	adds	r3, r7, r3
     ef4:	781a      	ldrb	r2, [r3, #0]
     ef6:	230f      	movs	r3, #15
     ef8:	18fb      	adds	r3, r7, r3
     efa:	3201      	adds	r2, #1
     efc:	701a      	strb	r2, [r3, #0]
     efe:	687b      	ldr	r3, [r7, #4]
     f00:	781b      	ldrb	r3, [r3, #0]
     f02:	220f      	movs	r2, #15
     f04:	18ba      	adds	r2, r7, r2
     f06:	7812      	ldrb	r2, [r2, #0]
     f08:	429a      	cmp	r2, r3
     f0a:	d3ca      	bcc.n	ea2 <gfx_mono_generic_put_bitmap+0x52>
	gfx_coord_t i;
	gfx_mono_color_t temp;

	switch (bitmap->type) {
	case GFX_MONO_BITMAP_PROGMEM:
		for (i = 0; i < num_pages; i++) {
     f0c:	230e      	movs	r3, #14
     f0e:	18fb      	adds	r3, r7, r3
     f10:	781a      	ldrb	r2, [r3, #0]
     f12:	230e      	movs	r3, #14
     f14:	18fb      	adds	r3, r7, r3
     f16:	3201      	adds	r2, #1
     f18:	701a      	strb	r2, [r3, #0]
     f1a:	230e      	movs	r3, #14
     f1c:	18fa      	adds	r2, r7, r3
     f1e:	230d      	movs	r3, #13
     f20:	18fb      	adds	r3, r7, r3
     f22:	7812      	ldrb	r2, [r2, #0]
     f24:	781b      	ldrb	r3, [r3, #0]
     f26:	429a      	cmp	r2, r3
     f28:	d3b6      	bcc.n	e98 <gfx_mono_generic_put_bitmap+0x48>
						+ (i * bitmap->width)
						+ column);
				gfx_mono_put_byte(i + page, column + x, temp);
			}
		}
		break;
     f2a:	e02c      	b.n	f86 <gfx_mono_generic_put_bitmap+0x136>

	case GFX_MONO_BITMAP_RAM:
		for (i = 0; i < num_pages; i++) {
     f2c:	230e      	movs	r3, #14
     f2e:	18fb      	adds	r3, r7, r3
     f30:	2200      	movs	r2, #0
     f32:	701a      	strb	r2, [r3, #0]
     f34:	e01e      	b.n	f74 <gfx_mono_generic_put_bitmap+0x124>
			gfx_mono_put_page(bitmap->data.pixmap
     f36:	687b      	ldr	r3, [r7, #4]
     f38:	685b      	ldr	r3, [r3, #4]
     f3a:	220e      	movs	r2, #14
     f3c:	18ba      	adds	r2, r7, r2
     f3e:	7812      	ldrb	r2, [r2, #0]
     f40:	6879      	ldr	r1, [r7, #4]
     f42:	7809      	ldrb	r1, [r1, #0]
     f44:	434a      	muls	r2, r1
     f46:	1898      	adds	r0, r3, r2
     f48:	230c      	movs	r3, #12
     f4a:	18fa      	adds	r2, r7, r3
     f4c:	230e      	movs	r3, #14
     f4e:	18fb      	adds	r3, r7, r3
     f50:	7812      	ldrb	r2, [r2, #0]
     f52:	781b      	ldrb	r3, [r3, #0]
     f54:	18d3      	adds	r3, r2, r3
     f56:	b2d9      	uxtb	r1, r3
     f58:	687b      	ldr	r3, [r7, #4]
     f5a:	781c      	ldrb	r4, [r3, #0]
     f5c:	1cfb      	adds	r3, r7, #3
     f5e:	781a      	ldrb	r2, [r3, #0]
     f60:	0023      	movs	r3, r4
     f62:	4c0c      	ldr	r4, [pc, #48]	; (f94 <gfx_mono_generic_put_bitmap+0x144>)
     f64:	47a0      	blx	r4
			}
		}
		break;

	case GFX_MONO_BITMAP_RAM:
		for (i = 0; i < num_pages; i++) {
     f66:	230e      	movs	r3, #14
     f68:	18fb      	adds	r3, r7, r3
     f6a:	781a      	ldrb	r2, [r3, #0]
     f6c:	230e      	movs	r3, #14
     f6e:	18fb      	adds	r3, r7, r3
     f70:	3201      	adds	r2, #1
     f72:	701a      	strb	r2, [r3, #0]
     f74:	230e      	movs	r3, #14
     f76:	18fa      	adds	r2, r7, r3
     f78:	230d      	movs	r3, #13
     f7a:	18fb      	adds	r3, r7, r3
     f7c:	7812      	ldrb	r2, [r2, #0]
     f7e:	781b      	ldrb	r3, [r3, #0]
     f80:	429a      	cmp	r2, r3
     f82:	d3d8      	bcc.n	f36 <gfx_mono_generic_put_bitmap+0xe6>
			gfx_mono_put_page(bitmap->data.pixmap
					+ (i * bitmap->width), page + i, x,
					bitmap->width);
		}
		break;
     f84:	46c0      	nop			; (mov r8, r8)

	default:
		break;
	}
}
     f86:	46c0      	nop			; (mov r8, r8)
     f88:	46bd      	mov	sp, r7
     f8a:	b005      	add	sp, #20
     f8c:	bd90      	pop	{r4, r7, pc}
     f8e:	46c0      	nop			; (mov r8, r8)
     f90:	0000141d 	.word	0x0000141d
     f94:	0000139d 	.word	0x0000139d

00000f98 <gfx_mono_draw_char_progmem>:
 * \param[in] y        Y coordinate on screen.
 * \param[in] font     Font to draw character in
 */
static void gfx_mono_draw_char_progmem(const char ch, const gfx_coord_t x,
		const gfx_coord_t y, const struct font *font)
{
     f98:	b590      	push	{r4, r7, lr}
     f9a:	b087      	sub	sp, #28
     f9c:	af00      	add	r7, sp, #0
     f9e:	0004      	movs	r4, r0
     fa0:	0008      	movs	r0, r1
     fa2:	0011      	movs	r1, r2
     fa4:	603b      	str	r3, [r7, #0]
     fa6:	1dfb      	adds	r3, r7, #7
     fa8:	1c22      	adds	r2, r4, #0
     faa:	701a      	strb	r2, [r3, #0]
     fac:	1dbb      	adds	r3, r7, #6
     fae:	1c02      	adds	r2, r0, #0
     fb0:	701a      	strb	r2, [r3, #0]
     fb2:	1d7b      	adds	r3, r7, #5
     fb4:	1c0a      	adds	r2, r1, #0
     fb6:	701a      	strb	r2, [r3, #0]
	uint8_t char_row_size;
	uint8_t rows_left;
	uint8_t i;

	/* Sanity check on parameters, assert if font is NULL. */
	if(font == NULL) return;
     fb8:	683b      	ldr	r3, [r7, #0]
     fba:	2b00      	cmp	r3, #0
     fbc:	d100      	bne.n	fc0 <gfx_mono_draw_char_progmem+0x28>
     fbe:	e0a0      	b.n	1102 <gfx_mono_draw_char_progmem+0x16a>

	gfx_coord_t inc_x = x;
     fc0:	2310      	movs	r3, #16
     fc2:	18fb      	adds	r3, r7, r3
     fc4:	1dba      	adds	r2, r7, #6
     fc6:	7812      	ldrb	r2, [r2, #0]
     fc8:	701a      	strb	r2, [r3, #0]
	gfx_coord_t inc_y = y;
     fca:	230f      	movs	r3, #15
     fcc:	18fb      	adds	r3, r7, r3
     fce:	1d7a      	adds	r2, r7, #5
     fd0:	7812      	ldrb	r2, [r2, #0]
     fd2:	701a      	strb	r2, [r3, #0]

	char_row_size = font->width / CONFIG_FONT_PIXELS_PER_BYTE;
     fd4:	683b      	ldr	r3, [r7, #0]
     fd6:	7a1a      	ldrb	r2, [r3, #8]
     fd8:	2313      	movs	r3, #19
     fda:	18fb      	adds	r3, r7, r3
     fdc:	08d2      	lsrs	r2, r2, #3
     fde:	701a      	strb	r2, [r3, #0]
	if (font->width % CONFIG_FONT_PIXELS_PER_BYTE) {
     fe0:	683b      	ldr	r3, [r7, #0]
     fe2:	7a1b      	ldrb	r3, [r3, #8]
     fe4:	2207      	movs	r2, #7
     fe6:	4013      	ands	r3, r2
     fe8:	b2db      	uxtb	r3, r3
     fea:	2b00      	cmp	r3, #0
     fec:	d006      	beq.n	ffc <gfx_mono_draw_char_progmem+0x64>
		char_row_size++;
     fee:	2313      	movs	r3, #19
     ff0:	18fb      	adds	r3, r7, r3
     ff2:	781a      	ldrb	r2, [r3, #0]
     ff4:	2313      	movs	r3, #19
     ff6:	18fb      	adds	r3, r7, r3
     ff8:	3201      	adds	r2, #1
     ffa:	701a      	strb	r2, [r3, #0]
	}

	glyph_data_offset = char_row_size * font->height *
     ffc:	2313      	movs	r3, #19
     ffe:	18fb      	adds	r3, r7, r3
    1000:	781b      	ldrb	r3, [r3, #0]
    1002:	b29b      	uxth	r3, r3
    1004:	683a      	ldr	r2, [r7, #0]
    1006:	7a52      	ldrb	r2, [r2, #9]
    1008:	b292      	uxth	r2, r2
    100a:	4353      	muls	r3, r2
    100c:	b29a      	uxth	r2, r3
			((uint8_t)ch - font->first_char);
    100e:	1dfb      	adds	r3, r7, #7
    1010:	781b      	ldrb	r3, [r3, #0]
    1012:	6839      	ldr	r1, [r7, #0]
    1014:	7a89      	ldrb	r1, [r1, #10]
    1016:	1a5b      	subs	r3, r3, r1
	char_row_size = font->width / CONFIG_FONT_PIXELS_PER_BYTE;
	if (font->width % CONFIG_FONT_PIXELS_PER_BYTE) {
		char_row_size++;
	}

	glyph_data_offset = char_row_size * font->height *
    1018:	b299      	uxth	r1, r3
    101a:	230c      	movs	r3, #12
    101c:	18fb      	adds	r3, r7, r3
    101e:	434a      	muls	r2, r1
    1020:	801a      	strh	r2, [r3, #0]
			((uint8_t)ch - font->first_char);
	glyph_data = font->data.progmem + glyph_data_offset;
    1022:	683b      	ldr	r3, [r7, #0]
    1024:	685a      	ldr	r2, [r3, #4]
    1026:	230c      	movs	r3, #12
    1028:	18fb      	adds	r3, r7, r3
    102a:	881b      	ldrh	r3, [r3, #0]
    102c:	18d3      	adds	r3, r2, r3
    102e:	617b      	str	r3, [r7, #20]
	rows_left = font->height;
    1030:	2312      	movs	r3, #18
    1032:	18fb      	adds	r3, r7, r3
    1034:	683a      	ldr	r2, [r7, #0]
    1036:	7a52      	ldrb	r2, [r2, #9]
    1038:	701a      	strb	r2, [r3, #0]

	do {
		uint8_t glyph_byte = 0;
    103a:	230e      	movs	r3, #14
    103c:	18fb      	adds	r3, r7, r3
    103e:	2200      	movs	r2, #0
    1040:	701a      	strb	r2, [r3, #0]
		uint8_t pixelsToDraw = font->width;
    1042:	230b      	movs	r3, #11
    1044:	18fb      	adds	r3, r7, r3
    1046:	683a      	ldr	r2, [r7, #0]
    1048:	7a12      	ldrb	r2, [r2, #8]
    104a:	701a      	strb	r2, [r3, #0]

		for (i = 0; i < pixelsToDraw; i++) {
    104c:	2311      	movs	r3, #17
    104e:	18fb      	adds	r3, r7, r3
    1050:	2200      	movs	r2, #0
    1052:	701a      	strb	r2, [r3, #0]
    1054:	e034      	b.n	10c0 <gfx_mono_draw_char_progmem+0x128>
			if (i % CONFIG_FONT_PIXELS_PER_BYTE == 0) {
    1056:	2311      	movs	r3, #17
    1058:	18fb      	adds	r3, r7, r3
    105a:	781b      	ldrb	r3, [r3, #0]
    105c:	2207      	movs	r2, #7
    105e:	4013      	ands	r3, r2
    1060:	b2db      	uxtb	r3, r3
    1062:	2b00      	cmp	r3, #0
    1064:	d107      	bne.n	1076 <gfx_mono_draw_char_progmem+0xde>
				glyph_byte = PROGMEM_READ_BYTE(glyph_data);
    1066:	230e      	movs	r3, #14
    1068:	18fb      	adds	r3, r7, r3
    106a:	697a      	ldr	r2, [r7, #20]
    106c:	7812      	ldrb	r2, [r2, #0]
    106e:	701a      	strb	r2, [r3, #0]
				glyph_data++;
    1070:	697b      	ldr	r3, [r7, #20]
    1072:	3301      	adds	r3, #1
    1074:	617b      	str	r3, [r7, #20]
			}

			if ((glyph_byte & 0x80)) {
    1076:	230e      	movs	r3, #14
    1078:	18fb      	adds	r3, r7, r3
    107a:	781b      	ldrb	r3, [r3, #0]
    107c:	b25b      	sxtb	r3, r3
    107e:	2b00      	cmp	r3, #0
    1080:	da09      	bge.n	1096 <gfx_mono_draw_char_progmem+0xfe>
				gfx_mono_draw_pixel(inc_x, inc_y,
    1082:	230f      	movs	r3, #15
    1084:	18fb      	adds	r3, r7, r3
    1086:	7819      	ldrb	r1, [r3, #0]
    1088:	2310      	movs	r3, #16
    108a:	18fb      	adds	r3, r7, r3
    108c:	781b      	ldrb	r3, [r3, #0]
    108e:	2201      	movs	r2, #1
    1090:	0018      	movs	r0, r3
    1092:	4b1e      	ldr	r3, [pc, #120]	; (110c <gfx_mono_draw_char_progmem+0x174>)
    1094:	4798      	blx	r3
						GFX_PIXEL_SET);
			}

			inc_x += 1;
    1096:	2310      	movs	r3, #16
    1098:	18fb      	adds	r3, r7, r3
    109a:	2210      	movs	r2, #16
    109c:	18ba      	adds	r2, r7, r2
    109e:	7812      	ldrb	r2, [r2, #0]
    10a0:	3201      	adds	r2, #1
    10a2:	701a      	strb	r2, [r3, #0]
			glyph_byte <<= 1;
    10a4:	230e      	movs	r3, #14
    10a6:	18fa      	adds	r2, r7, r3
    10a8:	230e      	movs	r3, #14
    10aa:	18fb      	adds	r3, r7, r3
    10ac:	781b      	ldrb	r3, [r3, #0]
    10ae:	18db      	adds	r3, r3, r3
    10b0:	7013      	strb	r3, [r2, #0]

	do {
		uint8_t glyph_byte = 0;
		uint8_t pixelsToDraw = font->width;

		for (i = 0; i < pixelsToDraw; i++) {
    10b2:	2311      	movs	r3, #17
    10b4:	18fb      	adds	r3, r7, r3
    10b6:	781a      	ldrb	r2, [r3, #0]
    10b8:	2311      	movs	r3, #17
    10ba:	18fb      	adds	r3, r7, r3
    10bc:	3201      	adds	r2, #1
    10be:	701a      	strb	r2, [r3, #0]
    10c0:	2311      	movs	r3, #17
    10c2:	18fa      	adds	r2, r7, r3
    10c4:	230b      	movs	r3, #11
    10c6:	18fb      	adds	r3, r7, r3
    10c8:	7812      	ldrb	r2, [r2, #0]
    10ca:	781b      	ldrb	r3, [r3, #0]
    10cc:	429a      	cmp	r2, r3
    10ce:	d3c2      	bcc.n	1056 <gfx_mono_draw_char_progmem+0xbe>

			inc_x += 1;
			glyph_byte <<= 1;
		}

		inc_y += 1;
    10d0:	230f      	movs	r3, #15
    10d2:	18fb      	adds	r3, r7, r3
    10d4:	220f      	movs	r2, #15
    10d6:	18ba      	adds	r2, r7, r2
    10d8:	7812      	ldrb	r2, [r2, #0]
    10da:	3201      	adds	r2, #1
    10dc:	701a      	strb	r2, [r3, #0]
		inc_x = x;
    10de:	2310      	movs	r3, #16
    10e0:	18fb      	adds	r3, r7, r3
    10e2:	1dba      	adds	r2, r7, #6
    10e4:	7812      	ldrb	r2, [r2, #0]
    10e6:	701a      	strb	r2, [r3, #0]
		rows_left--;
    10e8:	2312      	movs	r3, #18
    10ea:	18fb      	adds	r3, r7, r3
    10ec:	781a      	ldrb	r2, [r3, #0]
    10ee:	2312      	movs	r3, #18
    10f0:	18fb      	adds	r3, r7, r3
    10f2:	3a01      	subs	r2, #1
    10f4:	701a      	strb	r2, [r3, #0]
	} while (rows_left > 0);
    10f6:	2312      	movs	r3, #18
    10f8:	18fb      	adds	r3, r7, r3
    10fa:	781b      	ldrb	r3, [r3, #0]
    10fc:	2b00      	cmp	r3, #0
    10fe:	d19c      	bne.n	103a <gfx_mono_draw_char_progmem+0xa2>
    1100:	e000      	b.n	1104 <gfx_mono_draw_char_progmem+0x16c>
	uint8_t char_row_size;
	uint8_t rows_left;
	uint8_t i;

	/* Sanity check on parameters, assert if font is NULL. */
	if(font == NULL) return;
    1102:	46c0      	nop			; (mov r8, r8)

		inc_y += 1;
		inc_x = x;
		rows_left--;
	} while (rows_left > 0);
}
    1104:	46bd      	mov	sp, r7
    1106:	b007      	add	sp, #28
    1108:	bd90      	pop	{r4, r7, pc}
    110a:	46c0      	nop			; (mov r8, r8)
    110c:	000012a9 	.word	0x000012a9

00001110 <gfx_mono_draw_char>:
 * \param[in] y        Y coordinate on screen.
 * \param[in] font     Font to draw character in
 */
void gfx_mono_draw_char(const char c, const gfx_coord_t x, const gfx_coord_t y,
		const struct font *font)
{
    1110:	b590      	push	{r4, r7, lr}
    1112:	b085      	sub	sp, #20
    1114:	af02      	add	r7, sp, #8
    1116:	0004      	movs	r4, r0
    1118:	0008      	movs	r0, r1
    111a:	0011      	movs	r1, r2
    111c:	603b      	str	r3, [r7, #0]
    111e:	1dfb      	adds	r3, r7, #7
    1120:	1c22      	adds	r2, r4, #0
    1122:	701a      	strb	r2, [r3, #0]
    1124:	1dbb      	adds	r3, r7, #6
    1126:	1c02      	adds	r2, r0, #0
    1128:	701a      	strb	r2, [r3, #0]
    112a:	1d7b      	adds	r3, r7, #5
    112c:	1c0a      	adds	r2, r1, #0
    112e:	701a      	strb	r2, [r3, #0]
	gfx_mono_draw_filled_rect(x, y, font->width, font->height,
    1130:	683b      	ldr	r3, [r7, #0]
    1132:	7a1a      	ldrb	r2, [r3, #8]
    1134:	683b      	ldr	r3, [r7, #0]
    1136:	7a5c      	ldrb	r4, [r3, #9]
    1138:	1d7b      	adds	r3, r7, #5
    113a:	7819      	ldrb	r1, [r3, #0]
    113c:	1dbb      	adds	r3, r7, #6
    113e:	7818      	ldrb	r0, [r3, #0]
    1140:	2300      	movs	r3, #0
    1142:	9300      	str	r3, [sp, #0]
    1144:	0023      	movs	r3, r4
    1146:	4c0a      	ldr	r4, [pc, #40]	; (1170 <gfx_mono_draw_char+0x60>)
    1148:	47a0      	blx	r4
			GFX_PIXEL_CLR);

	switch (font->type) {
    114a:	683b      	ldr	r3, [r7, #0]
    114c:	781b      	ldrb	r3, [r3, #0]
    114e:	2b00      	cmp	r3, #0
    1150:	d000      	beq.n	1154 <gfx_mono_draw_char+0x44>
		gfx_mono_draw_char_progmem(c, x, y, font);
		break;

	default:
		/* Unsupported mode, call assert */
		return;
    1152:	e00a      	b.n	116a <gfx_mono_draw_char+0x5a>
	gfx_mono_draw_filled_rect(x, y, font->width, font->height,
			GFX_PIXEL_CLR);

	switch (font->type) {
	case FONT_LOC_PROGMEM:
		gfx_mono_draw_char_progmem(c, x, y, font);
    1154:	683c      	ldr	r4, [r7, #0]
    1156:	1d7b      	adds	r3, r7, #5
    1158:	781a      	ldrb	r2, [r3, #0]
    115a:	1dbb      	adds	r3, r7, #6
    115c:	7819      	ldrb	r1, [r3, #0]
    115e:	1dfb      	adds	r3, r7, #7
    1160:	7818      	ldrb	r0, [r3, #0]
    1162:	0023      	movs	r3, r4
    1164:	4c03      	ldr	r4, [pc, #12]	; (1174 <gfx_mono_draw_char+0x64>)
    1166:	47a0      	blx	r4
		break;
    1168:	46c0      	nop			; (mov r8, r8)
	default:
		/* Unsupported mode, call assert */
		return;
		break;
	}
}
    116a:	46bd      	mov	sp, r7
    116c:	b003      	add	sp, #12
    116e:	bd90      	pop	{r4, r7, pc}
    1170:	00000de5 	.word	0x00000de5
    1174:	00000f99 	.word	0x00000f99

00001178 <gfx_mono_draw_string>:
 * \param[in] y         Y coordinate on screen.
 * \param[in] font      Font to draw string in
 */
void gfx_mono_draw_string(const char *str, gfx_coord_t x, gfx_coord_t y,
		const struct font *font)
{
    1178:	b590      	push	{r4, r7, lr}
    117a:	b087      	sub	sp, #28
    117c:	af00      	add	r7, sp, #0
    117e:	60f8      	str	r0, [r7, #12]
    1180:	0008      	movs	r0, r1
    1182:	0011      	movs	r1, r2
    1184:	607b      	str	r3, [r7, #4]
    1186:	230b      	movs	r3, #11
    1188:	18fb      	adds	r3, r7, r3
    118a:	1c02      	adds	r2, r0, #0
    118c:	701a      	strb	r2, [r3, #0]
    118e:	230a      	movs	r3, #10
    1190:	18fb      	adds	r3, r7, r3
    1192:	1c0a      	adds	r2, r1, #0
    1194:	701a      	strb	r2, [r3, #0]
	/* Save X in order to know where to return to on CR. */
	const gfx_coord_t start_of_string_position_x = x;
    1196:	2317      	movs	r3, #23
    1198:	18fb      	adds	r3, r7, r3
    119a:	220b      	movs	r2, #11
    119c:	18ba      	adds	r2, r7, r2
    119e:	7812      	ldrb	r2, [r2, #0]
    11a0:	701a      	strb	r2, [r3, #0]

	/* Sanity check on parameters, assert if str or font is NULL. */
	if(str == NULL) return;
    11a2:	68fb      	ldr	r3, [r7, #12]
    11a4:	2b00      	cmp	r3, #0
    11a6:	d039      	beq.n	121c <gfx_mono_draw_string+0xa4>
	if(font == NULL) return;
    11a8:	687b      	ldr	r3, [r7, #4]
    11aa:	2b00      	cmp	r3, #0
    11ac:	d038      	beq.n	1220 <gfx_mono_draw_string+0xa8>

	/* Draw characters until trailing null byte */
	do {
		/* Handle '\n' as newline, draw normal characters. */
		if (*str == '\n') {
    11ae:	68fb      	ldr	r3, [r7, #12]
    11b0:	781b      	ldrb	r3, [r3, #0]
    11b2:	2b0a      	cmp	r3, #10
    11b4:	d111      	bne.n	11da <gfx_mono_draw_string+0x62>
			x = start_of_string_position_x;
    11b6:	230b      	movs	r3, #11
    11b8:	18fb      	adds	r3, r7, r3
    11ba:	2217      	movs	r2, #23
    11bc:	18ba      	adds	r2, r7, r2
    11be:	7812      	ldrb	r2, [r2, #0]
    11c0:	701a      	strb	r2, [r3, #0]
			y += font->height + 1;
    11c2:	687b      	ldr	r3, [r7, #4]
    11c4:	7a5a      	ldrb	r2, [r3, #9]
    11c6:	230a      	movs	r3, #10
    11c8:	18fb      	adds	r3, r7, r3
    11ca:	781b      	ldrb	r3, [r3, #0]
    11cc:	18d3      	adds	r3, r2, r3
    11ce:	b2da      	uxtb	r2, r3
    11d0:	230a      	movs	r3, #10
    11d2:	18fb      	adds	r3, r7, r3
    11d4:	3201      	adds	r2, #1
    11d6:	701a      	strb	r2, [r3, #0]
    11d8:	e018      	b.n	120c <gfx_mono_draw_string+0x94>
		} else if (*str == '\r') {
    11da:	68fb      	ldr	r3, [r7, #12]
    11dc:	781b      	ldrb	r3, [r3, #0]
    11de:	2b0d      	cmp	r3, #13
    11e0:	d014      	beq.n	120c <gfx_mono_draw_string+0x94>
			/* Skip '\r' characters. */
		} else {
			gfx_mono_draw_char(*str, x, y, font);
    11e2:	68fb      	ldr	r3, [r7, #12]
    11e4:	7818      	ldrb	r0, [r3, #0]
    11e6:	687c      	ldr	r4, [r7, #4]
    11e8:	230a      	movs	r3, #10
    11ea:	18fb      	adds	r3, r7, r3
    11ec:	781a      	ldrb	r2, [r3, #0]
    11ee:	230b      	movs	r3, #11
    11f0:	18fb      	adds	r3, r7, r3
    11f2:	7819      	ldrb	r1, [r3, #0]
    11f4:	0023      	movs	r3, r4
    11f6:	4c0c      	ldr	r4, [pc, #48]	; (1228 <gfx_mono_draw_string+0xb0>)
    11f8:	47a0      	blx	r4
			x += font->width;
    11fa:	687b      	ldr	r3, [r7, #4]
    11fc:	7a19      	ldrb	r1, [r3, #8]
    11fe:	230b      	movs	r3, #11
    1200:	18fb      	adds	r3, r7, r3
    1202:	220b      	movs	r2, #11
    1204:	18ba      	adds	r2, r7, r2
    1206:	7812      	ldrb	r2, [r2, #0]
    1208:	188a      	adds	r2, r1, r2
    120a:	701a      	strb	r2, [r3, #0]
		}
	} while (*(++str));
    120c:	68fb      	ldr	r3, [r7, #12]
    120e:	3301      	adds	r3, #1
    1210:	60fb      	str	r3, [r7, #12]
    1212:	68fb      	ldr	r3, [r7, #12]
    1214:	781b      	ldrb	r3, [r3, #0]
    1216:	2b00      	cmp	r3, #0
    1218:	d1c9      	bne.n	11ae <gfx_mono_draw_string+0x36>
    121a:	e002      	b.n	1222 <gfx_mono_draw_string+0xaa>
{
	/* Save X in order to know where to return to on CR. */
	const gfx_coord_t start_of_string_position_x = x;

	/* Sanity check on parameters, assert if str or font is NULL. */
	if(str == NULL) return;
    121c:	46c0      	nop			; (mov r8, r8)
    121e:	e000      	b.n	1222 <gfx_mono_draw_string+0xaa>
	if(font == NULL) return;
    1220:	46c0      	nop			; (mov r8, r8)
		} else {
			gfx_mono_draw_char(*str, x, y, font);
			x += font->width;
		}
	} while (*(++str));
}
    1222:	46bd      	mov	sp, r7
    1224:	b007      	add	sp, #28
    1226:	bd90      	pop	{r4, r7, pc}
    1228:	00001111 	.word	0x00001111

0000122c <gfx_mono_ssd1306_init>:
 * It will also write the graphic controller RAM to all zeroes.
 *
 * \note This function will clear the contents of the display.
 */
void gfx_mono_ssd1306_init(void)
{
    122c:	b590      	push	{r4, r7, lr}
    122e:	b083      	sub	sp, #12
    1230:	af00      	add	r7, sp, #0
	uint8_t page;
	uint8_t column;

#ifdef CONFIG_SSD1306_FRAMEBUFFER
	gfx_mono_set_framebuffer(framebuffer);
    1232:	4b18      	ldr	r3, [pc, #96]	; (1294 <gfx_mono_ssd1306_init+0x68>)
    1234:	0018      	movs	r0, r3
    1236:	4b18      	ldr	r3, [pc, #96]	; (1298 <gfx_mono_ssd1306_init+0x6c>)
    1238:	4798      	blx	r3
#endif

	/* Initialize the low-level display controller. */
	ssd1306_init();
    123a:	4b18      	ldr	r3, [pc, #96]	; (129c <gfx_mono_ssd1306_init+0x70>)
    123c:	4798      	blx	r3

	/* Set display to output data from line 0 */
	ssd1306_set_display_start_line_address(0);
    123e:	2000      	movs	r0, #0
    1240:	4b17      	ldr	r3, [pc, #92]	; (12a0 <gfx_mono_ssd1306_init+0x74>)
    1242:	4798      	blx	r3

	/* Clear the contents of the display.
	 * If using a framebuffer (SPI interface) it will both clear the
	 * controller memory and the framebuffer.
	 */
	for (page = 0; page < GFX_MONO_LCD_PAGES; page++) {
    1244:	1dfb      	adds	r3, r7, #7
    1246:	2200      	movs	r2, #0
    1248:	701a      	strb	r2, [r3, #0]
    124a:	e01a      	b.n	1282 <gfx_mono_ssd1306_init+0x56>
		for (column = 0; column < GFX_MONO_LCD_WIDTH; column++) {
    124c:	1dbb      	adds	r3, r7, #6
    124e:	2200      	movs	r2, #0
    1250:	701a      	strb	r2, [r3, #0]
    1252:	e00c      	b.n	126e <gfx_mono_ssd1306_init+0x42>
			gfx_mono_ssd1306_put_byte(page, column, 0x00, true);
    1254:	1dbb      	adds	r3, r7, #6
    1256:	7819      	ldrb	r1, [r3, #0]
    1258:	1dfb      	adds	r3, r7, #7
    125a:	7818      	ldrb	r0, [r3, #0]
    125c:	2301      	movs	r3, #1
    125e:	2200      	movs	r2, #0
    1260:	4c10      	ldr	r4, [pc, #64]	; (12a4 <gfx_mono_ssd1306_init+0x78>)
    1262:	47a0      	blx	r4
	/* Clear the contents of the display.
	 * If using a framebuffer (SPI interface) it will both clear the
	 * controller memory and the framebuffer.
	 */
	for (page = 0; page < GFX_MONO_LCD_PAGES; page++) {
		for (column = 0; column < GFX_MONO_LCD_WIDTH; column++) {
    1264:	1dbb      	adds	r3, r7, #6
    1266:	781a      	ldrb	r2, [r3, #0]
    1268:	1dbb      	adds	r3, r7, #6
    126a:	3201      	adds	r2, #1
    126c:	701a      	strb	r2, [r3, #0]
    126e:	1dbb      	adds	r3, r7, #6
    1270:	781b      	ldrb	r3, [r3, #0]
    1272:	b25b      	sxtb	r3, r3
    1274:	2b00      	cmp	r3, #0
    1276:	daed      	bge.n	1254 <gfx_mono_ssd1306_init+0x28>

	/* Clear the contents of the display.
	 * If using a framebuffer (SPI interface) it will both clear the
	 * controller memory and the framebuffer.
	 */
	for (page = 0; page < GFX_MONO_LCD_PAGES; page++) {
    1278:	1dfb      	adds	r3, r7, #7
    127a:	781a      	ldrb	r2, [r3, #0]
    127c:	1dfb      	adds	r3, r7, #7
    127e:	3201      	adds	r2, #1
    1280:	701a      	strb	r2, [r3, #0]
    1282:	1dfb      	adds	r3, r7, #7
    1284:	781b      	ldrb	r3, [r3, #0]
    1286:	2b03      	cmp	r3, #3
    1288:	d9e0      	bls.n	124c <gfx_mono_ssd1306_init+0x20>
		for (column = 0; column < GFX_MONO_LCD_WIDTH; column++) {
			gfx_mono_ssd1306_put_byte(page, column, 0x00, true);
		}
	}
}
    128a:	46c0      	nop			; (mov r8, r8)
    128c:	46bd      	mov	sp, r7
    128e:	b003      	add	sp, #12
    1290:	bd90      	pop	{r4, r7, pc}
    1292:	46c0      	nop			; (mov r8, r8)
    1294:	200008e8 	.word	0x200008e8
    1298:	00000b1d 	.word	0x00000b1d
    129c:	00000a65 	.word	0x00000a65
    12a0:	00000641 	.word	0x00000641
    12a4:	0000141d 	.word	0x0000141d

000012a8 <gfx_mono_ssd1306_draw_pixel>:
	gfx_mono_ssd1306_draw_pixel(10, 10, GFX_PIXEL_XOR);
\endcode
 */
void gfx_mono_ssd1306_draw_pixel(gfx_coord_t x, gfx_coord_t y,
		gfx_coord_t color)
{
    12a8:	b590      	push	{r4, r7, lr}
    12aa:	b085      	sub	sp, #20
    12ac:	af00      	add	r7, sp, #0
    12ae:	0004      	movs	r4, r0
    12b0:	0008      	movs	r0, r1
    12b2:	0011      	movs	r1, r2
    12b4:	1dfb      	adds	r3, r7, #7
    12b6:	1c22      	adds	r2, r4, #0
    12b8:	701a      	strb	r2, [r3, #0]
    12ba:	1dbb      	adds	r3, r7, #6
    12bc:	1c02      	adds	r2, r0, #0
    12be:	701a      	strb	r2, [r3, #0]
    12c0:	1d7b      	adds	r3, r7, #5
    12c2:	1c0a      	adds	r2, r1, #0
    12c4:	701a      	strb	r2, [r3, #0]
	uint8_t page;
	uint8_t pixel_mask;
	uint8_t pixel_value;

	/* Discard pixels drawn outside the screen */
	if ((x > GFX_MONO_LCD_WIDTH - 1) || (y > GFX_MONO_LCD_HEIGHT - 1)) {
    12c6:	1dfb      	adds	r3, r7, #7
    12c8:	781b      	ldrb	r3, [r3, #0]
    12ca:	b25b      	sxtb	r3, r3
    12cc:	2b00      	cmp	r3, #0
    12ce:	db5d      	blt.n	138c <gfx_mono_ssd1306_draw_pixel+0xe4>
    12d0:	1dbb      	adds	r3, r7, #6
    12d2:	781b      	ldrb	r3, [r3, #0]
    12d4:	2b1f      	cmp	r3, #31
    12d6:	d859      	bhi.n	138c <gfx_mono_ssd1306_draw_pixel+0xe4>
		return;
	}

	page = y / GFX_MONO_LCD_PIXELS_PER_BYTE;
    12d8:	230e      	movs	r3, #14
    12da:	18fb      	adds	r3, r7, r3
    12dc:	1dba      	adds	r2, r7, #6
    12de:	7812      	ldrb	r2, [r2, #0]
    12e0:	08d2      	lsrs	r2, r2, #3
    12e2:	701a      	strb	r2, [r3, #0]
	pixel_mask = (1 << (y - (page * 8)));
    12e4:	1dbb      	adds	r3, r7, #6
    12e6:	781a      	ldrb	r2, [r3, #0]
    12e8:	230e      	movs	r3, #14
    12ea:	18fb      	adds	r3, r7, r3
    12ec:	781b      	ldrb	r3, [r3, #0]
    12ee:	00db      	lsls	r3, r3, #3
    12f0:	1ad3      	subs	r3, r2, r3
    12f2:	2201      	movs	r2, #1
    12f4:	409a      	lsls	r2, r3
    12f6:	230d      	movs	r3, #13
    12f8:	18fb      	adds	r3, r7, r3
    12fa:	701a      	strb	r2, [r3, #0]
	/*
	 * Read the page containing the pixel in interest, then perform the
	 * requested action on this pixel before writing the page back to the
	 * display.
	 */
	pixel_value = gfx_mono_get_byte(page, x);
    12fc:	230f      	movs	r3, #15
    12fe:	18fc      	adds	r4, r7, r3
    1300:	1dfb      	adds	r3, r7, #7
    1302:	781a      	ldrb	r2, [r3, #0]
    1304:	230e      	movs	r3, #14
    1306:	18fb      	adds	r3, r7, r3
    1308:	781b      	ldrb	r3, [r3, #0]
    130a:	0011      	movs	r1, r2
    130c:	0018      	movs	r0, r3
    130e:	4b21      	ldr	r3, [pc, #132]	; (1394 <gfx_mono_ssd1306_draw_pixel+0xec>)
    1310:	4798      	blx	r3
    1312:	0003      	movs	r3, r0
    1314:	7023      	strb	r3, [r4, #0]

	switch (color) {
    1316:	1d7b      	adds	r3, r7, #5
    1318:	781b      	ldrb	r3, [r3, #0]
    131a:	2b01      	cmp	r3, #1
    131c:	d004      	beq.n	1328 <gfx_mono_ssd1306_draw_pixel+0x80>
    131e:	2b02      	cmp	r3, #2
    1320:	d01d      	beq.n	135e <gfx_mono_ssd1306_draw_pixel+0xb6>
    1322:	2b00      	cmp	r3, #0
    1324:	d00b      	beq.n	133e <gfx_mono_ssd1306_draw_pixel+0x96>
	case GFX_PIXEL_XOR:
		pixel_value ^= pixel_mask;
		break;

	default:
		break;
    1326:	e025      	b.n	1374 <gfx_mono_ssd1306_draw_pixel+0xcc>
	 */
	pixel_value = gfx_mono_get_byte(page, x);

	switch (color) {
	case GFX_PIXEL_SET:
		pixel_value |= pixel_mask;
    1328:	230f      	movs	r3, #15
    132a:	18fb      	adds	r3, r7, r3
    132c:	220f      	movs	r2, #15
    132e:	18b9      	adds	r1, r7, r2
    1330:	220d      	movs	r2, #13
    1332:	18ba      	adds	r2, r7, r2
    1334:	7809      	ldrb	r1, [r1, #0]
    1336:	7812      	ldrb	r2, [r2, #0]
    1338:	430a      	orrs	r2, r1
    133a:	701a      	strb	r2, [r3, #0]
		break;
    133c:	e01a      	b.n	1374 <gfx_mono_ssd1306_draw_pixel+0xcc>

	case GFX_PIXEL_CLR:
		pixel_value &= ~pixel_mask;
    133e:	230d      	movs	r3, #13
    1340:	18fb      	adds	r3, r7, r3
    1342:	781b      	ldrb	r3, [r3, #0]
    1344:	b25b      	sxtb	r3, r3
    1346:	43db      	mvns	r3, r3
    1348:	b25b      	sxtb	r3, r3
    134a:	220f      	movs	r2, #15
    134c:	18ba      	adds	r2, r7, r2
    134e:	7812      	ldrb	r2, [r2, #0]
    1350:	b252      	sxtb	r2, r2
    1352:	4013      	ands	r3, r2
    1354:	b25a      	sxtb	r2, r3
    1356:	230f      	movs	r3, #15
    1358:	18fb      	adds	r3, r7, r3
    135a:	701a      	strb	r2, [r3, #0]
		break;
    135c:	e00a      	b.n	1374 <gfx_mono_ssd1306_draw_pixel+0xcc>

	case GFX_PIXEL_XOR:
		pixel_value ^= pixel_mask;
    135e:	230f      	movs	r3, #15
    1360:	18fb      	adds	r3, r7, r3
    1362:	220f      	movs	r2, #15
    1364:	18b9      	adds	r1, r7, r2
    1366:	220d      	movs	r2, #13
    1368:	18ba      	adds	r2, r7, r2
    136a:	7809      	ldrb	r1, [r1, #0]
    136c:	7812      	ldrb	r2, [r2, #0]
    136e:	404a      	eors	r2, r1
    1370:	701a      	strb	r2, [r3, #0]
		break;
    1372:	46c0      	nop			; (mov r8, r8)

	default:
		break;
	}

	gfx_mono_put_byte(page, x, pixel_value);
    1374:	230f      	movs	r3, #15
    1376:	18fb      	adds	r3, r7, r3
    1378:	781a      	ldrb	r2, [r3, #0]
    137a:	1dfb      	adds	r3, r7, #7
    137c:	7819      	ldrb	r1, [r3, #0]
    137e:	230e      	movs	r3, #14
    1380:	18fb      	adds	r3, r7, r3
    1382:	7818      	ldrb	r0, [r3, #0]
    1384:	2300      	movs	r3, #0
    1386:	4c04      	ldr	r4, [pc, #16]	; (1398 <gfx_mono_ssd1306_draw_pixel+0xf0>)
    1388:	47a0      	blx	r4
    138a:	e000      	b.n	138e <gfx_mono_ssd1306_draw_pixel+0xe6>
	uint8_t pixel_mask;
	uint8_t pixel_value;

	/* Discard pixels drawn outside the screen */
	if ((x > GFX_MONO_LCD_WIDTH - 1) || (y > GFX_MONO_LCD_HEIGHT - 1)) {
		return;
    138c:	46c0      	nop			; (mov r8, r8)
	default:
		break;
	}

	gfx_mono_put_byte(page, x, pixel_value);
}
    138e:	46bd      	mov	sp, r7
    1390:	b005      	add	sp, #20
    1392:	bd90      	pop	{r4, r7, pc}
    1394:	000014b5 	.word	0x000014b5
    1398:	0000141d 	.word	0x0000141d

0000139c <gfx_mono_ssd1306_put_page>:
	gfx_mono_ssd1306_put_page(data_buf, 0, 10, 32);
\endcode
 */
void gfx_mono_ssd1306_put_page(gfx_mono_color_t *data, gfx_coord_t page,
		gfx_coord_t column, gfx_coord_t width)
{
    139c:	b590      	push	{r4, r7, lr}
    139e:	b083      	sub	sp, #12
    13a0:	af00      	add	r7, sp, #0
    13a2:	6078      	str	r0, [r7, #4]
    13a4:	000c      	movs	r4, r1
    13a6:	0010      	movs	r0, r2
    13a8:	0019      	movs	r1, r3
    13aa:	1cfb      	adds	r3, r7, #3
    13ac:	1c22      	adds	r2, r4, #0
    13ae:	701a      	strb	r2, [r3, #0]
    13b0:	1cbb      	adds	r3, r7, #2
    13b2:	1c02      	adds	r2, r0, #0
    13b4:	701a      	strb	r2, [r3, #0]
    13b6:	1c7b      	adds	r3, r7, #1
    13b8:	1c0a      	adds	r2, r1, #0
    13ba:	701a      	strb	r2, [r3, #0]
#ifdef CONFIG_SSD1306_FRAMEBUFFER
	gfx_mono_framebuffer_put_page(data, page, column, width);
    13bc:	1c7b      	adds	r3, r7, #1
    13be:	781c      	ldrb	r4, [r3, #0]
    13c0:	1cbb      	adds	r3, r7, #2
    13c2:	781a      	ldrb	r2, [r3, #0]
    13c4:	1cfb      	adds	r3, r7, #3
    13c6:	7819      	ldrb	r1, [r3, #0]
    13c8:	6878      	ldr	r0, [r7, #4]
    13ca:	0023      	movs	r3, r4
    13cc:	4c0f      	ldr	r4, [pc, #60]	; (140c <gfx_mono_ssd1306_put_page+0x70>)
    13ce:	47a0      	blx	r4
#endif
	ssd1306_set_page_address(page);
    13d0:	1cfb      	adds	r3, r7, #3
    13d2:	781b      	ldrb	r3, [r3, #0]
    13d4:	0018      	movs	r0, r3
    13d6:	4b0e      	ldr	r3, [pc, #56]	; (1410 <gfx_mono_ssd1306_put_page+0x74>)
    13d8:	4798      	blx	r3
	ssd1306_set_column_address(column);
    13da:	1cbb      	adds	r3, r7, #2
    13dc:	781b      	ldrb	r3, [r3, #0]
    13de:	0018      	movs	r0, r3
    13e0:	4b0c      	ldr	r3, [pc, #48]	; (1414 <gfx_mono_ssd1306_put_page+0x78>)
    13e2:	4798      	blx	r3

	do {
		ssd1306_write_data(*data++);
    13e4:	687b      	ldr	r3, [r7, #4]
    13e6:	1c5a      	adds	r2, r3, #1
    13e8:	607a      	str	r2, [r7, #4]
    13ea:	781b      	ldrb	r3, [r3, #0]
    13ec:	0018      	movs	r0, r3
    13ee:	4b0a      	ldr	r3, [pc, #40]	; (1418 <gfx_mono_ssd1306_put_page+0x7c>)
    13f0:	4798      	blx	r3
	} while (--width);
    13f2:	1c7b      	adds	r3, r7, #1
    13f4:	1c7a      	adds	r2, r7, #1
    13f6:	7812      	ldrb	r2, [r2, #0]
    13f8:	3a01      	subs	r2, #1
    13fa:	701a      	strb	r2, [r3, #0]
    13fc:	1c7b      	adds	r3, r7, #1
    13fe:	781b      	ldrb	r3, [r3, #0]
    1400:	2b00      	cmp	r3, #0
    1402:	d1ef      	bne.n	13e4 <gfx_mono_ssd1306_put_page+0x48>
}
    1404:	46c0      	nop			; (mov r8, r8)
    1406:	46bd      	mov	sp, r7
    1408:	b003      	add	sp, #12
    140a:	bd90      	pop	{r4, r7, pc}
    140c:	00000b39 	.word	0x00000b39
    1410:	000005c1 	.word	0x000005c1
    1414:	000005f9 	.word	0x000005f9
    1418:	00000a25 	.word	0x00000a25

0000141c <gfx_mono_ssd1306_put_byte>:
	gfx_mono_ssd1306_put_byte(0, 0, 0xFF, false);
\endcode
  */
 void gfx_mono_ssd1306_put_byte(gfx_coord_t page, gfx_coord_t column,
		uint8_t data, unsigned char force)
{
    141c:	b5b0      	push	{r4, r5, r7, lr}
    141e:	b082      	sub	sp, #8
    1420:	af00      	add	r7, sp, #0
    1422:	0005      	movs	r5, r0
    1424:	000c      	movs	r4, r1
    1426:	0010      	movs	r0, r2
    1428:	0019      	movs	r1, r3
    142a:	1dfb      	adds	r3, r7, #7
    142c:	1c2a      	adds	r2, r5, #0
    142e:	701a      	strb	r2, [r3, #0]
    1430:	1dbb      	adds	r3, r7, #6
    1432:	1c22      	adds	r2, r4, #0
    1434:	701a      	strb	r2, [r3, #0]
    1436:	1d7b      	adds	r3, r7, #5
    1438:	1c02      	adds	r2, r0, #0
    143a:	701a      	strb	r2, [r3, #0]
    143c:	1d3b      	adds	r3, r7, #4
    143e:	1c0a      	adds	r2, r1, #0
    1440:	701a      	strb	r2, [r3, #0]
#ifdef CONFIG_SSD1306_FRAMEBUFFER
	if (!force && data == gfx_mono_framebuffer_get_byte(page, column)) {
    1442:	1d3b      	adds	r3, r7, #4
    1444:	781b      	ldrb	r3, [r3, #0]
    1446:	2b00      	cmp	r3, #0
    1448:	d10d      	bne.n	1466 <gfx_mono_ssd1306_put_byte+0x4a>
    144a:	1dbb      	adds	r3, r7, #6
    144c:	781a      	ldrb	r2, [r3, #0]
    144e:	1dfb      	adds	r3, r7, #7
    1450:	781b      	ldrb	r3, [r3, #0]
    1452:	0011      	movs	r1, r2
    1454:	0018      	movs	r0, r3
    1456:	4b12      	ldr	r3, [pc, #72]	; (14a0 <gfx_mono_ssd1306_put_byte+0x84>)
    1458:	4798      	blx	r3
    145a:	0003      	movs	r3, r0
    145c:	001a      	movs	r2, r3
    145e:	1d7b      	adds	r3, r7, #5
    1460:	781b      	ldrb	r3, [r3, #0]
    1462:	4293      	cmp	r3, r2
    1464:	d018      	beq.n	1498 <gfx_mono_ssd1306_put_byte+0x7c>
		return;
	}
	gfx_mono_framebuffer_put_byte(page, column, data);
    1466:	1d7b      	adds	r3, r7, #5
    1468:	781a      	ldrb	r2, [r3, #0]
    146a:	1dbb      	adds	r3, r7, #6
    146c:	7819      	ldrb	r1, [r3, #0]
    146e:	1dfb      	adds	r3, r7, #7
    1470:	781b      	ldrb	r3, [r3, #0]
    1472:	0018      	movs	r0, r3
    1474:	4b0b      	ldr	r3, [pc, #44]	; (14a4 <gfx_mono_ssd1306_put_byte+0x88>)
    1476:	4798      	blx	r3
#endif

	ssd1306_set_page_address(page);
    1478:	1dfb      	adds	r3, r7, #7
    147a:	781b      	ldrb	r3, [r3, #0]
    147c:	0018      	movs	r0, r3
    147e:	4b0a      	ldr	r3, [pc, #40]	; (14a8 <gfx_mono_ssd1306_put_byte+0x8c>)
    1480:	4798      	blx	r3
	ssd1306_set_column_address(column);
    1482:	1dbb      	adds	r3, r7, #6
    1484:	781b      	ldrb	r3, [r3, #0]
    1486:	0018      	movs	r0, r3
    1488:	4b08      	ldr	r3, [pc, #32]	; (14ac <gfx_mono_ssd1306_put_byte+0x90>)
    148a:	4798      	blx	r3

	ssd1306_write_data(data);
    148c:	1d7b      	adds	r3, r7, #5
    148e:	781b      	ldrb	r3, [r3, #0]
    1490:	0018      	movs	r0, r3
    1492:	4b07      	ldr	r3, [pc, #28]	; (14b0 <gfx_mono_ssd1306_put_byte+0x94>)
    1494:	4798      	blx	r3
    1496:	e000      	b.n	149a <gfx_mono_ssd1306_put_byte+0x7e>
 void gfx_mono_ssd1306_put_byte(gfx_coord_t page, gfx_coord_t column,
		uint8_t data, unsigned char force)
{
#ifdef CONFIG_SSD1306_FRAMEBUFFER
	if (!force && data == gfx_mono_framebuffer_get_byte(page, column)) {
		return;
    1498:	46c0      	nop			; (mov r8, r8)

	ssd1306_set_page_address(page);
	ssd1306_set_column_address(column);

	ssd1306_write_data(data);
}
    149a:	46bd      	mov	sp, r7
    149c:	b002      	add	sp, #8
    149e:	bdb0      	pop	{r4, r5, r7, pc}
    14a0:	00000be5 	.word	0x00000be5
    14a4:	00000ba1 	.word	0x00000ba1
    14a8:	000005c1 	.word	0x000005c1
    14ac:	000005f9 	.word	0x000005f9
    14b0:	00000a25 	.word	0x00000a25

000014b4 <gfx_mono_ssd1306_get_byte>:
 * \code
	data = gfx_mono_ssd1306_get_byte(0, 0);
\endcode
 */
uint8_t gfx_mono_ssd1306_get_byte(gfx_coord_t page, gfx_coord_t column)
{
    14b4:	b580      	push	{r7, lr}
    14b6:	b082      	sub	sp, #8
    14b8:	af00      	add	r7, sp, #0
    14ba:	0002      	movs	r2, r0
    14bc:	1dfb      	adds	r3, r7, #7
    14be:	701a      	strb	r2, [r3, #0]
    14c0:	1dbb      	adds	r3, r7, #6
    14c2:	1c0a      	adds	r2, r1, #0
    14c4:	701a      	strb	r2, [r3, #0]
#ifdef CONFIG_SSD1306_FRAMEBUFFER
	return gfx_mono_framebuffer_get_byte(page, column);
    14c6:	1dbb      	adds	r3, r7, #6
    14c8:	781a      	ldrb	r2, [r3, #0]
    14ca:	1dfb      	adds	r3, r7, #7
    14cc:	781b      	ldrb	r3, [r3, #0]
    14ce:	0011      	movs	r1, r2
    14d0:	0018      	movs	r0, r3
    14d2:	4b03      	ldr	r3, [pc, #12]	; (14e0 <gfx_mono_ssd1306_get_byte+0x2c>)
    14d4:	4798      	blx	r3
    14d6:	0003      	movs	r3, r0
	ssd1306_set_column_address(column);

	return ssd1306_read_data();

#endif
}
    14d8:	0018      	movs	r0, r3
    14da:	46bd      	mov	sp, r7
    14dc:	b002      	add	sp, #8
    14de:	bd80      	pop	{r7, pc}
    14e0:	00000be5 	.word	0x00000be5

000014e4 <pinMode>:
#include "sam.h"

void pinMode(unsigned char port, 
             unsigned char numBit,
             unsigned char mode)
{
    14e4:	b590      	push	{r4, r7, lr}
    14e6:	b083      	sub	sp, #12
    14e8:	af00      	add	r7, sp, #0
    14ea:	0004      	movs	r4, r0
    14ec:	0008      	movs	r0, r1
    14ee:	0011      	movs	r1, r2
    14f0:	1dfb      	adds	r3, r7, #7
    14f2:	1c22      	adds	r2, r4, #0
    14f4:	701a      	strb	r2, [r3, #0]
    14f6:	1dbb      	adds	r3, r7, #6
    14f8:	1c02      	adds	r2, r0, #0
    14fa:	701a      	strb	r2, [r3, #0]
    14fc:	1d7b      	adds	r3, r7, #5
    14fe:	1c0a      	adds	r2, r1, #0
    1500:	701a      	strb	r2, [r3, #0]
	//verification des arguments.
	if(port > 1) return;
    1502:	1dfb      	adds	r3, r7, #7
    1504:	781b      	ldrb	r3, [r3, #0]
    1506:	2b01      	cmp	r3, #1
    1508:	d900      	bls.n	150c <pinMode+0x28>
    150a:	e0af      	b.n	166c <pinMode+0x188>
	if(numBit > 31) return;
    150c:	1dbb      	adds	r3, r7, #6
    150e:	781b      	ldrb	r3, [r3, #0]
    1510:	2b1f      	cmp	r3, #31
    1512:	d900      	bls.n	1516 <pinMode+0x32>
    1514:	e0ac      	b.n	1670 <pinMode+0x18c>
	//
	switch(mode)
    1516:	1d7b      	adds	r3, r7, #5
    1518:	781b      	ldrb	r3, [r3, #0]
    151a:	2b04      	cmp	r3, #4
    151c:	d900      	bls.n	1520 <pinMode+0x3c>
    151e:	e0a9      	b.n	1674 <pinMode+0x190>
    1520:	009a      	lsls	r2, r3, #2
    1522:	4b56      	ldr	r3, [pc, #344]	; (167c <pinMode+0x198>)
    1524:	18d3      	adds	r3, r2, r3
    1526:	681b      	ldr	r3, [r3, #0]
    1528:	469f      	mov	pc, r3
	{
		case DISABLE: //pullen = 0 - inen = 0 - dir = 0
			PORT->Group[port].DIRCLR.reg = 1 << numBit;
    152a:	4955      	ldr	r1, [pc, #340]	; (1680 <pinMode+0x19c>)
    152c:	1dfb      	adds	r3, r7, #7
    152e:	781b      	ldrb	r3, [r3, #0]
    1530:	1dba      	adds	r2, r7, #6
    1532:	7812      	ldrb	r2, [r2, #0]
    1534:	2001      	movs	r0, #1
    1536:	4090      	lsls	r0, r2
    1538:	0002      	movs	r2, r0
    153a:	01db      	lsls	r3, r3, #7
    153c:	18cb      	adds	r3, r1, r3
    153e:	3304      	adds	r3, #4
    1540:	601a      	str	r2, [r3, #0]
			PORT->Group[port].PINCFG[numBit].reg = 0;
    1542:	484f      	ldr	r0, [pc, #316]	; (1680 <pinMode+0x19c>)
    1544:	1dfb      	adds	r3, r7, #7
    1546:	781a      	ldrb	r2, [r3, #0]
    1548:	1dbb      	adds	r3, r7, #6
    154a:	781b      	ldrb	r3, [r3, #0]
    154c:	2140      	movs	r1, #64	; 0x40
    154e:	01d2      	lsls	r2, r2, #7
    1550:	1882      	adds	r2, r0, r2
    1552:	18d3      	adds	r3, r2, r3
    1554:	185b      	adds	r3, r3, r1
    1556:	2200      	movs	r2, #0
    1558:	701a      	strb	r2, [r3, #0]
			break;
    155a:	e08c      	b.n	1676 <pinMode+0x192>
		case OUTPUT: //pullen = 0 - inen = 0 - dir = 1
			PORT->Group[port].DIRSET.reg = 1 << numBit;
    155c:	4948      	ldr	r1, [pc, #288]	; (1680 <pinMode+0x19c>)
    155e:	1dfb      	adds	r3, r7, #7
    1560:	781b      	ldrb	r3, [r3, #0]
    1562:	1dba      	adds	r2, r7, #6
    1564:	7812      	ldrb	r2, [r2, #0]
    1566:	2001      	movs	r0, #1
    1568:	4090      	lsls	r0, r2
    156a:	0002      	movs	r2, r0
    156c:	01db      	lsls	r3, r3, #7
    156e:	18cb      	adds	r3, r1, r3
    1570:	3308      	adds	r3, #8
    1572:	601a      	str	r2, [r3, #0]
			PORT->Group[port].OUTCLR.reg = 1 << numBit;
    1574:	4942      	ldr	r1, [pc, #264]	; (1680 <pinMode+0x19c>)
    1576:	1dfb      	adds	r3, r7, #7
    1578:	781b      	ldrb	r3, [r3, #0]
    157a:	1dba      	adds	r2, r7, #6
    157c:	7812      	ldrb	r2, [r2, #0]
    157e:	2001      	movs	r0, #1
    1580:	4090      	lsls	r0, r2
    1582:	0002      	movs	r2, r0
    1584:	01db      	lsls	r3, r3, #7
    1586:	18cb      	adds	r3, r1, r3
    1588:	3314      	adds	r3, #20
    158a:	601a      	str	r2, [r3, #0]
			PORT->Group[port].PINCFG[numBit].reg = 0;
    158c:	483c      	ldr	r0, [pc, #240]	; (1680 <pinMode+0x19c>)
    158e:	1dfb      	adds	r3, r7, #7
    1590:	781a      	ldrb	r2, [r3, #0]
    1592:	1dbb      	adds	r3, r7, #6
    1594:	781b      	ldrb	r3, [r3, #0]
    1596:	2140      	movs	r1, #64	; 0x40
    1598:	01d2      	lsls	r2, r2, #7
    159a:	1882      	adds	r2, r0, r2
    159c:	18d3      	adds	r3, r2, r3
    159e:	185b      	adds	r3, r3, r1
    15a0:	2200      	movs	r2, #0
    15a2:	701a      	strb	r2, [r3, #0]
			break;
    15a4:	e067      	b.n	1676 <pinMode+0x192>
		case INPUT: //pullen = 0 - inen = 1 - dir = 0
			PORT->Group[port].DIRCLR.reg = 1 << numBit;
    15a6:	4936      	ldr	r1, [pc, #216]	; (1680 <pinMode+0x19c>)
    15a8:	1dfb      	adds	r3, r7, #7
    15aa:	781b      	ldrb	r3, [r3, #0]
    15ac:	1dba      	adds	r2, r7, #6
    15ae:	7812      	ldrb	r2, [r2, #0]
    15b0:	2001      	movs	r0, #1
    15b2:	4090      	lsls	r0, r2
    15b4:	0002      	movs	r2, r0
    15b6:	01db      	lsls	r3, r3, #7
    15b8:	18cb      	adds	r3, r1, r3
    15ba:	3304      	adds	r3, #4
    15bc:	601a      	str	r2, [r3, #0]
			PORT->Group[port].PINCFG[numBit].reg = 0x2;
    15be:	4830      	ldr	r0, [pc, #192]	; (1680 <pinMode+0x19c>)
    15c0:	1dfb      	adds	r3, r7, #7
    15c2:	781a      	ldrb	r2, [r3, #0]
    15c4:	1dbb      	adds	r3, r7, #6
    15c6:	781b      	ldrb	r3, [r3, #0]
    15c8:	2140      	movs	r1, #64	; 0x40
    15ca:	01d2      	lsls	r2, r2, #7
    15cc:	1882      	adds	r2, r0, r2
    15ce:	18d3      	adds	r3, r2, r3
    15d0:	185b      	adds	r3, r3, r1
    15d2:	2202      	movs	r2, #2
    15d4:	701a      	strb	r2, [r3, #0]
			break;
    15d6:	e04e      	b.n	1676 <pinMode+0x192>
		case INPUT_PULLUP: //pullen = 1 - inen = 1 - dir = 0
			PORT->Group[port].DIRCLR.reg = 1 << numBit;
    15d8:	4929      	ldr	r1, [pc, #164]	; (1680 <pinMode+0x19c>)
    15da:	1dfb      	adds	r3, r7, #7
    15dc:	781b      	ldrb	r3, [r3, #0]
    15de:	1dba      	adds	r2, r7, #6
    15e0:	7812      	ldrb	r2, [r2, #0]
    15e2:	2001      	movs	r0, #1
    15e4:	4090      	lsls	r0, r2
    15e6:	0002      	movs	r2, r0
    15e8:	01db      	lsls	r3, r3, #7
    15ea:	18cb      	adds	r3, r1, r3
    15ec:	3304      	adds	r3, #4
    15ee:	601a      	str	r2, [r3, #0]
			PORT->Group[port].OUTSET.reg = 1 << numBit;
    15f0:	4923      	ldr	r1, [pc, #140]	; (1680 <pinMode+0x19c>)
    15f2:	1dfb      	adds	r3, r7, #7
    15f4:	781b      	ldrb	r3, [r3, #0]
    15f6:	1dba      	adds	r2, r7, #6
    15f8:	7812      	ldrb	r2, [r2, #0]
    15fa:	2001      	movs	r0, #1
    15fc:	4090      	lsls	r0, r2
    15fe:	0002      	movs	r2, r0
    1600:	01db      	lsls	r3, r3, #7
    1602:	18cb      	adds	r3, r1, r3
    1604:	3318      	adds	r3, #24
    1606:	601a      	str	r2, [r3, #0]
			PORT->Group[port].PINCFG[numBit].reg = 0x6;
    1608:	481d      	ldr	r0, [pc, #116]	; (1680 <pinMode+0x19c>)
    160a:	1dfb      	adds	r3, r7, #7
    160c:	781a      	ldrb	r2, [r3, #0]
    160e:	1dbb      	adds	r3, r7, #6
    1610:	781b      	ldrb	r3, [r3, #0]
    1612:	2140      	movs	r1, #64	; 0x40
    1614:	01d2      	lsls	r2, r2, #7
    1616:	1882      	adds	r2, r0, r2
    1618:	18d3      	adds	r3, r2, r3
    161a:	185b      	adds	r3, r3, r1
    161c:	2206      	movs	r2, #6
    161e:	701a      	strb	r2, [r3, #0]
			break;
    1620:	e029      	b.n	1676 <pinMode+0x192>
		case INPUT_PULLDOWN: //pullen = 1 - inen = 1 - dir = 0
			PORT->Group[port].DIRCLR.reg = 1 << numBit;
    1622:	4917      	ldr	r1, [pc, #92]	; (1680 <pinMode+0x19c>)
    1624:	1dfb      	adds	r3, r7, #7
    1626:	781b      	ldrb	r3, [r3, #0]
    1628:	1dba      	adds	r2, r7, #6
    162a:	7812      	ldrb	r2, [r2, #0]
    162c:	2001      	movs	r0, #1
    162e:	4090      	lsls	r0, r2
    1630:	0002      	movs	r2, r0
    1632:	01db      	lsls	r3, r3, #7
    1634:	18cb      	adds	r3, r1, r3
    1636:	3304      	adds	r3, #4
    1638:	601a      	str	r2, [r3, #0]
			PORT->Group[port].OUTCLR.reg = 1 << numBit;
    163a:	4911      	ldr	r1, [pc, #68]	; (1680 <pinMode+0x19c>)
    163c:	1dfb      	adds	r3, r7, #7
    163e:	781b      	ldrb	r3, [r3, #0]
    1640:	1dba      	adds	r2, r7, #6
    1642:	7812      	ldrb	r2, [r2, #0]
    1644:	2001      	movs	r0, #1
    1646:	4090      	lsls	r0, r2
    1648:	0002      	movs	r2, r0
    164a:	01db      	lsls	r3, r3, #7
    164c:	18cb      	adds	r3, r1, r3
    164e:	3314      	adds	r3, #20
    1650:	601a      	str	r2, [r3, #0]
			PORT->Group[port].PINCFG[numBit].reg = 0x6;
    1652:	480b      	ldr	r0, [pc, #44]	; (1680 <pinMode+0x19c>)
    1654:	1dfb      	adds	r3, r7, #7
    1656:	781a      	ldrb	r2, [r3, #0]
    1658:	1dbb      	adds	r3, r7, #6
    165a:	781b      	ldrb	r3, [r3, #0]
    165c:	2140      	movs	r1, #64	; 0x40
    165e:	01d2      	lsls	r2, r2, #7
    1660:	1882      	adds	r2, r0, r2
    1662:	18d3      	adds	r3, r2, r3
    1664:	185b      	adds	r3, r3, r1
    1666:	2206      	movs	r2, #6
    1668:	701a      	strb	r2, [r3, #0]
			break;
    166a:	e004      	b.n	1676 <pinMode+0x192>
void pinMode(unsigned char port, 
             unsigned char numBit,
             unsigned char mode)
{
	//verification des arguments.
	if(port > 1) return;
    166c:	46c0      	nop			; (mov r8, r8)
    166e:	e002      	b.n	1676 <pinMode+0x192>
	if(numBit > 31) return;
    1670:	46c0      	nop			; (mov r8, r8)
    1672:	e000      	b.n	1676 <pinMode+0x192>
			PORT->Group[port].DIRCLR.reg = 1 << numBit;
			PORT->Group[port].OUTCLR.reg = 1 << numBit;
			PORT->Group[port].PINCFG[numBit].reg = 0x6;
			break;
		default:
			break;
    1674:	46c0      	nop			; (mov r8, r8)
	}
}
    1676:	46bd      	mov	sp, r7
    1678:	b003      	add	sp, #12
    167a:	bd90      	pop	{r4, r7, pc}
    167c:	0000bc08 	.word	0x0000bc08
    1680:	41004400 	.word	0x41004400

00001684 <digitalWrite>:

void digitalWrite(unsigned char port, 
                  unsigned char numBit,
                  unsigned int value)
{
    1684:	b580      	push	{r7, lr}
    1686:	b082      	sub	sp, #8
    1688:	af00      	add	r7, sp, #0
    168a:	603a      	str	r2, [r7, #0]
    168c:	1dfb      	adds	r3, r7, #7
    168e:	1c02      	adds	r2, r0, #0
    1690:	701a      	strb	r2, [r3, #0]
    1692:	1dbb      	adds	r3, r7, #6
    1694:	1c0a      	adds	r2, r1, #0
    1696:	701a      	strb	r2, [r3, #0]
	if(port > 1) return;
    1698:	1dfb      	adds	r3, r7, #7
    169a:	781b      	ldrb	r3, [r3, #0]
    169c:	2b01      	cmp	r3, #1
    169e:	d820      	bhi.n	16e2 <digitalWrite+0x5e>
	if(numBit > 31) return;
    16a0:	1dbb      	adds	r3, r7, #6
    16a2:	781b      	ldrb	r3, [r3, #0]
    16a4:	2b1f      	cmp	r3, #31
    16a6:	d81e      	bhi.n	16e6 <digitalWrite+0x62>
	
	if(value)
    16a8:	683b      	ldr	r3, [r7, #0]
    16aa:	2b00      	cmp	r3, #0
    16ac:	d00c      	beq.n	16c8 <digitalWrite+0x44>
		PORT->Group[port].OUTSET.reg = 1 << numBit;
    16ae:	4910      	ldr	r1, [pc, #64]	; (16f0 <digitalWrite+0x6c>)
    16b0:	1dfb      	adds	r3, r7, #7
    16b2:	781b      	ldrb	r3, [r3, #0]
    16b4:	1dba      	adds	r2, r7, #6
    16b6:	7812      	ldrb	r2, [r2, #0]
    16b8:	2001      	movs	r0, #1
    16ba:	4090      	lsls	r0, r2
    16bc:	0002      	movs	r2, r0
    16be:	01db      	lsls	r3, r3, #7
    16c0:	18cb      	adds	r3, r1, r3
    16c2:	3318      	adds	r3, #24
    16c4:	601a      	str	r2, [r3, #0]
    16c6:	e00f      	b.n	16e8 <digitalWrite+0x64>
	else
		PORT->Group[port].OUTCLR.reg = 1 << numBit;
    16c8:	4909      	ldr	r1, [pc, #36]	; (16f0 <digitalWrite+0x6c>)
    16ca:	1dfb      	adds	r3, r7, #7
    16cc:	781b      	ldrb	r3, [r3, #0]
    16ce:	1dba      	adds	r2, r7, #6
    16d0:	7812      	ldrb	r2, [r2, #0]
    16d2:	2001      	movs	r0, #1
    16d4:	4090      	lsls	r0, r2
    16d6:	0002      	movs	r2, r0
    16d8:	01db      	lsls	r3, r3, #7
    16da:	18cb      	adds	r3, r1, r3
    16dc:	3314      	adds	r3, #20
    16de:	601a      	str	r2, [r3, #0]
    16e0:	e002      	b.n	16e8 <digitalWrite+0x64>

void digitalWrite(unsigned char port, 
                  unsigned char numBit,
                  unsigned int value)
{
	if(port > 1) return;
    16e2:	46c0      	nop			; (mov r8, r8)
    16e4:	e000      	b.n	16e8 <digitalWrite+0x64>
	if(numBit > 31) return;
    16e6:	46c0      	nop			; (mov r8, r8)
	
	if(value)
		PORT->Group[port].OUTSET.reg = 1 << numBit;
	else
		PORT->Group[port].OUTCLR.reg = 1 << numBit;
}
    16e8:	46bd      	mov	sp, r7
    16ea:	b002      	add	sp, #8
    16ec:	bd80      	pop	{r7, pc}
    16ee:	46c0      	nop			; (mov r8, r8)
    16f0:	41004400 	.word	0x41004400

000016f4 <pinMux>:
#include "pinMux.h"
#include "sam.h"

void pinMux(unsigned char port,unsigned char numBit, unsigned char config)
{
    16f4:	b5f0      	push	{r4, r5, r6, r7, lr}
    16f6:	b085      	sub	sp, #20
    16f8:	af00      	add	r7, sp, #0
    16fa:	0004      	movs	r4, r0
    16fc:	0008      	movs	r0, r1
    16fe:	0011      	movs	r1, r2
    1700:	1dfb      	adds	r3, r7, #7
    1702:	1c22      	adds	r2, r4, #0
    1704:	701a      	strb	r2, [r3, #0]
    1706:	1dbb      	adds	r3, r7, #6
    1708:	1c02      	adds	r2, r0, #0
    170a:	701a      	strb	r2, [r3, #0]
    170c:	1d7b      	adds	r3, r7, #5
    170e:	1c0a      	adds	r2, r1, #0
    1710:	701a      	strb	r2, [r3, #0]
	//verification des arguments.
	if(port > 1) return;
    1712:	1dfb      	adds	r3, r7, #7
    1714:	781b      	ldrb	r3, [r3, #0]
    1716:	2b01      	cmp	r3, #1
    1718:	d85f      	bhi.n	17da <pinMux+0xe6>
	if(numBit > 31) return;
    171a:	1dbb      	adds	r3, r7, #6
    171c:	781b      	ldrb	r3, [r3, #0]
    171e:	2b1f      	cmp	r3, #31
    1720:	d85d      	bhi.n	17de <pinMux+0xea>
	if(config > 7) return;
    1722:	1d7b      	adds	r3, r7, #5
    1724:	781b      	ldrb	r3, [r3, #0]
    1726:	2b07      	cmp	r3, #7
    1728:	d85b      	bhi.n	17e2 <pinMux+0xee>

	const unsigned char numReg = numBit >> 1;
    172a:	230b      	movs	r3, #11
    172c:	18fb      	adds	r3, r7, r3
    172e:	1dba      	adds	r2, r7, #6
    1730:	7812      	ldrb	r2, [r2, #0]
    1732:	0852      	lsrs	r2, r2, #1
    1734:	701a      	strb	r2, [r3, #0]
	//recupere la configuration de 2 broches paires et impaires
	int reg = PORT->Group[port].PMUX[numReg].reg;
    1736:	482d      	ldr	r0, [pc, #180]	; (17ec <pinMux+0xf8>)
    1738:	1dfb      	adds	r3, r7, #7
    173a:	781a      	ldrb	r2, [r3, #0]
    173c:	230b      	movs	r3, #11
    173e:	18fb      	adds	r3, r7, r3
    1740:	781b      	ldrb	r3, [r3, #0]
    1742:	2130      	movs	r1, #48	; 0x30
    1744:	01d2      	lsls	r2, r2, #7
    1746:	1882      	adds	r2, r0, r2
    1748:	18d3      	adds	r3, r2, r3
    174a:	185b      	adds	r3, r3, r1
    174c:	781b      	ldrb	r3, [r3, #0]
    174e:	b2db      	uxtb	r3, r3
    1750:	60fb      	str	r3, [r7, #12]
	//le numero de bit est impaire?
	if(numBit & 1)
    1752:	1dbb      	adds	r3, r7, #6
    1754:	781b      	ldrb	r3, [r3, #0]
    1756:	2201      	movs	r2, #1
    1758:	4013      	ands	r3, r2
    175a:	d00a      	beq.n	1772 <pinMux+0x7e>
	{
		//supprime la config. impaire.
		reg &= 0xF;
    175c:	68fb      	ldr	r3, [r7, #12]
    175e:	220f      	movs	r2, #15
    1760:	4013      	ands	r3, r2
    1762:	60fb      	str	r3, [r7, #12]
		//mets à jour la configuration
		reg |= (config) << 4;
    1764:	1d7b      	adds	r3, r7, #5
    1766:	781b      	ldrb	r3, [r3, #0]
    1768:	011b      	lsls	r3, r3, #4
    176a:	68fa      	ldr	r2, [r7, #12]
    176c:	4313      	orrs	r3, r2
    176e:	60fb      	str	r3, [r7, #12]
    1770:	e008      	b.n	1784 <pinMux+0x90>
	} else {
		//supprime la config. paire.
		reg &= 0xF0;
    1772:	68fb      	ldr	r3, [r7, #12]
    1774:	22f0      	movs	r2, #240	; 0xf0
    1776:	4013      	ands	r3, r2
    1778:	60fb      	str	r3, [r7, #12]
		//mets à jour la configuration
		reg |= (config);
    177a:	1d7b      	adds	r3, r7, #5
    177c:	781b      	ldrb	r3, [r3, #0]
    177e:	68fa      	ldr	r2, [r7, #12]
    1780:	4313      	orrs	r3, r2
    1782:	60fb      	str	r3, [r7, #12]
	}
	//mets à jour le registre
	PORT->Group[port].PMUX[numReg].reg = reg;
    1784:	4819      	ldr	r0, [pc, #100]	; (17ec <pinMux+0xf8>)
    1786:	1dfb      	adds	r3, r7, #7
    1788:	781a      	ldrb	r2, [r3, #0]
    178a:	230b      	movs	r3, #11
    178c:	18fb      	adds	r3, r7, r3
    178e:	781b      	ldrb	r3, [r3, #0]
    1790:	68f9      	ldr	r1, [r7, #12]
    1792:	b2cc      	uxtb	r4, r1
    1794:	2130      	movs	r1, #48	; 0x30
    1796:	01d2      	lsls	r2, r2, #7
    1798:	1882      	adds	r2, r0, r2
    179a:	18d3      	adds	r3, r2, r3
    179c:	185b      	adds	r3, r3, r1
    179e:	1c22      	adds	r2, r4, #0
    17a0:	701a      	strb	r2, [r3, #0]
	//valide le multiplexage de la broche
    PORT->Group[port].PINCFG[numBit].reg |= 0x01 ;
    17a2:	4c12      	ldr	r4, [pc, #72]	; (17ec <pinMux+0xf8>)
    17a4:	1dfb      	adds	r3, r7, #7
    17a6:	781a      	ldrb	r2, [r3, #0]
    17a8:	1dbb      	adds	r3, r7, #6
    17aa:	781b      	ldrb	r3, [r3, #0]
    17ac:	4e0f      	ldr	r6, [pc, #60]	; (17ec <pinMux+0xf8>)
    17ae:	1df9      	adds	r1, r7, #7
    17b0:	7808      	ldrb	r0, [r1, #0]
    17b2:	1db9      	adds	r1, r7, #6
    17b4:	7809      	ldrb	r1, [r1, #0]
    17b6:	2540      	movs	r5, #64	; 0x40
    17b8:	01c0      	lsls	r0, r0, #7
    17ba:	1830      	adds	r0, r6, r0
    17bc:	1841      	adds	r1, r0, r1
    17be:	1949      	adds	r1, r1, r5
    17c0:	7809      	ldrb	r1, [r1, #0]
    17c2:	b2c9      	uxtb	r1, r1
    17c4:	2001      	movs	r0, #1
    17c6:	4301      	orrs	r1, r0
    17c8:	b2c8      	uxtb	r0, r1
    17ca:	2140      	movs	r1, #64	; 0x40
    17cc:	01d2      	lsls	r2, r2, #7
    17ce:	18a2      	adds	r2, r4, r2
    17d0:	18d3      	adds	r3, r2, r3
    17d2:	185b      	adds	r3, r3, r1
    17d4:	1c02      	adds	r2, r0, #0
    17d6:	701a      	strb	r2, [r3, #0]
    17d8:	e004      	b.n	17e4 <pinMux+0xf0>
#include "sam.h"

void pinMux(unsigned char port,unsigned char numBit, unsigned char config)
{
	//verification des arguments.
	if(port > 1) return;
    17da:	46c0      	nop			; (mov r8, r8)
    17dc:	e002      	b.n	17e4 <pinMux+0xf0>
	if(numBit > 31) return;
    17de:	46c0      	nop			; (mov r8, r8)
    17e0:	e000      	b.n	17e4 <pinMux+0xf0>
	if(config > 7) return;
    17e2:	46c0      	nop			; (mov r8, r8)
	}
	//mets à jour le registre
	PORT->Group[port].PMUX[numReg].reg = reg;
	//valide le multiplexage de la broche
    PORT->Group[port].PINCFG[numBit].reg |= 0x01 ;
}
    17e4:	46bd      	mov	sp, r7
    17e6:	b005      	add	sp, #20
    17e8:	bdf0      	pop	{r4, r5, r6, r7, pc}
    17ea:	46c0      	nop			; (mov r8, r8)
    17ec:	41004400 	.word	0x41004400

000017f0 <redirectPrintf>:

//valeur par defaut: OLED.
int printfRedir = PRINTF_OLED;

void redirectPrintf(unsigned int config)
{
    17f0:	b580      	push	{r7, lr}
    17f2:	b082      	sub	sp, #8
    17f4:	af00      	add	r7, sp, #0
    17f6:	6078      	str	r0, [r7, #4]
	if(config>2) return;
    17f8:	687b      	ldr	r3, [r7, #4]
    17fa:	2b02      	cmp	r3, #2
    17fc:	d803      	bhi.n	1806 <redirectPrintf+0x16>
	printfRedir = config;
    17fe:	687a      	ldr	r2, [r7, #4]
    1800:	4b03      	ldr	r3, [pc, #12]	; (1810 <redirectPrintf+0x20>)
    1802:	601a      	str	r2, [r3, #0]
    1804:	e000      	b.n	1808 <redirectPrintf+0x18>
//valeur par defaut: OLED.
int printfRedir = PRINTF_OLED;

void redirectPrintf(unsigned int config)
{
	if(config>2) return;
    1806:	46c0      	nop			; (mov r8, r8)
	printfRedir = config;
}
    1808:	46bd      	mov	sp, r7
    180a:	b002      	add	sp, #8
    180c:	bd80      	pop	{r7, pc}
    180e:	46c0      	nop			; (mov r8, r8)
    1810:	20000018 	.word	0x20000018

00001814 <_write>:

/* Lien avec stdio pour utilisation avec printf */
int __attribute__((weak))
_write (int file, const char *ptr, int len)
{
    1814:	b580      	push	{r7, lr}
    1816:	b086      	sub	sp, #24
    1818:	af00      	add	r7, sp, #0
    181a:	60f8      	str	r0, [r7, #12]
    181c:	60b9      	str	r1, [r7, #8]
    181e:	607a      	str	r2, [r7, #4]
	int i = 0;
    1820:	2300      	movs	r3, #0
    1822:	617b      	str	r3, [r7, #20]
	//verification que c'est bien la sortie standard
	if(file != 1) return -1;
    1824:	68fb      	ldr	r3, [r7, #12]
    1826:	2b01      	cmp	r3, #1
    1828:	d002      	beq.n	1830 <_write+0x1c>
    182a:	2301      	movs	r3, #1
    182c:	425b      	negs	r3, r3
    182e:	e02b      	b.n	1888 <_write+0x74>
	if(printfRedir == PRINTF_OLED)
    1830:	4b17      	ldr	r3, [pc, #92]	; (1890 <_write+0x7c>)
    1832:	681b      	ldr	r3, [r3, #0]
    1834:	2b01      	cmp	r3, #1
    1836:	d111      	bne.n	185c <_write+0x48>
	{
		for(i=0;i<len;i++) OLEDPrintChar(ptr[i]);
    1838:	2300      	movs	r3, #0
    183a:	617b      	str	r3, [r7, #20]
    183c:	e009      	b.n	1852 <_write+0x3e>
    183e:	697b      	ldr	r3, [r7, #20]
    1840:	68ba      	ldr	r2, [r7, #8]
    1842:	18d3      	adds	r3, r2, r3
    1844:	781b      	ldrb	r3, [r3, #0]
    1846:	0018      	movs	r0, r3
    1848:	4b12      	ldr	r3, [pc, #72]	; (1894 <_write+0x80>)
    184a:	4798      	blx	r3
    184c:	697b      	ldr	r3, [r7, #20]
    184e:	3301      	adds	r3, #1
    1850:	617b      	str	r3, [r7, #20]
    1852:	697a      	ldr	r2, [r7, #20]
    1854:	687b      	ldr	r3, [r7, #4]
    1856:	429a      	cmp	r2, r3
    1858:	dbf1      	blt.n	183e <_write+0x2a>
    185a:	e014      	b.n	1886 <_write+0x72>
	} else if(printfRedir == PRINTF_SERIAL) {
    185c:	4b0c      	ldr	r3, [pc, #48]	; (1890 <_write+0x7c>)
    185e:	681b      	ldr	r3, [r3, #0]
    1860:	2b02      	cmp	r3, #2
    1862:	d110      	bne.n	1886 <_write+0x72>
		for(i=0;i<len;i++) SERIALPutchar(ptr[i]);
    1864:	2300      	movs	r3, #0
    1866:	617b      	str	r3, [r7, #20]
    1868:	e009      	b.n	187e <_write+0x6a>
    186a:	697b      	ldr	r3, [r7, #20]
    186c:	68ba      	ldr	r2, [r7, #8]
    186e:	18d3      	adds	r3, r2, r3
    1870:	781b      	ldrb	r3, [r3, #0]
    1872:	0018      	movs	r0, r3
    1874:	4b08      	ldr	r3, [pc, #32]	; (1898 <_write+0x84>)
    1876:	4798      	blx	r3
    1878:	697b      	ldr	r3, [r7, #20]
    187a:	3301      	adds	r3, #1
    187c:	617b      	str	r3, [r7, #20]
    187e:	697a      	ldr	r2, [r7, #20]
    1880:	687b      	ldr	r3, [r7, #4]
    1882:	429a      	cmp	r2, r3
    1884:	dbf1      	blt.n	186a <_write+0x56>
	}	
	return i;
    1886:	697b      	ldr	r3, [r7, #20]
}
    1888:	0018      	movs	r0, r3
    188a:	46bd      	mov	sp, r7
    188c:	b006      	add	sp, #24
    188e:	bd80      	pop	{r7, pc}
    1890:	20000018 	.word	0x20000018
    1894:	00000769 	.word	0x00000769
    1898:	0000189d 	.word	0x0000189d

0000189c <SERIALPutchar>:
	//enable uart => registres de config protégés en ecriture.
	uart->CTRLA.reg |= 0x02;
}

void SERIALPutchar(char txd)
{
    189c:	b580      	push	{r7, lr}
    189e:	b082      	sub	sp, #8
    18a0:	af00      	add	r7, sp, #0
    18a2:	0002      	movs	r2, r0
    18a4:	1dfb      	adds	r3, r7, #7
    18a6:	701a      	strb	r2, [r3, #0]
	if(txd == '\n') SERIALPutchar('\r');
    18a8:	1dfb      	adds	r3, r7, #7
    18aa:	781b      	ldrb	r3, [r3, #0]
    18ac:	2b0a      	cmp	r3, #10
    18ae:	d102      	bne.n	18b6 <SERIALPutchar+0x1a>
    18b0:	200d      	movs	r0, #13
    18b2:	f7ff fff3 	bl	189c <SERIALPutchar>
	while(!(uart->INTFLAG.bit.DRE));
    18b6:	46c0      	nop			; (mov r8, r8)
    18b8:	4b0d      	ldr	r3, [pc, #52]	; (18f0 <SERIALPutchar+0x54>)
    18ba:	681b      	ldr	r3, [r3, #0]
    18bc:	7e1b      	ldrb	r3, [r3, #24]
    18be:	07db      	lsls	r3, r3, #31
    18c0:	0fdb      	lsrs	r3, r3, #31
    18c2:	b2db      	uxtb	r3, r3
    18c4:	2b00      	cmp	r3, #0
    18c6:	d0f7      	beq.n	18b8 <SERIALPutchar+0x1c>
	uart->DATA.reg = (unsigned int) (txd & 0xFF);
    18c8:	4b09      	ldr	r3, [pc, #36]	; (18f0 <SERIALPutchar+0x54>)
    18ca:	681b      	ldr	r3, [r3, #0]
    18cc:	1dfa      	adds	r2, r7, #7
    18ce:	7812      	ldrb	r2, [r2, #0]
    18d0:	b292      	uxth	r2, r2
    18d2:	851a      	strh	r2, [r3, #40]	; 0x28
	while(!(uart->INTFLAG.bit.TXC));
    18d4:	46c0      	nop			; (mov r8, r8)
    18d6:	4b06      	ldr	r3, [pc, #24]	; (18f0 <SERIALPutchar+0x54>)
    18d8:	681b      	ldr	r3, [r3, #0]
    18da:	7e1b      	ldrb	r3, [r3, #24]
    18dc:	079b      	lsls	r3, r3, #30
    18de:	0fdb      	lsrs	r3, r3, #31
    18e0:	b2db      	uxtb	r3, r3
    18e2:	2b00      	cmp	r3, #0
    18e4:	d0f7      	beq.n	18d6 <SERIALPutchar+0x3a>
}
    18e6:	46c0      	nop			; (mov r8, r8)
    18e8:	46bd      	mov	sp, r7
    18ea:	b002      	add	sp, #8
    18ec:	bd80      	pop	{r7, pc}
    18ee:	46c0      	nop			; (mov r8, r8)
    18f0:	2000001c 	.word	0x2000001c

000018f4 <TCinitClock>:
#include "sam.h"
#include "timer.h"

int TCinitClock(int source, int timerId)
{
    18f4:	b580      	push	{r7, lr}
    18f6:	b084      	sub	sp, #16
    18f8:	af00      	add	r7, sp, #0
    18fa:	6078      	str	r0, [r7, #4]
    18fc:	6039      	str	r1, [r7, #0]
	int result = 0;
    18fe:	2300      	movs	r3, #0
    1900:	60fb      	str	r3, [r7, #12]
	if((source > 4) ||(timerId > 7)) result = 1;
    1902:	687b      	ldr	r3, [r7, #4]
    1904:	2b04      	cmp	r3, #4
    1906:	dc02      	bgt.n	190e <TCinitClock+0x1a>
    1908:	683b      	ldr	r3, [r7, #0]
    190a:	2b07      	cmp	r3, #7
    190c:	dd02      	ble.n	1914 <TCinitClock+0x20>
    190e:	2301      	movs	r3, #1
    1910:	60fb      	str	r3, [r7, #12]
    1912:	e01a      	b.n	194a <TCinitClock+0x56>
	else {
		//arguments Ok.
		//1: Power Management
		PM->APBCMASK.reg |= 1<<(timerId+8);
    1914:	4b0f      	ldr	r3, [pc, #60]	; (1954 <TCinitClock+0x60>)
    1916:	4a0f      	ldr	r2, [pc, #60]	; (1954 <TCinitClock+0x60>)
    1918:	6a12      	ldr	r2, [r2, #32]
    191a:	6839      	ldr	r1, [r7, #0]
    191c:	3108      	adds	r1, #8
    191e:	2001      	movs	r0, #1
    1920:	4088      	lsls	r0, r1
    1922:	0001      	movs	r1, r0
    1924:	430a      	orrs	r2, r1
    1926:	621a      	str	r2, [r3, #32]
	
		//2: Clock source
		const static int timerToCLkId[] = {0x1A,0x1A,0x1B,0x1B,0x1C,0x1C,0x1D,0x1D};
		GCLK->CLKCTRL.reg = 1 <<14 | //enable
    1928:	480b      	ldr	r0, [pc, #44]	; (1958 <TCinitClock+0x64>)
							source << 8 | //generator
    192a:	687b      	ldr	r3, [r7, #4]
    192c:	021b      	lsls	r3, r3, #8
		//1: Power Management
		PM->APBCMASK.reg |= 1<<(timerId+8);
	
		//2: Clock source
		const static int timerToCLkId[] = {0x1A,0x1A,0x1B,0x1B,0x1C,0x1C,0x1D,0x1D};
		GCLK->CLKCTRL.reg = 1 <<14 | //enable
    192e:	b21b      	sxth	r3, r3
    1930:	2280      	movs	r2, #128	; 0x80
    1932:	01d2      	lsls	r2, r2, #7
    1934:	4313      	orrs	r3, r2
    1936:	b21a      	sxth	r2, r3
							source << 8 | //generator
							timerToCLkId[timerId];
    1938:	4b08      	ldr	r3, [pc, #32]	; (195c <TCinitClock+0x68>)
    193a:	6839      	ldr	r1, [r7, #0]
    193c:	0089      	lsls	r1, r1, #2
    193e:	58cb      	ldr	r3, [r1, r3]
		//1: Power Management
		PM->APBCMASK.reg |= 1<<(timerId+8);
	
		//2: Clock source
		const static int timerToCLkId[] = {0x1A,0x1A,0x1B,0x1B,0x1C,0x1C,0x1D,0x1D};
		GCLK->CLKCTRL.reg = 1 <<14 | //enable
    1940:	b21b      	sxth	r3, r3
    1942:	4313      	orrs	r3, r2
    1944:	b21b      	sxth	r3, r3
    1946:	b29b      	uxth	r3, r3
    1948:	8043      	strh	r3, [r0, #2]
							source << 8 | //generator
							timerToCLkId[timerId];
	}
	return result;
    194a:	68fb      	ldr	r3, [r7, #12]
}
    194c:	0018      	movs	r0, r3
    194e:	46bd      	mov	sp, r7
    1950:	b004      	add	sp, #16
    1952:	bd80      	pop	{r7, pc}
    1954:	40000400 	.word	0x40000400
    1958:	40000c00 	.word	0x40000c00
    195c:	0000bc1c 	.word	0x0000bc1c

00001960 <main>:
#include "define.h"

	

int main(void)//fonction principale du programme
{
    1960:	b5b0      	push	{r4, r5, r7, lr}
    1962:	b084      	sub	sp, #16
    1964:	af00      	add	r7, sp, #0
	float freq = 49;//contient la fréquence mesurée de la note
    1966:	4b22      	ldr	r3, [pc, #136]	; (19f0 <main+0x90>)
    1968:	60fb      	str	r3, [r7, #12]
	char note = 0;//contient la note calculée à partir de la fréquence, voir les différentes valeurs dans define_notes.h
    196a:	230b      	movs	r3, #11
    196c:	18fb      	adds	r3, r7, r3
    196e:	2200      	movs	r2, #0
    1970:	701a      	strb	r2, [r3, #0]
	char degre = 0;//contient le degré, ou l'octave de la note calculée à partir de la fréqence
    1972:	230a      	movs	r3, #10
    1974:	18fb      	adds	r3, r7, r3
    1976:	2200      	movs	r2, #0
    1978:	701a      	strb	r2, [r3, #0]
	float plage = 1.0;//spécifie l'erreur autorisée en hertz entre la fréquence mesurée et la fréquence réelle correspondant à la note
    197a:	23fe      	movs	r3, #254	; 0xfe
    197c:	059b      	lsls	r3, r3, #22
    197e:	607b      	str	r3, [r7, #4]
	setup();//Fonction d'initialisation
    1980:	4b1c      	ldr	r3, [pc, #112]	; (19f4 <main+0x94>)
    1982:	4798      	blx	r3
	displayTitle();//affiche le titre du projet en haut de l'écran OLED
    1984:	4b1c      	ldr	r3, [pc, #112]	; (19f8 <main+0x98>)
    1986:	4798      	blx	r3
	while(1)
	{
		//freq=getFreq();//Récupère la fréquence mesurée par le fréquencemètre
		note = noteSolver(freq);//permet de déterminer la note correspondant à la fréquence mesurée
    1988:	230b      	movs	r3, #11
    198a:	18fc      	adds	r4, r7, r3
    198c:	68fb      	ldr	r3, [r7, #12]
    198e:	1c18      	adds	r0, r3, #0
    1990:	4b1a      	ldr	r3, [pc, #104]	; (19fc <main+0x9c>)
    1992:	4798      	blx	r3
    1994:	0003      	movs	r3, r0
    1996:	7023      	strb	r3, [r4, #0]
		degre = degreSolver(freq);//permet de déterminer le degré ou l'octave correspondant à la fréquence mesurée
    1998:	230a      	movs	r3, #10
    199a:	18fc      	adds	r4, r7, r3
    199c:	68fb      	ldr	r3, [r7, #12]
    199e:	1c18      	adds	r0, r3, #0
    19a0:	4b17      	ldr	r3, [pc, #92]	; (1a00 <main+0xa0>)
    19a2:	4798      	blx	r3
    19a4:	0003      	movs	r3, r0
    19a6:	7023      	strb	r3, [r4, #0]
		char acc = accorder(note, degre, freq, plage);//Permet de déterminer si la note est acoordée, trop basse ou trop haute
    19a8:	1cfc      	adds	r4, r7, #3
    19aa:	687d      	ldr	r5, [r7, #4]
    19ac:	68fa      	ldr	r2, [r7, #12]
    19ae:	230a      	movs	r3, #10
    19b0:	18fb      	adds	r3, r7, r3
    19b2:	7819      	ldrb	r1, [r3, #0]
    19b4:	230b      	movs	r3, #11
    19b6:	18fb      	adds	r3, r7, r3
    19b8:	7818      	ldrb	r0, [r3, #0]
    19ba:	1c2b      	adds	r3, r5, #0
    19bc:	4d11      	ldr	r5, [pc, #68]	; (1a04 <main+0xa4>)
    19be:	47a8      	blx	r5
    19c0:	0003      	movs	r3, r0
    19c2:	7023      	strb	r3, [r4, #0]
		diplayLedIndicator(acc); // Allume les leds en fonciton de l'indicateur : trop bas / ok / trop haut
    19c4:	1cfb      	adds	r3, r7, #3
    19c6:	781b      	ldrb	r3, [r3, #0]
    19c8:	0018      	movs	r0, r3
    19ca:	4b0f      	ldr	r3, [pc, #60]	; (1a08 <main+0xa8>)
    19cc:	4798      	blx	r3
		displayFrequence(freq);//On affiche la fréquence sur l'afficheur OLED
    19ce:	68fb      	ldr	r3, [r7, #12]
    19d0:	1c18      	adds	r0, r3, #0
    19d2:	4b0e      	ldr	r3, [pc, #56]	; (1a0c <main+0xac>)
    19d4:	4798      	blx	r3
		displayNote(note);//On affiche la note sur l'afficheur OLED
    19d6:	230b      	movs	r3, #11
    19d8:	18fb      	adds	r3, r7, r3
    19da:	781b      	ldrb	r3, [r3, #0]
    19dc:	0018      	movs	r0, r3
    19de:	4b0c      	ldr	r3, [pc, #48]	; (1a10 <main+0xb0>)
    19e0:	4798      	blx	r3
		displayDegre(degre);//On affiche le degré sur l'afficheur OLED
    19e2:	230a      	movs	r3, #10
    19e4:	18fb      	adds	r3, r7, r3
    19e6:	781b      	ldrb	r3, [r3, #0]
    19e8:	0018      	movs	r0, r3
    19ea:	4b0a      	ldr	r3, [pc, #40]	; (1a14 <main+0xb4>)
    19ec:	4798      	blx	r3
	}
    19ee:	e7cb      	b.n	1988 <main+0x28>
    19f0:	42440000 	.word	0x42440000
    19f4:	000026ad 	.word	0x000026ad
    19f8:	00001a19 	.word	0x00001a19
    19fc:	00001fad 	.word	0x00001fad
    1a00:	000020e1 	.word	0x000020e1
    1a04:	000025f1 	.word	0x000025f1
    1a08:	00001d25 	.word	0x00001d25
    1a0c:	00001c9d 	.word	0x00001c9d
    1a10:	00001b95 	.word	0x00001b95
    1a14:	00001ce5 	.word	0x00001ce5

00001a18 <displayTitle>:
* Author : METAYER Simon
* Params : none
* Return : none
*/
void displayTitle()
{
    1a18:	b580      	push	{r7, lr}
    1a1a:	af00      	add	r7, sp, #0
	OLEDClear();//Efface tous ce qu'il y a sur l'afficheur
    1a1c:	4b05      	ldr	r3, [pc, #20]	; (1a34 <displayTitle+0x1c>)
    1a1e:	4798      	blx	r3
	OLEDSetLine(0);//Se place sur la première ligne
    1a20:	2000      	movs	r0, #0
    1a22:	4b05      	ldr	r3, [pc, #20]	; (1a38 <displayTitle+0x20>)
    1a24:	4798      	blx	r3
	printf("Accordeur v1.0\n");//Ecrit le titre
    1a26:	4b05      	ldr	r3, [pc, #20]	; (1a3c <displayTitle+0x24>)
    1a28:	0018      	movs	r0, r3
    1a2a:	4b05      	ldr	r3, [pc, #20]	; (1a40 <displayTitle+0x28>)
    1a2c:	4798      	blx	r3
}
    1a2e:	46c0      	nop			; (mov r8, r8)
    1a30:	46bd      	mov	sp, r7
    1a32:	bd80      	pop	{r7, pc}
    1a34:	00000809 	.word	0x00000809
    1a38:	00000739 	.word	0x00000739
    1a3c:	0000bc3c 	.word	0x0000bc3c
    1a40:	00006b61 	.word	0x00006b61

00001a44 <noteToString>:
* Params :  const char: note ->Le code de la note;
            char*: str ->La chaine de caractères du nom de la note
* Return : none
*/
void noteToString(const char note, char* str)
{
    1a44:	b580      	push	{r7, lr}
    1a46:	b082      	sub	sp, #8
    1a48:	af00      	add	r7, sp, #0
    1a4a:	0002      	movs	r2, r0
    1a4c:	6039      	str	r1, [r7, #0]
    1a4e:	1dfb      	adds	r3, r7, #7
    1a50:	701a      	strb	r2, [r3, #0]
	switch (note){
    1a52:	1dfb      	adds	r3, r7, #7
    1a54:	781b      	ldrb	r3, [r3, #0]
    1a56:	2b0c      	cmp	r3, #12
    1a58:	d870      	bhi.n	1b3c <noteToString+0xf8>
    1a5a:	009a      	lsls	r2, r3, #2
    1a5c:	4b3e      	ldr	r3, [pc, #248]	; (1b58 <noteToString+0x114>)
    1a5e:	18d3      	adds	r3, r2, r3
    1a60:	681b      	ldr	r3, [r3, #0]
    1a62:	469f      	mov	pc, r3
	case NUM_DO :
		strcpy(str, "Do");
    1a64:	683a      	ldr	r2, [r7, #0]
    1a66:	4b3d      	ldr	r3, [pc, #244]	; (1b5c <noteToString+0x118>)
    1a68:	0010      	movs	r0, r2
    1a6a:	0019      	movs	r1, r3
    1a6c:	2303      	movs	r3, #3
    1a6e:	001a      	movs	r2, r3
    1a70:	4b3b      	ldr	r3, [pc, #236]	; (1b60 <noteToString+0x11c>)
    1a72:	4798      	blx	r3
	break;
    1a74:	e06b      	b.n	1b4e <noteToString+0x10a>
	
	case NUM_REb :
		strcpy(str, "Reb / Do#");
    1a76:	683a      	ldr	r2, [r7, #0]
    1a78:	4b3a      	ldr	r3, [pc, #232]	; (1b64 <noteToString+0x120>)
    1a7a:	0010      	movs	r0, r2
    1a7c:	0019      	movs	r1, r3
    1a7e:	230a      	movs	r3, #10
    1a80:	001a      	movs	r2, r3
    1a82:	4b37      	ldr	r3, [pc, #220]	; (1b60 <noteToString+0x11c>)
    1a84:	4798      	blx	r3
	break;
    1a86:	e062      	b.n	1b4e <noteToString+0x10a>
	
	case NUM_RE :
		strcpy(str, "Re");
    1a88:	683a      	ldr	r2, [r7, #0]
    1a8a:	4b37      	ldr	r3, [pc, #220]	; (1b68 <noteToString+0x124>)
    1a8c:	0010      	movs	r0, r2
    1a8e:	0019      	movs	r1, r3
    1a90:	2303      	movs	r3, #3
    1a92:	001a      	movs	r2, r3
    1a94:	4b32      	ldr	r3, [pc, #200]	; (1b60 <noteToString+0x11c>)
    1a96:	4798      	blx	r3
	break;
    1a98:	e059      	b.n	1b4e <noteToString+0x10a>
	
	case NUM_MIb :
		strcpy(str, "Mib / Re#");
    1a9a:	683a      	ldr	r2, [r7, #0]
    1a9c:	4b33      	ldr	r3, [pc, #204]	; (1b6c <noteToString+0x128>)
    1a9e:	0010      	movs	r0, r2
    1aa0:	0019      	movs	r1, r3
    1aa2:	230a      	movs	r3, #10
    1aa4:	001a      	movs	r2, r3
    1aa6:	4b2e      	ldr	r3, [pc, #184]	; (1b60 <noteToString+0x11c>)
    1aa8:	4798      	blx	r3
	break;
    1aaa:	e050      	b.n	1b4e <noteToString+0x10a>
	
	case NUM_MI :
		strcpy(str, "Mi");
    1aac:	683a      	ldr	r2, [r7, #0]
    1aae:	4b30      	ldr	r3, [pc, #192]	; (1b70 <noteToString+0x12c>)
    1ab0:	0010      	movs	r0, r2
    1ab2:	0019      	movs	r1, r3
    1ab4:	2303      	movs	r3, #3
    1ab6:	001a      	movs	r2, r3
    1ab8:	4b29      	ldr	r3, [pc, #164]	; (1b60 <noteToString+0x11c>)
    1aba:	4798      	blx	r3
	break;
    1abc:	e047      	b.n	1b4e <noteToString+0x10a>
	
	case NUM_FA :
		strcpy(str, "Fa");
    1abe:	683a      	ldr	r2, [r7, #0]
    1ac0:	4b2c      	ldr	r3, [pc, #176]	; (1b74 <noteToString+0x130>)
    1ac2:	0010      	movs	r0, r2
    1ac4:	0019      	movs	r1, r3
    1ac6:	2303      	movs	r3, #3
    1ac8:	001a      	movs	r2, r3
    1aca:	4b25      	ldr	r3, [pc, #148]	; (1b60 <noteToString+0x11c>)
    1acc:	4798      	blx	r3
	break;
    1ace:	e03e      	b.n	1b4e <noteToString+0x10a>
	
	case NUM_SOLb :
		strcpy(str, "Solb / Fa#");
    1ad0:	683a      	ldr	r2, [r7, #0]
    1ad2:	4b29      	ldr	r3, [pc, #164]	; (1b78 <noteToString+0x134>)
    1ad4:	0010      	movs	r0, r2
    1ad6:	0019      	movs	r1, r3
    1ad8:	230b      	movs	r3, #11
    1ada:	001a      	movs	r2, r3
    1adc:	4b20      	ldr	r3, [pc, #128]	; (1b60 <noteToString+0x11c>)
    1ade:	4798      	blx	r3
	break;
    1ae0:	e035      	b.n	1b4e <noteToString+0x10a>
	
	case NUM_SOL :
		strcpy(str, "Sol");
    1ae2:	683a      	ldr	r2, [r7, #0]
    1ae4:	4b25      	ldr	r3, [pc, #148]	; (1b7c <noteToString+0x138>)
    1ae6:	0010      	movs	r0, r2
    1ae8:	0019      	movs	r1, r3
    1aea:	2304      	movs	r3, #4
    1aec:	001a      	movs	r2, r3
    1aee:	4b1c      	ldr	r3, [pc, #112]	; (1b60 <noteToString+0x11c>)
    1af0:	4798      	blx	r3
	break;
    1af2:	e02c      	b.n	1b4e <noteToString+0x10a>
	
	case NUM_LAb :
		strcpy(str, "Lab / Sol#");
    1af4:	683a      	ldr	r2, [r7, #0]
    1af6:	4b22      	ldr	r3, [pc, #136]	; (1b80 <noteToString+0x13c>)
    1af8:	0010      	movs	r0, r2
    1afa:	0019      	movs	r1, r3
    1afc:	230b      	movs	r3, #11
    1afe:	001a      	movs	r2, r3
    1b00:	4b17      	ldr	r3, [pc, #92]	; (1b60 <noteToString+0x11c>)
    1b02:	4798      	blx	r3
	break;
    1b04:	e023      	b.n	1b4e <noteToString+0x10a>
	
	case NUM_LA :
		strcpy(str, "La");
    1b06:	683a      	ldr	r2, [r7, #0]
    1b08:	4b1e      	ldr	r3, [pc, #120]	; (1b84 <noteToString+0x140>)
    1b0a:	0010      	movs	r0, r2
    1b0c:	0019      	movs	r1, r3
    1b0e:	2303      	movs	r3, #3
    1b10:	001a      	movs	r2, r3
    1b12:	4b13      	ldr	r3, [pc, #76]	; (1b60 <noteToString+0x11c>)
    1b14:	4798      	blx	r3
	break;
    1b16:	e01a      	b.n	1b4e <noteToString+0x10a>
	
	case NUM_SIb :
		strcpy(str, "Sib / La#");
    1b18:	683a      	ldr	r2, [r7, #0]
    1b1a:	4b1b      	ldr	r3, [pc, #108]	; (1b88 <noteToString+0x144>)
    1b1c:	0010      	movs	r0, r2
    1b1e:	0019      	movs	r1, r3
    1b20:	230a      	movs	r3, #10
    1b22:	001a      	movs	r2, r3
    1b24:	4b0e      	ldr	r3, [pc, #56]	; (1b60 <noteToString+0x11c>)
    1b26:	4798      	blx	r3
	break;
    1b28:	e011      	b.n	1b4e <noteToString+0x10a>
	
	case NUM_SI :
		strcpy(str, "Si");
    1b2a:	683a      	ldr	r2, [r7, #0]
    1b2c:	4b17      	ldr	r3, [pc, #92]	; (1b8c <noteToString+0x148>)
    1b2e:	0010      	movs	r0, r2
    1b30:	0019      	movs	r1, r3
    1b32:	2303      	movs	r3, #3
    1b34:	001a      	movs	r2, r3
    1b36:	4b0a      	ldr	r3, [pc, #40]	; (1b60 <noteToString+0x11c>)
    1b38:	4798      	blx	r3
	break;
    1b3a:	e008      	b.n	1b4e <noteToString+0x10a>

	default:
		strcpy(str, "Inconnue");
    1b3c:	683a      	ldr	r2, [r7, #0]
    1b3e:	4b14      	ldr	r3, [pc, #80]	; (1b90 <noteToString+0x14c>)
    1b40:	0010      	movs	r0, r2
    1b42:	0019      	movs	r1, r3
    1b44:	2309      	movs	r3, #9
    1b46:	001a      	movs	r2, r3
    1b48:	4b05      	ldr	r3, [pc, #20]	; (1b60 <noteToString+0x11c>)
    1b4a:	4798      	blx	r3
	break;	
    1b4c:	46c0      	nop			; (mov r8, r8)
	}
}
    1b4e:	46c0      	nop			; (mov r8, r8)
    1b50:	46bd      	mov	sp, r7
    1b52:	b002      	add	sp, #8
    1b54:	bd80      	pop	{r7, pc}
    1b56:	46c0      	nop			; (mov r8, r8)
    1b58:	0000bcb0 	.word	0x0000bcb0
    1b5c:	0000bc4c 	.word	0x0000bc4c
    1b60:	000069c5 	.word	0x000069c5
    1b64:	0000bc50 	.word	0x0000bc50
    1b68:	0000bc5c 	.word	0x0000bc5c
    1b6c:	0000bc60 	.word	0x0000bc60
    1b70:	0000bc6c 	.word	0x0000bc6c
    1b74:	0000bc70 	.word	0x0000bc70
    1b78:	0000bc74 	.word	0x0000bc74
    1b7c:	0000bc80 	.word	0x0000bc80
    1b80:	0000bc84 	.word	0x0000bc84
    1b84:	0000bc90 	.word	0x0000bc90
    1b88:	0000bc94 	.word	0x0000bc94
    1b8c:	0000bca0 	.word	0x0000bca0
    1b90:	0000bca4 	.word	0x0000bca4

00001b94 <displayNote>:
* Author : BIZON Alexis
* Params :  const char note ->La note à afficher
* Return : none
*/
void displayNote(const char note)
{
    1b94:	b580      	push	{r7, lr}
    1b96:	b082      	sub	sp, #8
    1b98:	af00      	add	r7, sp, #0
    1b9a:	0002      	movs	r2, r0
    1b9c:	1dfb      	adds	r3, r7, #7
    1b9e:	701a      	strb	r2, [r3, #0]
	OLEDClearLine(3);//Efface la quatrième ligne
    1ba0:	2003      	movs	r0, #3
    1ba2:	4b2b      	ldr	r3, [pc, #172]	; (1c50 <displayNote+0xbc>)
    1ba4:	4798      	blx	r3
	OLEDSetLine(3);//Se place sur la quatrième ligne
    1ba6:	2003      	movs	r0, #3
    1ba8:	4b2a      	ldr	r3, [pc, #168]	; (1c54 <displayNote+0xc0>)
    1baa:	4798      	blx	r3
	printf("Note  : ");//Ecrit "note"
    1bac:	4b2a      	ldr	r3, [pc, #168]	; (1c58 <displayNote+0xc4>)
    1bae:	0018      	movs	r0, r3
    1bb0:	4b2a      	ldr	r3, [pc, #168]	; (1c5c <displayNote+0xc8>)
    1bb2:	4798      	blx	r3
	switch (note){//Ecriture conditionnée par la note
    1bb4:	1dfb      	adds	r3, r7, #7
    1bb6:	781b      	ldrb	r3, [r3, #0]
    1bb8:	2b0c      	cmp	r3, #12
    1bba:	d840      	bhi.n	1c3e <displayNote+0xaa>
    1bbc:	009a      	lsls	r2, r3, #2
    1bbe:	4b28      	ldr	r3, [pc, #160]	; (1c60 <displayNote+0xcc>)
    1bc0:	18d3      	adds	r3, r2, r3
    1bc2:	681b      	ldr	r3, [r3, #0]
    1bc4:	469f      	mov	pc, r3
	case NUM_DO :
		printf("Do\n");
    1bc6:	4b27      	ldr	r3, [pc, #156]	; (1c64 <displayNote+0xd0>)
    1bc8:	0018      	movs	r0, r3
    1bca:	4b27      	ldr	r3, [pc, #156]	; (1c68 <displayNote+0xd4>)
    1bcc:	4798      	blx	r3
	break;
    1bce:	e03b      	b.n	1c48 <displayNote+0xb4>
	
	case NUM_REb :
		printf("Reb / Do#\n");
    1bd0:	4b26      	ldr	r3, [pc, #152]	; (1c6c <displayNote+0xd8>)
    1bd2:	0018      	movs	r0, r3
    1bd4:	4b24      	ldr	r3, [pc, #144]	; (1c68 <displayNote+0xd4>)
    1bd6:	4798      	blx	r3
	break;
    1bd8:	e036      	b.n	1c48 <displayNote+0xb4>
	
	case NUM_RE :
		printf("Re\n");
    1bda:	4b25      	ldr	r3, [pc, #148]	; (1c70 <displayNote+0xdc>)
    1bdc:	0018      	movs	r0, r3
    1bde:	4b22      	ldr	r3, [pc, #136]	; (1c68 <displayNote+0xd4>)
    1be0:	4798      	blx	r3
	break;
    1be2:	e031      	b.n	1c48 <displayNote+0xb4>
	
	case NUM_MIb :
		printf("Mib / Re#\n");
    1be4:	4b23      	ldr	r3, [pc, #140]	; (1c74 <displayNote+0xe0>)
    1be6:	0018      	movs	r0, r3
    1be8:	4b1f      	ldr	r3, [pc, #124]	; (1c68 <displayNote+0xd4>)
    1bea:	4798      	blx	r3
	break;
    1bec:	e02c      	b.n	1c48 <displayNote+0xb4>
	
	case NUM_MI :
		printf("Mi\n");
    1bee:	4b22      	ldr	r3, [pc, #136]	; (1c78 <displayNote+0xe4>)
    1bf0:	0018      	movs	r0, r3
    1bf2:	4b1d      	ldr	r3, [pc, #116]	; (1c68 <displayNote+0xd4>)
    1bf4:	4798      	blx	r3
	break;
    1bf6:	e027      	b.n	1c48 <displayNote+0xb4>
	
	case NUM_FA :
		printf("Fa\n");
    1bf8:	4b20      	ldr	r3, [pc, #128]	; (1c7c <displayNote+0xe8>)
    1bfa:	0018      	movs	r0, r3
    1bfc:	4b1a      	ldr	r3, [pc, #104]	; (1c68 <displayNote+0xd4>)
    1bfe:	4798      	blx	r3
	break;
    1c00:	e022      	b.n	1c48 <displayNote+0xb4>
	
	case NUM_SOLb :
		printf("Solb / Fa#\n");
    1c02:	4b1f      	ldr	r3, [pc, #124]	; (1c80 <displayNote+0xec>)
    1c04:	0018      	movs	r0, r3
    1c06:	4b18      	ldr	r3, [pc, #96]	; (1c68 <displayNote+0xd4>)
    1c08:	4798      	blx	r3
	break;
    1c0a:	e01d      	b.n	1c48 <displayNote+0xb4>
	
	case NUM_SOL :
		printf("Sol\n");
    1c0c:	4b1d      	ldr	r3, [pc, #116]	; (1c84 <displayNote+0xf0>)
    1c0e:	0018      	movs	r0, r3
    1c10:	4b15      	ldr	r3, [pc, #84]	; (1c68 <displayNote+0xd4>)
    1c12:	4798      	blx	r3
	break;
    1c14:	e018      	b.n	1c48 <displayNote+0xb4>
	
	case NUM_LAb :
		printf("Lab / Sol#\n");
    1c16:	4b1c      	ldr	r3, [pc, #112]	; (1c88 <displayNote+0xf4>)
    1c18:	0018      	movs	r0, r3
    1c1a:	4b13      	ldr	r3, [pc, #76]	; (1c68 <displayNote+0xd4>)
    1c1c:	4798      	blx	r3
	break;
    1c1e:	e013      	b.n	1c48 <displayNote+0xb4>
	
	case NUM_LA :
		printf("La\n");
    1c20:	4b1a      	ldr	r3, [pc, #104]	; (1c8c <displayNote+0xf8>)
    1c22:	0018      	movs	r0, r3
    1c24:	4b10      	ldr	r3, [pc, #64]	; (1c68 <displayNote+0xd4>)
    1c26:	4798      	blx	r3
	break;
    1c28:	e00e      	b.n	1c48 <displayNote+0xb4>
	
	case NUM_SIb :
		printf("Sib / La#\n");
    1c2a:	4b19      	ldr	r3, [pc, #100]	; (1c90 <displayNote+0xfc>)
    1c2c:	0018      	movs	r0, r3
    1c2e:	4b0e      	ldr	r3, [pc, #56]	; (1c68 <displayNote+0xd4>)
    1c30:	4798      	blx	r3
	break;
    1c32:	e009      	b.n	1c48 <displayNote+0xb4>
	
	case NUM_SI :
		printf("Si\n");
    1c34:	4b17      	ldr	r3, [pc, #92]	; (1c94 <displayNote+0x100>)
    1c36:	0018      	movs	r0, r3
    1c38:	4b0b      	ldr	r3, [pc, #44]	; (1c68 <displayNote+0xd4>)
    1c3a:	4798      	blx	r3
	break;
    1c3c:	e004      	b.n	1c48 <displayNote+0xb4>

	default:
		printf("inconnue\n");
    1c3e:	4b16      	ldr	r3, [pc, #88]	; (1c98 <displayNote+0x104>)
    1c40:	0018      	movs	r0, r3
    1c42:	4b09      	ldr	r3, [pc, #36]	; (1c68 <displayNote+0xd4>)
    1c44:	4798      	blx	r3
	break;
    1c46:	46c0      	nop			; (mov r8, r8)
	
	}
}
    1c48:	46c0      	nop			; (mov r8, r8)
    1c4a:	46bd      	mov	sp, r7
    1c4c:	b002      	add	sp, #8
    1c4e:	bd80      	pop	{r7, pc}
    1c50:	00000865 	.word	0x00000865
    1c54:	00000739 	.word	0x00000739
    1c58:	0000bce4 	.word	0x0000bce4
    1c5c:	00006acd 	.word	0x00006acd
    1c60:	0000bcfc 	.word	0x0000bcfc
    1c64:	0000bc4c 	.word	0x0000bc4c
    1c68:	00006b61 	.word	0x00006b61
    1c6c:	0000bc50 	.word	0x0000bc50
    1c70:	0000bc5c 	.word	0x0000bc5c
    1c74:	0000bc60 	.word	0x0000bc60
    1c78:	0000bc6c 	.word	0x0000bc6c
    1c7c:	0000bc70 	.word	0x0000bc70
    1c80:	0000bc74 	.word	0x0000bc74
    1c84:	0000bc80 	.word	0x0000bc80
    1c88:	0000bc84 	.word	0x0000bc84
    1c8c:	0000bc90 	.word	0x0000bc90
    1c90:	0000bc94 	.word	0x0000bc94
    1c94:	0000bca0 	.word	0x0000bca0
    1c98:	0000bcf0 	.word	0x0000bcf0

00001c9c <displayFrequence>:
* Author : METAYER Simon
* Params :  float freq ->La fréquence à afficher
* Return : none
*/
void displayFrequence(float freq)
{
    1c9c:	b590      	push	{r4, r7, lr}
    1c9e:	b083      	sub	sp, #12
    1ca0:	af00      	add	r7, sp, #0
    1ca2:	6078      	str	r0, [r7, #4]
	OLEDClearLine(1);//Efface la seconde ligne
    1ca4:	2001      	movs	r0, #1
    1ca6:	4b0a      	ldr	r3, [pc, #40]	; (1cd0 <displayFrequence+0x34>)
    1ca8:	4798      	blx	r3
	OLEDSetLine(1);//Se place sur la seconde ligne
    1caa:	2001      	movs	r0, #1
    1cac:	4b09      	ldr	r3, [pc, #36]	; (1cd4 <displayFrequence+0x38>)
    1cae:	4798      	blx	r3
	printf("Freq  : %.2f Hz\n", freq);//Ecrit la fréquence envoyée en Hz avec deux chiffres aprés la virgule
    1cb0:	4b09      	ldr	r3, [pc, #36]	; (1cd8 <displayFrequence+0x3c>)
    1cb2:	6878      	ldr	r0, [r7, #4]
    1cb4:	4798      	blx	r3
    1cb6:	0003      	movs	r3, r0
    1cb8:	000c      	movs	r4, r1
    1cba:	4908      	ldr	r1, [pc, #32]	; (1cdc <displayFrequence+0x40>)
    1cbc:	001a      	movs	r2, r3
    1cbe:	0023      	movs	r3, r4
    1cc0:	0008      	movs	r0, r1
    1cc2:	4907      	ldr	r1, [pc, #28]	; (1ce0 <displayFrequence+0x44>)
    1cc4:	4788      	blx	r1
}
    1cc6:	46c0      	nop			; (mov r8, r8)
    1cc8:	46bd      	mov	sp, r7
    1cca:	b003      	add	sp, #12
    1ccc:	bd90      	pop	{r4, r7, pc}
    1cce:	46c0      	nop			; (mov r8, r8)
    1cd0:	00000865 	.word	0x00000865
    1cd4:	00000739 	.word	0x00000739
    1cd8:	00006775 	.word	0x00006775
    1cdc:	0000bd30 	.word	0x0000bd30
    1ce0:	00006acd 	.word	0x00006acd

00001ce4 <displayDegre>:
* Author : METAYER Simon
* Params :  char degre ->Le degré à afficher
* Return : none
*/
void displayDegre(char degre)
{
    1ce4:	b580      	push	{r7, lr}
    1ce6:	b082      	sub	sp, #8
    1ce8:	af00      	add	r7, sp, #0
    1cea:	0002      	movs	r2, r0
    1cec:	1dfb      	adds	r3, r7, #7
    1cee:	701a      	strb	r2, [r3, #0]
	OLEDClearLine(2); //Efface la troisième ligne
    1cf0:	2002      	movs	r0, #2
    1cf2:	4b08      	ldr	r3, [pc, #32]	; (1d14 <displayDegre+0x30>)
    1cf4:	4798      	blx	r3
	OLEDSetLine(2); //Se place sur la troisième ligne
    1cf6:	2002      	movs	r0, #2
    1cf8:	4b07      	ldr	r3, [pc, #28]	; (1d18 <displayDegre+0x34>)
    1cfa:	4798      	blx	r3
	printf("Degre : %d   \n",degre); //Ecrit le degré envoyé
    1cfc:	1dfb      	adds	r3, r7, #7
    1cfe:	781a      	ldrb	r2, [r3, #0]
    1d00:	4b06      	ldr	r3, [pc, #24]	; (1d1c <displayDegre+0x38>)
    1d02:	0011      	movs	r1, r2
    1d04:	0018      	movs	r0, r3
    1d06:	4b06      	ldr	r3, [pc, #24]	; (1d20 <displayDegre+0x3c>)
    1d08:	4798      	blx	r3
}
    1d0a:	46c0      	nop			; (mov r8, r8)
    1d0c:	46bd      	mov	sp, r7
    1d0e:	b002      	add	sp, #8
    1d10:	bd80      	pop	{r7, pc}
    1d12:	46c0      	nop			; (mov r8, r8)
    1d14:	00000865 	.word	0x00000865
    1d18:	00000739 	.word	0x00000739
    1d1c:	0000bd44 	.word	0x0000bd44
    1d20:	00006acd 	.word	0x00006acd

00001d24 <diplayLedIndicator>:

void diplayLedIndicator(char acc) // Allume les leds en fonciton de l'indicateur : trop bas / ok / trop haut
{
    1d24:	b580      	push	{r7, lr}
    1d26:	b082      	sub	sp, #8
    1d28:	af00      	add	r7, sp, #0
    1d2a:	0002      	movs	r2, r0
    1d2c:	1dfb      	adds	r3, r7, #7
    1d2e:	701a      	strb	r2, [r3, #0]
	switch (acc){//Test de la valeur renvoyée par la fonction précédente
    1d30:	1dfb      	adds	r3, r7, #7
    1d32:	781b      	ldrb	r3, [r3, #0]
    1d34:	2b02      	cmp	r3, #2
    1d36:	d014      	beq.n	1d62 <diplayLedIndicator+0x3e>
    1d38:	2b03      	cmp	r3, #3
    1d3a:	d022      	beq.n	1d82 <diplayLedIndicator+0x5e>
    1d3c:	2b01      	cmp	r3, #1
    1d3e:	d000      	beq.n	1d42 <diplayLedIndicator+0x1e>
				digitalWrite(PORTA, 15,0);
				digitalWrite(PORTA, 12,1);
				digitalWrite(PORTA, 13,1);
			break;
			default://par défaut on ne fait rien
			break;
    1d40:	e02f      	b.n	1da2 <diplayLedIndicator+0x7e>
void diplayLedIndicator(char acc) // Allume les leds en fonciton de l'indicateur : trop bas / ok / trop haut
{
	switch (acc){//Test de la valeur renvoyée par la fonction précédente
			case LOW_FREQ://Si la fréquence est trop basse
				//On allume la première led de la carte d'extension et on éteind les autres
				digitalWrite(PORTA, 12,0);
    1d42:	2200      	movs	r2, #0
    1d44:	210c      	movs	r1, #12
    1d46:	2000      	movs	r0, #0
    1d48:	4b18      	ldr	r3, [pc, #96]	; (1dac <diplayLedIndicator+0x88>)
    1d4a:	4798      	blx	r3
				digitalWrite(PORTA, 13,1);
    1d4c:	2201      	movs	r2, #1
    1d4e:	210d      	movs	r1, #13
    1d50:	2000      	movs	r0, #0
    1d52:	4b16      	ldr	r3, [pc, #88]	; (1dac <diplayLedIndicator+0x88>)
    1d54:	4798      	blx	r3
				digitalWrite(PORTA, 15,1);
    1d56:	2201      	movs	r2, #1
    1d58:	210f      	movs	r1, #15
    1d5a:	2000      	movs	r0, #0
    1d5c:	4b13      	ldr	r3, [pc, #76]	; (1dac <diplayLedIndicator+0x88>)
    1d5e:	4798      	blx	r3
			break;
    1d60:	e01f      	b.n	1da2 <diplayLedIndicator+0x7e>
			case OK_FREQ://Si la fréquence est dans la plage d'erreur autorisée
				//On allume la seconde led de la carte d'extension et on éteind les autres
				digitalWrite(PORTA, 13,0);
    1d62:	2200      	movs	r2, #0
    1d64:	210d      	movs	r1, #13
    1d66:	2000      	movs	r0, #0
    1d68:	4b10      	ldr	r3, [pc, #64]	; (1dac <diplayLedIndicator+0x88>)
    1d6a:	4798      	blx	r3
				digitalWrite(PORTA, 12,1);
    1d6c:	2201      	movs	r2, #1
    1d6e:	210c      	movs	r1, #12
    1d70:	2000      	movs	r0, #0
    1d72:	4b0e      	ldr	r3, [pc, #56]	; (1dac <diplayLedIndicator+0x88>)
    1d74:	4798      	blx	r3
				digitalWrite(PORTA, 15,1);
    1d76:	2201      	movs	r2, #1
    1d78:	210f      	movs	r1, #15
    1d7a:	2000      	movs	r0, #0
    1d7c:	4b0b      	ldr	r3, [pc, #44]	; (1dac <diplayLedIndicator+0x88>)
    1d7e:	4798      	blx	r3
			break;
    1d80:	e00f      	b.n	1da2 <diplayLedIndicator+0x7e>
			case HIGH_FREQ://Si la fréquence est trop haute
				//On allume la troisième led de la carte d'extension et on éteind les autres
				digitalWrite(PORTA, 15,0);
    1d82:	2200      	movs	r2, #0
    1d84:	210f      	movs	r1, #15
    1d86:	2000      	movs	r0, #0
    1d88:	4b08      	ldr	r3, [pc, #32]	; (1dac <diplayLedIndicator+0x88>)
    1d8a:	4798      	blx	r3
				digitalWrite(PORTA, 12,1);
    1d8c:	2201      	movs	r2, #1
    1d8e:	210c      	movs	r1, #12
    1d90:	2000      	movs	r0, #0
    1d92:	4b06      	ldr	r3, [pc, #24]	; (1dac <diplayLedIndicator+0x88>)
    1d94:	4798      	blx	r3
				digitalWrite(PORTA, 13,1);
    1d96:	2201      	movs	r2, #1
    1d98:	210d      	movs	r1, #13
    1d9a:	2000      	movs	r0, #0
    1d9c:	4b03      	ldr	r3, [pc, #12]	; (1dac <diplayLedIndicator+0x88>)
    1d9e:	4798      	blx	r3
			break;
    1da0:	46c0      	nop			; (mov r8, r8)
			default://par défaut on ne fait rien
			break;
		}

}
    1da2:	46c0      	nop			; (mov r8, r8)
    1da4:	46bd      	mov	sp, r7
    1da6:	b002      	add	sp, #8
    1da8:	bd80      	pop	{r7, pc}
    1daa:	46c0      	nop			; (mov r8, r8)
    1dac:	00001685 	.word	0x00001685

00001db0 <NVIC_EnableIRQ>:
    The function enables a device-specific interrupt in the NVIC interrupt controller.

    \param [in]      IRQn  External interrupt number. Value cannot be negative.
 */
__STATIC_INLINE void NVIC_EnableIRQ(IRQn_Type IRQn)
{
    1db0:	b580      	push	{r7, lr}
    1db2:	b082      	sub	sp, #8
    1db4:	af00      	add	r7, sp, #0
    1db6:	0002      	movs	r2, r0
    1db8:	1dfb      	adds	r3, r7, #7
    1dba:	701a      	strb	r2, [r3, #0]
  NVIC->ISER[0] = (1 << ((uint32_t)(IRQn) & 0x1F));
    1dbc:	4b06      	ldr	r3, [pc, #24]	; (1dd8 <NVIC_EnableIRQ+0x28>)
    1dbe:	1dfa      	adds	r2, r7, #7
    1dc0:	7812      	ldrb	r2, [r2, #0]
    1dc2:	0011      	movs	r1, r2
    1dc4:	221f      	movs	r2, #31
    1dc6:	400a      	ands	r2, r1
    1dc8:	2101      	movs	r1, #1
    1dca:	4091      	lsls	r1, r2
    1dcc:	000a      	movs	r2, r1
    1dce:	601a      	str	r2, [r3, #0]
}
    1dd0:	46c0      	nop			; (mov r8, r8)
    1dd2:	46bd      	mov	sp, r7
    1dd4:	b002      	add	sp, #8
    1dd6:	bd80      	pop	{r7, pc}
    1dd8:	e000e100 	.word	0xe000e100

00001ddc <NVIC_DisableIRQ>:
    The function disables a device-specific interrupt in the NVIC interrupt controller.

    \param [in]      IRQn  External interrupt number. Value cannot be negative.
 */
__STATIC_INLINE void NVIC_DisableIRQ(IRQn_Type IRQn)
{
    1ddc:	b580      	push	{r7, lr}
    1dde:	b082      	sub	sp, #8
    1de0:	af00      	add	r7, sp, #0
    1de2:	0002      	movs	r2, r0
    1de4:	1dfb      	adds	r3, r7, #7
    1de6:	701a      	strb	r2, [r3, #0]
  NVIC->ICER[0] = (1 << ((uint32_t)(IRQn) & 0x1F));
    1de8:	4a07      	ldr	r2, [pc, #28]	; (1e08 <NVIC_DisableIRQ+0x2c>)
    1dea:	1dfb      	adds	r3, r7, #7
    1dec:	781b      	ldrb	r3, [r3, #0]
    1dee:	0019      	movs	r1, r3
    1df0:	231f      	movs	r3, #31
    1df2:	400b      	ands	r3, r1
    1df4:	2101      	movs	r1, #1
    1df6:	4099      	lsls	r1, r3
    1df8:	000b      	movs	r3, r1
    1dfa:	0019      	movs	r1, r3
    1dfc:	2380      	movs	r3, #128	; 0x80
    1dfe:	50d1      	str	r1, [r2, r3]
}
    1e00:	46c0      	nop			; (mov r8, r8)
    1e02:	46bd      	mov	sp, r7
    1e04:	b002      	add	sp, #8
    1e06:	bd80      	pop	{r7, pc}
    1e08:	e000e100 	.word	0xe000e100

00001e0c <initFreq>:
* Author : BIZON Alexis
* Params : none
* Return : none
*/
void initFreq()
{
    1e0c:	b580      	push	{r7, lr}
    1e0e:	af00      	add	r7, sp, #0
	// EIC pour la détection du passage en zéro de notre signal sinusoidal
	pinMode(PORTB, 15, INPUT_PULLUP);//configuration de pb 15 en entrée
    1e10:	2203      	movs	r2, #3
    1e12:	210f      	movs	r1, #15
    1e14:	2001      	movs	r0, #1
    1e16:	4b17      	ldr	r3, [pc, #92]	; (1e74 <initFreq+0x68>)
    1e18:	4798      	blx	r3
	pinMux(PORTB, 15, CONFIG_A);// pb 15 sur l'eic
    1e1a:	2200      	movs	r2, #0
    1e1c:	210f      	movs	r1, #15
    1e1e:	2001      	movs	r0, #1
    1e20:	4b15      	ldr	r3, [pc, #84]	; (1e78 <initFreq+0x6c>)
    1e22:	4798      	blx	r3
	EICInitClock(F32KHZ);// initialisation de la source d'horloge pour l'eic à 32 kHz
    1e24:	2001      	movs	r0, #1
    1e26:	4b15      	ldr	r3, [pc, #84]	; (1e7c <initFreq+0x70>)
    1e28:	4798      	blx	r3
	EICConfig(15,1,LOW);// configuration de l'eic 15 en detection de niveau bas avec filtre
    1e2a:	2205      	movs	r2, #5
    1e2c:	2101      	movs	r1, #1
    1e2e:	200f      	movs	r0, #15
    1e30:	4b13      	ldr	r3, [pc, #76]	; (1e80 <initFreq+0x74>)
    1e32:	4798      	blx	r3
	NVIC_EnableIRQ(EIC_IRQn);// acivation des interuptions sur EIC
    1e34:	2004      	movs	r0, #4
    1e36:	4b13      	ldr	r3, [pc, #76]	; (1e84 <initFreq+0x78>)
    1e38:	4798      	blx	r3
	
	// TIMER TC3 à 1MHz
	TCinitClock(F1MHZ,3); // Initialisation de l'horloge à 1MHz pour le timer TC3
    1e3a:	2103      	movs	r1, #3
    1e3c:	2004      	movs	r0, #4
    1e3e:	4b12      	ldr	r3, [pc, #72]	; (1e88 <initFreq+0x7c>)
    1e40:	4798      	blx	r3
	TC3->COUNT16.CTRLA.reg= (0x3<<8); // intialisation d'un prescaler de '011' soit une division par 8 donc 1/8 de Mhz
    1e42:	4b12      	ldr	r3, [pc, #72]	; (1e8c <initFreq+0x80>)
    1e44:	22c0      	movs	r2, #192	; 0xc0
    1e46:	0092      	lsls	r2, r2, #2
    1e48:	801a      	strh	r2, [r3, #0]
	TC3->COUNT16.CTRLBSET.reg=0x0; // Initialisation du timer en incrémentation
    1e4a:	4b10      	ldr	r3, [pc, #64]	; (1e8c <initFreq+0x80>)
    1e4c:	2200      	movs	r2, #0
    1e4e:	715a      	strb	r2, [r3, #5]
	TC3->COUNT16.COUNT.reg=0; // Chargement du compteur
    1e50:	4b0e      	ldr	r3, [pc, #56]	; (1e8c <initFreq+0x80>)
    1e52:	2200      	movs	r2, #0
    1e54:	821a      	strh	r2, [r3, #16]
	TC3->COUNT16.INTFLAG.reg=0x1; // Validation de l'overflow
    1e56:	4b0d      	ldr	r3, [pc, #52]	; (1e8c <initFreq+0x80>)
    1e58:	2201      	movs	r2, #1
    1e5a:	739a      	strb	r2, [r3, #14]
	TC3->COUNT16.CTRLA.reg |=2; // Démarrage du timer
    1e5c:	4a0b      	ldr	r2, [pc, #44]	; (1e8c <initFreq+0x80>)
    1e5e:	4b0b      	ldr	r3, [pc, #44]	; (1e8c <initFreq+0x80>)
    1e60:	881b      	ldrh	r3, [r3, #0]
    1e62:	b29b      	uxth	r3, r3
    1e64:	2102      	movs	r1, #2
    1e66:	430b      	orrs	r3, r1
    1e68:	b29b      	uxth	r3, r3
    1e6a:	8013      	strh	r3, [r2, #0]
}
    1e6c:	46c0      	nop			; (mov r8, r8)
    1e6e:	46bd      	mov	sp, r7
    1e70:	bd80      	pop	{r7, pc}
    1e72:	46c0      	nop			; (mov r8, r8)
    1e74:	000014e5 	.word	0x000014e5
    1e78:	000016f5 	.word	0x000016f5
    1e7c:	00000585 	.word	0x00000585
    1e80:	000004b5 	.word	0x000004b5
    1e84:	00001db1 	.word	0x00001db1
    1e88:	000018f5 	.word	0x000018f5
    1e8c:	42002c00 	.word	0x42002c00

00001e90 <EIC_Handler>:
* Author : BIZON Alexis
* Params : none
* Return : none
*/
void EIC_Handler()
{
    1e90:	b5b0      	push	{r4, r5, r7, lr}
    1e92:	af00      	add	r7, sp, #0
	NVIC_DisableIRQ(EIC_IRQn);// désacivation des interuptions sur EIC
    1e94:	2004      	movs	r0, #4
    1e96:	4b29      	ldr	r3, [pc, #164]	; (1f3c <EIC_Handler+0xac>)
    1e98:	4798      	blx	r3
	static char countOn;//Variable static définnissant si l'on est entrain de compter
	if((EIC->INTFLAG.reg & (1<<15)) && (!countOn)) // Si on ne compte pas
    1e9a:	4b29      	ldr	r3, [pc, #164]	; (1f40 <EIC_Handler+0xb0>)
    1e9c:	691a      	ldr	r2, [r3, #16]
    1e9e:	2380      	movs	r3, #128	; 0x80
    1ea0:	021b      	lsls	r3, r3, #8
    1ea2:	4013      	ands	r3, r2
    1ea4:	d011      	beq.n	1eca <EIC_Handler+0x3a>
    1ea6:	4b27      	ldr	r3, [pc, #156]	; (1f44 <EIC_Handler+0xb4>)
    1ea8:	781b      	ldrb	r3, [r3, #0]
    1eaa:	2b00      	cmp	r3, #0
    1eac:	d10d      	bne.n	1eca <EIC_Handler+0x3a>
	{
		countOn =1;//Alors maintenant on compte
    1eae:	4b25      	ldr	r3, [pc, #148]	; (1f44 <EIC_Handler+0xb4>)
    1eb0:	2201      	movs	r2, #1
    1eb2:	701a      	strb	r2, [r3, #0]
		TC3->COUNT16.COUNT.reg=0; // RAZ du compteur
    1eb4:	4b24      	ldr	r3, [pc, #144]	; (1f48 <EIC_Handler+0xb8>)
    1eb6:	2200      	movs	r2, #0
    1eb8:	821a      	strh	r2, [r3, #16]
		EIC->INTFLAG.reg |= 1<<15; // RAZ de la détection EIC
    1eba:	4b21      	ldr	r3, [pc, #132]	; (1f40 <EIC_Handler+0xb0>)
    1ebc:	4a20      	ldr	r2, [pc, #128]	; (1f40 <EIC_Handler+0xb0>)
    1ebe:	6912      	ldr	r2, [r2, #16]
    1ec0:	2180      	movs	r1, #128	; 0x80
    1ec2:	0209      	lsls	r1, r1, #8
    1ec4:	430a      	orrs	r2, r1
    1ec6:	611a      	str	r2, [r3, #16]
    1ec8:	e031      	b.n	1f2e <EIC_Handler+0x9e>
	}
	else if((EIC->INTFLAG.reg & (1<<15)) && (countOn)) // Si on était en train de compter
    1eca:	4b1d      	ldr	r3, [pc, #116]	; (1f40 <EIC_Handler+0xb0>)
    1ecc:	691a      	ldr	r2, [r3, #16]
    1ece:	2380      	movs	r3, #128	; 0x80
    1ed0:	021b      	lsls	r3, r3, #8
    1ed2:	4013      	ands	r3, r2
    1ed4:	d02b      	beq.n	1f2e <EIC_Handler+0x9e>
    1ed6:	4b1b      	ldr	r3, [pc, #108]	; (1f44 <EIC_Handler+0xb4>)
    1ed8:	781b      	ldrb	r3, [r3, #0]
    1eda:	2b00      	cmp	r3, #0
    1edc:	d027      	beq.n	1f2e <EIC_Handler+0x9e>
	{
		countOn =0;//Alors maintenant on ne compte plus
    1ede:	4b19      	ldr	r3, [pc, #100]	; (1f44 <EIC_Handler+0xb4>)
    1ee0:	2200      	movs	r2, #0
    1ee2:	701a      	strb	r2, [r3, #0]
		__freq = (float)(1/((TC3->COUNT16.COUNT.reg)*(0.000008))) ; // 1/(x*8us) 
    1ee4:	4b18      	ldr	r3, [pc, #96]	; (1f48 <EIC_Handler+0xb8>)
    1ee6:	8a1b      	ldrh	r3, [r3, #16]
    1ee8:	b29b      	uxth	r3, r3
    1eea:	001a      	movs	r2, r3
    1eec:	4b17      	ldr	r3, [pc, #92]	; (1f4c <EIC_Handler+0xbc>)
    1eee:	0010      	movs	r0, r2
    1ef0:	4798      	blx	r3
    1ef2:	4c17      	ldr	r4, [pc, #92]	; (1f50 <EIC_Handler+0xc0>)
    1ef4:	4a17      	ldr	r2, [pc, #92]	; (1f54 <EIC_Handler+0xc4>)
    1ef6:	4b18      	ldr	r3, [pc, #96]	; (1f58 <EIC_Handler+0xc8>)
    1ef8:	47a0      	blx	r4
    1efa:	0003      	movs	r3, r0
    1efc:	000c      	movs	r4, r1
    1efe:	001a      	movs	r2, r3
    1f00:	0023      	movs	r3, r4
    1f02:	4c16      	ldr	r4, [pc, #88]	; (1f5c <EIC_Handler+0xcc>)
    1f04:	2000      	movs	r0, #0
    1f06:	4916      	ldr	r1, [pc, #88]	; (1f60 <EIC_Handler+0xd0>)
    1f08:	47a0      	blx	r4
    1f0a:	0003      	movs	r3, r0
    1f0c:	000c      	movs	r4, r1
    1f0e:	0019      	movs	r1, r3
    1f10:	0022      	movs	r2, r4
    1f12:	4b14      	ldr	r3, [pc, #80]	; (1f64 <EIC_Handler+0xd4>)
    1f14:	0008      	movs	r0, r1
    1f16:	0011      	movs	r1, r2
    1f18:	4798      	blx	r3
    1f1a:	1c02      	adds	r2, r0, #0
    1f1c:	4b12      	ldr	r3, [pc, #72]	; (1f68 <EIC_Handler+0xd8>)
    1f1e:	601a      	str	r2, [r3, #0]
		EIC->INTFLAG.reg |= 1<<15; // RAZ de la détection EIC
    1f20:	4b07      	ldr	r3, [pc, #28]	; (1f40 <EIC_Handler+0xb0>)
    1f22:	4a07      	ldr	r2, [pc, #28]	; (1f40 <EIC_Handler+0xb0>)
    1f24:	6912      	ldr	r2, [r2, #16]
    1f26:	2180      	movs	r1, #128	; 0x80
    1f28:	0209      	lsls	r1, r1, #8
    1f2a:	430a      	orrs	r2, r1
    1f2c:	611a      	str	r2, [r3, #16]
	}
	NVIC_EnableIRQ(EIC_IRQn);// acivation des interuptions sur EIC
    1f2e:	2004      	movs	r0, #4
    1f30:	4b0e      	ldr	r3, [pc, #56]	; (1f6c <EIC_Handler+0xdc>)
    1f32:	4798      	blx	r3
}
    1f34:	46c0      	nop			; (mov r8, r8)
    1f36:	46bd      	mov	sp, r7
    1f38:	bdb0      	pop	{r4, r5, r7, pc}
    1f3a:	46c0      	nop			; (mov r8, r8)
    1f3c:	00001ddd 	.word	0x00001ddd
    1f40:	40001800 	.word	0x40001800
    1f44:	20000ae8 	.word	0x20000ae8
    1f48:	42002c00 	.word	0x42002c00
    1f4c:	000066f1 	.word	0x000066f1
    1f50:	00005aa9 	.word	0x00005aa9
    1f54:	a0b5ed8d 	.word	0xa0b5ed8d
    1f58:	3ee0c6f7 	.word	0x3ee0c6f7
    1f5c:	00005261 	.word	0x00005261
    1f60:	3ff00000 	.word	0x3ff00000
    1f64:	0000681d 	.word	0x0000681d
    1f68:	20000b28 	.word	0x20000b28
    1f6c:	00001db1 	.word	0x00001db1

00001f70 <arrondi>:
 */ 

#include "note.h"

double arrondi (double val) // Fonction arrondi
{
    1f70:	b590      	push	{r4, r7, lr}
    1f72:	b083      	sub	sp, #12
    1f74:	af00      	add	r7, sp, #0
    1f76:	6038      	str	r0, [r7, #0]
    1f78:	6079      	str	r1, [r7, #4]
	return floor (val+0.5);
    1f7a:	4c09      	ldr	r4, [pc, #36]	; (1fa0 <arrondi+0x30>)
    1f7c:	2200      	movs	r2, #0
    1f7e:	4b09      	ldr	r3, [pc, #36]	; (1fa4 <arrondi+0x34>)
    1f80:	6838      	ldr	r0, [r7, #0]
    1f82:	6879      	ldr	r1, [r7, #4]
    1f84:	47a0      	blx	r4
    1f86:	0003      	movs	r3, r0
    1f88:	000c      	movs	r4, r1
    1f8a:	0018      	movs	r0, r3
    1f8c:	0021      	movs	r1, r4
    1f8e:	4b06      	ldr	r3, [pc, #24]	; (1fa8 <arrondi+0x38>)
    1f90:	4798      	blx	r3
    1f92:	0003      	movs	r3, r0
    1f94:	000c      	movs	r4, r1
} 
    1f96:	0018      	movs	r0, r3
    1f98:	0021      	movs	r1, r4
    1f9a:	46bd      	mov	sp, r7
    1f9c:	b003      	add	sp, #12
    1f9e:	bd90      	pop	{r4, r7, pc}
    1fa0:	00004c09 	.word	0x00004c09
    1fa4:	3fe00000 	.word	0x3fe00000
    1fa8:	00002705 	.word	0x00002705

00001fac <noteSolver>:

char noteSolver(float freq)
{
    1fac:	b590      	push	{r4, r7, lr}
    1fae:	b087      	sub	sp, #28
    1fb0:	af00      	add	r7, sp, #0
    1fb2:	6078      	str	r0, [r7, #4]
	char rang;
	double tmp = arrondi((log10( pow( ((double)freq/LA_440_FREQ) , 12 ) ) / log10(2)));
    1fb4:	4b3b      	ldr	r3, [pc, #236]	; (20a4 <STACK_SIZE+0xa4>)
    1fb6:	6878      	ldr	r0, [r7, #4]
    1fb8:	4798      	blx	r3
    1fba:	4c3b      	ldr	r4, [pc, #236]	; (20a8 <STACK_SIZE+0xa8>)
    1fbc:	2200      	movs	r2, #0
    1fbe:	4b3b      	ldr	r3, [pc, #236]	; (20ac <STACK_SIZE+0xac>)
    1fc0:	47a0      	blx	r4
    1fc2:	0003      	movs	r3, r0
    1fc4:	000c      	movs	r4, r1
    1fc6:	0018      	movs	r0, r3
    1fc8:	0021      	movs	r1, r4
    1fca:	2300      	movs	r3, #0
    1fcc:	4c38      	ldr	r4, [pc, #224]	; (20b0 <STACK_SIZE+0xb0>)
    1fce:	001a      	movs	r2, r3
    1fd0:	0023      	movs	r3, r4
    1fd2:	4c38      	ldr	r4, [pc, #224]	; (20b4 <STACK_SIZE+0xb4>)
    1fd4:	47a0      	blx	r4
    1fd6:	0003      	movs	r3, r0
    1fd8:	000c      	movs	r4, r1
    1fda:	0018      	movs	r0, r3
    1fdc:	0021      	movs	r1, r4
    1fde:	4b36      	ldr	r3, [pc, #216]	; (20b8 <STACK_SIZE+0xb8>)
    1fe0:	4798      	blx	r3
    1fe2:	4c31      	ldr	r4, [pc, #196]	; (20a8 <STACK_SIZE+0xa8>)
    1fe4:	4a35      	ldr	r2, [pc, #212]	; (20bc <STACK_SIZE+0xbc>)
    1fe6:	4b36      	ldr	r3, [pc, #216]	; (20c0 <STACK_SIZE+0xc0>)
    1fe8:	47a0      	blx	r4
    1fea:	0003      	movs	r3, r0
    1fec:	000c      	movs	r4, r1
    1fee:	0018      	movs	r0, r3
    1ff0:	0021      	movs	r1, r4
    1ff2:	4b34      	ldr	r3, [pc, #208]	; (20c4 <STACK_SIZE+0xc4>)
    1ff4:	4798      	blx	r3
    1ff6:	0003      	movs	r3, r0
    1ff8:	000c      	movs	r4, r1
    1ffa:	613b      	str	r3, [r7, #16]
    1ffc:	617c      	str	r4, [r7, #20]
	
	if (tmp<0)
    1ffe:	4c32      	ldr	r4, [pc, #200]	; (20c8 <STACK_SIZE+0xc8>)
    2000:	2200      	movs	r2, #0
    2002:	2300      	movs	r3, #0
    2004:	6938      	ldr	r0, [r7, #16]
    2006:	6979      	ldr	r1, [r7, #20]
    2008:	47a0      	blx	r4
    200a:	1e03      	subs	r3, r0, #0
    200c:	d023      	beq.n	2056 <STACK_SIZE+0x56>
	{
		 rang = (char)(0-tmp);
    200e:	4c2f      	ldr	r4, [pc, #188]	; (20cc <STACK_SIZE+0xcc>)
    2010:	693a      	ldr	r2, [r7, #16]
    2012:	697b      	ldr	r3, [r7, #20]
    2014:	2000      	movs	r0, #0
    2016:	2100      	movs	r1, #0
    2018:	47a0      	blx	r4
    201a:	0003      	movs	r3, r0
    201c:	000c      	movs	r4, r1
    201e:	0019      	movs	r1, r3
    2020:	0022      	movs	r2, r4
    2022:	230f      	movs	r3, #15
    2024:	18fc      	adds	r4, r7, r3
    2026:	4b2a      	ldr	r3, [pc, #168]	; (20d0 <STACK_SIZE+0xd0>)
    2028:	0008      	movs	r0, r1
    202a:	0011      	movs	r1, r2
    202c:	4798      	blx	r3
    202e:	0003      	movs	r3, r0
    2030:	7023      	strb	r3, [r4, #0]
		 return rang =(char)((10-(rang % 12)));
    2032:	230f      	movs	r3, #15
    2034:	18fb      	adds	r3, r7, r3
    2036:	781a      	ldrb	r2, [r3, #0]
    2038:	4b26      	ldr	r3, [pc, #152]	; (20d4 <STACK_SIZE+0xd4>)
    203a:	210c      	movs	r1, #12
    203c:	0010      	movs	r0, r2
    203e:	4798      	blx	r3
    2040:	000b      	movs	r3, r1
    2042:	b2da      	uxtb	r2, r3
    2044:	230f      	movs	r3, #15
    2046:	18fb      	adds	r3, r7, r3
    2048:	210a      	movs	r1, #10
    204a:	1a8a      	subs	r2, r1, r2
    204c:	701a      	strb	r2, [r3, #0]
    204e:	230f      	movs	r3, #15
    2050:	18fb      	adds	r3, r7, r3
    2052:	781b      	ldrb	r3, [r3, #0]
    2054:	e021      	b.n	209a <STACK_SIZE+0x9a>
	}
	else if (tmp>=0) 
    2056:	4c20      	ldr	r4, [pc, #128]	; (20d8 <STACK_SIZE+0xd8>)
    2058:	2200      	movs	r2, #0
    205a:	2300      	movs	r3, #0
    205c:	6938      	ldr	r0, [r7, #16]
    205e:	6979      	ldr	r1, [r7, #20]
    2060:	47a0      	blx	r4
    2062:	1e03      	subs	r3, r0, #0
    2064:	d019      	beq.n	209a <STACK_SIZE+0x9a>
	{
		rang = (char)tmp;
    2066:	230f      	movs	r3, #15
    2068:	18fc      	adds	r4, r7, r3
    206a:	4b19      	ldr	r3, [pc, #100]	; (20d0 <STACK_SIZE+0xd0>)
    206c:	6938      	ldr	r0, [r7, #16]
    206e:	6979      	ldr	r1, [r7, #20]
    2070:	4798      	blx	r3
    2072:	0003      	movs	r3, r0
    2074:	7023      	strb	r3, [r4, #0]
		return rang =(char)((((char)rang+10))%12);
    2076:	230f      	movs	r3, #15
    2078:	18fb      	adds	r3, r7, r3
    207a:	781b      	ldrb	r3, [r3, #0]
    207c:	330a      	adds	r3, #10
    207e:	001a      	movs	r2, r3
    2080:	4b16      	ldr	r3, [pc, #88]	; (20dc <STACK_SIZE+0xdc>)
    2082:	210c      	movs	r1, #12
    2084:	0010      	movs	r0, r2
    2086:	4798      	blx	r3
    2088:	000b      	movs	r3, r1
    208a:	001a      	movs	r2, r3
    208c:	230f      	movs	r3, #15
    208e:	18fb      	adds	r3, r7, r3
    2090:	701a      	strb	r2, [r3, #0]
    2092:	230f      	movs	r3, #15
    2094:	18fb      	adds	r3, r7, r3
    2096:	781b      	ldrb	r3, [r3, #0]
    2098:	e7ff      	b.n	209a <STACK_SIZE+0x9a>
	}
}
    209a:	0018      	movs	r0, r3
    209c:	46bd      	mov	sp, r7
    209e:	b007      	add	sp, #28
    20a0:	bd90      	pop	{r4, r7, pc}
    20a2:	46c0      	nop			; (mov r8, r8)
    20a4:	00006775 	.word	0x00006775
    20a8:	00005261 	.word	0x00005261
    20ac:	407b8000 	.word	0x407b8000
    20b0:	40280000 	.word	0x40280000
    20b4:	0000294d 	.word	0x0000294d
    20b8:	00002835 	.word	0x00002835
    20bc:	509f79ff 	.word	0x509f79ff
    20c0:	3fd34413 	.word	0x3fd34413
    20c4:	00001f71 	.word	0x00001f71
    20c8:	000043b1 	.word	0x000043b1
    20cc:	00005f9d 	.word	0x00005f9d
    20d0:	00004475 	.word	0x00004475
    20d4:	000041a5 	.word	0x000041a5
    20d8:	000043ed 	.word	0x000043ed
    20dc:	00004379 	.word	0x00004379

000020e0 <degreSolver>:

char degreSolver(float freq)
{
    20e0:	b590      	push	{r4, r7, lr}
    20e2:	b087      	sub	sp, #28
    20e4:	af00      	add	r7, sp, #0
    20e6:	6078      	str	r0, [r7, #4]
	char rang;
	double tmp = arrondi((log10( pow( ((double)freq/LA_440_FREQ) , 12 ) ) / log10(2)));
    20e8:	4b48      	ldr	r3, [pc, #288]	; (220c <degreSolver+0x12c>)
    20ea:	6878      	ldr	r0, [r7, #4]
    20ec:	4798      	blx	r3
    20ee:	4c48      	ldr	r4, [pc, #288]	; (2210 <degreSolver+0x130>)
    20f0:	2200      	movs	r2, #0
    20f2:	4b48      	ldr	r3, [pc, #288]	; (2214 <degreSolver+0x134>)
    20f4:	47a0      	blx	r4
    20f6:	0003      	movs	r3, r0
    20f8:	000c      	movs	r4, r1
    20fa:	0018      	movs	r0, r3
    20fc:	0021      	movs	r1, r4
    20fe:	2300      	movs	r3, #0
    2100:	4c45      	ldr	r4, [pc, #276]	; (2218 <degreSolver+0x138>)
    2102:	001a      	movs	r2, r3
    2104:	0023      	movs	r3, r4
    2106:	4c45      	ldr	r4, [pc, #276]	; (221c <degreSolver+0x13c>)
    2108:	47a0      	blx	r4
    210a:	0003      	movs	r3, r0
    210c:	000c      	movs	r4, r1
    210e:	0018      	movs	r0, r3
    2110:	0021      	movs	r1, r4
    2112:	4b43      	ldr	r3, [pc, #268]	; (2220 <degreSolver+0x140>)
    2114:	4798      	blx	r3
    2116:	4c3e      	ldr	r4, [pc, #248]	; (2210 <degreSolver+0x130>)
    2118:	4a42      	ldr	r2, [pc, #264]	; (2224 <degreSolver+0x144>)
    211a:	4b43      	ldr	r3, [pc, #268]	; (2228 <degreSolver+0x148>)
    211c:	47a0      	blx	r4
    211e:	0003      	movs	r3, r0
    2120:	000c      	movs	r4, r1
    2122:	0018      	movs	r0, r3
    2124:	0021      	movs	r1, r4
    2126:	4b41      	ldr	r3, [pc, #260]	; (222c <degreSolver+0x14c>)
    2128:	4798      	blx	r3
    212a:	0003      	movs	r3, r0
    212c:	000c      	movs	r4, r1
    212e:	613b      	str	r3, [r7, #16]
    2130:	617c      	str	r4, [r7, #20]
	if (tmp<0)
    2132:	4c3f      	ldr	r4, [pc, #252]	; (2230 <degreSolver+0x150>)
    2134:	2200      	movs	r2, #0
    2136:	2300      	movs	r3, #0
    2138:	6938      	ldr	r0, [r7, #16]
    213a:	6979      	ldr	r1, [r7, #20]
    213c:	47a0      	blx	r4
    213e:	1e03      	subs	r3, r0, #0
    2140:	d031      	beq.n	21a6 <degreSolver+0xc6>
	{
		 rang  = (char)(0-tmp);
    2142:	4c3c      	ldr	r4, [pc, #240]	; (2234 <degreSolver+0x154>)
    2144:	693a      	ldr	r2, [r7, #16]
    2146:	697b      	ldr	r3, [r7, #20]
    2148:	2000      	movs	r0, #0
    214a:	2100      	movs	r1, #0
    214c:	47a0      	blx	r4
    214e:	0003      	movs	r3, r0
    2150:	000c      	movs	r4, r1
    2152:	0019      	movs	r1, r3
    2154:	0022      	movs	r2, r4
    2156:	230f      	movs	r3, #15
    2158:	18fc      	adds	r4, r7, r3
    215a:	4b37      	ldr	r3, [pc, #220]	; (2238 <degreSolver+0x158>)
    215c:	0008      	movs	r0, r1
    215e:	0011      	movs	r1, r2
    2160:	4798      	blx	r3
    2162:	0003      	movs	r3, r0
    2164:	7023      	strb	r3, [r4, #0]
		 return 4-(char)arrondi((rang+10)/12);
    2166:	230f      	movs	r3, #15
    2168:	18fb      	adds	r3, r7, r3
    216a:	781b      	ldrb	r3, [r3, #0]
    216c:	330a      	adds	r3, #10
    216e:	001a      	movs	r2, r3
    2170:	4b32      	ldr	r3, [pc, #200]	; (223c <degreSolver+0x15c>)
    2172:	210c      	movs	r1, #12
    2174:	0010      	movs	r0, r2
    2176:	4798      	blx	r3
    2178:	0003      	movs	r3, r0
    217a:	001a      	movs	r2, r3
    217c:	4b30      	ldr	r3, [pc, #192]	; (2240 <degreSolver+0x160>)
    217e:	0010      	movs	r0, r2
    2180:	4798      	blx	r3
    2182:	0003      	movs	r3, r0
    2184:	000c      	movs	r4, r1
    2186:	0018      	movs	r0, r3
    2188:	0021      	movs	r1, r4
    218a:	4b28      	ldr	r3, [pc, #160]	; (222c <degreSolver+0x14c>)
    218c:	4798      	blx	r3
    218e:	000a      	movs	r2, r1
    2190:	0001      	movs	r1, r0
    2192:	4b29      	ldr	r3, [pc, #164]	; (2238 <degreSolver+0x158>)
    2194:	0008      	movs	r0, r1
    2196:	0011      	movs	r1, r2
    2198:	4798      	blx	r3
    219a:	0003      	movs	r3, r0
    219c:	b2db      	uxtb	r3, r3
    219e:	2204      	movs	r2, #4
    21a0:	1ad3      	subs	r3, r2, r3
    21a2:	b2db      	uxtb	r3, r3
    21a4:	e02e      	b.n	2204 <degreSolver+0x124>
	}
	else if (tmp>=0)
    21a6:	4c27      	ldr	r4, [pc, #156]	; (2244 <degreSolver+0x164>)
    21a8:	2200      	movs	r2, #0
    21aa:	2300      	movs	r3, #0
    21ac:	6938      	ldr	r0, [r7, #16]
    21ae:	6979      	ldr	r1, [r7, #20]
    21b0:	47a0      	blx	r4
    21b2:	1e03      	subs	r3, r0, #0
    21b4:	d026      	beq.n	2204 <degreSolver+0x124>
	{
		 rang = (char)tmp;
    21b6:	230f      	movs	r3, #15
    21b8:	18fc      	adds	r4, r7, r3
    21ba:	4b1f      	ldr	r3, [pc, #124]	; (2238 <degreSolver+0x158>)
    21bc:	6938      	ldr	r0, [r7, #16]
    21be:	6979      	ldr	r1, [r7, #20]
    21c0:	4798      	blx	r3
    21c2:	0003      	movs	r3, r0
    21c4:	7023      	strb	r3, [r4, #0]
		 return (char)arrondi((rang+10)/12)+3;
    21c6:	230f      	movs	r3, #15
    21c8:	18fb      	adds	r3, r7, r3
    21ca:	781b      	ldrb	r3, [r3, #0]
    21cc:	330a      	adds	r3, #10
    21ce:	001a      	movs	r2, r3
    21d0:	4b1a      	ldr	r3, [pc, #104]	; (223c <degreSolver+0x15c>)
    21d2:	210c      	movs	r1, #12
    21d4:	0010      	movs	r0, r2
    21d6:	4798      	blx	r3
    21d8:	0003      	movs	r3, r0
    21da:	001a      	movs	r2, r3
    21dc:	4b18      	ldr	r3, [pc, #96]	; (2240 <degreSolver+0x160>)
    21de:	0010      	movs	r0, r2
    21e0:	4798      	blx	r3
    21e2:	0003      	movs	r3, r0
    21e4:	000c      	movs	r4, r1
    21e6:	0018      	movs	r0, r3
    21e8:	0021      	movs	r1, r4
    21ea:	4b10      	ldr	r3, [pc, #64]	; (222c <degreSolver+0x14c>)
    21ec:	4798      	blx	r3
    21ee:	000a      	movs	r2, r1
    21f0:	0001      	movs	r1, r0
    21f2:	4b11      	ldr	r3, [pc, #68]	; (2238 <degreSolver+0x158>)
    21f4:	0008      	movs	r0, r1
    21f6:	0011      	movs	r1, r2
    21f8:	4798      	blx	r3
    21fa:	0003      	movs	r3, r0
    21fc:	b2db      	uxtb	r3, r3
    21fe:	3303      	adds	r3, #3
    2200:	b2db      	uxtb	r3, r3
    2202:	e7ff      	b.n	2204 <degreSolver+0x124>
	}
	
	
}
    2204:	0018      	movs	r0, r3
    2206:	46bd      	mov	sp, r7
    2208:	b007      	add	sp, #28
    220a:	bd90      	pop	{r4, r7, pc}
    220c:	00006775 	.word	0x00006775
    2210:	00005261 	.word	0x00005261
    2214:	407b8000 	.word	0x407b8000
    2218:	40280000 	.word	0x40280000
    221c:	0000294d 	.word	0x0000294d
    2220:	00002835 	.word	0x00002835
    2224:	509f79ff 	.word	0x509f79ff
    2228:	3fd34413 	.word	0x3fd34413
    222c:	00001f71 	.word	0x00001f71
    2230:	000043b1 	.word	0x000043b1
    2234:	00005f9d 	.word	0x00005f9d
    2238:	00004475 	.word	0x00004475
    223c:	000041ad 	.word	0x000041ad
    2240:	000066f1 	.word	0x000066f1
    2244:	000043ed 	.word	0x000043ed

00002248 <getFreqNote>:

float getFreqNote(char note, char degre)
{
    2248:	b590      	push	{r4, r7, lr}
    224a:	b083      	sub	sp, #12
    224c:	af00      	add	r7, sp, #0
    224e:	0002      	movs	r2, r0
    2250:	1dfb      	adds	r3, r7, #7
    2252:	701a      	strb	r2, [r3, #0]
    2254:	1dbb      	adds	r3, r7, #6
    2256:	1c0a      	adds	r2, r1, #0
    2258:	701a      	strb	r2, [r3, #0]
	switch (note){
    225a:	1dfb      	adds	r3, r7, #7
    225c:	781b      	ldrb	r3, [r3, #0]
    225e:	2b0c      	cmp	r3, #12
    2260:	d900      	bls.n	2264 <getFreqNote+0x1c>
    2262:	e184      	b.n	256e <getFreqNote+0x326>
    2264:	009a      	lsls	r2, r3, #2
    2266:	4bc4      	ldr	r3, [pc, #784]	; (2578 <getFreqNote+0x330>)
    2268:	18d3      	adds	r3, r2, r3
    226a:	681b      	ldr	r3, [r3, #0]
    226c:	469f      	mov	pc, r3
		case NUM_DO :
			return DO(degre);
    226e:	1dbb      	adds	r3, r7, #6
    2270:	781a      	ldrb	r2, [r3, #0]
    2272:	4bc2      	ldr	r3, [pc, #776]	; (257c <getFreqNote+0x334>)
    2274:	0010      	movs	r0, r2
    2276:	4798      	blx	r3
    2278:	4cc1      	ldr	r4, [pc, #772]	; (2580 <getFreqNote+0x338>)
    227a:	2200      	movs	r2, #0
    227c:	4bc1      	ldr	r3, [pc, #772]	; (2584 <getFreqNote+0x33c>)
    227e:	47a0      	blx	r4
    2280:	0003      	movs	r3, r0
    2282:	000c      	movs	r4, r1
    2284:	2000      	movs	r0, #0
    2286:	2180      	movs	r1, #128	; 0x80
    2288:	05c9      	lsls	r1, r1, #23
    228a:	001a      	movs	r2, r3
    228c:	0023      	movs	r3, r4
    228e:	4cbe      	ldr	r4, [pc, #760]	; (2588 <getFreqNote+0x340>)
    2290:	47a0      	blx	r4
    2292:	4cbe      	ldr	r4, [pc, #760]	; (258c <getFreqNote+0x344>)
    2294:	4abe      	ldr	r2, [pc, #760]	; (2590 <getFreqNote+0x348>)
    2296:	4bbf      	ldr	r3, [pc, #764]	; (2594 <getFreqNote+0x34c>)
    2298:	47a0      	blx	r4
    229a:	0003      	movs	r3, r0
    229c:	000c      	movs	r4, r1
    229e:	0019      	movs	r1, r3
    22a0:	0022      	movs	r2, r4
    22a2:	4bbd      	ldr	r3, [pc, #756]	; (2598 <getFreqNote+0x350>)
    22a4:	0008      	movs	r0, r1
    22a6:	0011      	movs	r1, r2
    22a8:	4798      	blx	r3
    22aa:	1c03      	adds	r3, r0, #0
    22ac:	e160      	b.n	2570 <getFreqNote+0x328>
		break;
		case NUM_REb :
			return REb(degre);
    22ae:	1dbb      	adds	r3, r7, #6
    22b0:	781a      	ldrb	r2, [r3, #0]
    22b2:	4bb2      	ldr	r3, [pc, #712]	; (257c <getFreqNote+0x334>)
    22b4:	0010      	movs	r0, r2
    22b6:	4798      	blx	r3
    22b8:	4cb1      	ldr	r4, [pc, #708]	; (2580 <getFreqNote+0x338>)
    22ba:	2200      	movs	r2, #0
    22bc:	4bb1      	ldr	r3, [pc, #708]	; (2584 <getFreqNote+0x33c>)
    22be:	47a0      	blx	r4
    22c0:	0003      	movs	r3, r0
    22c2:	000c      	movs	r4, r1
    22c4:	2000      	movs	r0, #0
    22c6:	2180      	movs	r1, #128	; 0x80
    22c8:	05c9      	lsls	r1, r1, #23
    22ca:	001a      	movs	r2, r3
    22cc:	0023      	movs	r3, r4
    22ce:	4cae      	ldr	r4, [pc, #696]	; (2588 <getFreqNote+0x340>)
    22d0:	47a0      	blx	r4
    22d2:	4cae      	ldr	r4, [pc, #696]	; (258c <getFreqNote+0x344>)
    22d4:	4ab1      	ldr	r2, [pc, #708]	; (259c <getFreqNote+0x354>)
    22d6:	4bb2      	ldr	r3, [pc, #712]	; (25a0 <getFreqNote+0x358>)
    22d8:	47a0      	blx	r4
    22da:	0003      	movs	r3, r0
    22dc:	000c      	movs	r4, r1
    22de:	0019      	movs	r1, r3
    22e0:	0022      	movs	r2, r4
    22e2:	4bad      	ldr	r3, [pc, #692]	; (2598 <getFreqNote+0x350>)
    22e4:	0008      	movs	r0, r1
    22e6:	0011      	movs	r1, r2
    22e8:	4798      	blx	r3
    22ea:	1c03      	adds	r3, r0, #0
    22ec:	e140      	b.n	2570 <getFreqNote+0x328>
		break;
		case NUM_RE :
			return RE(degre);
    22ee:	1dbb      	adds	r3, r7, #6
    22f0:	781a      	ldrb	r2, [r3, #0]
    22f2:	4ba2      	ldr	r3, [pc, #648]	; (257c <getFreqNote+0x334>)
    22f4:	0010      	movs	r0, r2
    22f6:	4798      	blx	r3
    22f8:	4ca1      	ldr	r4, [pc, #644]	; (2580 <getFreqNote+0x338>)
    22fa:	2200      	movs	r2, #0
    22fc:	4ba1      	ldr	r3, [pc, #644]	; (2584 <getFreqNote+0x33c>)
    22fe:	47a0      	blx	r4
    2300:	0003      	movs	r3, r0
    2302:	000c      	movs	r4, r1
    2304:	2000      	movs	r0, #0
    2306:	2180      	movs	r1, #128	; 0x80
    2308:	05c9      	lsls	r1, r1, #23
    230a:	001a      	movs	r2, r3
    230c:	0023      	movs	r3, r4
    230e:	4c9e      	ldr	r4, [pc, #632]	; (2588 <getFreqNote+0x340>)
    2310:	47a0      	blx	r4
    2312:	4c9e      	ldr	r4, [pc, #632]	; (258c <getFreqNote+0x344>)
    2314:	4aa3      	ldr	r2, [pc, #652]	; (25a4 <getFreqNote+0x35c>)
    2316:	4ba4      	ldr	r3, [pc, #656]	; (25a8 <getFreqNote+0x360>)
    2318:	47a0      	blx	r4
    231a:	0003      	movs	r3, r0
    231c:	000c      	movs	r4, r1
    231e:	0019      	movs	r1, r3
    2320:	0022      	movs	r2, r4
    2322:	4b9d      	ldr	r3, [pc, #628]	; (2598 <getFreqNote+0x350>)
    2324:	0008      	movs	r0, r1
    2326:	0011      	movs	r1, r2
    2328:	4798      	blx	r3
    232a:	1c03      	adds	r3, r0, #0
    232c:	e120      	b.n	2570 <getFreqNote+0x328>
		break;
		case NUM_MIb :
			return MIb(degre);
    232e:	1dbb      	adds	r3, r7, #6
    2330:	781a      	ldrb	r2, [r3, #0]
    2332:	4b92      	ldr	r3, [pc, #584]	; (257c <getFreqNote+0x334>)
    2334:	0010      	movs	r0, r2
    2336:	4798      	blx	r3
    2338:	4c91      	ldr	r4, [pc, #580]	; (2580 <getFreqNote+0x338>)
    233a:	2200      	movs	r2, #0
    233c:	4b91      	ldr	r3, [pc, #580]	; (2584 <getFreqNote+0x33c>)
    233e:	47a0      	blx	r4
    2340:	0003      	movs	r3, r0
    2342:	000c      	movs	r4, r1
    2344:	2000      	movs	r0, #0
    2346:	2180      	movs	r1, #128	; 0x80
    2348:	05c9      	lsls	r1, r1, #23
    234a:	001a      	movs	r2, r3
    234c:	0023      	movs	r3, r4
    234e:	4c8e      	ldr	r4, [pc, #568]	; (2588 <getFreqNote+0x340>)
    2350:	47a0      	blx	r4
    2352:	4c8e      	ldr	r4, [pc, #568]	; (258c <getFreqNote+0x344>)
    2354:	4a95      	ldr	r2, [pc, #596]	; (25ac <getFreqNote+0x364>)
    2356:	4b96      	ldr	r3, [pc, #600]	; (25b0 <getFreqNote+0x368>)
    2358:	47a0      	blx	r4
    235a:	0003      	movs	r3, r0
    235c:	000c      	movs	r4, r1
    235e:	0019      	movs	r1, r3
    2360:	0022      	movs	r2, r4
    2362:	4b8d      	ldr	r3, [pc, #564]	; (2598 <getFreqNote+0x350>)
    2364:	0008      	movs	r0, r1
    2366:	0011      	movs	r1, r2
    2368:	4798      	blx	r3
    236a:	1c03      	adds	r3, r0, #0
    236c:	e100      	b.n	2570 <getFreqNote+0x328>
		break;
		case NUM_MI :
			return MI(degre);
    236e:	1dbb      	adds	r3, r7, #6
    2370:	781a      	ldrb	r2, [r3, #0]
    2372:	4b82      	ldr	r3, [pc, #520]	; (257c <getFreqNote+0x334>)
    2374:	0010      	movs	r0, r2
    2376:	4798      	blx	r3
    2378:	4c81      	ldr	r4, [pc, #516]	; (2580 <getFreqNote+0x338>)
    237a:	2200      	movs	r2, #0
    237c:	4b81      	ldr	r3, [pc, #516]	; (2584 <getFreqNote+0x33c>)
    237e:	47a0      	blx	r4
    2380:	0003      	movs	r3, r0
    2382:	000c      	movs	r4, r1
    2384:	2000      	movs	r0, #0
    2386:	2180      	movs	r1, #128	; 0x80
    2388:	05c9      	lsls	r1, r1, #23
    238a:	001a      	movs	r2, r3
    238c:	0023      	movs	r3, r4
    238e:	4c7e      	ldr	r4, [pc, #504]	; (2588 <getFreqNote+0x340>)
    2390:	47a0      	blx	r4
    2392:	4c7e      	ldr	r4, [pc, #504]	; (258c <getFreqNote+0x344>)
    2394:	4a87      	ldr	r2, [pc, #540]	; (25b4 <getFreqNote+0x36c>)
    2396:	4b88      	ldr	r3, [pc, #544]	; (25b8 <getFreqNote+0x370>)
    2398:	47a0      	blx	r4
    239a:	0003      	movs	r3, r0
    239c:	000c      	movs	r4, r1
    239e:	0019      	movs	r1, r3
    23a0:	0022      	movs	r2, r4
    23a2:	4b7d      	ldr	r3, [pc, #500]	; (2598 <getFreqNote+0x350>)
    23a4:	0008      	movs	r0, r1
    23a6:	0011      	movs	r1, r2
    23a8:	4798      	blx	r3
    23aa:	1c03      	adds	r3, r0, #0
    23ac:	e0e0      	b.n	2570 <getFreqNote+0x328>
		break;
		case NUM_FA :
			return FA(degre);
    23ae:	1dbb      	adds	r3, r7, #6
    23b0:	781a      	ldrb	r2, [r3, #0]
    23b2:	4b72      	ldr	r3, [pc, #456]	; (257c <getFreqNote+0x334>)
    23b4:	0010      	movs	r0, r2
    23b6:	4798      	blx	r3
    23b8:	4c71      	ldr	r4, [pc, #452]	; (2580 <getFreqNote+0x338>)
    23ba:	2200      	movs	r2, #0
    23bc:	4b71      	ldr	r3, [pc, #452]	; (2584 <getFreqNote+0x33c>)
    23be:	47a0      	blx	r4
    23c0:	0003      	movs	r3, r0
    23c2:	000c      	movs	r4, r1
    23c4:	2000      	movs	r0, #0
    23c6:	2180      	movs	r1, #128	; 0x80
    23c8:	05c9      	lsls	r1, r1, #23
    23ca:	001a      	movs	r2, r3
    23cc:	0023      	movs	r3, r4
    23ce:	4c6e      	ldr	r4, [pc, #440]	; (2588 <getFreqNote+0x340>)
    23d0:	47a0      	blx	r4
    23d2:	4c6e      	ldr	r4, [pc, #440]	; (258c <getFreqNote+0x344>)
    23d4:	4a79      	ldr	r2, [pc, #484]	; (25bc <getFreqNote+0x374>)
    23d6:	4b7a      	ldr	r3, [pc, #488]	; (25c0 <getFreqNote+0x378>)
    23d8:	47a0      	blx	r4
    23da:	0003      	movs	r3, r0
    23dc:	000c      	movs	r4, r1
    23de:	0019      	movs	r1, r3
    23e0:	0022      	movs	r2, r4
    23e2:	4b6d      	ldr	r3, [pc, #436]	; (2598 <getFreqNote+0x350>)
    23e4:	0008      	movs	r0, r1
    23e6:	0011      	movs	r1, r2
    23e8:	4798      	blx	r3
    23ea:	1c03      	adds	r3, r0, #0
    23ec:	e0c0      	b.n	2570 <getFreqNote+0x328>
		break;
		case NUM_SOLb :
			return SOLb(degre);
    23ee:	1dbb      	adds	r3, r7, #6
    23f0:	781a      	ldrb	r2, [r3, #0]
    23f2:	4b62      	ldr	r3, [pc, #392]	; (257c <getFreqNote+0x334>)
    23f4:	0010      	movs	r0, r2
    23f6:	4798      	blx	r3
    23f8:	4c61      	ldr	r4, [pc, #388]	; (2580 <getFreqNote+0x338>)
    23fa:	2200      	movs	r2, #0
    23fc:	4b61      	ldr	r3, [pc, #388]	; (2584 <getFreqNote+0x33c>)
    23fe:	47a0      	blx	r4
    2400:	0003      	movs	r3, r0
    2402:	000c      	movs	r4, r1
    2404:	2000      	movs	r0, #0
    2406:	2180      	movs	r1, #128	; 0x80
    2408:	05c9      	lsls	r1, r1, #23
    240a:	001a      	movs	r2, r3
    240c:	0023      	movs	r3, r4
    240e:	4c5e      	ldr	r4, [pc, #376]	; (2588 <getFreqNote+0x340>)
    2410:	47a0      	blx	r4
    2412:	4c5e      	ldr	r4, [pc, #376]	; (258c <getFreqNote+0x344>)
    2414:	4a6b      	ldr	r2, [pc, #428]	; (25c4 <getFreqNote+0x37c>)
    2416:	4b6c      	ldr	r3, [pc, #432]	; (25c8 <getFreqNote+0x380>)
    2418:	47a0      	blx	r4
    241a:	0003      	movs	r3, r0
    241c:	000c      	movs	r4, r1
    241e:	0019      	movs	r1, r3
    2420:	0022      	movs	r2, r4
    2422:	4b5d      	ldr	r3, [pc, #372]	; (2598 <getFreqNote+0x350>)
    2424:	0008      	movs	r0, r1
    2426:	0011      	movs	r1, r2
    2428:	4798      	blx	r3
    242a:	1c03      	adds	r3, r0, #0
    242c:	e0a0      	b.n	2570 <getFreqNote+0x328>
		break;
		case NUM_SOL :
			return SOL(degre);
    242e:	1dbb      	adds	r3, r7, #6
    2430:	781a      	ldrb	r2, [r3, #0]
    2432:	4b52      	ldr	r3, [pc, #328]	; (257c <getFreqNote+0x334>)
    2434:	0010      	movs	r0, r2
    2436:	4798      	blx	r3
    2438:	4c51      	ldr	r4, [pc, #324]	; (2580 <getFreqNote+0x338>)
    243a:	2200      	movs	r2, #0
    243c:	4b51      	ldr	r3, [pc, #324]	; (2584 <getFreqNote+0x33c>)
    243e:	47a0      	blx	r4
    2440:	0003      	movs	r3, r0
    2442:	000c      	movs	r4, r1
    2444:	2000      	movs	r0, #0
    2446:	2180      	movs	r1, #128	; 0x80
    2448:	05c9      	lsls	r1, r1, #23
    244a:	001a      	movs	r2, r3
    244c:	0023      	movs	r3, r4
    244e:	4c4e      	ldr	r4, [pc, #312]	; (2588 <getFreqNote+0x340>)
    2450:	47a0      	blx	r4
    2452:	4c4e      	ldr	r4, [pc, #312]	; (258c <getFreqNote+0x344>)
    2454:	4a5d      	ldr	r2, [pc, #372]	; (25cc <getFreqNote+0x384>)
    2456:	4b5e      	ldr	r3, [pc, #376]	; (25d0 <getFreqNote+0x388>)
    2458:	47a0      	blx	r4
    245a:	0003      	movs	r3, r0
    245c:	000c      	movs	r4, r1
    245e:	0019      	movs	r1, r3
    2460:	0022      	movs	r2, r4
    2462:	4b4d      	ldr	r3, [pc, #308]	; (2598 <getFreqNote+0x350>)
    2464:	0008      	movs	r0, r1
    2466:	0011      	movs	r1, r2
    2468:	4798      	blx	r3
    246a:	1c03      	adds	r3, r0, #0
    246c:	e080      	b.n	2570 <getFreqNote+0x328>
		break;
		case NUM_LAb :
			return LAb(degre);
    246e:	1dbb      	adds	r3, r7, #6
    2470:	781a      	ldrb	r2, [r3, #0]
    2472:	4b42      	ldr	r3, [pc, #264]	; (257c <getFreqNote+0x334>)
    2474:	0010      	movs	r0, r2
    2476:	4798      	blx	r3
    2478:	4c41      	ldr	r4, [pc, #260]	; (2580 <getFreqNote+0x338>)
    247a:	2200      	movs	r2, #0
    247c:	4b41      	ldr	r3, [pc, #260]	; (2584 <getFreqNote+0x33c>)
    247e:	47a0      	blx	r4
    2480:	0003      	movs	r3, r0
    2482:	000c      	movs	r4, r1
    2484:	2000      	movs	r0, #0
    2486:	2180      	movs	r1, #128	; 0x80
    2488:	05c9      	lsls	r1, r1, #23
    248a:	001a      	movs	r2, r3
    248c:	0023      	movs	r3, r4
    248e:	4c3e      	ldr	r4, [pc, #248]	; (2588 <getFreqNote+0x340>)
    2490:	47a0      	blx	r4
    2492:	4c3e      	ldr	r4, [pc, #248]	; (258c <getFreqNote+0x344>)
    2494:	4a4f      	ldr	r2, [pc, #316]	; (25d4 <getFreqNote+0x38c>)
    2496:	4b50      	ldr	r3, [pc, #320]	; (25d8 <getFreqNote+0x390>)
    2498:	47a0      	blx	r4
    249a:	0003      	movs	r3, r0
    249c:	000c      	movs	r4, r1
    249e:	0019      	movs	r1, r3
    24a0:	0022      	movs	r2, r4
    24a2:	4b3d      	ldr	r3, [pc, #244]	; (2598 <getFreqNote+0x350>)
    24a4:	0008      	movs	r0, r1
    24a6:	0011      	movs	r1, r2
    24a8:	4798      	blx	r3
    24aa:	1c03      	adds	r3, r0, #0
    24ac:	e060      	b.n	2570 <getFreqNote+0x328>
		break;
		case NUM_LA :
			return LA(degre);
    24ae:	1dbb      	adds	r3, r7, #6
    24b0:	781a      	ldrb	r2, [r3, #0]
    24b2:	4b32      	ldr	r3, [pc, #200]	; (257c <getFreqNote+0x334>)
    24b4:	0010      	movs	r0, r2
    24b6:	4798      	blx	r3
    24b8:	4c31      	ldr	r4, [pc, #196]	; (2580 <getFreqNote+0x338>)
    24ba:	2200      	movs	r2, #0
    24bc:	4b31      	ldr	r3, [pc, #196]	; (2584 <getFreqNote+0x33c>)
    24be:	47a0      	blx	r4
    24c0:	0003      	movs	r3, r0
    24c2:	000c      	movs	r4, r1
    24c4:	2000      	movs	r0, #0
    24c6:	2180      	movs	r1, #128	; 0x80
    24c8:	05c9      	lsls	r1, r1, #23
    24ca:	001a      	movs	r2, r3
    24cc:	0023      	movs	r3, r4
    24ce:	4c2e      	ldr	r4, [pc, #184]	; (2588 <getFreqNote+0x340>)
    24d0:	47a0      	blx	r4
    24d2:	4c2e      	ldr	r4, [pc, #184]	; (258c <getFreqNote+0x344>)
    24d4:	2200      	movs	r2, #0
    24d6:	4b41      	ldr	r3, [pc, #260]	; (25dc <getFreqNote+0x394>)
    24d8:	47a0      	blx	r4
    24da:	0003      	movs	r3, r0
    24dc:	000c      	movs	r4, r1
    24de:	0019      	movs	r1, r3
    24e0:	0022      	movs	r2, r4
    24e2:	4b2d      	ldr	r3, [pc, #180]	; (2598 <getFreqNote+0x350>)
    24e4:	0008      	movs	r0, r1
    24e6:	0011      	movs	r1, r2
    24e8:	4798      	blx	r3
    24ea:	1c03      	adds	r3, r0, #0
    24ec:	e040      	b.n	2570 <getFreqNote+0x328>
		break;
		case NUM_SIb :
			return SIb(degre);
    24ee:	1dbb      	adds	r3, r7, #6
    24f0:	781a      	ldrb	r2, [r3, #0]
    24f2:	4b22      	ldr	r3, [pc, #136]	; (257c <getFreqNote+0x334>)
    24f4:	0010      	movs	r0, r2
    24f6:	4798      	blx	r3
    24f8:	4c21      	ldr	r4, [pc, #132]	; (2580 <getFreqNote+0x338>)
    24fa:	2200      	movs	r2, #0
    24fc:	4b21      	ldr	r3, [pc, #132]	; (2584 <getFreqNote+0x33c>)
    24fe:	47a0      	blx	r4
    2500:	0003      	movs	r3, r0
    2502:	000c      	movs	r4, r1
    2504:	2000      	movs	r0, #0
    2506:	2180      	movs	r1, #128	; 0x80
    2508:	05c9      	lsls	r1, r1, #23
    250a:	001a      	movs	r2, r3
    250c:	0023      	movs	r3, r4
    250e:	4c1e      	ldr	r4, [pc, #120]	; (2588 <getFreqNote+0x340>)
    2510:	47a0      	blx	r4
    2512:	4c1e      	ldr	r4, [pc, #120]	; (258c <getFreqNote+0x344>)
    2514:	4a32      	ldr	r2, [pc, #200]	; (25e0 <getFreqNote+0x398>)
    2516:	4b33      	ldr	r3, [pc, #204]	; (25e4 <getFreqNote+0x39c>)
    2518:	47a0      	blx	r4
    251a:	0003      	movs	r3, r0
    251c:	000c      	movs	r4, r1
    251e:	0019      	movs	r1, r3
    2520:	0022      	movs	r2, r4
    2522:	4b1d      	ldr	r3, [pc, #116]	; (2598 <getFreqNote+0x350>)
    2524:	0008      	movs	r0, r1
    2526:	0011      	movs	r1, r2
    2528:	4798      	blx	r3
    252a:	1c03      	adds	r3, r0, #0
    252c:	e020      	b.n	2570 <getFreqNote+0x328>
		break;
		case NUM_SI :
			return SI(degre);
    252e:	1dbb      	adds	r3, r7, #6
    2530:	781a      	ldrb	r2, [r3, #0]
    2532:	4b12      	ldr	r3, [pc, #72]	; (257c <getFreqNote+0x334>)
    2534:	0010      	movs	r0, r2
    2536:	4798      	blx	r3
    2538:	4c11      	ldr	r4, [pc, #68]	; (2580 <getFreqNote+0x338>)
    253a:	2200      	movs	r2, #0
    253c:	4b11      	ldr	r3, [pc, #68]	; (2584 <getFreqNote+0x33c>)
    253e:	47a0      	blx	r4
    2540:	0003      	movs	r3, r0
    2542:	000c      	movs	r4, r1
    2544:	2000      	movs	r0, #0
    2546:	2180      	movs	r1, #128	; 0x80
    2548:	05c9      	lsls	r1, r1, #23
    254a:	001a      	movs	r2, r3
    254c:	0023      	movs	r3, r4
    254e:	4c0e      	ldr	r4, [pc, #56]	; (2588 <getFreqNote+0x340>)
    2550:	47a0      	blx	r4
    2552:	4c0e      	ldr	r4, [pc, #56]	; (258c <getFreqNote+0x344>)
    2554:	4a24      	ldr	r2, [pc, #144]	; (25e8 <getFreqNote+0x3a0>)
    2556:	4b25      	ldr	r3, [pc, #148]	; (25ec <getFreqNote+0x3a4>)
    2558:	47a0      	blx	r4
    255a:	0003      	movs	r3, r0
    255c:	000c      	movs	r4, r1
    255e:	0019      	movs	r1, r3
    2560:	0022      	movs	r2, r4
    2562:	4b0d      	ldr	r3, [pc, #52]	; (2598 <getFreqNote+0x350>)
    2564:	0008      	movs	r0, r1
    2566:	0011      	movs	r1, r2
    2568:	4798      	blx	r3
    256a:	1c03      	adds	r3, r0, #0
    256c:	e000      	b.n	2570 <getFreqNote+0x328>
		break;
		default :
			return 0;
    256e:	2300      	movs	r3, #0
		break;
	}
}
    2570:	1c18      	adds	r0, r3, #0
    2572:	46bd      	mov	sp, r7
    2574:	b003      	add	sp, #12
    2576:	bd90      	pop	{r4, r7, pc}
    2578:	0000bd54 	.word	0x0000bd54
    257c:	000066f1 	.word	0x000066f1
    2580:	00005f9d 	.word	0x00005f9d
    2584:	40080000 	.word	0x40080000
    2588:	0000294d 	.word	0x0000294d
    258c:	00005aa9 	.word	0x00005aa9
    2590:	50c2b956 	.word	0x50c2b956
    2594:	40705a02 	.word	0x40705a02
    2598:	0000681d 	.word	0x0000681d
    259c:	0e758e6f 	.word	0x0e758e6f
    25a0:	407152ec 	.word	0x407152ec
    25a4:	e3af0b21 	.word	0xe3af0b21
    25a8:	40725aa2 	.word	0x40725aa2
    25ac:	20155764 	.word	0x20155764
    25b0:	40737208 	.word	0x40737208
    25b4:	791e127b 	.word	0x791e127b
    25b8:	40749a0a 	.word	0x40749a0a
    25bc:	d600cabc 	.word	0xd600cabc
    25c0:	4075d3a6 	.word	0x4075d3a6
    25c4:	27ca0de9 	.word	0x27ca0de9
    25c8:	40771fe9 	.word	0x40771fe9
    25cc:	4e47adff 	.word	0x4e47adff
    25d0:	40787fed 	.word	0x40787fed
    25d4:	0a91d08e 	.word	0x0a91d08e
    25d8:	4079f4e0 	.word	0x4079f4e0
    25dc:	407b8000 	.word	0x407b8000
    25e0:	c465c8a2 	.word	0xc465c8a2
    25e4:	407d229e 	.word	0x407d229e
    25e8:	007f791a 	.word	0x007f791a
    25ec:	407ede22 	.word	0x407ede22

000025f0 <accorder>:

char accorder(char note, char degre, float freq, float plage)
{
    25f0:	b580      	push	{r7, lr}
    25f2:	b086      	sub	sp, #24
    25f4:	af00      	add	r7, sp, #0
    25f6:	60ba      	str	r2, [r7, #8]
    25f8:	607b      	str	r3, [r7, #4]
    25fa:	230f      	movs	r3, #15
    25fc:	18fb      	adds	r3, r7, r3
    25fe:	1c02      	adds	r2, r0, #0
    2600:	701a      	strb	r2, [r3, #0]
    2602:	230e      	movs	r3, #14
    2604:	18fb      	adds	r3, r7, r3
    2606:	1c0a      	adds	r2, r1, #0
    2608:	701a      	strb	r2, [r3, #0]
	float freq_calcul = getFreqNote(note, degre);
    260a:	230e      	movs	r3, #14
    260c:	18fb      	adds	r3, r7, r3
    260e:	781a      	ldrb	r2, [r3, #0]
    2610:	230f      	movs	r3, #15
    2612:	18fb      	adds	r3, r7, r3
    2614:	781b      	ldrb	r3, [r3, #0]
    2616:	0011      	movs	r1, r2
    2618:	0018      	movs	r0, r3
    261a:	4b1f      	ldr	r3, [pc, #124]	; (2698 <accorder+0xa8>)
    261c:	4798      	blx	r3
    261e:	1c03      	adds	r3, r0, #0
    2620:	617b      	str	r3, [r7, #20]
	if(((freq_calcul-plage)<freq)&&(freq<(freq_calcul+plage))) return OK_FREQ;
    2622:	4b1e      	ldr	r3, [pc, #120]	; (269c <accorder+0xac>)
    2624:	6879      	ldr	r1, [r7, #4]
    2626:	6978      	ldr	r0, [r7, #20]
    2628:	4798      	blx	r3
    262a:	1c03      	adds	r3, r0, #0
    262c:	1c1a      	adds	r2, r3, #0
    262e:	4b1c      	ldr	r3, [pc, #112]	; (26a0 <accorder+0xb0>)
    2630:	68b9      	ldr	r1, [r7, #8]
    2632:	1c10      	adds	r0, r2, #0
    2634:	4798      	blx	r3
    2636:	1e03      	subs	r3, r0, #0
    2638:	d00d      	beq.n	2656 <accorder+0x66>
    263a:	4b1a      	ldr	r3, [pc, #104]	; (26a4 <accorder+0xb4>)
    263c:	6879      	ldr	r1, [r7, #4]
    263e:	6978      	ldr	r0, [r7, #20]
    2640:	4798      	blx	r3
    2642:	1c03      	adds	r3, r0, #0
    2644:	1c1a      	adds	r2, r3, #0
    2646:	4b18      	ldr	r3, [pc, #96]	; (26a8 <accorder+0xb8>)
    2648:	68b9      	ldr	r1, [r7, #8]
    264a:	1c10      	adds	r0, r2, #0
    264c:	4798      	blx	r3
    264e:	1e03      	subs	r3, r0, #0
    2650:	d001      	beq.n	2656 <accorder+0x66>
    2652:	2302      	movs	r3, #2
    2654:	e01b      	b.n	268e <accorder+0x9e>
	else if(freq<(freq_calcul+plage)) return LOW_FREQ;
    2656:	4b13      	ldr	r3, [pc, #76]	; (26a4 <accorder+0xb4>)
    2658:	6879      	ldr	r1, [r7, #4]
    265a:	6978      	ldr	r0, [r7, #20]
    265c:	4798      	blx	r3
    265e:	1c03      	adds	r3, r0, #0
    2660:	1c1a      	adds	r2, r3, #0
    2662:	4b11      	ldr	r3, [pc, #68]	; (26a8 <accorder+0xb8>)
    2664:	68b9      	ldr	r1, [r7, #8]
    2666:	1c10      	adds	r0, r2, #0
    2668:	4798      	blx	r3
    266a:	1e03      	subs	r3, r0, #0
    266c:	d001      	beq.n	2672 <accorder+0x82>
    266e:	2301      	movs	r3, #1
    2670:	e00d      	b.n	268e <accorder+0x9e>
	else if((freq_calcul-plage)<freq) return HIGH_FREQ;
    2672:	4b0a      	ldr	r3, [pc, #40]	; (269c <accorder+0xac>)
    2674:	6879      	ldr	r1, [r7, #4]
    2676:	6978      	ldr	r0, [r7, #20]
    2678:	4798      	blx	r3
    267a:	1c03      	adds	r3, r0, #0
    267c:	1c1a      	adds	r2, r3, #0
    267e:	4b08      	ldr	r3, [pc, #32]	; (26a0 <accorder+0xb0>)
    2680:	68b9      	ldr	r1, [r7, #8]
    2682:	1c10      	adds	r0, r2, #0
    2684:	4798      	blx	r3
    2686:	1e03      	subs	r3, r0, #0
    2688:	d001      	beq.n	268e <accorder+0x9e>
    268a:	2303      	movs	r3, #3
    268c:	e7ff      	b.n	268e <accorder+0x9e>
    268e:	0018      	movs	r0, r3
    2690:	46bd      	mov	sp, r7
    2692:	b006      	add	sp, #24
    2694:	bd80      	pop	{r7, pc}
    2696:	46c0      	nop			; (mov r8, r8)
    2698:	00002249 	.word	0x00002249
    269c:	000048fd 	.word	0x000048fd
    26a0:	00004425 	.word	0x00004425
    26a4:	000044b1 	.word	0x000044b1
    26a8:	0000444d 	.word	0x0000444d

000026ac <setup>:
#include "define.h"
#include "user_init.h"


void setup()//Fonction d'initialisation
{
    26ac:	b580      	push	{r7, lr}
    26ae:	af00      	add	r7, sp, #0
	SystemInit();//Initialisation des paramtres systmes
    26b0:	4b0e      	ldr	r3, [pc, #56]	; (26ec <setup+0x40>)
    26b2:	4798      	blx	r3
	redirectPrintf(PRINTF_OLED);//On redirige les instructions de la fonction printf sur l'afficheur OLED
    26b4:	2001      	movs	r0, #1
    26b6:	4b0e      	ldr	r3, [pc, #56]	; (26f0 <setup+0x44>)
    26b8:	4798      	blx	r3
	OLEDInit(1);//On initialise notre afficheur OLED avec aucune image
    26ba:	2001      	movs	r0, #1
    26bc:	4b0d      	ldr	r3, [pc, #52]	; (26f4 <setup+0x48>)
    26be:	4798      	blx	r3
	ADCInit(); // initialisation de l'adc
    26c0:	4b0d      	ldr	r3, [pc, #52]	; (26f8 <setup+0x4c>)
    26c2:	4798      	blx	r3
	initFreq();
    26c4:	4b0d      	ldr	r3, [pc, #52]	; (26fc <setup+0x50>)
    26c6:	4798      	blx	r3
	pinMode(PORTA, 12, OUTPUT);
    26c8:	2201      	movs	r2, #1
    26ca:	210c      	movs	r1, #12
    26cc:	2000      	movs	r0, #0
    26ce:	4b0c      	ldr	r3, [pc, #48]	; (2700 <setup+0x54>)
    26d0:	4798      	blx	r3
	pinMode(PORTA, 13, OUTPUT);
    26d2:	2201      	movs	r2, #1
    26d4:	210d      	movs	r1, #13
    26d6:	2000      	movs	r0, #0
    26d8:	4b09      	ldr	r3, [pc, #36]	; (2700 <setup+0x54>)
    26da:	4798      	blx	r3
	pinMode(PORTA, 15, OUTPUT);
    26dc:	2201      	movs	r2, #1
    26de:	210f      	movs	r1, #15
    26e0:	2000      	movs	r0, #0
    26e2:	4b07      	ldr	r3, [pc, #28]	; (2700 <setup+0x54>)
    26e4:	4798      	blx	r3
    26e6:	46c0      	nop			; (mov r8, r8)
    26e8:	46bd      	mov	sp, r7
    26ea:	bd80      	pop	{r7, pc}
    26ec:	00000239 	.word	0x00000239
    26f0:	000017f1 	.word	0x000017f1
    26f4:	000006c9 	.word	0x000006c9
    26f8:	00000419 	.word	0x00000419
    26fc:	00001e0d 	.word	0x00001e0d
    2700:	000014e5 	.word	0x000014e5

00002704 <floor>:
    2704:	4a45      	ldr	r2, [pc, #276]	; (281c <floor+0x118>)
    2706:	b5f8      	push	{r3, r4, r5, r6, r7, lr}
    2708:	4656      	mov	r6, sl
    270a:	4692      	mov	sl, r2
    270c:	004b      	lsls	r3, r1, #1
    270e:	0d5b      	lsrs	r3, r3, #21
    2710:	449a      	add	sl, r3
    2712:	464d      	mov	r5, r9
    2714:	465f      	mov	r7, fp
    2716:	4644      	mov	r4, r8
    2718:	4652      	mov	r2, sl
    271a:	b4f0      	push	{r4, r5, r6, r7}
    271c:	4689      	mov	r9, r1
    271e:	0005      	movs	r5, r0
    2720:	000c      	movs	r4, r1
    2722:	000e      	movs	r6, r1
    2724:	0007      	movs	r7, r0
    2726:	2a13      	cmp	r2, #19
    2728:	dc22      	bgt.n	2770 <floor+0x6c>
    272a:	2a00      	cmp	r2, #0
    272c:	db47      	blt.n	27be <floor+0xba>
    272e:	4652      	mov	r2, sl
    2730:	4b3b      	ldr	r3, [pc, #236]	; (2820 <floor+0x11c>)
    2732:	4113      	asrs	r3, r2
    2734:	4698      	mov	r8, r3
    2736:	000b      	movs	r3, r1
    2738:	4642      	mov	r2, r8
    273a:	4013      	ands	r3, r2
    273c:	4303      	orrs	r3, r0
    273e:	d011      	beq.n	2764 <floor+0x60>
    2740:	4a38      	ldr	r2, [pc, #224]	; (2824 <floor+0x120>)
    2742:	4b39      	ldr	r3, [pc, #228]	; (2828 <floor+0x124>)
    2744:	f002 fa60 	bl	4c08 <__aeabi_dadd>
    2748:	2200      	movs	r2, #0
    274a:	2300      	movs	r3, #0
    274c:	f001 fe44 	bl	43d8 <__aeabi_dcmpgt>
    2750:	2800      	cmp	r0, #0
    2752:	d005      	beq.n	2760 <floor+0x5c>
    2754:	2c00      	cmp	r4, #0
    2756:	db41      	blt.n	27dc <floor+0xd8>
    2758:	464e      	mov	r6, r9
    275a:	4643      	mov	r3, r8
    275c:	2700      	movs	r7, #0
    275e:	439e      	bics	r6, r3
    2760:	0038      	movs	r0, r7
    2762:	0031      	movs	r1, r6
    2764:	bc3c      	pop	{r2, r3, r4, r5}
    2766:	4690      	mov	r8, r2
    2768:	4699      	mov	r9, r3
    276a:	46a2      	mov	sl, r4
    276c:	46ab      	mov	fp, r5
    276e:	bdf8      	pop	{r3, r4, r5, r6, r7, pc}
    2770:	4652      	mov	r2, sl
    2772:	2a33      	cmp	r2, #51	; 0x33
    2774:	dd08      	ble.n	2788 <floor+0x84>
    2776:	2380      	movs	r3, #128	; 0x80
    2778:	00db      	lsls	r3, r3, #3
    277a:	459a      	cmp	sl, r3
    277c:	d1f2      	bne.n	2764 <floor+0x60>
    277e:	0002      	movs	r2, r0
    2780:	000b      	movs	r3, r1
    2782:	f002 fa41 	bl	4c08 <__aeabi_dadd>
    2786:	e7ed      	b.n	2764 <floor+0x60>
    2788:	4a28      	ldr	r2, [pc, #160]	; (282c <floor+0x128>)
    278a:	4694      	mov	ip, r2
    278c:	2201      	movs	r2, #1
    278e:	4463      	add	r3, ip
    2790:	4252      	negs	r2, r2
    2792:	40da      	lsrs	r2, r3
    2794:	4693      	mov	fp, r2
    2796:	4202      	tst	r2, r0
    2798:	d0e4      	beq.n	2764 <floor+0x60>
    279a:	4a22      	ldr	r2, [pc, #136]	; (2824 <floor+0x120>)
    279c:	4b22      	ldr	r3, [pc, #136]	; (2828 <floor+0x124>)
    279e:	f002 fa33 	bl	4c08 <__aeabi_dadd>
    27a2:	2200      	movs	r2, #0
    27a4:	2300      	movs	r3, #0
    27a6:	f001 fe17 	bl	43d8 <__aeabi_dcmpgt>
    27aa:	2800      	cmp	r0, #0
    27ac:	d0d8      	beq.n	2760 <floor+0x5c>
    27ae:	2c00      	cmp	r4, #0
    27b0:	db1a      	blt.n	27e8 <floor+0xe4>
    27b2:	465b      	mov	r3, fp
    27b4:	464e      	mov	r6, r9
    27b6:	439f      	bics	r7, r3
    27b8:	0038      	movs	r0, r7
    27ba:	0031      	movs	r1, r6
    27bc:	e7d2      	b.n	2764 <floor+0x60>
    27be:	4a19      	ldr	r2, [pc, #100]	; (2824 <floor+0x120>)
    27c0:	4b19      	ldr	r3, [pc, #100]	; (2828 <floor+0x124>)
    27c2:	f002 fa21 	bl	4c08 <__aeabi_dadd>
    27c6:	2200      	movs	r2, #0
    27c8:	2300      	movs	r3, #0
    27ca:	f001 fe05 	bl	43d8 <__aeabi_dcmpgt>
    27ce:	2800      	cmp	r0, #0
    27d0:	d0c6      	beq.n	2760 <floor+0x5c>
    27d2:	2c00      	cmp	r4, #0
    27d4:	db16      	blt.n	2804 <floor+0x100>
    27d6:	2700      	movs	r7, #0
    27d8:	2600      	movs	r6, #0
    27da:	e7c1      	b.n	2760 <floor+0x5c>
    27dc:	2380      	movs	r3, #128	; 0x80
    27de:	4652      	mov	r2, sl
    27e0:	035b      	lsls	r3, r3, #13
    27e2:	4113      	asrs	r3, r2
    27e4:	4499      	add	r9, r3
    27e6:	e7b7      	b.n	2758 <floor+0x54>
    27e8:	4653      	mov	r3, sl
    27ea:	2b14      	cmp	r3, #20
    27ec:	d012      	beq.n	2814 <floor+0x110>
    27ee:	2334      	movs	r3, #52	; 0x34
    27f0:	4652      	mov	r2, sl
    27f2:	2701      	movs	r7, #1
    27f4:	1a9b      	subs	r3, r3, r2
    27f6:	409f      	lsls	r7, r3
    27f8:	197f      	adds	r7, r7, r5
    27fa:	42af      	cmp	r7, r5
    27fc:	419b      	sbcs	r3, r3
    27fe:	425b      	negs	r3, r3
    2800:	4499      	add	r9, r3
    2802:	e7d6      	b.n	27b2 <floor+0xae>
    2804:	0064      	lsls	r4, r4, #1
    2806:	0864      	lsrs	r4, r4, #1
    2808:	4325      	orrs	r5, r4
    280a:	2700      	movs	r7, #0
    280c:	2d00      	cmp	r5, #0
    280e:	d0a7      	beq.n	2760 <floor+0x5c>
    2810:	4e07      	ldr	r6, [pc, #28]	; (2830 <floor+0x12c>)
    2812:	e7a5      	b.n	2760 <floor+0x5c>
    2814:	3b13      	subs	r3, #19
    2816:	469c      	mov	ip, r3
    2818:	44e1      	add	r9, ip
    281a:	e7ca      	b.n	27b2 <floor+0xae>
    281c:	fffffc01 	.word	0xfffffc01
    2820:	000fffff 	.word	0x000fffff
    2824:	8800759c 	.word	0x8800759c
    2828:	7e37e43c 	.word	0x7e37e43c
    282c:	fffffbed 	.word	0xfffffbed
    2830:	bff00000 	.word	0xbff00000

00002834 <log10>:
    2834:	b5f0      	push	{r4, r5, r6, r7, lr}
    2836:	4646      	mov	r6, r8
    2838:	464f      	mov	r7, r9
    283a:	b4c0      	push	{r6, r7}
    283c:	b08d      	sub	sp, #52	; 0x34
    283e:	0004      	movs	r4, r0
    2840:	000d      	movs	r5, r1
    2842:	f000 fa3f 	bl	2cc4 <__ieee754_log10>
    2846:	4b3c      	ldr	r3, [pc, #240]	; (2938 <log10+0x104>)
    2848:	0006      	movs	r6, r0
    284a:	781b      	ldrb	r3, [r3, #0]
    284c:	000f      	movs	r7, r1
    284e:	b25b      	sxtb	r3, r3
    2850:	4698      	mov	r8, r3
    2852:	3301      	adds	r3, #1
    2854:	d010      	beq.n	2878 <log10+0x44>
    2856:	0022      	movs	r2, r4
    2858:	002b      	movs	r3, r5
    285a:	0020      	movs	r0, r4
    285c:	0029      	movs	r1, r5
    285e:	f003 fef1 	bl	6644 <__aeabi_dcmpun>
    2862:	4681      	mov	r9, r0
    2864:	2800      	cmp	r0, #0
    2866:	d107      	bne.n	2878 <log10+0x44>
    2868:	2200      	movs	r2, #0
    286a:	2300      	movs	r3, #0
    286c:	0020      	movs	r0, r4
    286e:	0029      	movs	r1, r5
    2870:	f001 fda8 	bl	43c4 <__aeabi_dcmple>
    2874:	2800      	cmp	r0, #0
    2876:	d106      	bne.n	2886 <log10+0x52>
    2878:	0030      	movs	r0, r6
    287a:	0039      	movs	r1, r7
    287c:	b00d      	add	sp, #52	; 0x34
    287e:	bc0c      	pop	{r2, r3}
    2880:	4690      	mov	r8, r2
    2882:	4699      	mov	r9, r3
    2884:	bdf0      	pop	{r4, r5, r6, r7, pc}
    2886:	4b2d      	ldr	r3, [pc, #180]	; (293c <log10+0x108>)
    2888:	9404      	str	r4, [sp, #16]
    288a:	9505      	str	r5, [sp, #20]
    288c:	9303      	str	r3, [sp, #12]
    288e:	464b      	mov	r3, r9
    2890:	930a      	str	r3, [sp, #40]	; 0x28
    2892:	4643      	mov	r3, r8
    2894:	9406      	str	r4, [sp, #24]
    2896:	9507      	str	r5, [sp, #28]
    2898:	2b00      	cmp	r3, #0
    289a:	d11a      	bne.n	28d2 <log10+0x9e>
    289c:	22e0      	movs	r2, #224	; 0xe0
    289e:	4b28      	ldr	r3, [pc, #160]	; (2940 <log10+0x10c>)
    28a0:	0612      	lsls	r2, r2, #24
    28a2:	9208      	str	r2, [sp, #32]
    28a4:	9309      	str	r3, [sp, #36]	; 0x24
    28a6:	0020      	movs	r0, r4
    28a8:	2200      	movs	r2, #0
    28aa:	2300      	movs	r3, #0
    28ac:	0029      	movs	r1, r5
    28ae:	f001 fd79 	bl	43a4 <__aeabi_dcmpeq>
    28b2:	2800      	cmp	r0, #0
    28b4:	d038      	beq.n	2928 <log10+0xf4>
    28b6:	2302      	movs	r3, #2
    28b8:	9302      	str	r3, [sp, #8]
    28ba:	a802      	add	r0, sp, #8
    28bc:	f001 f8d0 	bl	3a60 <matherr>
    28c0:	2800      	cmp	r0, #0
    28c2:	d017      	beq.n	28f4 <log10+0xc0>
    28c4:	9b0a      	ldr	r3, [sp, #40]	; 0x28
    28c6:	9301      	str	r3, [sp, #4]
    28c8:	2b00      	cmp	r3, #0
    28ca:	d118      	bne.n	28fe <log10+0xca>
    28cc:	9808      	ldr	r0, [sp, #32]
    28ce:	9909      	ldr	r1, [sp, #36]	; 0x24
    28d0:	e7d4      	b.n	287c <log10+0x48>
    28d2:	2200      	movs	r2, #0
    28d4:	4b1b      	ldr	r3, [pc, #108]	; (2944 <log10+0x110>)
    28d6:	0020      	movs	r0, r4
    28d8:	9208      	str	r2, [sp, #32]
    28da:	9309      	str	r3, [sp, #36]	; 0x24
    28dc:	0029      	movs	r1, r5
    28de:	2200      	movs	r2, #0
    28e0:	2300      	movs	r3, #0
    28e2:	f001 fd5f 	bl	43a4 <__aeabi_dcmpeq>
    28e6:	2800      	cmp	r0, #0
    28e8:	d00f      	beq.n	290a <log10+0xd6>
    28ea:	2302      	movs	r3, #2
    28ec:	9302      	str	r3, [sp, #8]
    28ee:	4643      	mov	r3, r8
    28f0:	2b02      	cmp	r3, #2
    28f2:	d1e2      	bne.n	28ba <log10+0x86>
    28f4:	f004 f83c 	bl	6970 <__errno>
    28f8:	2322      	movs	r3, #34	; 0x22
    28fa:	6003      	str	r3, [r0, #0]
    28fc:	e7e2      	b.n	28c4 <log10+0x90>
    28fe:	f004 f837 	bl	6970 <__errno>
    2902:	9b0a      	ldr	r3, [sp, #40]	; 0x28
    2904:	9301      	str	r3, [sp, #4]
    2906:	6003      	str	r3, [r0, #0]
    2908:	e7e0      	b.n	28cc <log10+0x98>
    290a:	2301      	movs	r3, #1
    290c:	9302      	str	r3, [sp, #8]
    290e:	4643      	mov	r3, r8
    2910:	2b02      	cmp	r3, #2
    2912:	d10b      	bne.n	292c <log10+0xf8>
    2914:	f004 f82c 	bl	6970 <__errno>
    2918:	2321      	movs	r3, #33	; 0x21
    291a:	6003      	str	r3, [r0, #0]
    291c:	480a      	ldr	r0, [pc, #40]	; (2948 <log10+0x114>)
    291e:	f001 f8a1 	bl	3a64 <nan>
    2922:	9008      	str	r0, [sp, #32]
    2924:	9109      	str	r1, [sp, #36]	; 0x24
    2926:	e7cd      	b.n	28c4 <log10+0x90>
    2928:	2301      	movs	r3, #1
    292a:	9302      	str	r3, [sp, #8]
    292c:	a802      	add	r0, sp, #8
    292e:	f001 f897 	bl	3a60 <matherr>
    2932:	2800      	cmp	r0, #0
    2934:	d1f2      	bne.n	291c <log10+0xe8>
    2936:	e7ed      	b.n	2914 <log10+0xe0>
    2938:	20000020 	.word	0x20000020
    293c:	0000bd88 	.word	0x0000bd88
    2940:	c7efffff 	.word	0xc7efffff
    2944:	fff00000 	.word	0xfff00000
    2948:	0000bfc8 	.word	0x0000bfc8

0000294c <pow>:
    294c:	b5f0      	push	{r4, r5, r6, r7, lr}
    294e:	465f      	mov	r7, fp
    2950:	464d      	mov	r5, r9
    2952:	4656      	mov	r6, sl
    2954:	4644      	mov	r4, r8
    2956:	b4f0      	push	{r4, r5, r6, r7}
    2958:	b091      	sub	sp, #68	; 0x44
    295a:	001f      	movs	r7, r3
    295c:	0004      	movs	r4, r0
    295e:	000d      	movs	r5, r1
    2960:	0016      	movs	r6, r2
    2962:	f000 fa43 	bl	2dec <__ieee754_pow>
    2966:	4bcf      	ldr	r3, [pc, #828]	; (2ca4 <pow+0x358>)
    2968:	9002      	str	r0, [sp, #8]
    296a:	9103      	str	r1, [sp, #12]
    296c:	469b      	mov	fp, r3
    296e:	781b      	ldrb	r3, [r3, #0]
    2970:	b25b      	sxtb	r3, r3
    2972:	4699      	mov	r9, r3
    2974:	3301      	adds	r3, #1
    2976:	d04f      	beq.n	2a18 <pow+0xcc>
    2978:	0032      	movs	r2, r6
    297a:	003b      	movs	r3, r7
    297c:	0030      	movs	r0, r6
    297e:	0039      	movs	r1, r7
    2980:	f003 fe60 	bl	6644 <__aeabi_dcmpun>
    2984:	9000      	str	r0, [sp, #0]
    2986:	2800      	cmp	r0, #0
    2988:	d146      	bne.n	2a18 <pow+0xcc>
    298a:	0022      	movs	r2, r4
    298c:	002b      	movs	r3, r5
    298e:	0020      	movs	r0, r4
    2990:	0029      	movs	r1, r5
    2992:	f003 fe57 	bl	6644 <__aeabi_dcmpun>
    2996:	2200      	movs	r2, #0
    2998:	4682      	mov	sl, r0
    299a:	2800      	cmp	r0, #0
    299c:	d134      	bne.n	2a08 <pow+0xbc>
    299e:	2300      	movs	r3, #0
    29a0:	0020      	movs	r0, r4
    29a2:	0029      	movs	r1, r5
    29a4:	f001 fcfe 	bl	43a4 <__aeabi_dcmpeq>
    29a8:	2800      	cmp	r0, #0
    29aa:	d03a      	beq.n	2a22 <pow+0xd6>
    29ac:	2200      	movs	r2, #0
    29ae:	2300      	movs	r3, #0
    29b0:	0030      	movs	r0, r6
    29b2:	0039      	movs	r1, r7
    29b4:	f001 fcf6 	bl	43a4 <__aeabi_dcmpeq>
    29b8:	9005      	str	r0, [sp, #20]
    29ba:	2800      	cmp	r0, #0
    29bc:	d100      	bne.n	29c0 <pow+0x74>
    29be:	e074      	b.n	2aaa <pow+0x15e>
    29c0:	ab06      	add	r3, sp, #24
    29c2:	4698      	mov	r8, r3
    29c4:	2301      	movs	r3, #1
    29c6:	4642      	mov	r2, r8
    29c8:	9306      	str	r3, [sp, #24]
    29ca:	4bb7      	ldr	r3, [pc, #732]	; (2ca8 <pow+0x35c>)
    29cc:	6053      	str	r3, [r2, #4]
    29ce:	4643      	mov	r3, r8
    29d0:	4652      	mov	r2, sl
    29d2:	609c      	str	r4, [r3, #8]
    29d4:	60dd      	str	r5, [r3, #12]
    29d6:	621a      	str	r2, [r3, #32]
    29d8:	611e      	str	r6, [r3, #16]
    29da:	615f      	str	r7, [r3, #20]
    29dc:	4642      	mov	r2, r8
    29de:	2300      	movs	r3, #0
    29e0:	2400      	movs	r4, #0
    29e2:	6193      	str	r3, [r2, #24]
    29e4:	61d4      	str	r4, [r2, #28]
    29e6:	464b      	mov	r3, r9
    29e8:	2b00      	cmp	r3, #0
    29ea:	d100      	bne.n	29ee <pow+0xa2>
    29ec:	e094      	b.n	2b18 <pow+0x1cc>
    29ee:	2300      	movs	r3, #0
    29f0:	4cae      	ldr	r4, [pc, #696]	; (2cac <pow+0x360>)
    29f2:	9300      	str	r3, [sp, #0]
    29f4:	9401      	str	r4, [sp, #4]
    29f6:	9800      	ldr	r0, [sp, #0]
    29f8:	9901      	ldr	r1, [sp, #4]
    29fa:	b011      	add	sp, #68	; 0x44
    29fc:	bc3c      	pop	{r2, r3, r4, r5}
    29fe:	4690      	mov	r8, r2
    2a00:	4699      	mov	r9, r3
    2a02:	46a2      	mov	sl, r4
    2a04:	46ab      	mov	fp, r5
    2a06:	bdf0      	pop	{r4, r5, r6, r7, pc}
    2a08:	2300      	movs	r3, #0
    2a0a:	0030      	movs	r0, r6
    2a0c:	0039      	movs	r1, r7
    2a0e:	f001 fcc9 	bl	43a4 <__aeabi_dcmpeq>
    2a12:	2800      	cmp	r0, #0
    2a14:	d000      	beq.n	2a18 <pow+0xcc>
    2a16:	e0eb      	b.n	2bf0 <pow+0x2a4>
    2a18:	9b02      	ldr	r3, [sp, #8]
    2a1a:	9c03      	ldr	r4, [sp, #12]
    2a1c:	9300      	str	r3, [sp, #0]
    2a1e:	9401      	str	r4, [sp, #4]
    2a20:	e7e9      	b.n	29f6 <pow+0xaa>
    2a22:	9802      	ldr	r0, [sp, #8]
    2a24:	9903      	ldr	r1, [sp, #12]
    2a26:	f001 f811 	bl	3a4c <finite>
    2a2a:	4681      	mov	r9, r0
    2a2c:	2800      	cmp	r0, #0
    2a2e:	d100      	bne.n	2a32 <pow+0xe6>
    2a30:	e086      	b.n	2b40 <pow+0x1f4>
    2a32:	9802      	ldr	r0, [sp, #8]
    2a34:	9903      	ldr	r1, [sp, #12]
    2a36:	2200      	movs	r2, #0
    2a38:	2300      	movs	r3, #0
    2a3a:	f001 fcb3 	bl	43a4 <__aeabi_dcmpeq>
    2a3e:	2800      	cmp	r0, #0
    2a40:	d0ea      	beq.n	2a18 <pow+0xcc>
    2a42:	0020      	movs	r0, r4
    2a44:	0029      	movs	r1, r5
    2a46:	f001 f801 	bl	3a4c <finite>
    2a4a:	9a02      	ldr	r2, [sp, #8]
    2a4c:	9b03      	ldr	r3, [sp, #12]
    2a4e:	9200      	str	r2, [sp, #0]
    2a50:	9301      	str	r3, [sp, #4]
    2a52:	2800      	cmp	r0, #0
    2a54:	d0cf      	beq.n	29f6 <pow+0xaa>
    2a56:	0030      	movs	r0, r6
    2a58:	0039      	movs	r1, r7
    2a5a:	f000 fff7 	bl	3a4c <finite>
    2a5e:	9a02      	ldr	r2, [sp, #8]
    2a60:	9b03      	ldr	r3, [sp, #12]
    2a62:	9200      	str	r2, [sp, #0]
    2a64:	9301      	str	r3, [sp, #4]
    2a66:	2800      	cmp	r0, #0
    2a68:	d0c5      	beq.n	29f6 <pow+0xaa>
    2a6a:	ab06      	add	r3, sp, #24
    2a6c:	4698      	mov	r8, r3
    2a6e:	2304      	movs	r3, #4
    2a70:	4642      	mov	r2, r8
    2a72:	9306      	str	r3, [sp, #24]
    2a74:	4b8c      	ldr	r3, [pc, #560]	; (2ca8 <pow+0x35c>)
    2a76:	6094      	str	r4, [r2, #8]
    2a78:	60d5      	str	r5, [r2, #12]
    2a7a:	6053      	str	r3, [r2, #4]
    2a7c:	2300      	movs	r3, #0
    2a7e:	2400      	movs	r4, #0
    2a80:	6213      	str	r3, [r2, #32]
    2a82:	2300      	movs	r3, #0
    2a84:	6193      	str	r3, [r2, #24]
    2a86:	61d4      	str	r4, [r2, #28]
    2a88:	465b      	mov	r3, fp
    2a8a:	781b      	ldrb	r3, [r3, #0]
    2a8c:	6116      	str	r6, [r2, #16]
    2a8e:	6157      	str	r7, [r2, #20]
    2a90:	b25b      	sxtb	r3, r3
    2a92:	2b02      	cmp	r3, #2
    2a94:	d004      	beq.n	2aa0 <pow+0x154>
    2a96:	4640      	mov	r0, r8
    2a98:	f000 ffe2 	bl	3a60 <matherr>
    2a9c:	2800      	cmp	r0, #0
    2a9e:	d140      	bne.n	2b22 <pow+0x1d6>
    2aa0:	f003 ff66 	bl	6970 <__errno>
    2aa4:	2322      	movs	r3, #34	; 0x22
    2aa6:	6003      	str	r3, [r0, #0]
    2aa8:	e03b      	b.n	2b22 <pow+0x1d6>
    2aaa:	0030      	movs	r0, r6
    2aac:	0039      	movs	r1, r7
    2aae:	f000 ffcd 	bl	3a4c <finite>
    2ab2:	9a02      	ldr	r2, [sp, #8]
    2ab4:	9b03      	ldr	r3, [sp, #12]
    2ab6:	9200      	str	r2, [sp, #0]
    2ab8:	9301      	str	r3, [sp, #4]
    2aba:	2800      	cmp	r0, #0
    2abc:	d09b      	beq.n	29f6 <pow+0xaa>
    2abe:	2200      	movs	r2, #0
    2ac0:	2300      	movs	r3, #0
    2ac2:	0030      	movs	r0, r6
    2ac4:	0039      	movs	r1, r7
    2ac6:	f001 fc73 	bl	43b0 <__aeabi_dcmplt>
    2aca:	2800      	cmp	r0, #0
    2acc:	d100      	bne.n	2ad0 <pow+0x184>
    2ace:	e792      	b.n	29f6 <pow+0xaa>
    2ad0:	ab06      	add	r3, sp, #24
    2ad2:	4698      	mov	r8, r3
    2ad4:	2301      	movs	r3, #1
    2ad6:	4642      	mov	r2, r8
    2ad8:	9306      	str	r3, [sp, #24]
    2ada:	4b73      	ldr	r3, [pc, #460]	; (2ca8 <pow+0x35c>)
    2adc:	6053      	str	r3, [r2, #4]
    2ade:	4643      	mov	r3, r8
    2ae0:	9a05      	ldr	r2, [sp, #20]
    2ae2:	609c      	str	r4, [r3, #8]
    2ae4:	60dd      	str	r5, [r3, #12]
    2ae6:	621a      	str	r2, [r3, #32]
    2ae8:	611e      	str	r6, [r3, #16]
    2aea:	615f      	str	r7, [r3, #20]
    2aec:	465b      	mov	r3, fp
    2aee:	781b      	ldrb	r3, [r3, #0]
    2af0:	b25b      	sxtb	r3, r3
    2af2:	2b00      	cmp	r3, #0
    2af4:	d00b      	beq.n	2b0e <pow+0x1c2>
    2af6:	2000      	movs	r0, #0
    2af8:	4642      	mov	r2, r8
    2afa:	496d      	ldr	r1, [pc, #436]	; (2cb0 <pow+0x364>)
    2afc:	6190      	str	r0, [r2, #24]
    2afe:	61d1      	str	r1, [r2, #28]
    2b00:	2b02      	cmp	r3, #2
    2b02:	d109      	bne.n	2b18 <pow+0x1cc>
    2b04:	f003 ff34 	bl	6970 <__errno>
    2b08:	2321      	movs	r3, #33	; 0x21
    2b0a:	6003      	str	r3, [r0, #0]
    2b0c:	e009      	b.n	2b22 <pow+0x1d6>
    2b0e:	4642      	mov	r2, r8
    2b10:	2300      	movs	r3, #0
    2b12:	2400      	movs	r4, #0
    2b14:	6193      	str	r3, [r2, #24]
    2b16:	61d4      	str	r4, [r2, #28]
    2b18:	4640      	mov	r0, r8
    2b1a:	f000 ffa1 	bl	3a60 <matherr>
    2b1e:	2800      	cmp	r0, #0
    2b20:	d0f0      	beq.n	2b04 <pow+0x1b8>
    2b22:	4643      	mov	r3, r8
    2b24:	6a1b      	ldr	r3, [r3, #32]
    2b26:	2b00      	cmp	r3, #0
    2b28:	d004      	beq.n	2b34 <pow+0x1e8>
    2b2a:	f003 ff21 	bl	6970 <__errno>
    2b2e:	4643      	mov	r3, r8
    2b30:	6a1b      	ldr	r3, [r3, #32]
    2b32:	6003      	str	r3, [r0, #0]
    2b34:	4643      	mov	r3, r8
    2b36:	69dc      	ldr	r4, [r3, #28]
    2b38:	699b      	ldr	r3, [r3, #24]
    2b3a:	9300      	str	r3, [sp, #0]
    2b3c:	9401      	str	r4, [sp, #4]
    2b3e:	e75a      	b.n	29f6 <pow+0xaa>
    2b40:	0020      	movs	r0, r4
    2b42:	0029      	movs	r1, r5
    2b44:	f000 ff82 	bl	3a4c <finite>
    2b48:	2800      	cmp	r0, #0
    2b4a:	d100      	bne.n	2b4e <pow+0x202>
    2b4c:	e771      	b.n	2a32 <pow+0xe6>
    2b4e:	0030      	movs	r0, r6
    2b50:	0039      	movs	r1, r7
    2b52:	f000 ff7b 	bl	3a4c <finite>
    2b56:	2800      	cmp	r0, #0
    2b58:	d100      	bne.n	2b5c <pow+0x210>
    2b5a:	e76a      	b.n	2a32 <pow+0xe6>
    2b5c:	9802      	ldr	r0, [sp, #8]
    2b5e:	9903      	ldr	r1, [sp, #12]
    2b60:	000b      	movs	r3, r1
    2b62:	0002      	movs	r2, r0
    2b64:	f003 fd6e 	bl	6644 <__aeabi_dcmpun>
    2b68:	ab06      	add	r3, sp, #24
    2b6a:	4698      	mov	r8, r3
    2b6c:	2800      	cmp	r0, #0
    2b6e:	d17a      	bne.n	2c66 <pow+0x31a>
    2b70:	2303      	movs	r3, #3
    2b72:	4642      	mov	r2, r8
    2b74:	9306      	str	r3, [sp, #24]
    2b76:	4b4c      	ldr	r3, [pc, #304]	; (2ca8 <pow+0x35c>)
    2b78:	6210      	str	r0, [r2, #32]
    2b7a:	6053      	str	r3, [r2, #4]
    2b7c:	465b      	mov	r3, fp
    2b7e:	781b      	ldrb	r3, [r3, #0]
    2b80:	6094      	str	r4, [r2, #8]
    2b82:	60d5      	str	r5, [r2, #12]
    2b84:	b25b      	sxtb	r3, r3
    2b86:	6116      	str	r6, [r2, #16]
    2b88:	6157      	str	r7, [r2, #20]
    2b8a:	4699      	mov	r9, r3
    2b8c:	2b00      	cmp	r3, #0
    2b8e:	d148      	bne.n	2c22 <pow+0x2d6>
    2b90:	22e0      	movs	r2, #224	; 0xe0
    2b92:	4641      	mov	r1, r8
    2b94:	4b47      	ldr	r3, [pc, #284]	; (2cb4 <pow+0x368>)
    2b96:	0612      	lsls	r2, r2, #24
    2b98:	618a      	str	r2, [r1, #24]
    2b9a:	61cb      	str	r3, [r1, #28]
    2b9c:	0020      	movs	r0, r4
    2b9e:	2200      	movs	r2, #0
    2ba0:	2300      	movs	r3, #0
    2ba2:	0029      	movs	r1, r5
    2ba4:	f001 fc04 	bl	43b0 <__aeabi_dcmplt>
    2ba8:	2800      	cmp	r0, #0
    2baa:	d100      	bne.n	2bae <pow+0x262>
    2bac:	e773      	b.n	2a96 <pow+0x14a>
    2bae:	2200      	movs	r2, #0
    2bb0:	4b41      	ldr	r3, [pc, #260]	; (2cb8 <pow+0x36c>)
    2bb2:	0030      	movs	r0, r6
    2bb4:	0039      	movs	r1, r7
    2bb6:	f002 ff77 	bl	5aa8 <__aeabi_dmul>
    2bba:	0004      	movs	r4, r0
    2bbc:	000d      	movs	r5, r1
    2bbe:	f000 ff57 	bl	3a70 <rint>
    2bc2:	0002      	movs	r2, r0
    2bc4:	000b      	movs	r3, r1
    2bc6:	0020      	movs	r0, r4
    2bc8:	0029      	movs	r1, r5
    2bca:	f001 fbeb 	bl	43a4 <__aeabi_dcmpeq>
    2bce:	2800      	cmp	r0, #0
    2bd0:	d105      	bne.n	2bde <pow+0x292>
    2bd2:	22e0      	movs	r2, #224	; 0xe0
    2bd4:	4b39      	ldr	r3, [pc, #228]	; (2cbc <pow+0x370>)
    2bd6:	0612      	lsls	r2, r2, #24
    2bd8:	4641      	mov	r1, r8
    2bda:	618a      	str	r2, [r1, #24]
    2bdc:	61cb      	str	r3, [r1, #28]
    2bde:	465b      	mov	r3, fp
    2be0:	781b      	ldrb	r3, [r3, #0]
    2be2:	b25b      	sxtb	r3, r3
    2be4:	4699      	mov	r9, r3
    2be6:	464b      	mov	r3, r9
    2be8:	2b02      	cmp	r3, #2
    2bea:	d000      	beq.n	2bee <pow+0x2a2>
    2bec:	e753      	b.n	2a96 <pow+0x14a>
    2bee:	e757      	b.n	2aa0 <pow+0x154>
    2bf0:	ab06      	add	r3, sp, #24
    2bf2:	4698      	mov	r8, r3
    2bf4:	2301      	movs	r3, #1
    2bf6:	4642      	mov	r2, r8
    2bf8:	9306      	str	r3, [sp, #24]
    2bfa:	4b2b      	ldr	r3, [pc, #172]	; (2ca8 <pow+0x35c>)
    2bfc:	6053      	str	r3, [r2, #4]
    2bfe:	4643      	mov	r3, r8
    2c00:	609c      	str	r4, [r3, #8]
    2c02:	60dd      	str	r5, [r3, #12]
    2c04:	2400      	movs	r4, #0
    2c06:	9a00      	ldr	r2, [sp, #0]
    2c08:	4d28      	ldr	r5, [pc, #160]	; (2cac <pow+0x360>)
    2c0a:	621a      	str	r2, [r3, #32]
    2c0c:	611e      	str	r6, [r3, #16]
    2c0e:	615f      	str	r7, [r3, #20]
    2c10:	619c      	str	r4, [r3, #24]
    2c12:	61dd      	str	r5, [r3, #28]
    2c14:	464b      	mov	r3, r9
    2c16:	9400      	str	r4, [sp, #0]
    2c18:	9501      	str	r5, [sp, #4]
    2c1a:	2b02      	cmp	r3, #2
    2c1c:	d000      	beq.n	2c20 <pow+0x2d4>
    2c1e:	e77b      	b.n	2b18 <pow+0x1cc>
    2c20:	e6e9      	b.n	29f6 <pow+0xaa>
    2c22:	2200      	movs	r2, #0
    2c24:	4641      	mov	r1, r8
    2c26:	4b26      	ldr	r3, [pc, #152]	; (2cc0 <pow+0x374>)
    2c28:	0020      	movs	r0, r4
    2c2a:	618a      	str	r2, [r1, #24]
    2c2c:	61cb      	str	r3, [r1, #28]
    2c2e:	2200      	movs	r2, #0
    2c30:	2300      	movs	r3, #0
    2c32:	0029      	movs	r1, r5
    2c34:	f001 fbbc 	bl	43b0 <__aeabi_dcmplt>
    2c38:	2800      	cmp	r0, #0
    2c3a:	d0d4      	beq.n	2be6 <pow+0x29a>
    2c3c:	2200      	movs	r2, #0
    2c3e:	4b1e      	ldr	r3, [pc, #120]	; (2cb8 <pow+0x36c>)
    2c40:	0030      	movs	r0, r6
    2c42:	0039      	movs	r1, r7
    2c44:	f002 ff30 	bl	5aa8 <__aeabi_dmul>
    2c48:	0004      	movs	r4, r0
    2c4a:	000d      	movs	r5, r1
    2c4c:	f000 ff10 	bl	3a70 <rint>
    2c50:	0002      	movs	r2, r0
    2c52:	000b      	movs	r3, r1
    2c54:	0020      	movs	r0, r4
    2c56:	0029      	movs	r1, r5
    2c58:	f001 fba4 	bl	43a4 <__aeabi_dcmpeq>
    2c5c:	2800      	cmp	r0, #0
    2c5e:	d1be      	bne.n	2bde <pow+0x292>
    2c60:	2200      	movs	r2, #0
    2c62:	4b13      	ldr	r3, [pc, #76]	; (2cb0 <pow+0x364>)
    2c64:	e7b8      	b.n	2bd8 <pow+0x28c>
    2c66:	2301      	movs	r3, #1
    2c68:	4642      	mov	r2, r8
    2c6a:	9306      	str	r3, [sp, #24]
    2c6c:	4b0e      	ldr	r3, [pc, #56]	; (2ca8 <pow+0x35c>)
    2c6e:	6053      	str	r3, [r2, #4]
    2c70:	4643      	mov	r3, r8
    2c72:	464a      	mov	r2, r9
    2c74:	609c      	str	r4, [r3, #8]
    2c76:	60dd      	str	r5, [r3, #12]
    2c78:	621a      	str	r2, [r3, #32]
    2c7a:	611e      	str	r6, [r3, #16]
    2c7c:	615f      	str	r7, [r3, #20]
    2c7e:	2400      	movs	r4, #0
    2c80:	465b      	mov	r3, fp
    2c82:	571c      	ldrsb	r4, [r3, r4]
    2c84:	2c00      	cmp	r4, #0
    2c86:	d100      	bne.n	2c8a <pow+0x33e>
    2c88:	e741      	b.n	2b0e <pow+0x1c2>
    2c8a:	2300      	movs	r3, #0
    2c8c:	2200      	movs	r2, #0
    2c8e:	0019      	movs	r1, r3
    2c90:	0010      	movs	r0, r2
    2c92:	f002 fae5 	bl	5260 <__aeabi_ddiv>
    2c96:	4643      	mov	r3, r8
    2c98:	6198      	str	r0, [r3, #24]
    2c9a:	61d9      	str	r1, [r3, #28]
    2c9c:	2c02      	cmp	r4, #2
    2c9e:	d100      	bne.n	2ca2 <pow+0x356>
    2ca0:	e730      	b.n	2b04 <pow+0x1b8>
    2ca2:	e739      	b.n	2b18 <pow+0x1cc>
    2ca4:	20000020 	.word	0x20000020
    2ca8:	0000bd90 	.word	0x0000bd90
    2cac:	3ff00000 	.word	0x3ff00000
    2cb0:	fff00000 	.word	0xfff00000
    2cb4:	47efffff 	.word	0x47efffff
    2cb8:	3fe00000 	.word	0x3fe00000
    2cbc:	c7efffff 	.word	0xc7efffff
    2cc0:	7ff00000 	.word	0x7ff00000

00002cc4 <__ieee754_log10>:
    2cc4:	b5f0      	push	{r4, r5, r6, r7, lr}
    2cc6:	464f      	mov	r7, r9
    2cc8:	4646      	mov	r6, r8
    2cca:	b4c0      	push	{r6, r7}
    2ccc:	4a3b      	ldr	r2, [pc, #236]	; (2dbc <__ieee754_log10+0xf8>)
    2cce:	b083      	sub	sp, #12
    2cd0:	0004      	movs	r4, r0
    2cd2:	000d      	movs	r5, r1
    2cd4:	1e0b      	subs	r3, r1, #0
    2cd6:	4293      	cmp	r3, r2
    2cd8:	dc1c      	bgt.n	2d14 <__ieee754_log10+0x50>
    2cda:	004a      	lsls	r2, r1, #1
    2cdc:	0852      	lsrs	r2, r2, #1
    2cde:	4302      	orrs	r2, r0
    2ce0:	d05b      	beq.n	2d9a <__ieee754_log10+0xd6>
    2ce2:	2900      	cmp	r1, #0
    2ce4:	db60      	blt.n	2da8 <__ieee754_log10+0xe4>
    2ce6:	2200      	movs	r2, #0
    2ce8:	4b35      	ldr	r3, [pc, #212]	; (2dc0 <__ieee754_log10+0xfc>)
    2cea:	f002 fedd 	bl	5aa8 <__aeabi_dmul>
    2cee:	2236      	movs	r2, #54	; 0x36
    2cf0:	000d      	movs	r5, r1
    2cf2:	000b      	movs	r3, r1
    2cf4:	4933      	ldr	r1, [pc, #204]	; (2dc4 <__ieee754_log10+0x100>)
    2cf6:	0004      	movs	r4, r0
    2cf8:	4252      	negs	r2, r2
    2cfa:	428b      	cmp	r3, r1
    2cfc:	dd0e      	ble.n	2d1c <__ieee754_log10+0x58>
    2cfe:	0022      	movs	r2, r4
    2d00:	002b      	movs	r3, r5
    2d02:	0020      	movs	r0, r4
    2d04:	0029      	movs	r1, r5
    2d06:	f001 ff7f 	bl	4c08 <__aeabi_dadd>
    2d0a:	b003      	add	sp, #12
    2d0c:	bc0c      	pop	{r2, r3}
    2d0e:	4690      	mov	r8, r2
    2d10:	4699      	mov	r9, r3
    2d12:	bdf0      	pop	{r4, r5, r6, r7, pc}
    2d14:	492b      	ldr	r1, [pc, #172]	; (2dc4 <__ieee754_log10+0x100>)
    2d16:	2200      	movs	r2, #0
    2d18:	428b      	cmp	r3, r1
    2d1a:	dcf0      	bgt.n	2cfe <__ieee754_log10+0x3a>
    2d1c:	492a      	ldr	r1, [pc, #168]	; (2dc8 <__ieee754_log10+0x104>)
    2d1e:	1518      	asrs	r0, r3, #20
    2d20:	468c      	mov	ip, r1
    2d22:	4460      	add	r0, ip
    2d24:	1882      	adds	r2, r0, r2
    2d26:	0fd1      	lsrs	r1, r2, #31
    2d28:	4689      	mov	r9, r1
    2d2a:	031b      	lsls	r3, r3, #12
    2d2c:	444a      	add	r2, r9
    2d2e:	0b1b      	lsrs	r3, r3, #12
    2d30:	0010      	movs	r0, r2
    2d32:	4698      	mov	r8, r3
    2d34:	f003 fcdc 	bl	66f0 <__aeabi_i2d>
    2d38:	464a      	mov	r2, r9
    2d3a:	4b24      	ldr	r3, [pc, #144]	; (2dcc <__ieee754_log10+0x108>)
    2d3c:	0006      	movs	r6, r0
    2d3e:	1a9b      	subs	r3, r3, r2
    2d40:	4642      	mov	r2, r8
    2d42:	051b      	lsls	r3, r3, #20
    2d44:	431a      	orrs	r2, r3
    2d46:	000f      	movs	r7, r1
    2d48:	0020      	movs	r0, r4
    2d4a:	0011      	movs	r1, r2
    2d4c:	f000 ff9a 	bl	3c84 <__ieee754_log>
    2d50:	4a1f      	ldr	r2, [pc, #124]	; (2dd0 <__ieee754_log10+0x10c>)
    2d52:	0004      	movs	r4, r0
    2d54:	000d      	movs	r5, r1
    2d56:	4b1f      	ldr	r3, [pc, #124]	; (2dd4 <__ieee754_log10+0x110>)
    2d58:	0030      	movs	r0, r6
    2d5a:	0039      	movs	r1, r7
    2d5c:	f002 fea4 	bl	5aa8 <__aeabi_dmul>
    2d60:	4a1d      	ldr	r2, [pc, #116]	; (2dd8 <__ieee754_log10+0x114>)
    2d62:	9000      	str	r0, [sp, #0]
    2d64:	9101      	str	r1, [sp, #4]
    2d66:	4b1d      	ldr	r3, [pc, #116]	; (2ddc <__ieee754_log10+0x118>)
    2d68:	0020      	movs	r0, r4
    2d6a:	0029      	movs	r1, r5
    2d6c:	f002 fe9c 	bl	5aa8 <__aeabi_dmul>
    2d70:	0002      	movs	r2, r0
    2d72:	000b      	movs	r3, r1
    2d74:	9800      	ldr	r0, [sp, #0]
    2d76:	9901      	ldr	r1, [sp, #4]
    2d78:	f001 ff46 	bl	4c08 <__aeabi_dadd>
    2d7c:	4a18      	ldr	r2, [pc, #96]	; (2de0 <__ieee754_log10+0x11c>)
    2d7e:	0004      	movs	r4, r0
    2d80:	000d      	movs	r5, r1
    2d82:	4b18      	ldr	r3, [pc, #96]	; (2de4 <__ieee754_log10+0x120>)
    2d84:	0030      	movs	r0, r6
    2d86:	0039      	movs	r1, r7
    2d88:	f002 fe8e 	bl	5aa8 <__aeabi_dmul>
    2d8c:	0002      	movs	r2, r0
    2d8e:	000b      	movs	r3, r1
    2d90:	0020      	movs	r0, r4
    2d92:	0029      	movs	r1, r5
    2d94:	f001 ff38 	bl	4c08 <__aeabi_dadd>
    2d98:	e7b7      	b.n	2d0a <__ieee754_log10+0x46>
    2d9a:	2200      	movs	r2, #0
    2d9c:	2300      	movs	r3, #0
    2d9e:	2000      	movs	r0, #0
    2da0:	4911      	ldr	r1, [pc, #68]	; (2de8 <__ieee754_log10+0x124>)
    2da2:	f002 fa5d 	bl	5260 <__aeabi_ddiv>
    2da6:	e7b0      	b.n	2d0a <__ieee754_log10+0x46>
    2da8:	0002      	movs	r2, r0
    2daa:	000b      	movs	r3, r1
    2dac:	f003 f8f6 	bl	5f9c <__aeabi_dsub>
    2db0:	2200      	movs	r2, #0
    2db2:	2300      	movs	r3, #0
    2db4:	f002 fa54 	bl	5260 <__aeabi_ddiv>
    2db8:	e7a7      	b.n	2d0a <__ieee754_log10+0x46>
    2dba:	46c0      	nop			; (mov r8, r8)
    2dbc:	000fffff 	.word	0x000fffff
    2dc0:	43500000 	.word	0x43500000
    2dc4:	7fefffff 	.word	0x7fefffff
    2dc8:	fffffc01 	.word	0xfffffc01
    2dcc:	000003ff 	.word	0x000003ff
    2dd0:	11f12b36 	.word	0x11f12b36
    2dd4:	3d59fef3 	.word	0x3d59fef3
    2dd8:	1526e50e 	.word	0x1526e50e
    2ddc:	3fdbcb7b 	.word	0x3fdbcb7b
    2de0:	509f6000 	.word	0x509f6000
    2de4:	3fd34413 	.word	0x3fd34413
    2de8:	c3500000 	.word	0xc3500000

00002dec <__ieee754_pow>:
    2dec:	b5f0      	push	{r4, r5, r6, r7, lr}
    2dee:	4656      	mov	r6, sl
    2df0:	464d      	mov	r5, r9
    2df2:	4644      	mov	r4, r8
    2df4:	465f      	mov	r7, fp
    2df6:	b4f0      	push	{r4, r5, r6, r7}
    2df8:	001c      	movs	r4, r3
    2dfa:	0013      	movs	r3, r2
    2dfc:	0067      	lsls	r7, r4, #1
    2dfe:	b091      	sub	sp, #68	; 0x44
    2e00:	087f      	lsrs	r7, r7, #1
    2e02:	9300      	str	r3, [sp, #0]
    2e04:	9401      	str	r4, [sp, #4]
    2e06:	0006      	movs	r6, r0
    2e08:	000d      	movs	r5, r1
    2e0a:	4680      	mov	r8, r0
    2e0c:	4689      	mov	r9, r1
    2e0e:	46a2      	mov	sl, r4
    2e10:	433b      	orrs	r3, r7
    2e12:	d032      	beq.n	2e7a <__ieee754_pow+0x8e>
    2e14:	4b6e      	ldr	r3, [pc, #440]	; (2fd0 <__ieee754_pow+0x1e4>)
    2e16:	006c      	lsls	r4, r5, #1
    2e18:	0864      	lsrs	r4, r4, #1
    2e1a:	429c      	cmp	r4, r3
    2e1c:	dc29      	bgt.n	2e72 <__ieee754_pow+0x86>
    2e1e:	d026      	beq.n	2e6e <__ieee754_pow+0x82>
    2e20:	429f      	cmp	r7, r3
    2e22:	dc26      	bgt.n	2e72 <__ieee754_pow+0x86>
    2e24:	4b6a      	ldr	r3, [pc, #424]	; (2fd0 <__ieee754_pow+0x1e4>)
    2e26:	429f      	cmp	r7, r3
    2e28:	d100      	bne.n	2e2c <__ieee754_pow+0x40>
    2e2a:	e089      	b.n	2f40 <__ieee754_pow+0x154>
    2e2c:	2300      	movs	r3, #0
    2e2e:	469b      	mov	fp, r3
    2e30:	464b      	mov	r3, r9
    2e32:	2b00      	cmp	r3, #0
    2e34:	da00      	bge.n	2e38 <__ieee754_pow+0x4c>
    2e36:	e087      	b.n	2f48 <__ieee754_pow+0x15c>
    2e38:	2a00      	cmp	r2, #0
    2e3a:	d12f      	bne.n	2e9c <__ieee754_pow+0xb0>
    2e3c:	4b64      	ldr	r3, [pc, #400]	; (2fd0 <__ieee754_pow+0x1e4>)
    2e3e:	429f      	cmp	r7, r3
    2e40:	d100      	bne.n	2e44 <__ieee754_pow+0x58>
    2e42:	e09f      	b.n	2f84 <__ieee754_pow+0x198>
    2e44:	4b63      	ldr	r3, [pc, #396]	; (2fd4 <__ieee754_pow+0x1e8>)
    2e46:	429f      	cmp	r7, r3
    2e48:	d05d      	beq.n	2f06 <__ieee754_pow+0x11a>
    2e4a:	2380      	movs	r3, #128	; 0x80
    2e4c:	05db      	lsls	r3, r3, #23
    2e4e:	459a      	cmp	sl, r3
    2e50:	d101      	bne.n	2e56 <__ieee754_pow+0x6a>
    2e52:	f000 fbc1 	bl	35d8 <__ieee754_pow+0x7ec>
    2e56:	4b60      	ldr	r3, [pc, #384]	; (2fd8 <__ieee754_pow+0x1ec>)
    2e58:	459a      	cmp	sl, r3
    2e5a:	d11f      	bne.n	2e9c <__ieee754_pow+0xb0>
    2e5c:	464b      	mov	r3, r9
    2e5e:	2b00      	cmp	r3, #0
    2e60:	db1c      	blt.n	2e9c <__ieee754_pow+0xb0>
    2e62:	0030      	movs	r0, r6
    2e64:	0029      	movs	r1, r5
    2e66:	f000 fcf7 	bl	3858 <__ieee754_sqrt>
    2e6a:	0006      	movs	r6, r0
    2e6c:	e007      	b.n	2e7e <__ieee754_pow+0x92>
    2e6e:	2800      	cmp	r0, #0
    2e70:	d00d      	beq.n	2e8e <__ieee754_pow+0xa2>
    2e72:	4b5a      	ldr	r3, [pc, #360]	; (2fdc <__ieee754_pow+0x1f0>)
    2e74:	18e0      	adds	r0, r4, r3
    2e76:	4330      	orrs	r0, r6
    2e78:	d10b      	bne.n	2e92 <__ieee754_pow+0xa6>
    2e7a:	2600      	movs	r6, #0
    2e7c:	4955      	ldr	r1, [pc, #340]	; (2fd4 <__ieee754_pow+0x1e8>)
    2e7e:	0030      	movs	r0, r6
    2e80:	b011      	add	sp, #68	; 0x44
    2e82:	bc3c      	pop	{r2, r3, r4, r5}
    2e84:	4690      	mov	r8, r2
    2e86:	4699      	mov	r9, r3
    2e88:	46a2      	mov	sl, r4
    2e8a:	46ab      	mov	fp, r5
    2e8c:	bdf0      	pop	{r4, r5, r6, r7, pc}
    2e8e:	42a7      	cmp	r7, r4
    2e90:	ddc8      	ble.n	2e24 <__ieee754_pow+0x38>
    2e92:	4853      	ldr	r0, [pc, #332]	; (2fe0 <__ieee754_pow+0x1f4>)
    2e94:	f000 fde6 	bl	3a64 <nan>
    2e98:	0006      	movs	r6, r0
    2e9a:	e7f0      	b.n	2e7e <__ieee754_pow+0x92>
    2e9c:	0030      	movs	r0, r6
    2e9e:	0029      	movs	r1, r5
    2ea0:	f000 fdd0 	bl	3a44 <fabs>
    2ea4:	4643      	mov	r3, r8
    2ea6:	2b00      	cmp	r3, #0
    2ea8:	d01d      	beq.n	2ee6 <__ieee754_pow+0xfa>
    2eaa:	0feb      	lsrs	r3, r5, #31
    2eac:	3b01      	subs	r3, #1
    2eae:	4698      	mov	r8, r3
    2eb0:	465b      	mov	r3, fp
    2eb2:	4642      	mov	r2, r8
    2eb4:	4313      	orrs	r3, r2
    2eb6:	d079      	beq.n	2fac <__ieee754_pow+0x1c0>
    2eb8:	4b4a      	ldr	r3, [pc, #296]	; (2fe4 <__ieee754_pow+0x1f8>)
    2eba:	429f      	cmp	r7, r3
    2ebc:	dc00      	bgt.n	2ec0 <__ieee754_pow+0xd4>
    2ebe:	e09f      	b.n	3000 <__ieee754_pow+0x214>
    2ec0:	4b49      	ldr	r3, [pc, #292]	; (2fe8 <__ieee754_pow+0x1fc>)
    2ec2:	429f      	cmp	r7, r3
    2ec4:	dc01      	bgt.n	2eca <__ieee754_pow+0xde>
    2ec6:	f000 fbce 	bl	3666 <__ieee754_pow+0x87a>
    2eca:	4b48      	ldr	r3, [pc, #288]	; (2fec <__ieee754_pow+0x200>)
    2ecc:	429c      	cmp	r4, r3
    2ece:	dd79      	ble.n	2fc4 <__ieee754_pow+0x1d8>
    2ed0:	4653      	mov	r3, sl
    2ed2:	2b00      	cmp	r3, #0
    2ed4:	dd79      	ble.n	2fca <__ieee754_pow+0x1de>
    2ed6:	4a46      	ldr	r2, [pc, #280]	; (2ff0 <__ieee754_pow+0x204>)
    2ed8:	4b46      	ldr	r3, [pc, #280]	; (2ff4 <__ieee754_pow+0x208>)
    2eda:	0010      	movs	r0, r2
    2edc:	0019      	movs	r1, r3
    2ede:	f002 fde3 	bl	5aa8 <__aeabi_dmul>
    2ee2:	0006      	movs	r6, r0
    2ee4:	e7cb      	b.n	2e7e <__ieee754_pow+0x92>
    2ee6:	2c00      	cmp	r4, #0
    2ee8:	d004      	beq.n	2ef4 <__ieee754_pow+0x108>
    2eea:	4a3a      	ldr	r2, [pc, #232]	; (2fd4 <__ieee754_pow+0x1e8>)
    2eec:	00ab      	lsls	r3, r5, #2
    2eee:	089b      	lsrs	r3, r3, #2
    2ef0:	4293      	cmp	r3, r2
    2ef2:	d1da      	bne.n	2eaa <__ieee754_pow+0xbe>
    2ef4:	4653      	mov	r3, sl
    2ef6:	2b00      	cmp	r3, #0
    2ef8:	da00      	bge.n	2efc <__ieee754_pow+0x110>
    2efa:	e3ad      	b.n	3658 <__ieee754_pow+0x86c>
    2efc:	464b      	mov	r3, r9
    2efe:	2b00      	cmp	r3, #0
    2f00:	db0d      	blt.n	2f1e <__ieee754_pow+0x132>
    2f02:	0006      	movs	r6, r0
    2f04:	e7bb      	b.n	2e7e <__ieee754_pow+0x92>
    2f06:	4653      	mov	r3, sl
    2f08:	0029      	movs	r1, r5
    2f0a:	2b00      	cmp	r3, #0
    2f0c:	dab7      	bge.n	2e7e <__ieee754_pow+0x92>
    2f0e:	0032      	movs	r2, r6
    2f10:	002b      	movs	r3, r5
    2f12:	2000      	movs	r0, #0
    2f14:	492f      	ldr	r1, [pc, #188]	; (2fd4 <__ieee754_pow+0x1e8>)
    2f16:	f002 f9a3 	bl	5260 <__aeabi_ddiv>
    2f1a:	0006      	movs	r6, r0
    2f1c:	e7af      	b.n	2e7e <__ieee754_pow+0x92>
    2f1e:	4b2f      	ldr	r3, [pc, #188]	; (2fdc <__ieee754_pow+0x1f0>)
    2f20:	469c      	mov	ip, r3
    2f22:	465b      	mov	r3, fp
    2f24:	4464      	add	r4, ip
    2f26:	431c      	orrs	r4, r3
    2f28:	d101      	bne.n	2f2e <__ieee754_pow+0x142>
    2f2a:	f000 fc2b 	bl	3784 <__ieee754_pow+0x998>
    2f2e:	465b      	mov	r3, fp
    2f30:	0006      	movs	r6, r0
    2f32:	2b01      	cmp	r3, #1
    2f34:	d1a3      	bne.n	2e7e <__ieee754_pow+0x92>
    2f36:	2380      	movs	r3, #128	; 0x80
    2f38:	061b      	lsls	r3, r3, #24
    2f3a:	469c      	mov	ip, r3
    2f3c:	4461      	add	r1, ip
    2f3e:	e79e      	b.n	2e7e <__ieee754_pow+0x92>
    2f40:	2a00      	cmp	r2, #0
    2f42:	d100      	bne.n	2f46 <__ieee754_pow+0x15a>
    2f44:	e772      	b.n	2e2c <__ieee754_pow+0x40>
    2f46:	e794      	b.n	2e72 <__ieee754_pow+0x86>
    2f48:	4b2b      	ldr	r3, [pc, #172]	; (2ff8 <__ieee754_pow+0x20c>)
    2f4a:	429f      	cmp	r7, r3
    2f4c:	dc2b      	bgt.n	2fa6 <__ieee754_pow+0x1ba>
    2f4e:	4b27      	ldr	r3, [pc, #156]	; (2fec <__ieee754_pow+0x200>)
    2f50:	429f      	cmp	r7, r3
    2f52:	dc00      	bgt.n	2f56 <__ieee754_pow+0x16a>
    2f54:	e770      	b.n	2e38 <__ieee754_pow+0x4c>
    2f56:	4929      	ldr	r1, [pc, #164]	; (2ffc <__ieee754_pow+0x210>)
    2f58:	153b      	asrs	r3, r7, #20
    2f5a:	468c      	mov	ip, r1
    2f5c:	4463      	add	r3, ip
    2f5e:	2b14      	cmp	r3, #20
    2f60:	dc01      	bgt.n	2f66 <__ieee754_pow+0x17a>
    2f62:	f000 fbf2 	bl	374a <__ieee754_pow+0x95e>
    2f66:	2134      	movs	r1, #52	; 0x34
    2f68:	1acb      	subs	r3, r1, r3
    2f6a:	9900      	ldr	r1, [sp, #0]
    2f6c:	40d9      	lsrs	r1, r3
    2f6e:	0008      	movs	r0, r1
    2f70:	4098      	lsls	r0, r3
    2f72:	4282      	cmp	r2, r0
    2f74:	d000      	beq.n	2f78 <__ieee754_pow+0x18c>
    2f76:	e75f      	b.n	2e38 <__ieee754_pow+0x4c>
    2f78:	2301      	movs	r3, #1
    2f7a:	4019      	ands	r1, r3
    2f7c:	3301      	adds	r3, #1
    2f7e:	1a5b      	subs	r3, r3, r1
    2f80:	469b      	mov	fp, r3
    2f82:	e759      	b.n	2e38 <__ieee754_pow+0x4c>
    2f84:	4b15      	ldr	r3, [pc, #84]	; (2fdc <__ieee754_pow+0x1f0>)
    2f86:	18e0      	adds	r0, r4, r3
    2f88:	4306      	orrs	r6, r0
    2f8a:	d100      	bne.n	2f8e <__ieee754_pow+0x1a2>
    2f8c:	e775      	b.n	2e7a <__ieee754_pow+0x8e>
    2f8e:	4b17      	ldr	r3, [pc, #92]	; (2fec <__ieee754_pow+0x200>)
    2f90:	429c      	cmp	r4, r3
    2f92:	dc00      	bgt.n	2f96 <__ieee754_pow+0x1aa>
    2f94:	e351      	b.n	363a <__ieee754_pow+0x84e>
    2f96:	4653      	mov	r3, sl
    2f98:	2b00      	cmp	r3, #0
    2f9a:	db16      	blt.n	2fca <__ieee754_pow+0x1de>
    2f9c:	9b00      	ldr	r3, [sp, #0]
    2f9e:	9c01      	ldr	r4, [sp, #4]
    2fa0:	001e      	movs	r6, r3
    2fa2:	0021      	movs	r1, r4
    2fa4:	e76b      	b.n	2e7e <__ieee754_pow+0x92>
    2fa6:	2302      	movs	r3, #2
    2fa8:	469b      	mov	fp, r3
    2faa:	e745      	b.n	2e38 <__ieee754_pow+0x4c>
    2fac:	0032      	movs	r2, r6
    2fae:	002b      	movs	r3, r5
    2fb0:	0030      	movs	r0, r6
    2fb2:	0029      	movs	r1, r5
    2fb4:	f002 fff2 	bl	5f9c <__aeabi_dsub>
    2fb8:	0002      	movs	r2, r0
    2fba:	000b      	movs	r3, r1
    2fbc:	f002 f950 	bl	5260 <__aeabi_ddiv>
    2fc0:	0006      	movs	r6, r0
    2fc2:	e75c      	b.n	2e7e <__ieee754_pow+0x92>
    2fc4:	4653      	mov	r3, sl
    2fc6:	2b00      	cmp	r3, #0
    2fc8:	db85      	blt.n	2ed6 <__ieee754_pow+0xea>
    2fca:	2600      	movs	r6, #0
    2fcc:	2100      	movs	r1, #0
    2fce:	e756      	b.n	2e7e <__ieee754_pow+0x92>
    2fd0:	7ff00000 	.word	0x7ff00000
    2fd4:	3ff00000 	.word	0x3ff00000
    2fd8:	3fe00000 	.word	0x3fe00000
    2fdc:	c0100000 	.word	0xc0100000
    2fe0:	0000bfc8 	.word	0x0000bfc8
    2fe4:	41e00000 	.word	0x41e00000
    2fe8:	43f00000 	.word	0x43f00000
    2fec:	3fefffff 	.word	0x3fefffff
    2ff0:	8800759c 	.word	0x8800759c
    2ff4:	7e37e43c 	.word	0x7e37e43c
    2ff8:	433fffff 	.word	0x433fffff
    2ffc:	fffffc01 	.word	0xfffffc01
    3000:	4be8      	ldr	r3, [pc, #928]	; (33a4 <__ieee754_pow+0x5b8>)
    3002:	2200      	movs	r2, #0
    3004:	429c      	cmp	r4, r3
    3006:	dc06      	bgt.n	3016 <__ieee754_pow+0x22a>
    3008:	2200      	movs	r2, #0
    300a:	4be7      	ldr	r3, [pc, #924]	; (33a8 <__ieee754_pow+0x5bc>)
    300c:	f002 fd4c 	bl	5aa8 <__aeabi_dmul>
    3010:	2235      	movs	r2, #53	; 0x35
    3012:	000c      	movs	r4, r1
    3014:	4252      	negs	r2, r2
    3016:	4de5      	ldr	r5, [pc, #916]	; (33ac <__ieee754_pow+0x5c0>)
    3018:	1523      	asrs	r3, r4, #20
    301a:	46ac      	mov	ip, r5
    301c:	4463      	add	r3, ip
    301e:	4699      	mov	r9, r3
    3020:	0324      	lsls	r4, r4, #12
    3022:	4de3      	ldr	r5, [pc, #908]	; (33b0 <__ieee754_pow+0x5c4>)
    3024:	4be3      	ldr	r3, [pc, #908]	; (33b4 <__ieee754_pow+0x5c8>)
    3026:	0b24      	lsrs	r4, r4, #12
    3028:	4491      	add	r9, r2
    302a:	4325      	orrs	r5, r4
    302c:	429c      	cmp	r4, r3
    302e:	dd09      	ble.n	3044 <__ieee754_pow+0x258>
    3030:	4be1      	ldr	r3, [pc, #900]	; (33b8 <__ieee754_pow+0x5cc>)
    3032:	429c      	cmp	r4, r3
    3034:	dc00      	bgt.n	3038 <__ieee754_pow+0x24c>
    3036:	e3a9      	b.n	378c <__ieee754_pow+0x9a0>
    3038:	2301      	movs	r3, #1
    303a:	469c      	mov	ip, r3
    303c:	4bdf      	ldr	r3, [pc, #892]	; (33bc <__ieee754_pow+0x5d0>)
    303e:	44e1      	add	r9, ip
    3040:	469c      	mov	ip, r3
    3042:	4465      	add	r5, ip
    3044:	2300      	movs	r3, #0
    3046:	2400      	movs	r4, #0
    3048:	2200      	movs	r2, #0
    304a:	9308      	str	r3, [sp, #32]
    304c:	9409      	str	r4, [sp, #36]	; 0x24
    304e:	930c      	str	r3, [sp, #48]	; 0x30
    3050:	940d      	str	r4, [sp, #52]	; 0x34
    3052:	2400      	movs	r4, #0
    3054:	4bd6      	ldr	r3, [pc, #856]	; (33b0 <__ieee754_pow+0x5c4>)
    3056:	9206      	str	r2, [sp, #24]
    3058:	9307      	str	r3, [sp, #28]
    305a:	9a06      	ldr	r2, [sp, #24]
    305c:	9b07      	ldr	r3, [sp, #28]
    305e:	0029      	movs	r1, r5
    3060:	900a      	str	r0, [sp, #40]	; 0x28
    3062:	910b      	str	r1, [sp, #44]	; 0x2c
    3064:	f002 ff9a 	bl	5f9c <__aeabi_dsub>
    3068:	9a06      	ldr	r2, [sp, #24]
    306a:	9b07      	ldr	r3, [sp, #28]
    306c:	0006      	movs	r6, r0
    306e:	000f      	movs	r7, r1
    3070:	980a      	ldr	r0, [sp, #40]	; 0x28
    3072:	990b      	ldr	r1, [sp, #44]	; 0x2c
    3074:	f001 fdc8 	bl	4c08 <__aeabi_dadd>
    3078:	0002      	movs	r2, r0
    307a:	000b      	movs	r3, r1
    307c:	2000      	movs	r0, #0
    307e:	49cc      	ldr	r1, [pc, #816]	; (33b0 <__ieee754_pow+0x5c4>)
    3080:	f002 f8ee 	bl	5260 <__aeabi_ddiv>
    3084:	000a      	movs	r2, r1
    3086:	0001      	movs	r1, r0
    3088:	0013      	movs	r3, r2
    308a:	910e      	str	r1, [sp, #56]	; 0x38
    308c:	920f      	str	r2, [sp, #60]	; 0x3c
    308e:	0002      	movs	r2, r0
    3090:	0039      	movs	r1, r7
    3092:	0030      	movs	r0, r6
    3094:	f002 fd08 	bl	5aa8 <__aeabi_dmul>
    3098:	000a      	movs	r2, r1
    309a:	0001      	movs	r1, r0
    309c:	2080      	movs	r0, #128	; 0x80
    309e:	9104      	str	r1, [sp, #16]
    30a0:	9205      	str	r2, [sp, #20]
    30a2:	0013      	movs	r3, r2
    30a4:	2200      	movs	r2, #0
    30a6:	2180      	movs	r1, #128	; 0x80
    30a8:	0300      	lsls	r0, r0, #12
    30aa:	4684      	mov	ip, r0
    30ac:	9202      	str	r2, [sp, #8]
    30ae:	9303      	str	r3, [sp, #12]
    30b0:	2200      	movs	r2, #0
    30b2:	0589      	lsls	r1, r1, #22
    30b4:	106d      	asrs	r5, r5, #1
    30b6:	430d      	orrs	r5, r1
    30b8:	4465      	add	r5, ip
    30ba:	192b      	adds	r3, r5, r4
    30bc:	9802      	ldr	r0, [sp, #8]
    30be:	9903      	ldr	r1, [sp, #12]
    30c0:	0014      	movs	r4, r2
    30c2:	001d      	movs	r5, r3
    30c4:	f002 fcf0 	bl	5aa8 <__aeabi_dmul>
    30c8:	0002      	movs	r2, r0
    30ca:	000b      	movs	r3, r1
    30cc:	0030      	movs	r0, r6
    30ce:	0039      	movs	r1, r7
    30d0:	f002 ff64 	bl	5f9c <__aeabi_dsub>
    30d4:	9a06      	ldr	r2, [sp, #24]
    30d6:	9b07      	ldr	r3, [sp, #28]
    30d8:	0006      	movs	r6, r0
    30da:	000f      	movs	r7, r1
    30dc:	0020      	movs	r0, r4
    30de:	0029      	movs	r1, r5
    30e0:	f002 ff5c 	bl	5f9c <__aeabi_dsub>
    30e4:	0002      	movs	r2, r0
    30e6:	000b      	movs	r3, r1
    30e8:	980a      	ldr	r0, [sp, #40]	; 0x28
    30ea:	990b      	ldr	r1, [sp, #44]	; 0x2c
    30ec:	f002 ff56 	bl	5f9c <__aeabi_dsub>
    30f0:	9a02      	ldr	r2, [sp, #8]
    30f2:	9b03      	ldr	r3, [sp, #12]
    30f4:	f002 fcd8 	bl	5aa8 <__aeabi_dmul>
    30f8:	0002      	movs	r2, r0
    30fa:	000b      	movs	r3, r1
    30fc:	0030      	movs	r0, r6
    30fe:	0039      	movs	r1, r7
    3100:	f002 ff4c 	bl	5f9c <__aeabi_dsub>
    3104:	9a0e      	ldr	r2, [sp, #56]	; 0x38
    3106:	9b0f      	ldr	r3, [sp, #60]	; 0x3c
    3108:	f002 fcce 	bl	5aa8 <__aeabi_dmul>
    310c:	9d04      	ldr	r5, [sp, #16]
    310e:	9e05      	ldr	r6, [sp, #20]
    3110:	9006      	str	r0, [sp, #24]
    3112:	9107      	str	r1, [sp, #28]
    3114:	002a      	movs	r2, r5
    3116:	0033      	movs	r3, r6
    3118:	0028      	movs	r0, r5
    311a:	0031      	movs	r1, r6
    311c:	f002 fcc4 	bl	5aa8 <__aeabi_dmul>
    3120:	0006      	movs	r6, r0
    3122:	000f      	movs	r7, r1
    3124:	4aa6      	ldr	r2, [pc, #664]	; (33c0 <__ieee754_pow+0x5d4>)
    3126:	4ba7      	ldr	r3, [pc, #668]	; (33c4 <__ieee754_pow+0x5d8>)
    3128:	f002 fcbe 	bl	5aa8 <__aeabi_dmul>
    312c:	4aa6      	ldr	r2, [pc, #664]	; (33c8 <__ieee754_pow+0x5dc>)
    312e:	4ba7      	ldr	r3, [pc, #668]	; (33cc <__ieee754_pow+0x5e0>)
    3130:	f001 fd6a 	bl	4c08 <__aeabi_dadd>
    3134:	0032      	movs	r2, r6
    3136:	003b      	movs	r3, r7
    3138:	f002 fcb6 	bl	5aa8 <__aeabi_dmul>
    313c:	4aa4      	ldr	r2, [pc, #656]	; (33d0 <__ieee754_pow+0x5e4>)
    313e:	4ba5      	ldr	r3, [pc, #660]	; (33d4 <__ieee754_pow+0x5e8>)
    3140:	f001 fd62 	bl	4c08 <__aeabi_dadd>
    3144:	0032      	movs	r2, r6
    3146:	003b      	movs	r3, r7
    3148:	f002 fcae 	bl	5aa8 <__aeabi_dmul>
    314c:	4aa2      	ldr	r2, [pc, #648]	; (33d8 <__ieee754_pow+0x5ec>)
    314e:	4ba3      	ldr	r3, [pc, #652]	; (33dc <__ieee754_pow+0x5f0>)
    3150:	f001 fd5a 	bl	4c08 <__aeabi_dadd>
    3154:	0032      	movs	r2, r6
    3156:	003b      	movs	r3, r7
    3158:	f002 fca6 	bl	5aa8 <__aeabi_dmul>
    315c:	4aa0      	ldr	r2, [pc, #640]	; (33e0 <__ieee754_pow+0x5f4>)
    315e:	4ba1      	ldr	r3, [pc, #644]	; (33e4 <__ieee754_pow+0x5f8>)
    3160:	f001 fd52 	bl	4c08 <__aeabi_dadd>
    3164:	0032      	movs	r2, r6
    3166:	003b      	movs	r3, r7
    3168:	f002 fc9e 	bl	5aa8 <__aeabi_dmul>
    316c:	4a9e      	ldr	r2, [pc, #632]	; (33e8 <__ieee754_pow+0x5fc>)
    316e:	4b9f      	ldr	r3, [pc, #636]	; (33ec <__ieee754_pow+0x600>)
    3170:	f001 fd4a 	bl	4c08 <__aeabi_dadd>
    3174:	0032      	movs	r2, r6
    3176:	0004      	movs	r4, r0
    3178:	000d      	movs	r5, r1
    317a:	003b      	movs	r3, r7
    317c:	0030      	movs	r0, r6
    317e:	0039      	movs	r1, r7
    3180:	f002 fc92 	bl	5aa8 <__aeabi_dmul>
    3184:	0002      	movs	r2, r0
    3186:	000b      	movs	r3, r1
    3188:	0020      	movs	r0, r4
    318a:	0029      	movs	r1, r5
    318c:	f002 fc8c 	bl	5aa8 <__aeabi_dmul>
    3190:	9e02      	ldr	r6, [sp, #8]
    3192:	9f03      	ldr	r7, [sp, #12]
    3194:	0004      	movs	r4, r0
    3196:	000d      	movs	r5, r1
    3198:	9804      	ldr	r0, [sp, #16]
    319a:	9905      	ldr	r1, [sp, #20]
    319c:	0032      	movs	r2, r6
    319e:	003b      	movs	r3, r7
    31a0:	f001 fd32 	bl	4c08 <__aeabi_dadd>
    31a4:	9a06      	ldr	r2, [sp, #24]
    31a6:	9b07      	ldr	r3, [sp, #28]
    31a8:	f002 fc7e 	bl	5aa8 <__aeabi_dmul>
    31ac:	0022      	movs	r2, r4
    31ae:	002b      	movs	r3, r5
    31b0:	f001 fd2a 	bl	4c08 <__aeabi_dadd>
    31b4:	0032      	movs	r2, r6
    31b6:	900a      	str	r0, [sp, #40]	; 0x28
    31b8:	910b      	str	r1, [sp, #44]	; 0x2c
    31ba:	003b      	movs	r3, r7
    31bc:	0030      	movs	r0, r6
    31be:	0039      	movs	r1, r7
    31c0:	9602      	str	r6, [sp, #8]
    31c2:	9703      	str	r7, [sp, #12]
    31c4:	f002 fc70 	bl	5aa8 <__aeabi_dmul>
    31c8:	2200      	movs	r2, #0
    31ca:	4b89      	ldr	r3, [pc, #548]	; (33f0 <__ieee754_pow+0x604>)
    31cc:	0004      	movs	r4, r0
    31ce:	000d      	movs	r5, r1
    31d0:	f001 fd1a 	bl	4c08 <__aeabi_dadd>
    31d4:	9a0a      	ldr	r2, [sp, #40]	; 0x28
    31d6:	9b0b      	ldr	r3, [sp, #44]	; 0x2c
    31d8:	f001 fd16 	bl	4c08 <__aeabi_dadd>
    31dc:	2600      	movs	r6, #0
    31de:	000f      	movs	r7, r1
    31e0:	0032      	movs	r2, r6
    31e2:	000b      	movs	r3, r1
    31e4:	9802      	ldr	r0, [sp, #8]
    31e6:	9903      	ldr	r1, [sp, #12]
    31e8:	f002 fc5e 	bl	5aa8 <__aeabi_dmul>
    31ec:	2200      	movs	r2, #0
    31ee:	9002      	str	r0, [sp, #8]
    31f0:	9103      	str	r1, [sp, #12]
    31f2:	4b7f      	ldr	r3, [pc, #508]	; (33f0 <__ieee754_pow+0x604>)
    31f4:	0030      	movs	r0, r6
    31f6:	0039      	movs	r1, r7
    31f8:	f002 fed0 	bl	5f9c <__aeabi_dsub>
    31fc:	0022      	movs	r2, r4
    31fe:	002b      	movs	r3, r5
    3200:	f002 fecc 	bl	5f9c <__aeabi_dsub>
    3204:	0002      	movs	r2, r0
    3206:	000b      	movs	r3, r1
    3208:	980a      	ldr	r0, [sp, #40]	; 0x28
    320a:	990b      	ldr	r1, [sp, #44]	; 0x2c
    320c:	f002 fec6 	bl	5f9c <__aeabi_dsub>
    3210:	9a04      	ldr	r2, [sp, #16]
    3212:	9b05      	ldr	r3, [sp, #20]
    3214:	f002 fc48 	bl	5aa8 <__aeabi_dmul>
    3218:	0032      	movs	r2, r6
    321a:	0004      	movs	r4, r0
    321c:	000d      	movs	r5, r1
    321e:	9806      	ldr	r0, [sp, #24]
    3220:	9907      	ldr	r1, [sp, #28]
    3222:	003b      	movs	r3, r7
    3224:	f002 fc40 	bl	5aa8 <__aeabi_dmul>
    3228:	0002      	movs	r2, r0
    322a:	000b      	movs	r3, r1
    322c:	0020      	movs	r0, r4
    322e:	0029      	movs	r1, r5
    3230:	f001 fcea 	bl	4c08 <__aeabi_dadd>
    3234:	0004      	movs	r4, r0
    3236:	000d      	movs	r5, r1
    3238:	0002      	movs	r2, r0
    323a:	000b      	movs	r3, r1
    323c:	9802      	ldr	r0, [sp, #8]
    323e:	9903      	ldr	r1, [sp, #12]
    3240:	f001 fce2 	bl	4c08 <__aeabi_dadd>
    3244:	2600      	movs	r6, #0
    3246:	22e0      	movs	r2, #224	; 0xe0
    3248:	4b6a      	ldr	r3, [pc, #424]	; (33f4 <__ieee754_pow+0x608>)
    324a:	0612      	lsls	r2, r2, #24
    324c:	0030      	movs	r0, r6
    324e:	000f      	movs	r7, r1
    3250:	f002 fc2a 	bl	5aa8 <__aeabi_dmul>
    3254:	9a02      	ldr	r2, [sp, #8]
    3256:	9b03      	ldr	r3, [sp, #12]
    3258:	9004      	str	r0, [sp, #16]
    325a:	9105      	str	r1, [sp, #20]
    325c:	0030      	movs	r0, r6
    325e:	0039      	movs	r1, r7
    3260:	f002 fe9c 	bl	5f9c <__aeabi_dsub>
    3264:	0002      	movs	r2, r0
    3266:	000b      	movs	r3, r1
    3268:	0020      	movs	r0, r4
    326a:	0029      	movs	r1, r5
    326c:	f002 fe96 	bl	5f9c <__aeabi_dsub>
    3270:	4a61      	ldr	r2, [pc, #388]	; (33f8 <__ieee754_pow+0x60c>)
    3272:	4b60      	ldr	r3, [pc, #384]	; (33f4 <__ieee754_pow+0x608>)
    3274:	f002 fc18 	bl	5aa8 <__aeabi_dmul>
    3278:	4a60      	ldr	r2, [pc, #384]	; (33fc <__ieee754_pow+0x610>)
    327a:	0004      	movs	r4, r0
    327c:	000d      	movs	r5, r1
    327e:	4b60      	ldr	r3, [pc, #384]	; (3400 <__ieee754_pow+0x614>)
    3280:	0030      	movs	r0, r6
    3282:	0039      	movs	r1, r7
    3284:	f002 fc10 	bl	5aa8 <__aeabi_dmul>
    3288:	0002      	movs	r2, r0
    328a:	000b      	movs	r3, r1
    328c:	0020      	movs	r0, r4
    328e:	0029      	movs	r1, r5
    3290:	f001 fcba 	bl	4c08 <__aeabi_dadd>
    3294:	9a0c      	ldr	r2, [sp, #48]	; 0x30
    3296:	9b0d      	ldr	r3, [sp, #52]	; 0x34
    3298:	f001 fcb6 	bl	4c08 <__aeabi_dadd>
    329c:	0006      	movs	r6, r0
    329e:	4648      	mov	r0, r9
    32a0:	000f      	movs	r7, r1
    32a2:	f003 fa25 	bl	66f0 <__aeabi_i2d>
    32a6:	0004      	movs	r4, r0
    32a8:	000d      	movs	r5, r1
    32aa:	9804      	ldr	r0, [sp, #16]
    32ac:	9905      	ldr	r1, [sp, #20]
    32ae:	0032      	movs	r2, r6
    32b0:	003b      	movs	r3, r7
    32b2:	f001 fca9 	bl	4c08 <__aeabi_dadd>
    32b6:	9a08      	ldr	r2, [sp, #32]
    32b8:	9b09      	ldr	r3, [sp, #36]	; 0x24
    32ba:	f001 fca5 	bl	4c08 <__aeabi_dadd>
    32be:	0022      	movs	r2, r4
    32c0:	002b      	movs	r3, r5
    32c2:	f001 fca1 	bl	4c08 <__aeabi_dadd>
    32c6:	2000      	movs	r0, #0
    32c8:	0022      	movs	r2, r4
    32ca:	002b      	movs	r3, r5
    32cc:	9002      	str	r0, [sp, #8]
    32ce:	9103      	str	r1, [sp, #12]
    32d0:	f002 fe64 	bl	5f9c <__aeabi_dsub>
    32d4:	9a08      	ldr	r2, [sp, #32]
    32d6:	9b09      	ldr	r3, [sp, #36]	; 0x24
    32d8:	f002 fe60 	bl	5f9c <__aeabi_dsub>
    32dc:	9a04      	ldr	r2, [sp, #16]
    32de:	9b05      	ldr	r3, [sp, #20]
    32e0:	f002 fe5c 	bl	5f9c <__aeabi_dsub>
    32e4:	0002      	movs	r2, r0
    32e6:	000b      	movs	r3, r1
    32e8:	0030      	movs	r0, r6
    32ea:	0039      	movs	r1, r7
    32ec:	f002 fe56 	bl	5f9c <__aeabi_dsub>
    32f0:	9004      	str	r0, [sp, #16]
    32f2:	9105      	str	r1, [sp, #20]
    32f4:	465b      	mov	r3, fp
    32f6:	4642      	mov	r2, r8
    32f8:	3b01      	subs	r3, #1
    32fa:	4313      	orrs	r3, r2
    32fc:	d100      	bne.n	3300 <__ieee754_pow+0x514>
    32fe:	e197      	b.n	3630 <__ieee754_pow+0x844>
    3300:	2300      	movs	r3, #0
    3302:	4c2b      	ldr	r4, [pc, #172]	; (33b0 <__ieee754_pow+0x5c4>)
    3304:	9306      	str	r3, [sp, #24]
    3306:	9407      	str	r4, [sp, #28]
    3308:	9800      	ldr	r0, [sp, #0]
    330a:	9901      	ldr	r1, [sp, #4]
    330c:	2600      	movs	r6, #0
    330e:	000b      	movs	r3, r1
    3310:	0032      	movs	r2, r6
    3312:	000f      	movs	r7, r1
    3314:	f002 fe42 	bl	5f9c <__aeabi_dsub>
    3318:	9a02      	ldr	r2, [sp, #8]
    331a:	9b03      	ldr	r3, [sp, #12]
    331c:	f002 fbc4 	bl	5aa8 <__aeabi_dmul>
    3320:	9a00      	ldr	r2, [sp, #0]
    3322:	9b01      	ldr	r3, [sp, #4]
    3324:	0004      	movs	r4, r0
    3326:	000d      	movs	r5, r1
    3328:	9804      	ldr	r0, [sp, #16]
    332a:	9905      	ldr	r1, [sp, #20]
    332c:	f002 fbbc 	bl	5aa8 <__aeabi_dmul>
    3330:	0002      	movs	r2, r0
    3332:	000b      	movs	r3, r1
    3334:	0020      	movs	r0, r4
    3336:	0029      	movs	r1, r5
    3338:	f001 fc66 	bl	4c08 <__aeabi_dadd>
    333c:	0004      	movs	r4, r0
    333e:	000d      	movs	r5, r1
    3340:	9802      	ldr	r0, [sp, #8]
    3342:	9903      	ldr	r1, [sp, #12]
    3344:	003b      	movs	r3, r7
    3346:	0032      	movs	r2, r6
    3348:	9404      	str	r4, [sp, #16]
    334a:	9505      	str	r5, [sp, #20]
    334c:	f002 fbac 	bl	5aa8 <__aeabi_dmul>
    3350:	9000      	str	r0, [sp, #0]
    3352:	9101      	str	r1, [sp, #4]
    3354:	000b      	movs	r3, r1
    3356:	0002      	movs	r2, r0
    3358:	0029      	movs	r1, r5
    335a:	0020      	movs	r0, r4
    335c:	f001 fc54 	bl	4c08 <__aeabi_dadd>
    3360:	4b28      	ldr	r3, [pc, #160]	; (3404 <__ieee754_pow+0x618>)
    3362:	4681      	mov	r9, r0
    3364:	1e0f      	subs	r7, r1, #0
    3366:	468a      	mov	sl, r1
    3368:	429f      	cmp	r7, r3
    336a:	dc00      	bgt.n	336e <__ieee754_pow+0x582>
    336c:	e13c      	b.n	35e8 <__ieee754_pow+0x7fc>
    336e:	4b26      	ldr	r3, [pc, #152]	; (3408 <__ieee754_pow+0x61c>)
    3370:	18cb      	adds	r3, r1, r3
    3372:	4303      	orrs	r3, r0
    3374:	d000      	beq.n	3378 <__ieee754_pow+0x58c>
    3376:	e1db      	b.n	3730 <__ieee754_pow+0x944>
    3378:	9804      	ldr	r0, [sp, #16]
    337a:	9905      	ldr	r1, [sp, #20]
    337c:	4a23      	ldr	r2, [pc, #140]	; (340c <__ieee754_pow+0x620>)
    337e:	4b24      	ldr	r3, [pc, #144]	; (3410 <__ieee754_pow+0x624>)
    3380:	f001 fc42 	bl	4c08 <__aeabi_dadd>
    3384:	9a00      	ldr	r2, [sp, #0]
    3386:	9b01      	ldr	r3, [sp, #4]
    3388:	0004      	movs	r4, r0
    338a:	000d      	movs	r5, r1
    338c:	4648      	mov	r0, r9
    338e:	0039      	movs	r1, r7
    3390:	f002 fe04 	bl	5f9c <__aeabi_dsub>
    3394:	0002      	movs	r2, r0
    3396:	000b      	movs	r3, r1
    3398:	0020      	movs	r0, r4
    339a:	0029      	movs	r1, r5
    339c:	f001 f81c 	bl	43d8 <__aeabi_dcmpgt>
    33a0:	003e      	movs	r6, r7
    33a2:	e037      	b.n	3414 <__ieee754_pow+0x628>
    33a4:	000fffff 	.word	0x000fffff
    33a8:	43400000 	.word	0x43400000
    33ac:	fffffc01 	.word	0xfffffc01
    33b0:	3ff00000 	.word	0x3ff00000
    33b4:	0003988e 	.word	0x0003988e
    33b8:	000bb679 	.word	0x000bb679
    33bc:	fff00000 	.word	0xfff00000
    33c0:	4a454eef 	.word	0x4a454eef
    33c4:	3fca7e28 	.word	0x3fca7e28
    33c8:	93c9db65 	.word	0x93c9db65
    33cc:	3fcd864a 	.word	0x3fcd864a
    33d0:	a91d4101 	.word	0xa91d4101
    33d4:	3fd17460 	.word	0x3fd17460
    33d8:	518f264d 	.word	0x518f264d
    33dc:	3fd55555 	.word	0x3fd55555
    33e0:	db6fabff 	.word	0xdb6fabff
    33e4:	3fdb6db6 	.word	0x3fdb6db6
    33e8:	33333303 	.word	0x33333303
    33ec:	3fe33333 	.word	0x3fe33333
    33f0:	40080000 	.word	0x40080000
    33f4:	3feec709 	.word	0x3feec709
    33f8:	dc3a03fd 	.word	0xdc3a03fd
    33fc:	145b01f5 	.word	0x145b01f5
    3400:	be3e2fe0 	.word	0xbe3e2fe0
    3404:	408fffff 	.word	0x408fffff
    3408:	bf700000 	.word	0xbf700000
    340c:	652b82fe 	.word	0x652b82fe
    3410:	3c971547 	.word	0x3c971547
    3414:	2800      	cmp	r0, #0
    3416:	d000      	beq.n	341a <__ieee754_pow+0x62e>
    3418:	e18a      	b.n	3730 <__ieee754_pow+0x944>
    341a:	2280      	movs	r2, #128	; 0x80
    341c:	4be7      	ldr	r3, [pc, #924]	; (37bc <__ieee754_pow+0x9d0>)
    341e:	0352      	lsls	r2, r2, #13
    3420:	469c      	mov	ip, r3
    3422:	0013      	movs	r3, r2
    3424:	1536      	asrs	r6, r6, #20
    3426:	4466      	add	r6, ip
    3428:	4133      	asrs	r3, r6
    342a:	49e5      	ldr	r1, [pc, #916]	; (37c0 <__ieee754_pow+0x9d4>)
    342c:	19db      	adds	r3, r3, r7
    342e:	005e      	lsls	r6, r3, #1
    3430:	001c      	movs	r4, r3
    3432:	031b      	lsls	r3, r3, #12
    3434:	468c      	mov	ip, r1
    3436:	0b1b      	lsrs	r3, r3, #12
    3438:	4313      	orrs	r3, r2
    343a:	2214      	movs	r2, #20
    343c:	0d76      	lsrs	r6, r6, #21
    343e:	4fe1      	ldr	r7, [pc, #900]	; (37c4 <__ieee754_pow+0x9d8>)
    3440:	4466      	add	r6, ip
    3442:	4137      	asrs	r7, r6
    3444:	1b96      	subs	r6, r2, r6
    3446:	4133      	asrs	r3, r6
    3448:	4698      	mov	r8, r3
    344a:	4653      	mov	r3, sl
    344c:	43bc      	bics	r4, r7
    344e:	2000      	movs	r0, #0
    3450:	0021      	movs	r1, r4
    3452:	2b00      	cmp	r3, #0
    3454:	da00      	bge.n	3458 <__ieee754_pow+0x66c>
    3456:	e1a9      	b.n	37ac <__ieee754_pow+0x9c0>
    3458:	0002      	movs	r2, r0
    345a:	000b      	movs	r3, r1
    345c:	9800      	ldr	r0, [sp, #0]
    345e:	9901      	ldr	r1, [sp, #4]
    3460:	f002 fd9c 	bl	5f9c <__aeabi_dsub>
    3464:	000b      	movs	r3, r1
    3466:	9000      	str	r0, [sp, #0]
    3468:	9101      	str	r1, [sp, #4]
    346a:	0002      	movs	r2, r0
    346c:	9804      	ldr	r0, [sp, #16]
    346e:	9905      	ldr	r1, [sp, #20]
    3470:	f001 fbca 	bl	4c08 <__aeabi_dadd>
    3474:	4643      	mov	r3, r8
    3476:	051b      	lsls	r3, r3, #20
    3478:	4699      	mov	r9, r3
    347a:	2000      	movs	r0, #0
    347c:	2200      	movs	r2, #0
    347e:	4bd2      	ldr	r3, [pc, #840]	; (37c8 <__ieee754_pow+0x9dc>)
    3480:	0006      	movs	r6, r0
    3482:	000f      	movs	r7, r1
    3484:	f002 fb10 	bl	5aa8 <__aeabi_dmul>
    3488:	9a00      	ldr	r2, [sp, #0]
    348a:	9b01      	ldr	r3, [sp, #4]
    348c:	9002      	str	r0, [sp, #8]
    348e:	9103      	str	r1, [sp, #12]
    3490:	0030      	movs	r0, r6
    3492:	0039      	movs	r1, r7
    3494:	f002 fd82 	bl	5f9c <__aeabi_dsub>
    3498:	0002      	movs	r2, r0
    349a:	000b      	movs	r3, r1
    349c:	9804      	ldr	r0, [sp, #16]
    349e:	9905      	ldr	r1, [sp, #20]
    34a0:	f002 fd7c 	bl	5f9c <__aeabi_dsub>
    34a4:	4ac9      	ldr	r2, [pc, #804]	; (37cc <__ieee754_pow+0x9e0>)
    34a6:	4bca      	ldr	r3, [pc, #808]	; (37d0 <__ieee754_pow+0x9e4>)
    34a8:	f002 fafe 	bl	5aa8 <__aeabi_dmul>
    34ac:	4ac9      	ldr	r2, [pc, #804]	; (37d4 <__ieee754_pow+0x9e8>)
    34ae:	0004      	movs	r4, r0
    34b0:	000d      	movs	r5, r1
    34b2:	4bc9      	ldr	r3, [pc, #804]	; (37d8 <__ieee754_pow+0x9ec>)
    34b4:	0030      	movs	r0, r6
    34b6:	0039      	movs	r1, r7
    34b8:	f002 faf6 	bl	5aa8 <__aeabi_dmul>
    34bc:	0002      	movs	r2, r0
    34be:	000b      	movs	r3, r1
    34c0:	0020      	movs	r0, r4
    34c2:	0029      	movs	r1, r5
    34c4:	f001 fba0 	bl	4c08 <__aeabi_dadd>
    34c8:	0004      	movs	r4, r0
    34ca:	000d      	movs	r5, r1
    34cc:	0002      	movs	r2, r0
    34ce:	000b      	movs	r3, r1
    34d0:	9802      	ldr	r0, [sp, #8]
    34d2:	9903      	ldr	r1, [sp, #12]
    34d4:	f001 fb98 	bl	4c08 <__aeabi_dadd>
    34d8:	9a02      	ldr	r2, [sp, #8]
    34da:	9b03      	ldr	r3, [sp, #12]
    34dc:	0006      	movs	r6, r0
    34de:	000f      	movs	r7, r1
    34e0:	f002 fd5c 	bl	5f9c <__aeabi_dsub>
    34e4:	0002      	movs	r2, r0
    34e6:	000b      	movs	r3, r1
    34e8:	0020      	movs	r0, r4
    34ea:	0029      	movs	r1, r5
    34ec:	f002 fd56 	bl	5f9c <__aeabi_dsub>
    34f0:	0032      	movs	r2, r6
    34f2:	9000      	str	r0, [sp, #0]
    34f4:	9101      	str	r1, [sp, #4]
    34f6:	003b      	movs	r3, r7
    34f8:	0030      	movs	r0, r6
    34fa:	0039      	movs	r1, r7
    34fc:	f002 fad4 	bl	5aa8 <__aeabi_dmul>
    3500:	0004      	movs	r4, r0
    3502:	000d      	movs	r5, r1
    3504:	4ab5      	ldr	r2, [pc, #724]	; (37dc <__ieee754_pow+0x9f0>)
    3506:	4bb6      	ldr	r3, [pc, #728]	; (37e0 <__ieee754_pow+0x9f4>)
    3508:	f002 face 	bl	5aa8 <__aeabi_dmul>
    350c:	4ab5      	ldr	r2, [pc, #724]	; (37e4 <__ieee754_pow+0x9f8>)
    350e:	4bb6      	ldr	r3, [pc, #728]	; (37e8 <__ieee754_pow+0x9fc>)
    3510:	f002 fd44 	bl	5f9c <__aeabi_dsub>
    3514:	0022      	movs	r2, r4
    3516:	002b      	movs	r3, r5
    3518:	f002 fac6 	bl	5aa8 <__aeabi_dmul>
    351c:	4ab3      	ldr	r2, [pc, #716]	; (37ec <__ieee754_pow+0xa00>)
    351e:	4bb4      	ldr	r3, [pc, #720]	; (37f0 <__ieee754_pow+0xa04>)
    3520:	f001 fb72 	bl	4c08 <__aeabi_dadd>
    3524:	0022      	movs	r2, r4
    3526:	002b      	movs	r3, r5
    3528:	f002 fabe 	bl	5aa8 <__aeabi_dmul>
    352c:	4ab1      	ldr	r2, [pc, #708]	; (37f4 <__ieee754_pow+0xa08>)
    352e:	4bb2      	ldr	r3, [pc, #712]	; (37f8 <__ieee754_pow+0xa0c>)
    3530:	f002 fd34 	bl	5f9c <__aeabi_dsub>
    3534:	0022      	movs	r2, r4
    3536:	002b      	movs	r3, r5
    3538:	f002 fab6 	bl	5aa8 <__aeabi_dmul>
    353c:	4aaf      	ldr	r2, [pc, #700]	; (37fc <__ieee754_pow+0xa10>)
    353e:	4bb0      	ldr	r3, [pc, #704]	; (3800 <__ieee754_pow+0xa14>)
    3540:	f001 fb62 	bl	4c08 <__aeabi_dadd>
    3544:	0022      	movs	r2, r4
    3546:	002b      	movs	r3, r5
    3548:	f002 faae 	bl	5aa8 <__aeabi_dmul>
    354c:	0002      	movs	r2, r0
    354e:	000b      	movs	r3, r1
    3550:	0030      	movs	r0, r6
    3552:	0039      	movs	r1, r7
    3554:	f002 fd22 	bl	5f9c <__aeabi_dsub>
    3558:	0004      	movs	r4, r0
    355a:	000d      	movs	r5, r1
    355c:	0002      	movs	r2, r0
    355e:	000b      	movs	r3, r1
    3560:	0030      	movs	r0, r6
    3562:	0039      	movs	r1, r7
    3564:	f002 faa0 	bl	5aa8 <__aeabi_dmul>
    3568:	2380      	movs	r3, #128	; 0x80
    356a:	9002      	str	r0, [sp, #8]
    356c:	9103      	str	r1, [sp, #12]
    356e:	2200      	movs	r2, #0
    3570:	05db      	lsls	r3, r3, #23
    3572:	0020      	movs	r0, r4
    3574:	0029      	movs	r1, r5
    3576:	f002 fd11 	bl	5f9c <__aeabi_dsub>
    357a:	0002      	movs	r2, r0
    357c:	000b      	movs	r3, r1
    357e:	9802      	ldr	r0, [sp, #8]
    3580:	9903      	ldr	r1, [sp, #12]
    3582:	f001 fe6d 	bl	5260 <__aeabi_ddiv>
    3586:	9a00      	ldr	r2, [sp, #0]
    3588:	9b01      	ldr	r3, [sp, #4]
    358a:	0004      	movs	r4, r0
    358c:	000d      	movs	r5, r1
    358e:	0030      	movs	r0, r6
    3590:	0039      	movs	r1, r7
    3592:	f002 fa89 	bl	5aa8 <__aeabi_dmul>
    3596:	9a00      	ldr	r2, [sp, #0]
    3598:	9b01      	ldr	r3, [sp, #4]
    359a:	f001 fb35 	bl	4c08 <__aeabi_dadd>
    359e:	0002      	movs	r2, r0
    35a0:	000b      	movs	r3, r1
    35a2:	0020      	movs	r0, r4
    35a4:	0029      	movs	r1, r5
    35a6:	f002 fcf9 	bl	5f9c <__aeabi_dsub>
    35aa:	0032      	movs	r2, r6
    35ac:	003b      	movs	r3, r7
    35ae:	f002 fcf5 	bl	5f9c <__aeabi_dsub>
    35b2:	0002      	movs	r2, r0
    35b4:	000b      	movs	r3, r1
    35b6:	2000      	movs	r0, #0
    35b8:	4992      	ldr	r1, [pc, #584]	; (3804 <__ieee754_pow+0xa18>)
    35ba:	f002 fcef 	bl	5f9c <__aeabi_dsub>
    35be:	464b      	mov	r3, r9
    35c0:	185b      	adds	r3, r3, r1
    35c2:	151a      	asrs	r2, r3, #20
    35c4:	2a00      	cmp	r2, #0
    35c6:	dc00      	bgt.n	35ca <__ieee754_pow+0x7de>
    35c8:	e0f4      	b.n	37b4 <__ieee754_pow+0x9c8>
    35ca:	0019      	movs	r1, r3
    35cc:	9a06      	ldr	r2, [sp, #24]
    35ce:	9b07      	ldr	r3, [sp, #28]
    35d0:	f002 fa6a 	bl	5aa8 <__aeabi_dmul>
    35d4:	0006      	movs	r6, r0
    35d6:	e452      	b.n	2e7e <__ieee754_pow+0x92>
    35d8:	0032      	movs	r2, r6
    35da:	0030      	movs	r0, r6
    35dc:	002b      	movs	r3, r5
    35de:	0029      	movs	r1, r5
    35e0:	f002 fa62 	bl	5aa8 <__aeabi_dmul>
    35e4:	0006      	movs	r6, r0
    35e6:	e44a      	b.n	2e7e <__ieee754_pow+0x92>
    35e8:	4b87      	ldr	r3, [pc, #540]	; (3808 <__ieee754_pow+0xa1c>)
    35ea:	004e      	lsls	r6, r1, #1
    35ec:	0876      	lsrs	r6, r6, #1
    35ee:	429e      	cmp	r6, r3
    35f0:	dc00      	bgt.n	35f4 <__ieee754_pow+0x808>
    35f2:	e0bf      	b.n	3774 <__ieee754_pow+0x988>
    35f4:	4b85      	ldr	r3, [pc, #532]	; (380c <__ieee754_pow+0xa20>)
    35f6:	18cb      	adds	r3, r1, r3
    35f8:	4303      	orrs	r3, r0
    35fa:	d10c      	bne.n	3616 <__ieee754_pow+0x82a>
    35fc:	9a00      	ldr	r2, [sp, #0]
    35fe:	9b01      	ldr	r3, [sp, #4]
    3600:	f002 fccc 	bl	5f9c <__aeabi_dsub>
    3604:	0002      	movs	r2, r0
    3606:	000b      	movs	r3, r1
    3608:	9804      	ldr	r0, [sp, #16]
    360a:	9905      	ldr	r1, [sp, #20]
    360c:	f000 feda 	bl	43c4 <__aeabi_dcmple>
    3610:	2800      	cmp	r0, #0
    3612:	d100      	bne.n	3616 <__ieee754_pow+0x82a>
    3614:	e701      	b.n	341a <__ieee754_pow+0x62e>
    3616:	9806      	ldr	r0, [sp, #24]
    3618:	9907      	ldr	r1, [sp, #28]
    361a:	4a7d      	ldr	r2, [pc, #500]	; (3810 <__ieee754_pow+0xa24>)
    361c:	4b7d      	ldr	r3, [pc, #500]	; (3814 <__ieee754_pow+0xa28>)
    361e:	f002 fa43 	bl	5aa8 <__aeabi_dmul>
    3622:	4a7b      	ldr	r2, [pc, #492]	; (3810 <__ieee754_pow+0xa24>)
    3624:	4b7b      	ldr	r3, [pc, #492]	; (3814 <__ieee754_pow+0xa28>)
    3626:	f002 fa3f 	bl	5aa8 <__aeabi_dmul>
    362a:	0006      	movs	r6, r0
    362c:	f7ff fc27 	bl	2e7e <__ieee754_pow+0x92>
    3630:	2300      	movs	r3, #0
    3632:	4c79      	ldr	r4, [pc, #484]	; (3818 <__ieee754_pow+0xa2c>)
    3634:	9306      	str	r3, [sp, #24]
    3636:	9407      	str	r4, [sp, #28]
    3638:	e666      	b.n	3308 <__ieee754_pow+0x51c>
    363a:	4653      	mov	r3, sl
    363c:	2b00      	cmp	r3, #0
    363e:	db00      	blt.n	3642 <__ieee754_pow+0x856>
    3640:	e4c3      	b.n	2fca <__ieee754_pow+0x1de>
    3642:	9b00      	ldr	r3, [sp, #0]
    3644:	9c01      	ldr	r4, [sp, #4]
    3646:	2280      	movs	r2, #128	; 0x80
    3648:	0612      	lsls	r2, r2, #24
    364a:	001e      	movs	r6, r3
    364c:	4694      	mov	ip, r2
    364e:	0023      	movs	r3, r4
    3650:	4463      	add	r3, ip
    3652:	0019      	movs	r1, r3
    3654:	f7ff fc13 	bl	2e7e <__ieee754_pow+0x92>
    3658:	0002      	movs	r2, r0
    365a:	000b      	movs	r3, r1
    365c:	2000      	movs	r0, #0
    365e:	4969      	ldr	r1, [pc, #420]	; (3804 <__ieee754_pow+0xa18>)
    3660:	f001 fdfe 	bl	5260 <__aeabi_ddiv>
    3664:	e44a      	b.n	2efc <__ieee754_pow+0x110>
    3666:	4b6d      	ldr	r3, [pc, #436]	; (381c <__ieee754_pow+0xa30>)
    3668:	429c      	cmp	r4, r3
    366a:	dc00      	bgt.n	366e <__ieee754_pow+0x882>
    366c:	e4aa      	b.n	2fc4 <__ieee754_pow+0x1d8>
    366e:	4b65      	ldr	r3, [pc, #404]	; (3804 <__ieee754_pow+0xa18>)
    3670:	429c      	cmp	r4, r3
    3672:	dd01      	ble.n	3678 <__ieee754_pow+0x88c>
    3674:	f7ff fc2c 	bl	2ed0 <__ieee754_pow+0xe4>
    3678:	2200      	movs	r2, #0
    367a:	4b62      	ldr	r3, [pc, #392]	; (3804 <__ieee754_pow+0xa18>)
    367c:	f002 fc8e 	bl	5f9c <__aeabi_dsub>
    3680:	22c0      	movs	r2, #192	; 0xc0
    3682:	4b67      	ldr	r3, [pc, #412]	; (3820 <__ieee754_pow+0xa34>)
    3684:	05d2      	lsls	r2, r2, #23
    3686:	0004      	movs	r4, r0
    3688:	000d      	movs	r5, r1
    368a:	f002 fa0d 	bl	5aa8 <__aeabi_dmul>
    368e:	4a65      	ldr	r2, [pc, #404]	; (3824 <__ieee754_pow+0xa38>)
    3690:	0006      	movs	r6, r0
    3692:	000f      	movs	r7, r1
    3694:	4b64      	ldr	r3, [pc, #400]	; (3828 <__ieee754_pow+0xa3c>)
    3696:	0020      	movs	r0, r4
    3698:	0029      	movs	r1, r5
    369a:	f002 fa05 	bl	5aa8 <__aeabi_dmul>
    369e:	2200      	movs	r2, #0
    36a0:	9002      	str	r0, [sp, #8]
    36a2:	9103      	str	r1, [sp, #12]
    36a4:	4b61      	ldr	r3, [pc, #388]	; (382c <__ieee754_pow+0xa40>)
    36a6:	0020      	movs	r0, r4
    36a8:	0029      	movs	r1, r5
    36aa:	f002 f9fd 	bl	5aa8 <__aeabi_dmul>
    36ae:	0002      	movs	r2, r0
    36b0:	000b      	movs	r3, r1
    36b2:	485f      	ldr	r0, [pc, #380]	; (3830 <__ieee754_pow+0xa44>)
    36b4:	495f      	ldr	r1, [pc, #380]	; (3834 <__ieee754_pow+0xa48>)
    36b6:	f002 fc71 	bl	5f9c <__aeabi_dsub>
    36ba:	0022      	movs	r2, r4
    36bc:	002b      	movs	r3, r5
    36be:	f002 f9f3 	bl	5aa8 <__aeabi_dmul>
    36c2:	0002      	movs	r2, r0
    36c4:	000b      	movs	r3, r1
    36c6:	2000      	movs	r0, #0
    36c8:	495b      	ldr	r1, [pc, #364]	; (3838 <__ieee754_pow+0xa4c>)
    36ca:	f002 fc67 	bl	5f9c <__aeabi_dsub>
    36ce:	0022      	movs	r2, r4
    36d0:	9004      	str	r0, [sp, #16]
    36d2:	9105      	str	r1, [sp, #20]
    36d4:	002b      	movs	r3, r5
    36d6:	0020      	movs	r0, r4
    36d8:	0029      	movs	r1, r5
    36da:	f002 f9e5 	bl	5aa8 <__aeabi_dmul>
    36de:	0002      	movs	r2, r0
    36e0:	000b      	movs	r3, r1
    36e2:	9804      	ldr	r0, [sp, #16]
    36e4:	9905      	ldr	r1, [sp, #20]
    36e6:	f002 f9df 	bl	5aa8 <__aeabi_dmul>
    36ea:	4a54      	ldr	r2, [pc, #336]	; (383c <__ieee754_pow+0xa50>)
    36ec:	4b4c      	ldr	r3, [pc, #304]	; (3820 <__ieee754_pow+0xa34>)
    36ee:	f002 f9db 	bl	5aa8 <__aeabi_dmul>
    36f2:	0002      	movs	r2, r0
    36f4:	000b      	movs	r3, r1
    36f6:	9802      	ldr	r0, [sp, #8]
    36f8:	9903      	ldr	r1, [sp, #12]
    36fa:	f002 fc4f 	bl	5f9c <__aeabi_dsub>
    36fe:	0002      	movs	r2, r0
    3700:	000b      	movs	r3, r1
    3702:	0004      	movs	r4, r0
    3704:	000d      	movs	r5, r1
    3706:	0030      	movs	r0, r6
    3708:	0039      	movs	r1, r7
    370a:	f001 fa7d 	bl	4c08 <__aeabi_dadd>
    370e:	2200      	movs	r2, #0
    3710:	0010      	movs	r0, r2
    3712:	003b      	movs	r3, r7
    3714:	0032      	movs	r2, r6
    3716:	9002      	str	r0, [sp, #8]
    3718:	9103      	str	r1, [sp, #12]
    371a:	f002 fc3f 	bl	5f9c <__aeabi_dsub>
    371e:	0002      	movs	r2, r0
    3720:	000b      	movs	r3, r1
    3722:	0020      	movs	r0, r4
    3724:	0029      	movs	r1, r5
    3726:	f002 fc39 	bl	5f9c <__aeabi_dsub>
    372a:	9004      	str	r0, [sp, #16]
    372c:	9105      	str	r1, [sp, #20]
    372e:	e5e1      	b.n	32f4 <__ieee754_pow+0x508>
    3730:	4a43      	ldr	r2, [pc, #268]	; (3840 <__ieee754_pow+0xa54>)
    3732:	4b44      	ldr	r3, [pc, #272]	; (3844 <__ieee754_pow+0xa58>)
    3734:	9806      	ldr	r0, [sp, #24]
    3736:	9907      	ldr	r1, [sp, #28]
    3738:	f002 f9b6 	bl	5aa8 <__aeabi_dmul>
    373c:	4a40      	ldr	r2, [pc, #256]	; (3840 <__ieee754_pow+0xa54>)
    373e:	4b41      	ldr	r3, [pc, #260]	; (3844 <__ieee754_pow+0xa58>)
    3740:	f002 f9b2 	bl	5aa8 <__aeabi_dmul>
    3744:	0006      	movs	r6, r0
    3746:	f7ff fb9a 	bl	2e7e <__ieee754_pow+0x92>
    374a:	2a00      	cmp	r2, #0
    374c:	d001      	beq.n	3752 <__ieee754_pow+0x966>
    374e:	f7ff fba5 	bl	2e9c <__ieee754_pow+0xb0>
    3752:	3214      	adds	r2, #20
    3754:	1ad3      	subs	r3, r2, r3
    3756:	003a      	movs	r2, r7
    3758:	411a      	asrs	r2, r3
    375a:	0011      	movs	r1, r2
    375c:	4099      	lsls	r1, r3
    375e:	428f      	cmp	r7, r1
    3760:	d001      	beq.n	3766 <__ieee754_pow+0x97a>
    3762:	f7ff fb6f 	bl	2e44 <__ieee754_pow+0x58>
    3766:	2301      	movs	r3, #1
    3768:	4013      	ands	r3, r2
    376a:	2202      	movs	r2, #2
    376c:	1ad3      	subs	r3, r2, r3
    376e:	469b      	mov	fp, r3
    3770:	f7ff fb68 	bl	2e44 <__ieee754_pow+0x58>
    3774:	4b30      	ldr	r3, [pc, #192]	; (3838 <__ieee754_pow+0xa4c>)
    3776:	429e      	cmp	r6, r3
    3778:	dd00      	ble.n	377c <__ieee754_pow+0x990>
    377a:	e64e      	b.n	341a <__ieee754_pow+0x62e>
    377c:	2300      	movs	r3, #0
    377e:	4699      	mov	r9, r3
    3780:	4698      	mov	r8, r3
    3782:	e67a      	b.n	347a <__ieee754_pow+0x68e>
    3784:	0002      	movs	r2, r0
    3786:	000b      	movs	r3, r1
    3788:	f7ff fc14 	bl	2fb4 <__ieee754_pow+0x1c8>
    378c:	2380      	movs	r3, #128	; 0x80
    378e:	4c2e      	ldr	r4, [pc, #184]	; (3848 <__ieee754_pow+0xa5c>)
    3790:	05db      	lsls	r3, r3, #23
    3792:	9308      	str	r3, [sp, #32]
    3794:	9409      	str	r4, [sp, #36]	; 0x24
    3796:	4b2d      	ldr	r3, [pc, #180]	; (384c <__ieee754_pow+0xa60>)
    3798:	4c2d      	ldr	r4, [pc, #180]	; (3850 <__ieee754_pow+0xa64>)
    379a:	2200      	movs	r2, #0
    379c:	930c      	str	r3, [sp, #48]	; 0x30
    379e:	940d      	str	r4, [sp, #52]	; 0x34
    37a0:	2480      	movs	r4, #128	; 0x80
    37a2:	4b2c      	ldr	r3, [pc, #176]	; (3854 <__ieee754_pow+0xa68>)
    37a4:	02e4      	lsls	r4, r4, #11
    37a6:	9206      	str	r2, [sp, #24]
    37a8:	9307      	str	r3, [sp, #28]
    37aa:	e456      	b.n	305a <__ieee754_pow+0x26e>
    37ac:	4643      	mov	r3, r8
    37ae:	425b      	negs	r3, r3
    37b0:	4698      	mov	r8, r3
    37b2:	e651      	b.n	3458 <__ieee754_pow+0x66c>
    37b4:	4642      	mov	r2, r8
    37b6:	f000 f9fd 	bl	3bb4 <scalbn>
    37ba:	e707      	b.n	35cc <__ieee754_pow+0x7e0>
    37bc:	fffffc02 	.word	0xfffffc02
    37c0:	fffffc01 	.word	0xfffffc01
    37c4:	000fffff 	.word	0x000fffff
    37c8:	3fe62e43 	.word	0x3fe62e43
    37cc:	fefa39ef 	.word	0xfefa39ef
    37d0:	3fe62e42 	.word	0x3fe62e42
    37d4:	0ca86c39 	.word	0x0ca86c39
    37d8:	be205c61 	.word	0xbe205c61
    37dc:	72bea4d0 	.word	0x72bea4d0
    37e0:	3e663769 	.word	0x3e663769
    37e4:	c5d26bf1 	.word	0xc5d26bf1
    37e8:	3ebbbd41 	.word	0x3ebbbd41
    37ec:	af25de2c 	.word	0xaf25de2c
    37f0:	3f11566a 	.word	0x3f11566a
    37f4:	16bebd93 	.word	0x16bebd93
    37f8:	3f66c16c 	.word	0x3f66c16c
    37fc:	5555553e 	.word	0x5555553e
    3800:	3fc55555 	.word	0x3fc55555
    3804:	3ff00000 	.word	0x3ff00000
    3808:	4090cbff 	.word	0x4090cbff
    380c:	3f6f3400 	.word	0x3f6f3400
    3810:	c2f8f359 	.word	0xc2f8f359
    3814:	01a56e1f 	.word	0x01a56e1f
    3818:	bff00000 	.word	0xbff00000
    381c:	3feffffe 	.word	0x3feffffe
    3820:	3ff71547 	.word	0x3ff71547
    3824:	f85ddf44 	.word	0xf85ddf44
    3828:	3e54ae0b 	.word	0x3e54ae0b
    382c:	3fd00000 	.word	0x3fd00000
    3830:	55555555 	.word	0x55555555
    3834:	3fd55555 	.word	0x3fd55555
    3838:	3fe00000 	.word	0x3fe00000
    383c:	652b82fe 	.word	0x652b82fe
    3840:	8800759c 	.word	0x8800759c
    3844:	7e37e43c 	.word	0x7e37e43c
    3848:	3fe2b803 	.word	0x3fe2b803
    384c:	43cfd006 	.word	0x43cfd006
    3850:	3e4cfdeb 	.word	0x3e4cfdeb
    3854:	3ff80000 	.word	0x3ff80000

00003858 <__ieee754_sqrt>:
    3858:	b5f0      	push	{r4, r5, r6, r7, lr}
    385a:	4656      	mov	r6, sl
    385c:	464d      	mov	r5, r9
    385e:	4644      	mov	r4, r8
    3860:	465f      	mov	r7, fp
    3862:	4b75      	ldr	r3, [pc, #468]	; (3a38 <__ieee754_sqrt+0x1e0>)
    3864:	b4f0      	push	{r4, r5, r6, r7}
    3866:	000a      	movs	r2, r1
    3868:	000d      	movs	r5, r1
    386a:	0019      	movs	r1, r3
    386c:	b083      	sub	sp, #12
    386e:	0006      	movs	r6, r0
    3870:	0004      	movs	r4, r0
    3872:	4029      	ands	r1, r5
    3874:	4299      	cmp	r1, r3
    3876:	d100      	bne.n	387a <__ieee754_sqrt+0x22>
    3878:	e0ba      	b.n	39f0 <__ieee754_sqrt+0x198>
    387a:	2d00      	cmp	r5, #0
    387c:	dc00      	bgt.n	3880 <__ieee754_sqrt+0x28>
    387e:	e094      	b.n	39aa <__ieee754_sqrt+0x152>
    3880:	152d      	asrs	r5, r5, #20
    3882:	d100      	bne.n	3886 <__ieee754_sqrt+0x2e>
    3884:	e0a3      	b.n	39ce <__ieee754_sqrt+0x176>
    3886:	4b6d      	ldr	r3, [pc, #436]	; (3a3c <__ieee754_sqrt+0x1e4>)
    3888:	0312      	lsls	r2, r2, #12
    388a:	469c      	mov	ip, r3
    388c:	2380      	movs	r3, #128	; 0x80
    388e:	0b12      	lsrs	r2, r2, #12
    3890:	035b      	lsls	r3, r3, #13
    3892:	4465      	add	r5, ip
    3894:	431a      	orrs	r2, r3
    3896:	07eb      	lsls	r3, r5, #31
    3898:	d500      	bpl.n	389c <__ieee754_sqrt+0x44>
    389a:	e081      	b.n	39a0 <__ieee754_sqrt+0x148>
    389c:	106b      	asrs	r3, r5, #1
    389e:	4698      	mov	r8, r3
    38a0:	0fe3      	lsrs	r3, r4, #31
    38a2:	189b      	adds	r3, r3, r2
    38a4:	189b      	adds	r3, r3, r2
    38a6:	2280      	movs	r2, #128	; 0x80
    38a8:	2116      	movs	r1, #22
    38aa:	2600      	movs	r6, #0
    38ac:	2700      	movs	r7, #0
    38ae:	0064      	lsls	r4, r4, #1
    38b0:	0392      	lsls	r2, r2, #14
    38b2:	18b8      	adds	r0, r7, r2
    38b4:	4298      	cmp	r0, r3
    38b6:	dc02      	bgt.n	38be <__ieee754_sqrt+0x66>
    38b8:	1887      	adds	r7, r0, r2
    38ba:	1a1b      	subs	r3, r3, r0
    38bc:	18b6      	adds	r6, r6, r2
    38be:	0fe0      	lsrs	r0, r4, #31
    38c0:	005b      	lsls	r3, r3, #1
    38c2:	3901      	subs	r1, #1
    38c4:	181b      	adds	r3, r3, r0
    38c6:	0064      	lsls	r4, r4, #1
    38c8:	0852      	lsrs	r2, r2, #1
    38ca:	2900      	cmp	r1, #0
    38cc:	d1f1      	bne.n	38b2 <__ieee754_sqrt+0x5a>
    38ce:	2200      	movs	r2, #0
    38d0:	9201      	str	r2, [sp, #4]
    38d2:	4694      	mov	ip, r2
    38d4:	2280      	movs	r2, #128	; 0x80
    38d6:	0612      	lsls	r2, r2, #24
    38d8:	2020      	movs	r0, #32
    38da:	4691      	mov	r9, r2
    38dc:	e009      	b.n	38f2 <__ieee754_sqrt+0x9a>
    38de:	429f      	cmp	r7, r3
    38e0:	d041      	beq.n	3966 <__ieee754_sqrt+0x10e>
    38e2:	0fe1      	lsrs	r1, r4, #31
    38e4:	18c9      	adds	r1, r1, r3
    38e6:	3801      	subs	r0, #1
    38e8:	18cb      	adds	r3, r1, r3
    38ea:	0064      	lsls	r4, r4, #1
    38ec:	0852      	lsrs	r2, r2, #1
    38ee:	2800      	cmp	r0, #0
    38f0:	d01e      	beq.n	3930 <__ieee754_sqrt+0xd8>
    38f2:	4661      	mov	r1, ip
    38f4:	1851      	adds	r1, r2, r1
    38f6:	429f      	cmp	r7, r3
    38f8:	daf1      	bge.n	38de <__ieee754_sqrt+0x86>
    38fa:	188d      	adds	r5, r1, r2
    38fc:	46ac      	mov	ip, r5
    38fe:	0fcd      	lsrs	r5, r1, #31
    3900:	07ed      	lsls	r5, r5, #31
    3902:	46ba      	mov	sl, r7
    3904:	454d      	cmp	r5, r9
    3906:	d039      	beq.n	397c <__ieee754_sqrt+0x124>
    3908:	1bdb      	subs	r3, r3, r7
    390a:	428c      	cmp	r4, r1
    390c:	41bf      	sbcs	r7, r7
    390e:	427f      	negs	r7, r7
    3910:	1bdb      	subs	r3, r3, r7
    3912:	1a64      	subs	r4, r4, r1
    3914:	9901      	ldr	r1, [sp, #4]
    3916:	3801      	subs	r0, #1
    3918:	468b      	mov	fp, r1
    391a:	4493      	add	fp, r2
    391c:	4659      	mov	r1, fp
    391e:	9101      	str	r1, [sp, #4]
    3920:	0fe1      	lsrs	r1, r4, #31
    3922:	18c9      	adds	r1, r1, r3
    3924:	4657      	mov	r7, sl
    3926:	18cb      	adds	r3, r1, r3
    3928:	0064      	lsls	r4, r4, #1
    392a:	0852      	lsrs	r2, r2, #1
    392c:	2800      	cmp	r0, #0
    392e:	d1e0      	bne.n	38f2 <__ieee754_sqrt+0x9a>
    3930:	4323      	orrs	r3, r4
    3932:	d12b      	bne.n	398c <__ieee754_sqrt+0x134>
    3934:	9b01      	ldr	r3, [sp, #4]
    3936:	085b      	lsrs	r3, r3, #1
    3938:	4941      	ldr	r1, [pc, #260]	; (3a40 <__ieee754_sqrt+0x1e8>)
    393a:	1072      	asrs	r2, r6, #1
    393c:	468c      	mov	ip, r1
    393e:	4462      	add	r2, ip
    3940:	07f1      	lsls	r1, r6, #31
    3942:	d502      	bpl.n	394a <__ieee754_sqrt+0xf2>
    3944:	2180      	movs	r1, #128	; 0x80
    3946:	0609      	lsls	r1, r1, #24
    3948:	430b      	orrs	r3, r1
    394a:	4641      	mov	r1, r8
    394c:	0509      	lsls	r1, r1, #20
    394e:	188d      	adds	r5, r1, r2
    3950:	001e      	movs	r6, r3
    3952:	002f      	movs	r7, r5
    3954:	0030      	movs	r0, r6
    3956:	0039      	movs	r1, r7
    3958:	b003      	add	sp, #12
    395a:	bc3c      	pop	{r2, r3, r4, r5}
    395c:	4690      	mov	r8, r2
    395e:	4699      	mov	r9, r3
    3960:	46a2      	mov	sl, r4
    3962:	46ab      	mov	fp, r5
    3964:	bdf0      	pop	{r4, r5, r6, r7, pc}
    3966:	42a1      	cmp	r1, r4
    3968:	d80e      	bhi.n	3988 <__ieee754_sqrt+0x130>
    396a:	188d      	adds	r5, r1, r2
    396c:	46ac      	mov	ip, r5
    396e:	0fcd      	lsrs	r5, r1, #31
    3970:	07ed      	lsls	r5, r5, #31
    3972:	454d      	cmp	r5, r9
    3974:	d048      	beq.n	3a08 <__ieee754_sqrt+0x1b0>
    3976:	469a      	mov	sl, r3
    3978:	2300      	movs	r3, #0
    397a:	e7ca      	b.n	3912 <__ieee754_sqrt+0xba>
    397c:	4665      	mov	r5, ip
    397e:	2d00      	cmp	r5, #0
    3980:	dbc2      	blt.n	3908 <__ieee754_sqrt+0xb0>
    3982:	1c7d      	adds	r5, r7, #1
    3984:	46aa      	mov	sl, r5
    3986:	e7bf      	b.n	3908 <__ieee754_sqrt+0xb0>
    3988:	003b      	movs	r3, r7
    398a:	e7aa      	b.n	38e2 <__ieee754_sqrt+0x8a>
    398c:	9b01      	ldr	r3, [sp, #4]
    398e:	3301      	adds	r3, #1
    3990:	d03e      	beq.n	3a10 <__ieee754_sqrt+0x1b8>
    3992:	9a01      	ldr	r2, [sp, #4]
    3994:	2301      	movs	r3, #1
    3996:	4694      	mov	ip, r2
    3998:	4013      	ands	r3, r2
    399a:	4463      	add	r3, ip
    399c:	085b      	lsrs	r3, r3, #1
    399e:	e7cb      	b.n	3938 <__ieee754_sqrt+0xe0>
    39a0:	0fe3      	lsrs	r3, r4, #31
    39a2:	0052      	lsls	r2, r2, #1
    39a4:	189a      	adds	r2, r3, r2
    39a6:	0064      	lsls	r4, r4, #1
    39a8:	e778      	b.n	389c <__ieee754_sqrt+0x44>
    39aa:	006b      	lsls	r3, r5, #1
    39ac:	085b      	lsrs	r3, r3, #1
    39ae:	4303      	orrs	r3, r0
    39b0:	002f      	movs	r7, r5
    39b2:	2b00      	cmp	r3, #0
    39b4:	d0ce      	beq.n	3954 <__ieee754_sqrt+0xfc>
    39b6:	2500      	movs	r5, #0
    39b8:	2a00      	cmp	r2, #0
    39ba:	d131      	bne.n	3a20 <__ieee754_sqrt+0x1c8>
    39bc:	0ae2      	lsrs	r2, r4, #11
    39be:	3d15      	subs	r5, #21
    39c0:	0564      	lsls	r4, r4, #21
    39c2:	2a00      	cmp	r2, #0
    39c4:	d0fa      	beq.n	39bc <__ieee754_sqrt+0x164>
    39c6:	2380      	movs	r3, #128	; 0x80
    39c8:	035b      	lsls	r3, r3, #13
    39ca:	421a      	tst	r2, r3
    39cc:	d123      	bne.n	3a16 <__ieee754_sqrt+0x1be>
    39ce:	2080      	movs	r0, #128	; 0x80
    39d0:	2300      	movs	r3, #0
    39d2:	0340      	lsls	r0, r0, #13
    39d4:	e000      	b.n	39d8 <__ieee754_sqrt+0x180>
    39d6:	000b      	movs	r3, r1
    39d8:	0052      	lsls	r2, r2, #1
    39da:	1c59      	adds	r1, r3, #1
    39dc:	4202      	tst	r2, r0
    39de:	d0fa      	beq.n	39d6 <__ieee754_sqrt+0x17e>
    39e0:	2020      	movs	r0, #32
    39e2:	1a40      	subs	r0, r0, r1
    39e4:	1aed      	subs	r5, r5, r3
    39e6:	0023      	movs	r3, r4
    39e8:	40c3      	lsrs	r3, r0
    39ea:	408c      	lsls	r4, r1
    39ec:	431a      	orrs	r2, r3
    39ee:	e74a      	b.n	3886 <__ieee754_sqrt+0x2e>
    39f0:	0002      	movs	r2, r0
    39f2:	002b      	movs	r3, r5
    39f4:	0029      	movs	r1, r5
    39f6:	f002 f857 	bl	5aa8 <__aeabi_dmul>
    39fa:	0032      	movs	r2, r6
    39fc:	002b      	movs	r3, r5
    39fe:	f001 f903 	bl	4c08 <__aeabi_dadd>
    3a02:	0006      	movs	r6, r0
    3a04:	000f      	movs	r7, r1
    3a06:	e7a5      	b.n	3954 <__ieee754_sqrt+0xfc>
    3a08:	4665      	mov	r5, ip
    3a0a:	2d00      	cmp	r5, #0
    3a0c:	dab9      	bge.n	3982 <__ieee754_sqrt+0x12a>
    3a0e:	e7b2      	b.n	3976 <__ieee754_sqrt+0x11e>
    3a10:	3601      	adds	r6, #1
    3a12:	2300      	movs	r3, #0
    3a14:	e790      	b.n	3938 <__ieee754_sqrt+0xe0>
    3a16:	2301      	movs	r3, #1
    3a18:	2020      	movs	r0, #32
    3a1a:	425b      	negs	r3, r3
    3a1c:	2100      	movs	r1, #0
    3a1e:	e7e1      	b.n	39e4 <__ieee754_sqrt+0x18c>
    3a20:	003b      	movs	r3, r7
    3a22:	0002      	movs	r2, r0
    3a24:	0039      	movs	r1, r7
    3a26:	f002 fab9 	bl	5f9c <__aeabi_dsub>
    3a2a:	0002      	movs	r2, r0
    3a2c:	000b      	movs	r3, r1
    3a2e:	f001 fc17 	bl	5260 <__aeabi_ddiv>
    3a32:	0006      	movs	r6, r0
    3a34:	000f      	movs	r7, r1
    3a36:	e78d      	b.n	3954 <__ieee754_sqrt+0xfc>
    3a38:	7ff00000 	.word	0x7ff00000
    3a3c:	fffffc01 	.word	0xfffffc01
    3a40:	3fe00000 	.word	0x3fe00000

00003a44 <fabs>:
    3a44:	0049      	lsls	r1, r1, #1
    3a46:	084b      	lsrs	r3, r1, #1
    3a48:	0019      	movs	r1, r3
    3a4a:	4770      	bx	lr

00003a4c <finite>:
    3a4c:	4b03      	ldr	r3, [pc, #12]	; (3a5c <finite+0x10>)
    3a4e:	0048      	lsls	r0, r1, #1
    3a50:	469c      	mov	ip, r3
    3a52:	0840      	lsrs	r0, r0, #1
    3a54:	4460      	add	r0, ip
    3a56:	0fc0      	lsrs	r0, r0, #31
    3a58:	4770      	bx	lr
    3a5a:	46c0      	nop			; (mov r8, r8)
    3a5c:	80100000 	.word	0x80100000

00003a60 <matherr>:
    3a60:	2000      	movs	r0, #0
    3a62:	4770      	bx	lr

00003a64 <nan>:
    3a64:	2000      	movs	r0, #0
    3a66:	4901      	ldr	r1, [pc, #4]	; (3a6c <nan+0x8>)
    3a68:	4770      	bx	lr
    3a6a:	46c0      	nop			; (mov r8, r8)
    3a6c:	7ff80000 	.word	0x7ff80000

00003a70 <rint>:
    3a70:	b5f0      	push	{r4, r5, r6, r7, lr}
    3a72:	4647      	mov	r7, r8
    3a74:	b480      	push	{r7}
    3a76:	0fcb      	lsrs	r3, r1, #31
    3a78:	4698      	mov	r8, r3
    3a7a:	4c4a      	ldr	r4, [pc, #296]	; (3ba4 <rint+0x134>)
    3a7c:	004b      	lsls	r3, r1, #1
    3a7e:	0d5b      	lsrs	r3, r3, #21
    3a80:	191e      	adds	r6, r3, r4
    3a82:	b082      	sub	sp, #8
    3a84:	0007      	movs	r7, r0
    3a86:	000a      	movs	r2, r1
    3a88:	2e13      	cmp	r6, #19
    3a8a:	dc35      	bgt.n	3af8 <rint+0x88>
    3a8c:	2e00      	cmp	r6, #0
    3a8e:	db57      	blt.n	3b40 <rint+0xd0>
    3a90:	4b45      	ldr	r3, [pc, #276]	; (3ba8 <rint+0x138>)
    3a92:	0004      	movs	r4, r0
    3a94:	4133      	asrs	r3, r6
    3a96:	001f      	movs	r7, r3
    3a98:	400f      	ands	r7, r1
    3a9a:	4307      	orrs	r7, r0
    3a9c:	000d      	movs	r5, r1
    3a9e:	2f00      	cmp	r7, #0
    3aa0:	d024      	beq.n	3aec <rint+0x7c>
    3aa2:	085b      	lsrs	r3, r3, #1
    3aa4:	001c      	movs	r4, r3
    3aa6:	400c      	ands	r4, r1
    3aa8:	4320      	orrs	r0, r4
    3aaa:	2700      	movs	r7, #0
    3aac:	2800      	cmp	r0, #0
    3aae:	d007      	beq.n	3ac0 <rint+0x50>
    3ab0:	2e13      	cmp	r6, #19
    3ab2:	d100      	bne.n	3ab6 <rint+0x46>
    3ab4:	e072      	b.n	3b9c <rint+0x12c>
    3ab6:	2280      	movs	r2, #128	; 0x80
    3ab8:	02d2      	lsls	r2, r2, #11
    3aba:	4132      	asrs	r2, r6
    3abc:	4399      	bics	r1, r3
    3abe:	430a      	orrs	r2, r1
    3ac0:	4643      	mov	r3, r8
    3ac2:	00de      	lsls	r6, r3, #3
    3ac4:	4b39      	ldr	r3, [pc, #228]	; (3bac <rint+0x13c>)
    3ac6:	0011      	movs	r1, r2
    3ac8:	199e      	adds	r6, r3, r6
    3aca:	6834      	ldr	r4, [r6, #0]
    3acc:	6875      	ldr	r5, [r6, #4]
    3ace:	0038      	movs	r0, r7
    3ad0:	0022      	movs	r2, r4
    3ad2:	002b      	movs	r3, r5
    3ad4:	f001 f898 	bl	4c08 <__aeabi_dadd>
    3ad8:	9000      	str	r0, [sp, #0]
    3ada:	9101      	str	r1, [sp, #4]
    3adc:	9800      	ldr	r0, [sp, #0]
    3ade:	9901      	ldr	r1, [sp, #4]
    3ae0:	0022      	movs	r2, r4
    3ae2:	002b      	movs	r3, r5
    3ae4:	f002 fa5a 	bl	5f9c <__aeabi_dsub>
    3ae8:	0004      	movs	r4, r0
    3aea:	000d      	movs	r5, r1
    3aec:	0020      	movs	r0, r4
    3aee:	0029      	movs	r1, r5
    3af0:	b002      	add	sp, #8
    3af2:	bc04      	pop	{r2}
    3af4:	4690      	mov	r8, r2
    3af6:	bdf0      	pop	{r4, r5, r6, r7, pc}
    3af8:	2e33      	cmp	r6, #51	; 0x33
    3afa:	dd0c      	ble.n	3b16 <rint+0xa6>
    3afc:	2380      	movs	r3, #128	; 0x80
    3afe:	0004      	movs	r4, r0
    3b00:	000d      	movs	r5, r1
    3b02:	00db      	lsls	r3, r3, #3
    3b04:	429e      	cmp	r6, r3
    3b06:	d1f1      	bne.n	3aec <rint+0x7c>
    3b08:	0002      	movs	r2, r0
    3b0a:	000b      	movs	r3, r1
    3b0c:	f001 f87c 	bl	4c08 <__aeabi_dadd>
    3b10:	0004      	movs	r4, r0
    3b12:	000d      	movs	r5, r1
    3b14:	e7ea      	b.n	3aec <rint+0x7c>
    3b16:	4c26      	ldr	r4, [pc, #152]	; (3bb0 <rint+0x140>)
    3b18:	000d      	movs	r5, r1
    3b1a:	46a4      	mov	ip, r4
    3b1c:	2401      	movs	r4, #1
    3b1e:	4463      	add	r3, ip
    3b20:	4264      	negs	r4, r4
    3b22:	40dc      	lsrs	r4, r3
    3b24:	46a4      	mov	ip, r4
    3b26:	4661      	mov	r1, ip
    3b28:	0004      	movs	r4, r0
    3b2a:	4201      	tst	r1, r0
    3b2c:	d0de      	beq.n	3aec <rint+0x7c>
    3b2e:	0849      	lsrs	r1, r1, #1
    3b30:	4201      	tst	r1, r0
    3b32:	d0c5      	beq.n	3ac0 <rint+0x50>
    3b34:	2780      	movs	r7, #128	; 0x80
    3b36:	05ff      	lsls	r7, r7, #23
    3b38:	411f      	asrs	r7, r3
    3b3a:	4388      	bics	r0, r1
    3b3c:	4307      	orrs	r7, r0
    3b3e:	e7bf      	b.n	3ac0 <rint+0x50>
    3b40:	004b      	lsls	r3, r1, #1
    3b42:	085b      	lsrs	r3, r3, #1
    3b44:	4303      	orrs	r3, r0
    3b46:	0004      	movs	r4, r0
    3b48:	000d      	movs	r5, r1
    3b4a:	2b00      	cmp	r3, #0
    3b4c:	d0ce      	beq.n	3aec <rint+0x7c>
    3b4e:	030b      	lsls	r3, r1, #12
    3b50:	0b1b      	lsrs	r3, r3, #12
    3b52:	4303      	orrs	r3, r0
    3b54:	425a      	negs	r2, r3
    3b56:	4313      	orrs	r3, r2
    3b58:	2280      	movs	r2, #128	; 0x80
    3b5a:	0b1b      	lsrs	r3, r3, #12
    3b5c:	0312      	lsls	r2, r2, #12
    3b5e:	4013      	ands	r3, r2
    3b60:	0c4a      	lsrs	r2, r1, #17
    3b62:	0452      	lsls	r2, r2, #17
    3b64:	4313      	orrs	r3, r2
    3b66:	0019      	movs	r1, r3
    3b68:	4643      	mov	r3, r8
    3b6a:	4a10      	ldr	r2, [pc, #64]	; (3bac <rint+0x13c>)
    3b6c:	00db      	lsls	r3, r3, #3
    3b6e:	18d3      	adds	r3, r2, r3
    3b70:	681c      	ldr	r4, [r3, #0]
    3b72:	685d      	ldr	r5, [r3, #4]
    3b74:	0022      	movs	r2, r4
    3b76:	002b      	movs	r3, r5
    3b78:	f001 f846 	bl	4c08 <__aeabi_dadd>
    3b7c:	9000      	str	r0, [sp, #0]
    3b7e:	9101      	str	r1, [sp, #4]
    3b80:	9800      	ldr	r0, [sp, #0]
    3b82:	9901      	ldr	r1, [sp, #4]
    3b84:	0022      	movs	r2, r4
    3b86:	002b      	movs	r3, r5
    3b88:	f002 fa08 	bl	5f9c <__aeabi_dsub>
    3b8c:	4642      	mov	r2, r8
    3b8e:	004b      	lsls	r3, r1, #1
    3b90:	085b      	lsrs	r3, r3, #1
    3b92:	07d6      	lsls	r6, r2, #31
    3b94:	4333      	orrs	r3, r6
    3b96:	0004      	movs	r4, r0
    3b98:	001d      	movs	r5, r3
    3b9a:	e7a7      	b.n	3aec <rint+0x7c>
    3b9c:	2780      	movs	r7, #128	; 0x80
    3b9e:	063f      	lsls	r7, r7, #24
    3ba0:	e789      	b.n	3ab6 <rint+0x46>
    3ba2:	46c0      	nop			; (mov r8, r8)
    3ba4:	fffffc01 	.word	0xfffffc01
    3ba8:	000fffff 	.word	0x000fffff
    3bac:	0000bd98 	.word	0x0000bd98
    3bb0:	fffffbed 	.word	0xfffffbed

00003bb4 <scalbn>:
    3bb4:	004b      	lsls	r3, r1, #1
    3bb6:	b570      	push	{r4, r5, r6, lr}
    3bb8:	0d5b      	lsrs	r3, r3, #21
    3bba:	0014      	movs	r4, r2
    3bbc:	000a      	movs	r2, r1
    3bbe:	2b00      	cmp	r3, #0
    3bc0:	d11a      	bne.n	3bf8 <scalbn+0x44>
    3bc2:	004b      	lsls	r3, r1, #1
    3bc4:	085b      	lsrs	r3, r3, #1
    3bc6:	4303      	orrs	r3, r0
    3bc8:	d015      	beq.n	3bf6 <scalbn+0x42>
    3bca:	2200      	movs	r2, #0
    3bcc:	4b22      	ldr	r3, [pc, #136]	; (3c58 <scalbn+0xa4>)
    3bce:	f001 ff6b 	bl	5aa8 <__aeabi_dmul>
    3bd2:	4b22      	ldr	r3, [pc, #136]	; (3c5c <scalbn+0xa8>)
    3bd4:	000a      	movs	r2, r1
    3bd6:	429c      	cmp	r4, r3
    3bd8:	db22      	blt.n	3c20 <scalbn+0x6c>
    3bda:	004b      	lsls	r3, r1, #1
    3bdc:	0d5b      	lsrs	r3, r3, #21
    3bde:	3b36      	subs	r3, #54	; 0x36
    3be0:	4d1f      	ldr	r5, [pc, #124]	; (3c60 <scalbn+0xac>)
    3be2:	18e3      	adds	r3, r4, r3
    3be4:	42ab      	cmp	r3, r5
    3be6:	dc20      	bgt.n	3c2a <scalbn+0x76>
    3be8:	2b00      	cmp	r3, #0
    3bea:	dd0d      	ble.n	3c08 <scalbn+0x54>
    3bec:	4c1d      	ldr	r4, [pc, #116]	; (3c64 <scalbn+0xb0>)
    3bee:	051b      	lsls	r3, r3, #20
    3bf0:	4022      	ands	r2, r4
    3bf2:	431a      	orrs	r2, r3
    3bf4:	0011      	movs	r1, r2
    3bf6:	bd70      	pop	{r4, r5, r6, pc}
    3bf8:	4d1b      	ldr	r5, [pc, #108]	; (3c68 <scalbn+0xb4>)
    3bfa:	42ab      	cmp	r3, r5
    3bfc:	d1f0      	bne.n	3be0 <scalbn+0x2c>
    3bfe:	0002      	movs	r2, r0
    3c00:	000b      	movs	r3, r1
    3c02:	f001 f801 	bl	4c08 <__aeabi_dadd>
    3c06:	e7f6      	b.n	3bf6 <scalbn+0x42>
    3c08:	001d      	movs	r5, r3
    3c0a:	3535      	adds	r5, #53	; 0x35
    3c0c:	da18      	bge.n	3c40 <scalbn+0x8c>
    3c0e:	4b17      	ldr	r3, [pc, #92]	; (3c6c <scalbn+0xb8>)
    3c10:	0002      	movs	r2, r0
    3c12:	429c      	cmp	r4, r3
    3c14:	dc0a      	bgt.n	3c2c <scalbn+0x78>
    3c16:	000b      	movs	r3, r1
    3c18:	4815      	ldr	r0, [pc, #84]	; (3c70 <scalbn+0xbc>)
    3c1a:	4916      	ldr	r1, [pc, #88]	; (3c74 <scalbn+0xc0>)
    3c1c:	f000 fa34 	bl	4088 <copysign>
    3c20:	4a13      	ldr	r2, [pc, #76]	; (3c70 <scalbn+0xbc>)
    3c22:	4b14      	ldr	r3, [pc, #80]	; (3c74 <scalbn+0xc0>)
    3c24:	f001 ff40 	bl	5aa8 <__aeabi_dmul>
    3c28:	e7e5      	b.n	3bf6 <scalbn+0x42>
    3c2a:	0002      	movs	r2, r0
    3c2c:	000b      	movs	r3, r1
    3c2e:	4812      	ldr	r0, [pc, #72]	; (3c78 <scalbn+0xc4>)
    3c30:	4912      	ldr	r1, [pc, #72]	; (3c7c <scalbn+0xc8>)
    3c32:	f000 fa29 	bl	4088 <copysign>
    3c36:	4a10      	ldr	r2, [pc, #64]	; (3c78 <scalbn+0xc4>)
    3c38:	4b10      	ldr	r3, [pc, #64]	; (3c7c <scalbn+0xc8>)
    3c3a:	f001 ff35 	bl	5aa8 <__aeabi_dmul>
    3c3e:	e7da      	b.n	3bf6 <scalbn+0x42>
    3c40:	4c08      	ldr	r4, [pc, #32]	; (3c64 <scalbn+0xb0>)
    3c42:	3336      	adds	r3, #54	; 0x36
    3c44:	4022      	ands	r2, r4
    3c46:	051b      	lsls	r3, r3, #20
    3c48:	4313      	orrs	r3, r2
    3c4a:	0019      	movs	r1, r3
    3c4c:	2200      	movs	r2, #0
    3c4e:	4b0c      	ldr	r3, [pc, #48]	; (3c80 <scalbn+0xcc>)
    3c50:	f001 ff2a 	bl	5aa8 <__aeabi_dmul>
    3c54:	e7cf      	b.n	3bf6 <scalbn+0x42>
    3c56:	46c0      	nop			; (mov r8, r8)
    3c58:	43500000 	.word	0x43500000
    3c5c:	ffff3cb0 	.word	0xffff3cb0
    3c60:	000007fe 	.word	0x000007fe
    3c64:	800fffff 	.word	0x800fffff
    3c68:	000007ff 	.word	0x000007ff
    3c6c:	0000c350 	.word	0x0000c350
    3c70:	c2f8f359 	.word	0xc2f8f359
    3c74:	01a56e1f 	.word	0x01a56e1f
    3c78:	8800759c 	.word	0x8800759c
    3c7c:	7e37e43c 	.word	0x7e37e43c
    3c80:	3c900000 	.word	0x3c900000

00003c84 <__ieee754_log>:
    3c84:	b5f0      	push	{r4, r5, r6, r7, lr}
    3c86:	4657      	mov	r7, sl
    3c88:	464e      	mov	r6, r9
    3c8a:	4645      	mov	r5, r8
    3c8c:	b4e0      	push	{r5, r6, r7}
    3c8e:	4ada      	ldr	r2, [pc, #872]	; (3ff8 <__ieee754_log+0x374>)
    3c90:	b088      	sub	sp, #32
    3c92:	1e0b      	subs	r3, r1, #0
    3c94:	4293      	cmp	r3, r2
    3c96:	dc55      	bgt.n	3d44 <__ieee754_log+0xc0>
    3c98:	004a      	lsls	r2, r1, #1
    3c9a:	0852      	lsrs	r2, r2, #1
    3c9c:	4302      	orrs	r2, r0
    3c9e:	d100      	bne.n	3ca2 <__ieee754_log+0x1e>
    3ca0:	e0ef      	b.n	3e82 <__ieee754_log+0x1fe>
    3ca2:	2900      	cmp	r1, #0
    3ca4:	da00      	bge.n	3ca8 <__ieee754_log+0x24>
    3ca6:	e179      	b.n	3f9c <__ieee754_log+0x318>
    3ca8:	4bd4      	ldr	r3, [pc, #848]	; (3ffc <__ieee754_log+0x378>)
    3caa:	2200      	movs	r2, #0
    3cac:	f001 fefc 	bl	5aa8 <__aeabi_dmul>
    3cb0:	2536      	movs	r5, #54	; 0x36
    3cb2:	4cd3      	ldr	r4, [pc, #844]	; (4000 <__ieee754_log+0x37c>)
    3cb4:	000b      	movs	r3, r1
    3cb6:	426d      	negs	r5, r5
    3cb8:	42a3      	cmp	r3, r4
    3cba:	dc47      	bgt.n	3d4c <__ieee754_log+0xc8>
    3cbc:	151a      	asrs	r2, r3, #20
    3cbe:	031b      	lsls	r3, r3, #12
    3cc0:	0b1b      	lsrs	r3, r3, #12
    3cc2:	4698      	mov	r8, r3
    3cc4:	4ccf      	ldr	r4, [pc, #828]	; (4004 <__ieee754_log+0x380>)
    3cc6:	2380      	movs	r3, #128	; 0x80
    3cc8:	46a4      	mov	ip, r4
    3cca:	4ccf      	ldr	r4, [pc, #828]	; (4008 <__ieee754_log+0x384>)
    3ccc:	035b      	lsls	r3, r3, #13
    3cce:	4444      	add	r4, r8
    3cd0:	4023      	ands	r3, r4
    3cd2:	4cce      	ldr	r4, [pc, #824]	; (400c <__ieee754_log+0x388>)
    3cd4:	4462      	add	r2, ip
    3cd6:	1952      	adds	r2, r2, r5
    3cd8:	405c      	eors	r4, r3
    3cda:	4645      	mov	r5, r8
    3cdc:	151b      	asrs	r3, r3, #20
    3cde:	4699      	mov	r9, r3
    3ce0:	4325      	orrs	r5, r4
    3ce2:	4bca      	ldr	r3, [pc, #808]	; (400c <__ieee754_log+0x388>)
    3ce4:	0029      	movs	r1, r5
    3ce6:	4491      	add	r9, r2
    3ce8:	2200      	movs	r2, #0
    3cea:	f002 f957 	bl	5f9c <__aeabi_dsub>
    3cee:	4643      	mov	r3, r8
    3cf0:	3302      	adds	r3, #2
    3cf2:	031b      	lsls	r3, r3, #12
    3cf4:	0006      	movs	r6, r0
    3cf6:	000f      	movs	r7, r1
    3cf8:	0b1b      	lsrs	r3, r3, #12
    3cfa:	2200      	movs	r2, #0
    3cfc:	2b02      	cmp	r3, #2
    3cfe:	dc2f      	bgt.n	3d60 <__ieee754_log+0xdc>
    3d00:	2300      	movs	r3, #0
    3d02:	f000 fb4f 	bl	43a4 <__aeabi_dcmpeq>
    3d06:	2800      	cmp	r0, #0
    3d08:	d100      	bne.n	3d0c <__ieee754_log+0x88>
    3d0a:	e0c1      	b.n	3e90 <__ieee754_log+0x20c>
    3d0c:	464b      	mov	r3, r9
    3d0e:	2b00      	cmp	r3, #0
    3d10:	d100      	bne.n	3d14 <__ieee754_log+0x90>
    3d12:	e14c      	b.n	3fae <__ieee754_log+0x32a>
    3d14:	4648      	mov	r0, r9
    3d16:	f002 fceb 	bl	66f0 <__aeabi_i2d>
    3d1a:	4abd      	ldr	r2, [pc, #756]	; (4010 <__ieee754_log+0x38c>)
    3d1c:	4bbd      	ldr	r3, [pc, #756]	; (4014 <__ieee754_log+0x390>)
    3d1e:	0004      	movs	r4, r0
    3d20:	000d      	movs	r5, r1
    3d22:	f001 fec1 	bl	5aa8 <__aeabi_dmul>
    3d26:	4abc      	ldr	r2, [pc, #752]	; (4018 <__ieee754_log+0x394>)
    3d28:	0006      	movs	r6, r0
    3d2a:	000f      	movs	r7, r1
    3d2c:	4bbb      	ldr	r3, [pc, #748]	; (401c <__ieee754_log+0x398>)
    3d2e:	0020      	movs	r0, r4
    3d30:	0029      	movs	r1, r5
    3d32:	f001 feb9 	bl	5aa8 <__aeabi_dmul>
    3d36:	0002      	movs	r2, r0
    3d38:	000b      	movs	r3, r1
    3d3a:	0030      	movs	r0, r6
    3d3c:	0039      	movs	r1, r7
    3d3e:	f000 ff63 	bl	4c08 <__aeabi_dadd>
    3d42:	e007      	b.n	3d54 <__ieee754_log+0xd0>
    3d44:	4cae      	ldr	r4, [pc, #696]	; (4000 <__ieee754_log+0x37c>)
    3d46:	2500      	movs	r5, #0
    3d48:	42a3      	cmp	r3, r4
    3d4a:	ddb7      	ble.n	3cbc <__ieee754_log+0x38>
    3d4c:	0002      	movs	r2, r0
    3d4e:	000b      	movs	r3, r1
    3d50:	f000 ff5a 	bl	4c08 <__aeabi_dadd>
    3d54:	b008      	add	sp, #32
    3d56:	bc1c      	pop	{r2, r3, r4}
    3d58:	4690      	mov	r8, r2
    3d5a:	4699      	mov	r9, r3
    3d5c:	46a2      	mov	sl, r4
    3d5e:	bdf0      	pop	{r4, r5, r6, r7, pc}
    3d60:	2380      	movs	r3, #128	; 0x80
    3d62:	05db      	lsls	r3, r3, #23
    3d64:	f000 ff50 	bl	4c08 <__aeabi_dadd>
    3d68:	0002      	movs	r2, r0
    3d6a:	000b      	movs	r3, r1
    3d6c:	0030      	movs	r0, r6
    3d6e:	0039      	movs	r1, r7
    3d70:	f001 fa76 	bl	5260 <__aeabi_ddiv>
    3d74:	0004      	movs	r4, r0
    3d76:	4648      	mov	r0, r9
    3d78:	000d      	movs	r5, r1
    3d7a:	f002 fcb9 	bl	66f0 <__aeabi_i2d>
    3d7e:	0022      	movs	r2, r4
    3d80:	9002      	str	r0, [sp, #8]
    3d82:	9103      	str	r1, [sp, #12]
    3d84:	002b      	movs	r3, r5
    3d86:	0020      	movs	r0, r4
    3d88:	0029      	movs	r1, r5
    3d8a:	9404      	str	r4, [sp, #16]
    3d8c:	9505      	str	r5, [sp, #20]
    3d8e:	f001 fe8b 	bl	5aa8 <__aeabi_dmul>
    3d92:	0004      	movs	r4, r0
    3d94:	000d      	movs	r5, r1
    3d96:	4ba2      	ldr	r3, [pc, #648]	; (4020 <__ieee754_log+0x39c>)
    3d98:	0002      	movs	r2, r0
    3d9a:	4443      	add	r3, r8
    3d9c:	469a      	mov	sl, r3
    3d9e:	000b      	movs	r3, r1
    3da0:	9400      	str	r4, [sp, #0]
    3da2:	9501      	str	r5, [sp, #4]
    3da4:	f001 fe80 	bl	5aa8 <__aeabi_dmul>
    3da8:	0004      	movs	r4, r0
    3daa:	000d      	movs	r5, r1
    3dac:	4a9d      	ldr	r2, [pc, #628]	; (4024 <__ieee754_log+0x3a0>)
    3dae:	4b9e      	ldr	r3, [pc, #632]	; (4028 <__ieee754_log+0x3a4>)
    3db0:	f001 fe7a 	bl	5aa8 <__aeabi_dmul>
    3db4:	4a9d      	ldr	r2, [pc, #628]	; (402c <__ieee754_log+0x3a8>)
    3db6:	4b9e      	ldr	r3, [pc, #632]	; (4030 <__ieee754_log+0x3ac>)
    3db8:	f000 ff26 	bl	4c08 <__aeabi_dadd>
    3dbc:	0022      	movs	r2, r4
    3dbe:	002b      	movs	r3, r5
    3dc0:	f001 fe72 	bl	5aa8 <__aeabi_dmul>
    3dc4:	4a9b      	ldr	r2, [pc, #620]	; (4034 <__ieee754_log+0x3b0>)
    3dc6:	4b9c      	ldr	r3, [pc, #624]	; (4038 <__ieee754_log+0x3b4>)
    3dc8:	f000 ff1e 	bl	4c08 <__aeabi_dadd>
    3dcc:	0022      	movs	r2, r4
    3dce:	002b      	movs	r3, r5
    3dd0:	f001 fe6a 	bl	5aa8 <__aeabi_dmul>
    3dd4:	4a99      	ldr	r2, [pc, #612]	; (403c <__ieee754_log+0x3b8>)
    3dd6:	4b9a      	ldr	r3, [pc, #616]	; (4040 <__ieee754_log+0x3bc>)
    3dd8:	f000 ff16 	bl	4c08 <__aeabi_dadd>
    3ddc:	9a00      	ldr	r2, [sp, #0]
    3dde:	9b01      	ldr	r3, [sp, #4]
    3de0:	f001 fe62 	bl	5aa8 <__aeabi_dmul>
    3de4:	4a97      	ldr	r2, [pc, #604]	; (4044 <__ieee754_log+0x3c0>)
    3de6:	9000      	str	r0, [sp, #0]
    3de8:	9101      	str	r1, [sp, #4]
    3dea:	4b97      	ldr	r3, [pc, #604]	; (4048 <__ieee754_log+0x3c4>)
    3dec:	0020      	movs	r0, r4
    3dee:	0029      	movs	r1, r5
    3df0:	f001 fe5a 	bl	5aa8 <__aeabi_dmul>
    3df4:	4a95      	ldr	r2, [pc, #596]	; (404c <__ieee754_log+0x3c8>)
    3df6:	4b96      	ldr	r3, [pc, #600]	; (4050 <__ieee754_log+0x3cc>)
    3df8:	f000 ff06 	bl	4c08 <__aeabi_dadd>
    3dfc:	0022      	movs	r2, r4
    3dfe:	002b      	movs	r3, r5
    3e00:	f001 fe52 	bl	5aa8 <__aeabi_dmul>
    3e04:	4a93      	ldr	r2, [pc, #588]	; (4054 <__ieee754_log+0x3d0>)
    3e06:	4b94      	ldr	r3, [pc, #592]	; (4058 <__ieee754_log+0x3d4>)
    3e08:	f000 fefe 	bl	4c08 <__aeabi_dadd>
    3e0c:	0022      	movs	r2, r4
    3e0e:	002b      	movs	r3, r5
    3e10:	f001 fe4a 	bl	5aa8 <__aeabi_dmul>
    3e14:	000b      	movs	r3, r1
    3e16:	0002      	movs	r2, r0
    3e18:	9800      	ldr	r0, [sp, #0]
    3e1a:	9901      	ldr	r1, [sp, #4]
    3e1c:	f000 fef4 	bl	4c08 <__aeabi_dadd>
    3e20:	000d      	movs	r5, r1
    3e22:	4641      	mov	r1, r8
    3e24:	4b8d      	ldr	r3, [pc, #564]	; (405c <__ieee754_log+0x3d8>)
    3e26:	0004      	movs	r4, r0
    3e28:	1a5b      	subs	r3, r3, r1
    3e2a:	4651      	mov	r1, sl
    3e2c:	430b      	orrs	r3, r1
    3e2e:	2b00      	cmp	r3, #0
    3e30:	dd54      	ble.n	3edc <__ieee754_log+0x258>
    3e32:	2200      	movs	r2, #0
    3e34:	4b8a      	ldr	r3, [pc, #552]	; (4060 <__ieee754_log+0x3dc>)
    3e36:	0030      	movs	r0, r6
    3e38:	0039      	movs	r1, r7
    3e3a:	f001 fe35 	bl	5aa8 <__aeabi_dmul>
    3e3e:	0032      	movs	r2, r6
    3e40:	003b      	movs	r3, r7
    3e42:	f001 fe31 	bl	5aa8 <__aeabi_dmul>
    3e46:	464b      	mov	r3, r9
    3e48:	000a      	movs	r2, r1
    3e4a:	0001      	movs	r1, r0
    3e4c:	9100      	str	r1, [sp, #0]
    3e4e:	9201      	str	r2, [sp, #4]
    3e50:	2b00      	cmp	r3, #0
    3e52:	d172      	bne.n	3f3a <__ieee754_log+0x2b6>
    3e54:	0013      	movs	r3, r2
    3e56:	0029      	movs	r1, r5
    3e58:	0002      	movs	r2, r0
    3e5a:	0020      	movs	r0, r4
    3e5c:	f000 fed4 	bl	4c08 <__aeabi_dadd>
    3e60:	9a04      	ldr	r2, [sp, #16]
    3e62:	9b05      	ldr	r3, [sp, #20]
    3e64:	f001 fe20 	bl	5aa8 <__aeabi_dmul>
    3e68:	0002      	movs	r2, r0
    3e6a:	000b      	movs	r3, r1
    3e6c:	9800      	ldr	r0, [sp, #0]
    3e6e:	9901      	ldr	r1, [sp, #4]
    3e70:	f002 f894 	bl	5f9c <__aeabi_dsub>
    3e74:	0002      	movs	r2, r0
    3e76:	000b      	movs	r3, r1
    3e78:	0030      	movs	r0, r6
    3e7a:	0039      	movs	r1, r7
    3e7c:	f002 f88e 	bl	5f9c <__aeabi_dsub>
    3e80:	e768      	b.n	3d54 <__ieee754_log+0xd0>
    3e82:	2200      	movs	r2, #0
    3e84:	2300      	movs	r3, #0
    3e86:	2000      	movs	r0, #0
    3e88:	4976      	ldr	r1, [pc, #472]	; (4064 <__ieee754_log+0x3e0>)
    3e8a:	f001 f9e9 	bl	5260 <__aeabi_ddiv>
    3e8e:	e761      	b.n	3d54 <__ieee754_log+0xd0>
    3e90:	4a75      	ldr	r2, [pc, #468]	; (4068 <__ieee754_log+0x3e4>)
    3e92:	4b76      	ldr	r3, [pc, #472]	; (406c <__ieee754_log+0x3e8>)
    3e94:	0030      	movs	r0, r6
    3e96:	0039      	movs	r1, r7
    3e98:	f001 fe06 	bl	5aa8 <__aeabi_dmul>
    3e9c:	0002      	movs	r2, r0
    3e9e:	000b      	movs	r3, r1
    3ea0:	2000      	movs	r0, #0
    3ea2:	496f      	ldr	r1, [pc, #444]	; (4060 <__ieee754_log+0x3dc>)
    3ea4:	f002 f87a 	bl	5f9c <__aeabi_dsub>
    3ea8:	0032      	movs	r2, r6
    3eaa:	0004      	movs	r4, r0
    3eac:	000d      	movs	r5, r1
    3eae:	003b      	movs	r3, r7
    3eb0:	0030      	movs	r0, r6
    3eb2:	0039      	movs	r1, r7
    3eb4:	f001 fdf8 	bl	5aa8 <__aeabi_dmul>
    3eb8:	000b      	movs	r3, r1
    3eba:	0002      	movs	r2, r0
    3ebc:	0029      	movs	r1, r5
    3ebe:	0020      	movs	r0, r4
    3ec0:	f001 fdf2 	bl	5aa8 <__aeabi_dmul>
    3ec4:	464b      	mov	r3, r9
    3ec6:	0004      	movs	r4, r0
    3ec8:	000d      	movs	r5, r1
    3eca:	2b00      	cmp	r3, #0
    3ecc:	d172      	bne.n	3fb4 <__ieee754_log+0x330>
    3ece:	0002      	movs	r2, r0
    3ed0:	000b      	movs	r3, r1
    3ed2:	0030      	movs	r0, r6
    3ed4:	0039      	movs	r1, r7
    3ed6:	f002 f861 	bl	5f9c <__aeabi_dsub>
    3eda:	e73b      	b.n	3d54 <__ieee754_log+0xd0>
    3edc:	464b      	mov	r3, r9
    3ede:	2b00      	cmp	r3, #0
    3ee0:	d100      	bne.n	3ee4 <__ieee754_log+0x260>
    3ee2:	e0c5      	b.n	4070 <__ieee754_log+0x3ec>
    3ee4:	9802      	ldr	r0, [sp, #8]
    3ee6:	9903      	ldr	r1, [sp, #12]
    3ee8:	4a49      	ldr	r2, [pc, #292]	; (4010 <__ieee754_log+0x38c>)
    3eea:	4b4a      	ldr	r3, [pc, #296]	; (4014 <__ieee754_log+0x390>)
    3eec:	f001 fddc 	bl	5aa8 <__aeabi_dmul>
    3ef0:	0022      	movs	r2, r4
    3ef2:	9000      	str	r0, [sp, #0]
    3ef4:	9101      	str	r1, [sp, #4]
    3ef6:	002b      	movs	r3, r5
    3ef8:	0030      	movs	r0, r6
    3efa:	0039      	movs	r1, r7
    3efc:	f002 f84e 	bl	5f9c <__aeabi_dsub>
    3f00:	9a04      	ldr	r2, [sp, #16]
    3f02:	9b05      	ldr	r3, [sp, #20]
    3f04:	f001 fdd0 	bl	5aa8 <__aeabi_dmul>
    3f08:	4a43      	ldr	r2, [pc, #268]	; (4018 <__ieee754_log+0x394>)
    3f0a:	0004      	movs	r4, r0
    3f0c:	000d      	movs	r5, r1
    3f0e:	9802      	ldr	r0, [sp, #8]
    3f10:	9903      	ldr	r1, [sp, #12]
    3f12:	4b42      	ldr	r3, [pc, #264]	; (401c <__ieee754_log+0x398>)
    3f14:	f001 fdc8 	bl	5aa8 <__aeabi_dmul>
    3f18:	0002      	movs	r2, r0
    3f1a:	000b      	movs	r3, r1
    3f1c:	0020      	movs	r0, r4
    3f1e:	0029      	movs	r1, r5
    3f20:	f002 f83c 	bl	5f9c <__aeabi_dsub>
    3f24:	0032      	movs	r2, r6
    3f26:	003b      	movs	r3, r7
    3f28:	f002 f838 	bl	5f9c <__aeabi_dsub>
    3f2c:	0002      	movs	r2, r0
    3f2e:	000b      	movs	r3, r1
    3f30:	9800      	ldr	r0, [sp, #0]
    3f32:	9901      	ldr	r1, [sp, #4]
    3f34:	f002 f832 	bl	5f9c <__aeabi_dsub>
    3f38:	e70c      	b.n	3d54 <__ieee754_log+0xd0>
    3f3a:	4a35      	ldr	r2, [pc, #212]	; (4010 <__ieee754_log+0x38c>)
    3f3c:	4b35      	ldr	r3, [pc, #212]	; (4014 <__ieee754_log+0x390>)
    3f3e:	9802      	ldr	r0, [sp, #8]
    3f40:	9903      	ldr	r1, [sp, #12]
    3f42:	f001 fdb1 	bl	5aa8 <__aeabi_dmul>
    3f46:	9a00      	ldr	r2, [sp, #0]
    3f48:	9b01      	ldr	r3, [sp, #4]
    3f4a:	9006      	str	r0, [sp, #24]
    3f4c:	9107      	str	r1, [sp, #28]
    3f4e:	0020      	movs	r0, r4
    3f50:	0029      	movs	r1, r5
    3f52:	f000 fe59 	bl	4c08 <__aeabi_dadd>
    3f56:	9a04      	ldr	r2, [sp, #16]
    3f58:	9b05      	ldr	r3, [sp, #20]
    3f5a:	f001 fda5 	bl	5aa8 <__aeabi_dmul>
    3f5e:	4a2e      	ldr	r2, [pc, #184]	; (4018 <__ieee754_log+0x394>)
    3f60:	0004      	movs	r4, r0
    3f62:	000d      	movs	r5, r1
    3f64:	9802      	ldr	r0, [sp, #8]
    3f66:	9903      	ldr	r1, [sp, #12]
    3f68:	4b2c      	ldr	r3, [pc, #176]	; (401c <__ieee754_log+0x398>)
    3f6a:	f001 fd9d 	bl	5aa8 <__aeabi_dmul>
    3f6e:	0002      	movs	r2, r0
    3f70:	000b      	movs	r3, r1
    3f72:	0020      	movs	r0, r4
    3f74:	0029      	movs	r1, r5
    3f76:	f000 fe47 	bl	4c08 <__aeabi_dadd>
    3f7a:	0002      	movs	r2, r0
    3f7c:	000b      	movs	r3, r1
    3f7e:	9800      	ldr	r0, [sp, #0]
    3f80:	9901      	ldr	r1, [sp, #4]
    3f82:	f002 f80b 	bl	5f9c <__aeabi_dsub>
    3f86:	0032      	movs	r2, r6
    3f88:	003b      	movs	r3, r7
    3f8a:	f002 f807 	bl	5f9c <__aeabi_dsub>
    3f8e:	0002      	movs	r2, r0
    3f90:	000b      	movs	r3, r1
    3f92:	9806      	ldr	r0, [sp, #24]
    3f94:	9907      	ldr	r1, [sp, #28]
    3f96:	f002 f801 	bl	5f9c <__aeabi_dsub>
    3f9a:	e6db      	b.n	3d54 <__ieee754_log+0xd0>
    3f9c:	0002      	movs	r2, r0
    3f9e:	000b      	movs	r3, r1
    3fa0:	f001 fffc 	bl	5f9c <__aeabi_dsub>
    3fa4:	2200      	movs	r2, #0
    3fa6:	2300      	movs	r3, #0
    3fa8:	f001 f95a 	bl	5260 <__aeabi_ddiv>
    3fac:	e6d2      	b.n	3d54 <__ieee754_log+0xd0>
    3fae:	2000      	movs	r0, #0
    3fb0:	2100      	movs	r1, #0
    3fb2:	e6cf      	b.n	3d54 <__ieee754_log+0xd0>
    3fb4:	4648      	mov	r0, r9
    3fb6:	f002 fb9b 	bl	66f0 <__aeabi_i2d>
    3fba:	4a15      	ldr	r2, [pc, #84]	; (4010 <__ieee754_log+0x38c>)
    3fbc:	4b15      	ldr	r3, [pc, #84]	; (4014 <__ieee754_log+0x390>)
    3fbe:	9000      	str	r0, [sp, #0]
    3fc0:	9101      	str	r1, [sp, #4]
    3fc2:	f001 fd71 	bl	5aa8 <__aeabi_dmul>
    3fc6:	4a14      	ldr	r2, [pc, #80]	; (4018 <__ieee754_log+0x394>)
    3fc8:	9002      	str	r0, [sp, #8]
    3fca:	9103      	str	r1, [sp, #12]
    3fcc:	9800      	ldr	r0, [sp, #0]
    3fce:	9901      	ldr	r1, [sp, #4]
    3fd0:	4b12      	ldr	r3, [pc, #72]	; (401c <__ieee754_log+0x398>)
    3fd2:	f001 fd69 	bl	5aa8 <__aeabi_dmul>
    3fd6:	0002      	movs	r2, r0
    3fd8:	000b      	movs	r3, r1
    3fda:	0020      	movs	r0, r4
    3fdc:	0029      	movs	r1, r5
    3fde:	f001 ffdd 	bl	5f9c <__aeabi_dsub>
    3fe2:	0032      	movs	r2, r6
    3fe4:	003b      	movs	r3, r7
    3fe6:	f001 ffd9 	bl	5f9c <__aeabi_dsub>
    3fea:	0002      	movs	r2, r0
    3fec:	000b      	movs	r3, r1
    3fee:	9802      	ldr	r0, [sp, #8]
    3ff0:	9903      	ldr	r1, [sp, #12]
    3ff2:	f001 ffd3 	bl	5f9c <__aeabi_dsub>
    3ff6:	e6ad      	b.n	3d54 <__ieee754_log+0xd0>
    3ff8:	000fffff 	.word	0x000fffff
    3ffc:	43500000 	.word	0x43500000
    4000:	7fefffff 	.word	0x7fefffff
    4004:	fffffc01 	.word	0xfffffc01
    4008:	00095f64 	.word	0x00095f64
    400c:	3ff00000 	.word	0x3ff00000
    4010:	fee00000 	.word	0xfee00000
    4014:	3fe62e42 	.word	0x3fe62e42
    4018:	35793c76 	.word	0x35793c76
    401c:	3dea39ef 	.word	0x3dea39ef
    4020:	fff9eb86 	.word	0xfff9eb86
    4024:	df3e5244 	.word	0xdf3e5244
    4028:	3fc2f112 	.word	0x3fc2f112
    402c:	96cb03de 	.word	0x96cb03de
    4030:	3fc74664 	.word	0x3fc74664
    4034:	94229359 	.word	0x94229359
    4038:	3fd24924 	.word	0x3fd24924
    403c:	55555593 	.word	0x55555593
    4040:	3fe55555 	.word	0x3fe55555
    4044:	d078c69f 	.word	0xd078c69f
    4048:	3fc39a09 	.word	0x3fc39a09
    404c:	1d8e78af 	.word	0x1d8e78af
    4050:	3fcc71c5 	.word	0x3fcc71c5
    4054:	9997fa04 	.word	0x9997fa04
    4058:	3fd99999 	.word	0x3fd99999
    405c:	0006b851 	.word	0x0006b851
    4060:	3fe00000 	.word	0x3fe00000
    4064:	c3500000 	.word	0xc3500000
    4068:	55555555 	.word	0x55555555
    406c:	3fd55555 	.word	0x3fd55555
    4070:	0022      	movs	r2, r4
    4072:	002b      	movs	r3, r5
    4074:	0030      	movs	r0, r6
    4076:	0039      	movs	r1, r7
    4078:	f001 ff90 	bl	5f9c <__aeabi_dsub>
    407c:	9a04      	ldr	r2, [sp, #16]
    407e:	9b05      	ldr	r3, [sp, #20]
    4080:	f001 fd12 	bl	5aa8 <__aeabi_dmul>
    4084:	e6f6      	b.n	3e74 <__ieee754_log+0x1f0>
    4086:	46c0      	nop			; (mov r8, r8)

00004088 <copysign>:
    4088:	b530      	push	{r4, r5, lr}
    408a:	004a      	lsls	r2, r1, #1
    408c:	0fdb      	lsrs	r3, r3, #31
    408e:	07db      	lsls	r3, r3, #31
    4090:	0852      	lsrs	r2, r2, #1
    4092:	431a      	orrs	r2, r3
    4094:	0011      	movs	r1, r2
    4096:	bd30      	pop	{r4, r5, pc}

00004098 <__aeabi_uidiv>:
    4098:	2200      	movs	r2, #0
    409a:	0843      	lsrs	r3, r0, #1
    409c:	428b      	cmp	r3, r1
    409e:	d374      	bcc.n	418a <__aeabi_uidiv+0xf2>
    40a0:	0903      	lsrs	r3, r0, #4
    40a2:	428b      	cmp	r3, r1
    40a4:	d35f      	bcc.n	4166 <__aeabi_uidiv+0xce>
    40a6:	0a03      	lsrs	r3, r0, #8
    40a8:	428b      	cmp	r3, r1
    40aa:	d344      	bcc.n	4136 <__aeabi_uidiv+0x9e>
    40ac:	0b03      	lsrs	r3, r0, #12
    40ae:	428b      	cmp	r3, r1
    40b0:	d328      	bcc.n	4104 <__aeabi_uidiv+0x6c>
    40b2:	0c03      	lsrs	r3, r0, #16
    40b4:	428b      	cmp	r3, r1
    40b6:	d30d      	bcc.n	40d4 <__aeabi_uidiv+0x3c>
    40b8:	22ff      	movs	r2, #255	; 0xff
    40ba:	0209      	lsls	r1, r1, #8
    40bc:	ba12      	rev	r2, r2
    40be:	0c03      	lsrs	r3, r0, #16
    40c0:	428b      	cmp	r3, r1
    40c2:	d302      	bcc.n	40ca <__aeabi_uidiv+0x32>
    40c4:	1212      	asrs	r2, r2, #8
    40c6:	0209      	lsls	r1, r1, #8
    40c8:	d065      	beq.n	4196 <__aeabi_uidiv+0xfe>
    40ca:	0b03      	lsrs	r3, r0, #12
    40cc:	428b      	cmp	r3, r1
    40ce:	d319      	bcc.n	4104 <__aeabi_uidiv+0x6c>
    40d0:	e000      	b.n	40d4 <__aeabi_uidiv+0x3c>
    40d2:	0a09      	lsrs	r1, r1, #8
    40d4:	0bc3      	lsrs	r3, r0, #15
    40d6:	428b      	cmp	r3, r1
    40d8:	d301      	bcc.n	40de <__aeabi_uidiv+0x46>
    40da:	03cb      	lsls	r3, r1, #15
    40dc:	1ac0      	subs	r0, r0, r3
    40de:	4152      	adcs	r2, r2
    40e0:	0b83      	lsrs	r3, r0, #14
    40e2:	428b      	cmp	r3, r1
    40e4:	d301      	bcc.n	40ea <__aeabi_uidiv+0x52>
    40e6:	038b      	lsls	r3, r1, #14
    40e8:	1ac0      	subs	r0, r0, r3
    40ea:	4152      	adcs	r2, r2
    40ec:	0b43      	lsrs	r3, r0, #13
    40ee:	428b      	cmp	r3, r1
    40f0:	d301      	bcc.n	40f6 <__aeabi_uidiv+0x5e>
    40f2:	034b      	lsls	r3, r1, #13
    40f4:	1ac0      	subs	r0, r0, r3
    40f6:	4152      	adcs	r2, r2
    40f8:	0b03      	lsrs	r3, r0, #12
    40fa:	428b      	cmp	r3, r1
    40fc:	d301      	bcc.n	4102 <__aeabi_uidiv+0x6a>
    40fe:	030b      	lsls	r3, r1, #12
    4100:	1ac0      	subs	r0, r0, r3
    4102:	4152      	adcs	r2, r2
    4104:	0ac3      	lsrs	r3, r0, #11
    4106:	428b      	cmp	r3, r1
    4108:	d301      	bcc.n	410e <__aeabi_uidiv+0x76>
    410a:	02cb      	lsls	r3, r1, #11
    410c:	1ac0      	subs	r0, r0, r3
    410e:	4152      	adcs	r2, r2
    4110:	0a83      	lsrs	r3, r0, #10
    4112:	428b      	cmp	r3, r1
    4114:	d301      	bcc.n	411a <__aeabi_uidiv+0x82>
    4116:	028b      	lsls	r3, r1, #10
    4118:	1ac0      	subs	r0, r0, r3
    411a:	4152      	adcs	r2, r2
    411c:	0a43      	lsrs	r3, r0, #9
    411e:	428b      	cmp	r3, r1
    4120:	d301      	bcc.n	4126 <__aeabi_uidiv+0x8e>
    4122:	024b      	lsls	r3, r1, #9
    4124:	1ac0      	subs	r0, r0, r3
    4126:	4152      	adcs	r2, r2
    4128:	0a03      	lsrs	r3, r0, #8
    412a:	428b      	cmp	r3, r1
    412c:	d301      	bcc.n	4132 <__aeabi_uidiv+0x9a>
    412e:	020b      	lsls	r3, r1, #8
    4130:	1ac0      	subs	r0, r0, r3
    4132:	4152      	adcs	r2, r2
    4134:	d2cd      	bcs.n	40d2 <__aeabi_uidiv+0x3a>
    4136:	09c3      	lsrs	r3, r0, #7
    4138:	428b      	cmp	r3, r1
    413a:	d301      	bcc.n	4140 <__aeabi_uidiv+0xa8>
    413c:	01cb      	lsls	r3, r1, #7
    413e:	1ac0      	subs	r0, r0, r3
    4140:	4152      	adcs	r2, r2
    4142:	0983      	lsrs	r3, r0, #6
    4144:	428b      	cmp	r3, r1
    4146:	d301      	bcc.n	414c <__aeabi_uidiv+0xb4>
    4148:	018b      	lsls	r3, r1, #6
    414a:	1ac0      	subs	r0, r0, r3
    414c:	4152      	adcs	r2, r2
    414e:	0943      	lsrs	r3, r0, #5
    4150:	428b      	cmp	r3, r1
    4152:	d301      	bcc.n	4158 <__aeabi_uidiv+0xc0>
    4154:	014b      	lsls	r3, r1, #5
    4156:	1ac0      	subs	r0, r0, r3
    4158:	4152      	adcs	r2, r2
    415a:	0903      	lsrs	r3, r0, #4
    415c:	428b      	cmp	r3, r1
    415e:	d301      	bcc.n	4164 <__aeabi_uidiv+0xcc>
    4160:	010b      	lsls	r3, r1, #4
    4162:	1ac0      	subs	r0, r0, r3
    4164:	4152      	adcs	r2, r2
    4166:	08c3      	lsrs	r3, r0, #3
    4168:	428b      	cmp	r3, r1
    416a:	d301      	bcc.n	4170 <__aeabi_uidiv+0xd8>
    416c:	00cb      	lsls	r3, r1, #3
    416e:	1ac0      	subs	r0, r0, r3
    4170:	4152      	adcs	r2, r2
    4172:	0883      	lsrs	r3, r0, #2
    4174:	428b      	cmp	r3, r1
    4176:	d301      	bcc.n	417c <__aeabi_uidiv+0xe4>
    4178:	008b      	lsls	r3, r1, #2
    417a:	1ac0      	subs	r0, r0, r3
    417c:	4152      	adcs	r2, r2
    417e:	0843      	lsrs	r3, r0, #1
    4180:	428b      	cmp	r3, r1
    4182:	d301      	bcc.n	4188 <__aeabi_uidiv+0xf0>
    4184:	004b      	lsls	r3, r1, #1
    4186:	1ac0      	subs	r0, r0, r3
    4188:	4152      	adcs	r2, r2
    418a:	1a41      	subs	r1, r0, r1
    418c:	d200      	bcs.n	4190 <__aeabi_uidiv+0xf8>
    418e:	4601      	mov	r1, r0
    4190:	4152      	adcs	r2, r2
    4192:	4610      	mov	r0, r2
    4194:	4770      	bx	lr
    4196:	e7ff      	b.n	4198 <__aeabi_uidiv+0x100>
    4198:	b501      	push	{r0, lr}
    419a:	2000      	movs	r0, #0
    419c:	f000 f8f0 	bl	4380 <__aeabi_idiv0>
    41a0:	bd02      	pop	{r1, pc}
    41a2:	46c0      	nop			; (mov r8, r8)

000041a4 <__aeabi_uidivmod>:
    41a4:	2900      	cmp	r1, #0
    41a6:	d0f7      	beq.n	4198 <__aeabi_uidiv+0x100>
    41a8:	e776      	b.n	4098 <__aeabi_uidiv>
    41aa:	4770      	bx	lr

000041ac <__aeabi_idiv>:
    41ac:	4603      	mov	r3, r0
    41ae:	430b      	orrs	r3, r1
    41b0:	d47f      	bmi.n	42b2 <__aeabi_idiv+0x106>
    41b2:	2200      	movs	r2, #0
    41b4:	0843      	lsrs	r3, r0, #1
    41b6:	428b      	cmp	r3, r1
    41b8:	d374      	bcc.n	42a4 <__aeabi_idiv+0xf8>
    41ba:	0903      	lsrs	r3, r0, #4
    41bc:	428b      	cmp	r3, r1
    41be:	d35f      	bcc.n	4280 <__aeabi_idiv+0xd4>
    41c0:	0a03      	lsrs	r3, r0, #8
    41c2:	428b      	cmp	r3, r1
    41c4:	d344      	bcc.n	4250 <__aeabi_idiv+0xa4>
    41c6:	0b03      	lsrs	r3, r0, #12
    41c8:	428b      	cmp	r3, r1
    41ca:	d328      	bcc.n	421e <__aeabi_idiv+0x72>
    41cc:	0c03      	lsrs	r3, r0, #16
    41ce:	428b      	cmp	r3, r1
    41d0:	d30d      	bcc.n	41ee <__aeabi_idiv+0x42>
    41d2:	22ff      	movs	r2, #255	; 0xff
    41d4:	0209      	lsls	r1, r1, #8
    41d6:	ba12      	rev	r2, r2
    41d8:	0c03      	lsrs	r3, r0, #16
    41da:	428b      	cmp	r3, r1
    41dc:	d302      	bcc.n	41e4 <__aeabi_idiv+0x38>
    41de:	1212      	asrs	r2, r2, #8
    41e0:	0209      	lsls	r1, r1, #8
    41e2:	d065      	beq.n	42b0 <__aeabi_idiv+0x104>
    41e4:	0b03      	lsrs	r3, r0, #12
    41e6:	428b      	cmp	r3, r1
    41e8:	d319      	bcc.n	421e <__aeabi_idiv+0x72>
    41ea:	e000      	b.n	41ee <__aeabi_idiv+0x42>
    41ec:	0a09      	lsrs	r1, r1, #8
    41ee:	0bc3      	lsrs	r3, r0, #15
    41f0:	428b      	cmp	r3, r1
    41f2:	d301      	bcc.n	41f8 <__aeabi_idiv+0x4c>
    41f4:	03cb      	lsls	r3, r1, #15
    41f6:	1ac0      	subs	r0, r0, r3
    41f8:	4152      	adcs	r2, r2
    41fa:	0b83      	lsrs	r3, r0, #14
    41fc:	428b      	cmp	r3, r1
    41fe:	d301      	bcc.n	4204 <__aeabi_idiv+0x58>
    4200:	038b      	lsls	r3, r1, #14
    4202:	1ac0      	subs	r0, r0, r3
    4204:	4152      	adcs	r2, r2
    4206:	0b43      	lsrs	r3, r0, #13
    4208:	428b      	cmp	r3, r1
    420a:	d301      	bcc.n	4210 <__aeabi_idiv+0x64>
    420c:	034b      	lsls	r3, r1, #13
    420e:	1ac0      	subs	r0, r0, r3
    4210:	4152      	adcs	r2, r2
    4212:	0b03      	lsrs	r3, r0, #12
    4214:	428b      	cmp	r3, r1
    4216:	d301      	bcc.n	421c <__aeabi_idiv+0x70>
    4218:	030b      	lsls	r3, r1, #12
    421a:	1ac0      	subs	r0, r0, r3
    421c:	4152      	adcs	r2, r2
    421e:	0ac3      	lsrs	r3, r0, #11
    4220:	428b      	cmp	r3, r1
    4222:	d301      	bcc.n	4228 <__aeabi_idiv+0x7c>
    4224:	02cb      	lsls	r3, r1, #11
    4226:	1ac0      	subs	r0, r0, r3
    4228:	4152      	adcs	r2, r2
    422a:	0a83      	lsrs	r3, r0, #10
    422c:	428b      	cmp	r3, r1
    422e:	d301      	bcc.n	4234 <__aeabi_idiv+0x88>
    4230:	028b      	lsls	r3, r1, #10
    4232:	1ac0      	subs	r0, r0, r3
    4234:	4152      	adcs	r2, r2
    4236:	0a43      	lsrs	r3, r0, #9
    4238:	428b      	cmp	r3, r1
    423a:	d301      	bcc.n	4240 <__aeabi_idiv+0x94>
    423c:	024b      	lsls	r3, r1, #9
    423e:	1ac0      	subs	r0, r0, r3
    4240:	4152      	adcs	r2, r2
    4242:	0a03      	lsrs	r3, r0, #8
    4244:	428b      	cmp	r3, r1
    4246:	d301      	bcc.n	424c <__aeabi_idiv+0xa0>
    4248:	020b      	lsls	r3, r1, #8
    424a:	1ac0      	subs	r0, r0, r3
    424c:	4152      	adcs	r2, r2
    424e:	d2cd      	bcs.n	41ec <__aeabi_idiv+0x40>
    4250:	09c3      	lsrs	r3, r0, #7
    4252:	428b      	cmp	r3, r1
    4254:	d301      	bcc.n	425a <__aeabi_idiv+0xae>
    4256:	01cb      	lsls	r3, r1, #7
    4258:	1ac0      	subs	r0, r0, r3
    425a:	4152      	adcs	r2, r2
    425c:	0983      	lsrs	r3, r0, #6
    425e:	428b      	cmp	r3, r1
    4260:	d301      	bcc.n	4266 <__aeabi_idiv+0xba>
    4262:	018b      	lsls	r3, r1, #6
    4264:	1ac0      	subs	r0, r0, r3
    4266:	4152      	adcs	r2, r2
    4268:	0943      	lsrs	r3, r0, #5
    426a:	428b      	cmp	r3, r1
    426c:	d301      	bcc.n	4272 <__aeabi_idiv+0xc6>
    426e:	014b      	lsls	r3, r1, #5
    4270:	1ac0      	subs	r0, r0, r3
    4272:	4152      	adcs	r2, r2
    4274:	0903      	lsrs	r3, r0, #4
    4276:	428b      	cmp	r3, r1
    4278:	d301      	bcc.n	427e <__aeabi_idiv+0xd2>
    427a:	010b      	lsls	r3, r1, #4
    427c:	1ac0      	subs	r0, r0, r3
    427e:	4152      	adcs	r2, r2
    4280:	08c3      	lsrs	r3, r0, #3
    4282:	428b      	cmp	r3, r1
    4284:	d301      	bcc.n	428a <__aeabi_idiv+0xde>
    4286:	00cb      	lsls	r3, r1, #3
    4288:	1ac0      	subs	r0, r0, r3
    428a:	4152      	adcs	r2, r2
    428c:	0883      	lsrs	r3, r0, #2
    428e:	428b      	cmp	r3, r1
    4290:	d301      	bcc.n	4296 <__aeabi_idiv+0xea>
    4292:	008b      	lsls	r3, r1, #2
    4294:	1ac0      	subs	r0, r0, r3
    4296:	4152      	adcs	r2, r2
    4298:	0843      	lsrs	r3, r0, #1
    429a:	428b      	cmp	r3, r1
    429c:	d301      	bcc.n	42a2 <__aeabi_idiv+0xf6>
    429e:	004b      	lsls	r3, r1, #1
    42a0:	1ac0      	subs	r0, r0, r3
    42a2:	4152      	adcs	r2, r2
    42a4:	1a41      	subs	r1, r0, r1
    42a6:	d200      	bcs.n	42aa <__aeabi_idiv+0xfe>
    42a8:	4601      	mov	r1, r0
    42aa:	4152      	adcs	r2, r2
    42ac:	4610      	mov	r0, r2
    42ae:	4770      	bx	lr
    42b0:	e05d      	b.n	436e <__aeabi_idiv+0x1c2>
    42b2:	0fca      	lsrs	r2, r1, #31
    42b4:	d000      	beq.n	42b8 <__aeabi_idiv+0x10c>
    42b6:	4249      	negs	r1, r1
    42b8:	1003      	asrs	r3, r0, #32
    42ba:	d300      	bcc.n	42be <__aeabi_idiv+0x112>
    42bc:	4240      	negs	r0, r0
    42be:	4053      	eors	r3, r2
    42c0:	2200      	movs	r2, #0
    42c2:	469c      	mov	ip, r3
    42c4:	0903      	lsrs	r3, r0, #4
    42c6:	428b      	cmp	r3, r1
    42c8:	d32d      	bcc.n	4326 <__aeabi_idiv+0x17a>
    42ca:	0a03      	lsrs	r3, r0, #8
    42cc:	428b      	cmp	r3, r1
    42ce:	d312      	bcc.n	42f6 <__aeabi_idiv+0x14a>
    42d0:	22fc      	movs	r2, #252	; 0xfc
    42d2:	0189      	lsls	r1, r1, #6
    42d4:	ba12      	rev	r2, r2
    42d6:	0a03      	lsrs	r3, r0, #8
    42d8:	428b      	cmp	r3, r1
    42da:	d30c      	bcc.n	42f6 <__aeabi_idiv+0x14a>
    42dc:	0189      	lsls	r1, r1, #6
    42de:	1192      	asrs	r2, r2, #6
    42e0:	428b      	cmp	r3, r1
    42e2:	d308      	bcc.n	42f6 <__aeabi_idiv+0x14a>
    42e4:	0189      	lsls	r1, r1, #6
    42e6:	1192      	asrs	r2, r2, #6
    42e8:	428b      	cmp	r3, r1
    42ea:	d304      	bcc.n	42f6 <__aeabi_idiv+0x14a>
    42ec:	0189      	lsls	r1, r1, #6
    42ee:	d03a      	beq.n	4366 <__aeabi_idiv+0x1ba>
    42f0:	1192      	asrs	r2, r2, #6
    42f2:	e000      	b.n	42f6 <__aeabi_idiv+0x14a>
    42f4:	0989      	lsrs	r1, r1, #6
    42f6:	09c3      	lsrs	r3, r0, #7
    42f8:	428b      	cmp	r3, r1
    42fa:	d301      	bcc.n	4300 <__aeabi_idiv+0x154>
    42fc:	01cb      	lsls	r3, r1, #7
    42fe:	1ac0      	subs	r0, r0, r3
    4300:	4152      	adcs	r2, r2
    4302:	0983      	lsrs	r3, r0, #6
    4304:	428b      	cmp	r3, r1
    4306:	d301      	bcc.n	430c <__aeabi_idiv+0x160>
    4308:	018b      	lsls	r3, r1, #6
    430a:	1ac0      	subs	r0, r0, r3
    430c:	4152      	adcs	r2, r2
    430e:	0943      	lsrs	r3, r0, #5
    4310:	428b      	cmp	r3, r1
    4312:	d301      	bcc.n	4318 <__aeabi_idiv+0x16c>
    4314:	014b      	lsls	r3, r1, #5
    4316:	1ac0      	subs	r0, r0, r3
    4318:	4152      	adcs	r2, r2
    431a:	0903      	lsrs	r3, r0, #4
    431c:	428b      	cmp	r3, r1
    431e:	d301      	bcc.n	4324 <__aeabi_idiv+0x178>
    4320:	010b      	lsls	r3, r1, #4
    4322:	1ac0      	subs	r0, r0, r3
    4324:	4152      	adcs	r2, r2
    4326:	08c3      	lsrs	r3, r0, #3
    4328:	428b      	cmp	r3, r1
    432a:	d301      	bcc.n	4330 <__aeabi_idiv+0x184>
    432c:	00cb      	lsls	r3, r1, #3
    432e:	1ac0      	subs	r0, r0, r3
    4330:	4152      	adcs	r2, r2
    4332:	0883      	lsrs	r3, r0, #2
    4334:	428b      	cmp	r3, r1
    4336:	d301      	bcc.n	433c <__aeabi_idiv+0x190>
    4338:	008b      	lsls	r3, r1, #2
    433a:	1ac0      	subs	r0, r0, r3
    433c:	4152      	adcs	r2, r2
    433e:	d2d9      	bcs.n	42f4 <__aeabi_idiv+0x148>
    4340:	0843      	lsrs	r3, r0, #1
    4342:	428b      	cmp	r3, r1
    4344:	d301      	bcc.n	434a <__aeabi_idiv+0x19e>
    4346:	004b      	lsls	r3, r1, #1
    4348:	1ac0      	subs	r0, r0, r3
    434a:	4152      	adcs	r2, r2
    434c:	1a41      	subs	r1, r0, r1
    434e:	d200      	bcs.n	4352 <__aeabi_idiv+0x1a6>
    4350:	4601      	mov	r1, r0
    4352:	4663      	mov	r3, ip
    4354:	4152      	adcs	r2, r2
    4356:	105b      	asrs	r3, r3, #1
    4358:	4610      	mov	r0, r2
    435a:	d301      	bcc.n	4360 <__aeabi_idiv+0x1b4>
    435c:	4240      	negs	r0, r0
    435e:	2b00      	cmp	r3, #0
    4360:	d500      	bpl.n	4364 <__aeabi_idiv+0x1b8>
    4362:	4249      	negs	r1, r1
    4364:	4770      	bx	lr
    4366:	4663      	mov	r3, ip
    4368:	105b      	asrs	r3, r3, #1
    436a:	d300      	bcc.n	436e <__aeabi_idiv+0x1c2>
    436c:	4240      	negs	r0, r0
    436e:	b501      	push	{r0, lr}
    4370:	2000      	movs	r0, #0
    4372:	f000 f805 	bl	4380 <__aeabi_idiv0>
    4376:	bd02      	pop	{r1, pc}

00004378 <__aeabi_idivmod>:
    4378:	2900      	cmp	r1, #0
    437a:	d0f8      	beq.n	436e <__aeabi_idiv+0x1c2>
    437c:	e716      	b.n	41ac <__aeabi_idiv>
    437e:	4770      	bx	lr

00004380 <__aeabi_idiv0>:
    4380:	4770      	bx	lr
    4382:	46c0      	nop			; (mov r8, r8)

00004384 <__aeabi_cdrcmple>:
    4384:	4684      	mov	ip, r0
    4386:	1c10      	adds	r0, r2, #0
    4388:	4662      	mov	r2, ip
    438a:	468c      	mov	ip, r1
    438c:	1c19      	adds	r1, r3, #0
    438e:	4663      	mov	r3, ip
    4390:	e000      	b.n	4394 <__aeabi_cdcmpeq>
    4392:	46c0      	nop			; (mov r8, r8)

00004394 <__aeabi_cdcmpeq>:
    4394:	b51f      	push	{r0, r1, r2, r3, r4, lr}
    4396:	f001 fb1d 	bl	59d4 <__ledf2>
    439a:	2800      	cmp	r0, #0
    439c:	d401      	bmi.n	43a2 <__aeabi_cdcmpeq+0xe>
    439e:	2100      	movs	r1, #0
    43a0:	42c8      	cmn	r0, r1
    43a2:	bd1f      	pop	{r0, r1, r2, r3, r4, pc}

000043a4 <__aeabi_dcmpeq>:
    43a4:	b510      	push	{r4, lr}
    43a6:	f001 fa71 	bl	588c <__eqdf2>
    43aa:	4240      	negs	r0, r0
    43ac:	3001      	adds	r0, #1
    43ae:	bd10      	pop	{r4, pc}

000043b0 <__aeabi_dcmplt>:
    43b0:	b510      	push	{r4, lr}
    43b2:	f001 fb0f 	bl	59d4 <__ledf2>
    43b6:	2800      	cmp	r0, #0
    43b8:	db01      	blt.n	43be <__aeabi_dcmplt+0xe>
    43ba:	2000      	movs	r0, #0
    43bc:	bd10      	pop	{r4, pc}
    43be:	2001      	movs	r0, #1
    43c0:	bd10      	pop	{r4, pc}
    43c2:	46c0      	nop			; (mov r8, r8)

000043c4 <__aeabi_dcmple>:
    43c4:	b510      	push	{r4, lr}
    43c6:	f001 fb05 	bl	59d4 <__ledf2>
    43ca:	2800      	cmp	r0, #0
    43cc:	dd01      	ble.n	43d2 <__aeabi_dcmple+0xe>
    43ce:	2000      	movs	r0, #0
    43d0:	bd10      	pop	{r4, pc}
    43d2:	2001      	movs	r0, #1
    43d4:	bd10      	pop	{r4, pc}
    43d6:	46c0      	nop			; (mov r8, r8)

000043d8 <__aeabi_dcmpgt>:
    43d8:	b510      	push	{r4, lr}
    43da:	f001 fa97 	bl	590c <__gedf2>
    43de:	2800      	cmp	r0, #0
    43e0:	dc01      	bgt.n	43e6 <__aeabi_dcmpgt+0xe>
    43e2:	2000      	movs	r0, #0
    43e4:	bd10      	pop	{r4, pc}
    43e6:	2001      	movs	r0, #1
    43e8:	bd10      	pop	{r4, pc}
    43ea:	46c0      	nop			; (mov r8, r8)

000043ec <__aeabi_dcmpge>:
    43ec:	b510      	push	{r4, lr}
    43ee:	f001 fa8d 	bl	590c <__gedf2>
    43f2:	2800      	cmp	r0, #0
    43f4:	da01      	bge.n	43fa <__aeabi_dcmpge+0xe>
    43f6:	2000      	movs	r0, #0
    43f8:	bd10      	pop	{r4, pc}
    43fa:	2001      	movs	r0, #1
    43fc:	bd10      	pop	{r4, pc}
    43fe:	46c0      	nop			; (mov r8, r8)

00004400 <__aeabi_cfrcmple>:
    4400:	4684      	mov	ip, r0
    4402:	1c08      	adds	r0, r1, #0
    4404:	4661      	mov	r1, ip
    4406:	e7ff      	b.n	4408 <__aeabi_cfcmpeq>

00004408 <__aeabi_cfcmpeq>:
    4408:	b51f      	push	{r0, r1, r2, r3, r4, lr}
    440a:	f000 fa33 	bl	4874 <__lesf2>
    440e:	2800      	cmp	r0, #0
    4410:	d401      	bmi.n	4416 <__aeabi_cfcmpeq+0xe>
    4412:	2100      	movs	r1, #0
    4414:	42c8      	cmn	r0, r1
    4416:	bd1f      	pop	{r0, r1, r2, r3, r4, pc}

00004418 <__aeabi_fcmpeq>:
    4418:	b510      	push	{r4, lr}
    441a:	f000 f9bf 	bl	479c <__eqsf2>
    441e:	4240      	negs	r0, r0
    4420:	3001      	adds	r0, #1
    4422:	bd10      	pop	{r4, pc}

00004424 <__aeabi_fcmplt>:
    4424:	b510      	push	{r4, lr}
    4426:	f000 fa25 	bl	4874 <__lesf2>
    442a:	2800      	cmp	r0, #0
    442c:	db01      	blt.n	4432 <__aeabi_fcmplt+0xe>
    442e:	2000      	movs	r0, #0
    4430:	bd10      	pop	{r4, pc}
    4432:	2001      	movs	r0, #1
    4434:	bd10      	pop	{r4, pc}
    4436:	46c0      	nop			; (mov r8, r8)

00004438 <__aeabi_fcmple>:
    4438:	b510      	push	{r4, lr}
    443a:	f000 fa1b 	bl	4874 <__lesf2>
    443e:	2800      	cmp	r0, #0
    4440:	dd01      	ble.n	4446 <__aeabi_fcmple+0xe>
    4442:	2000      	movs	r0, #0
    4444:	bd10      	pop	{r4, pc}
    4446:	2001      	movs	r0, #1
    4448:	bd10      	pop	{r4, pc}
    444a:	46c0      	nop			; (mov r8, r8)

0000444c <__aeabi_fcmpgt>:
    444c:	b510      	push	{r4, lr}
    444e:	f000 f9cd 	bl	47ec <__gesf2>
    4452:	2800      	cmp	r0, #0
    4454:	dc01      	bgt.n	445a <__aeabi_fcmpgt+0xe>
    4456:	2000      	movs	r0, #0
    4458:	bd10      	pop	{r4, pc}
    445a:	2001      	movs	r0, #1
    445c:	bd10      	pop	{r4, pc}
    445e:	46c0      	nop			; (mov r8, r8)

00004460 <__aeabi_fcmpge>:
    4460:	b510      	push	{r4, lr}
    4462:	f000 f9c3 	bl	47ec <__gesf2>
    4466:	2800      	cmp	r0, #0
    4468:	da01      	bge.n	446e <__aeabi_fcmpge+0xe>
    446a:	2000      	movs	r0, #0
    446c:	bd10      	pop	{r4, pc}
    446e:	2001      	movs	r0, #1
    4470:	bd10      	pop	{r4, pc}
    4472:	46c0      	nop			; (mov r8, r8)

00004474 <__aeabi_d2uiz>:
    4474:	b570      	push	{r4, r5, r6, lr}
    4476:	2200      	movs	r2, #0
    4478:	4b0c      	ldr	r3, [pc, #48]	; (44ac <__aeabi_d2uiz+0x38>)
    447a:	0004      	movs	r4, r0
    447c:	000d      	movs	r5, r1
    447e:	f7ff ffb5 	bl	43ec <__aeabi_dcmpge>
    4482:	2800      	cmp	r0, #0
    4484:	d104      	bne.n	4490 <__aeabi_d2uiz+0x1c>
    4486:	0020      	movs	r0, r4
    4488:	0029      	movs	r1, r5
    448a:	f002 f8fb 	bl	6684 <__aeabi_d2iz>
    448e:	bd70      	pop	{r4, r5, r6, pc}
    4490:	4b06      	ldr	r3, [pc, #24]	; (44ac <__aeabi_d2uiz+0x38>)
    4492:	2200      	movs	r2, #0
    4494:	0020      	movs	r0, r4
    4496:	0029      	movs	r1, r5
    4498:	f001 fd80 	bl	5f9c <__aeabi_dsub>
    449c:	f002 f8f2 	bl	6684 <__aeabi_d2iz>
    44a0:	2380      	movs	r3, #128	; 0x80
    44a2:	061b      	lsls	r3, r3, #24
    44a4:	469c      	mov	ip, r3
    44a6:	4460      	add	r0, ip
    44a8:	e7f1      	b.n	448e <__aeabi_d2uiz+0x1a>
    44aa:	46c0      	nop			; (mov r8, r8)
    44ac:	41e00000 	.word	0x41e00000

000044b0 <__aeabi_fadd>:
    44b0:	b5f8      	push	{r3, r4, r5, r6, r7, lr}
    44b2:	024a      	lsls	r2, r1, #9
    44b4:	0243      	lsls	r3, r0, #9
    44b6:	0044      	lsls	r4, r0, #1
    44b8:	004e      	lsls	r6, r1, #1
    44ba:	0fc5      	lsrs	r5, r0, #31
    44bc:	0e24      	lsrs	r4, r4, #24
    44be:	0028      	movs	r0, r5
    44c0:	099b      	lsrs	r3, r3, #6
    44c2:	0e36      	lsrs	r6, r6, #24
    44c4:	0fc9      	lsrs	r1, r1, #31
    44c6:	0992      	lsrs	r2, r2, #6
    44c8:	428d      	cmp	r5, r1
    44ca:	d059      	beq.n	4580 <__aeabi_fadd+0xd0>
    44cc:	1ba0      	subs	r0, r4, r6
    44ce:	2800      	cmp	r0, #0
    44d0:	dc00      	bgt.n	44d4 <__aeabi_fadd+0x24>
    44d2:	e08d      	b.n	45f0 <__aeabi_fadd+0x140>
    44d4:	2e00      	cmp	r6, #0
    44d6:	d11a      	bne.n	450e <__aeabi_fadd+0x5e>
    44d8:	2a00      	cmp	r2, #0
    44da:	d000      	beq.n	44de <__aeabi_fadd+0x2e>
    44dc:	e079      	b.n	45d2 <__aeabi_fadd+0x122>
    44de:	075a      	lsls	r2, r3, #29
    44e0:	d004      	beq.n	44ec <__aeabi_fadd+0x3c>
    44e2:	220f      	movs	r2, #15
    44e4:	401a      	ands	r2, r3
    44e6:	2a04      	cmp	r2, #4
    44e8:	d000      	beq.n	44ec <__aeabi_fadd+0x3c>
    44ea:	3304      	adds	r3, #4
    44ec:	015a      	lsls	r2, r3, #5
    44ee:	d538      	bpl.n	4562 <__aeabi_fadd+0xb2>
    44f0:	3401      	adds	r4, #1
    44f2:	2cff      	cmp	r4, #255	; 0xff
    44f4:	d100      	bne.n	44f8 <__aeabi_fadd+0x48>
    44f6:	e089      	b.n	460c <__aeabi_fadd+0x15c>
    44f8:	0028      	movs	r0, r5
    44fa:	019b      	lsls	r3, r3, #6
    44fc:	0a5b      	lsrs	r3, r3, #9
    44fe:	b2e4      	uxtb	r4, r4
    4500:	025b      	lsls	r3, r3, #9
    4502:	05e4      	lsls	r4, r4, #23
    4504:	0a5b      	lsrs	r3, r3, #9
    4506:	4323      	orrs	r3, r4
    4508:	07c0      	lsls	r0, r0, #31
    450a:	4318      	orrs	r0, r3
    450c:	bdf8      	pop	{r3, r4, r5, r6, r7, pc}
    450e:	2cff      	cmp	r4, #255	; 0xff
    4510:	d0e5      	beq.n	44de <__aeabi_fadd+0x2e>
    4512:	2180      	movs	r1, #128	; 0x80
    4514:	04c9      	lsls	r1, r1, #19
    4516:	430a      	orrs	r2, r1
    4518:	281b      	cmp	r0, #27
    451a:	dd00      	ble.n	451e <__aeabi_fadd+0x6e>
    451c:	e089      	b.n	4632 <__aeabi_fadd+0x182>
    451e:	0016      	movs	r6, r2
    4520:	2120      	movs	r1, #32
    4522:	40c6      	lsrs	r6, r0
    4524:	1a08      	subs	r0, r1, r0
    4526:	4082      	lsls	r2, r0
    4528:	1e51      	subs	r1, r2, #1
    452a:	418a      	sbcs	r2, r1
    452c:	4332      	orrs	r2, r6
    452e:	1a9b      	subs	r3, r3, r2
    4530:	015a      	lsls	r2, r3, #5
    4532:	d514      	bpl.n	455e <__aeabi_fadd+0xae>
    4534:	019b      	lsls	r3, r3, #6
    4536:	099e      	lsrs	r6, r3, #6
    4538:	0030      	movs	r0, r6
    453a:	f002 f9fb 	bl	6934 <__clzsi2>
    453e:	3805      	subs	r0, #5
    4540:	4086      	lsls	r6, r0
    4542:	4284      	cmp	r4, r0
    4544:	dc65      	bgt.n	4612 <__aeabi_fadd+0x162>
    4546:	1b04      	subs	r4, r0, r4
    4548:	0033      	movs	r3, r6
    454a:	2020      	movs	r0, #32
    454c:	3401      	adds	r4, #1
    454e:	40e3      	lsrs	r3, r4
    4550:	1b04      	subs	r4, r0, r4
    4552:	40a6      	lsls	r6, r4
    4554:	1e72      	subs	r2, r6, #1
    4556:	4196      	sbcs	r6, r2
    4558:	2400      	movs	r4, #0
    455a:	4333      	orrs	r3, r6
    455c:	e7bf      	b.n	44de <__aeabi_fadd+0x2e>
    455e:	075a      	lsls	r2, r3, #29
    4560:	d1bf      	bne.n	44e2 <__aeabi_fadd+0x32>
    4562:	08df      	lsrs	r7, r3, #3
    4564:	0028      	movs	r0, r5
    4566:	2cff      	cmp	r4, #255	; 0xff
    4568:	d12f      	bne.n	45ca <__aeabi_fadd+0x11a>
    456a:	2f00      	cmp	r7, #0
    456c:	d100      	bne.n	4570 <__aeabi_fadd+0xc0>
    456e:	e087      	b.n	4680 <__aeabi_fadd+0x1d0>
    4570:	2280      	movs	r2, #128	; 0x80
    4572:	03d2      	lsls	r2, r2, #15
    4574:	0013      	movs	r3, r2
    4576:	433b      	orrs	r3, r7
    4578:	025b      	lsls	r3, r3, #9
    457a:	0a5b      	lsrs	r3, r3, #9
    457c:	24ff      	movs	r4, #255	; 0xff
    457e:	e7bf      	b.n	4500 <__aeabi_fadd+0x50>
    4580:	1ba1      	subs	r1, r4, r6
    4582:	2900      	cmp	r1, #0
    4584:	dd49      	ble.n	461a <__aeabi_fadd+0x16a>
    4586:	2e00      	cmp	r6, #0
    4588:	d029      	beq.n	45de <__aeabi_fadd+0x12e>
    458a:	2cff      	cmp	r4, #255	; 0xff
    458c:	d0a7      	beq.n	44de <__aeabi_fadd+0x2e>
    458e:	2680      	movs	r6, #128	; 0x80
    4590:	04f6      	lsls	r6, r6, #19
    4592:	4332      	orrs	r2, r6
    4594:	291b      	cmp	r1, #27
    4596:	dd00      	ble.n	459a <__aeabi_fadd+0xea>
    4598:	e08d      	b.n	46b6 <__aeabi_fadd+0x206>
    459a:	0017      	movs	r7, r2
    459c:	2620      	movs	r6, #32
    459e:	40cf      	lsrs	r7, r1
    45a0:	1a71      	subs	r1, r6, r1
    45a2:	408a      	lsls	r2, r1
    45a4:	1e51      	subs	r1, r2, #1
    45a6:	418a      	sbcs	r2, r1
    45a8:	433a      	orrs	r2, r7
    45aa:	189b      	adds	r3, r3, r2
    45ac:	015a      	lsls	r2, r3, #5
    45ae:	d5d6      	bpl.n	455e <__aeabi_fadd+0xae>
    45b0:	3401      	adds	r4, #1
    45b2:	2cff      	cmp	r4, #255	; 0xff
    45b4:	d064      	beq.n	4680 <__aeabi_fadd+0x1d0>
    45b6:	2201      	movs	r2, #1
    45b8:	4976      	ldr	r1, [pc, #472]	; (4794 <__aeabi_fadd+0x2e4>)
    45ba:	401a      	ands	r2, r3
    45bc:	085b      	lsrs	r3, r3, #1
    45be:	400b      	ands	r3, r1
    45c0:	4313      	orrs	r3, r2
    45c2:	e78c      	b.n	44de <__aeabi_fadd+0x2e>
    45c4:	1e03      	subs	r3, r0, #0
    45c6:	d1ca      	bne.n	455e <__aeabi_fadd+0xae>
    45c8:	2000      	movs	r0, #0
    45ca:	027b      	lsls	r3, r7, #9
    45cc:	0a5b      	lsrs	r3, r3, #9
    45ce:	b2e4      	uxtb	r4, r4
    45d0:	e796      	b.n	4500 <__aeabi_fadd+0x50>
    45d2:	3801      	subs	r0, #1
    45d4:	2800      	cmp	r0, #0
    45d6:	d0aa      	beq.n	452e <__aeabi_fadd+0x7e>
    45d8:	2cff      	cmp	r4, #255	; 0xff
    45da:	d19d      	bne.n	4518 <__aeabi_fadd+0x68>
    45dc:	e77f      	b.n	44de <__aeabi_fadd+0x2e>
    45de:	2a00      	cmp	r2, #0
    45e0:	d100      	bne.n	45e4 <__aeabi_fadd+0x134>
    45e2:	e77c      	b.n	44de <__aeabi_fadd+0x2e>
    45e4:	3901      	subs	r1, #1
    45e6:	2900      	cmp	r1, #0
    45e8:	d0df      	beq.n	45aa <__aeabi_fadd+0xfa>
    45ea:	2cff      	cmp	r4, #255	; 0xff
    45ec:	d1d2      	bne.n	4594 <__aeabi_fadd+0xe4>
    45ee:	e776      	b.n	44de <__aeabi_fadd+0x2e>
    45f0:	2800      	cmp	r0, #0
    45f2:	d120      	bne.n	4636 <__aeabi_fadd+0x186>
    45f4:	1c60      	adds	r0, r4, #1
    45f6:	b2c0      	uxtb	r0, r0
    45f8:	2801      	cmp	r0, #1
    45fa:	dd53      	ble.n	46a4 <__aeabi_fadd+0x1f4>
    45fc:	2780      	movs	r7, #128	; 0x80
    45fe:	1a9e      	subs	r6, r3, r2
    4600:	04ff      	lsls	r7, r7, #19
    4602:	4037      	ands	r7, r6
    4604:	d02f      	beq.n	4666 <__aeabi_fadd+0x1b6>
    4606:	1ad6      	subs	r6, r2, r3
    4608:	000d      	movs	r5, r1
    460a:	e795      	b.n	4538 <__aeabi_fadd+0x88>
    460c:	0028      	movs	r0, r5
    460e:	2300      	movs	r3, #0
    4610:	e776      	b.n	4500 <__aeabi_fadd+0x50>
    4612:	4b61      	ldr	r3, [pc, #388]	; (4798 <__aeabi_fadd+0x2e8>)
    4614:	1a24      	subs	r4, r4, r0
    4616:	4033      	ands	r3, r6
    4618:	e761      	b.n	44de <__aeabi_fadd+0x2e>
    461a:	2900      	cmp	r1, #0
    461c:	d14d      	bne.n	46ba <__aeabi_fadd+0x20a>
    461e:	1c61      	adds	r1, r4, #1
    4620:	b2ce      	uxtb	r6, r1
    4622:	2e01      	cmp	r6, #1
    4624:	dd2f      	ble.n	4686 <__aeabi_fadd+0x1d6>
    4626:	29ff      	cmp	r1, #255	; 0xff
    4628:	d02a      	beq.n	4680 <__aeabi_fadd+0x1d0>
    462a:	189b      	adds	r3, r3, r2
    462c:	085b      	lsrs	r3, r3, #1
    462e:	000c      	movs	r4, r1
    4630:	e755      	b.n	44de <__aeabi_fadd+0x2e>
    4632:	2201      	movs	r2, #1
    4634:	e77b      	b.n	452e <__aeabi_fadd+0x7e>
    4636:	2c00      	cmp	r4, #0
    4638:	d11b      	bne.n	4672 <__aeabi_fadd+0x1c2>
    463a:	2b00      	cmp	r3, #0
    463c:	d05b      	beq.n	46f6 <__aeabi_fadd+0x246>
    463e:	43c0      	mvns	r0, r0
    4640:	2800      	cmp	r0, #0
    4642:	d00c      	beq.n	465e <__aeabi_fadd+0x1ae>
    4644:	2eff      	cmp	r6, #255	; 0xff
    4646:	d07e      	beq.n	4746 <__aeabi_fadd+0x296>
    4648:	281b      	cmp	r0, #27
    464a:	dd00      	ble.n	464e <__aeabi_fadd+0x19e>
    464c:	e092      	b.n	4774 <__aeabi_fadd+0x2c4>
    464e:	001d      	movs	r5, r3
    4650:	2420      	movs	r4, #32
    4652:	40c5      	lsrs	r5, r0
    4654:	1a20      	subs	r0, r4, r0
    4656:	4083      	lsls	r3, r0
    4658:	1e58      	subs	r0, r3, #1
    465a:	4183      	sbcs	r3, r0
    465c:	432b      	orrs	r3, r5
    465e:	1ad3      	subs	r3, r2, r3
    4660:	0034      	movs	r4, r6
    4662:	000d      	movs	r5, r1
    4664:	e764      	b.n	4530 <__aeabi_fadd+0x80>
    4666:	2e00      	cmp	r6, #0
    4668:	d000      	beq.n	466c <__aeabi_fadd+0x1bc>
    466a:	e765      	b.n	4538 <__aeabi_fadd+0x88>
    466c:	2000      	movs	r0, #0
    466e:	2400      	movs	r4, #0
    4670:	e7ab      	b.n	45ca <__aeabi_fadd+0x11a>
    4672:	2eff      	cmp	r6, #255	; 0xff
    4674:	d067      	beq.n	4746 <__aeabi_fadd+0x296>
    4676:	2480      	movs	r4, #128	; 0x80
    4678:	04e4      	lsls	r4, r4, #19
    467a:	4240      	negs	r0, r0
    467c:	4323      	orrs	r3, r4
    467e:	e7e3      	b.n	4648 <__aeabi_fadd+0x198>
    4680:	24ff      	movs	r4, #255	; 0xff
    4682:	2300      	movs	r3, #0
    4684:	e73c      	b.n	4500 <__aeabi_fadd+0x50>
    4686:	2c00      	cmp	r4, #0
    4688:	d161      	bne.n	474e <__aeabi_fadd+0x29e>
    468a:	2b00      	cmp	r3, #0
    468c:	d07e      	beq.n	478c <__aeabi_fadd+0x2dc>
    468e:	2a00      	cmp	r2, #0
    4690:	d100      	bne.n	4694 <__aeabi_fadd+0x1e4>
    4692:	e724      	b.n	44de <__aeabi_fadd+0x2e>
    4694:	189b      	adds	r3, r3, r2
    4696:	015a      	lsls	r2, r3, #5
    4698:	d400      	bmi.n	469c <__aeabi_fadd+0x1ec>
    469a:	e760      	b.n	455e <__aeabi_fadd+0xae>
    469c:	4a3e      	ldr	r2, [pc, #248]	; (4798 <__aeabi_fadd+0x2e8>)
    469e:	000c      	movs	r4, r1
    46a0:	4013      	ands	r3, r2
    46a2:	e71c      	b.n	44de <__aeabi_fadd+0x2e>
    46a4:	2c00      	cmp	r4, #0
    46a6:	d11e      	bne.n	46e6 <__aeabi_fadd+0x236>
    46a8:	2b00      	cmp	r3, #0
    46aa:	d12f      	bne.n	470c <__aeabi_fadd+0x25c>
    46ac:	2a00      	cmp	r2, #0
    46ae:	d066      	beq.n	477e <__aeabi_fadd+0x2ce>
    46b0:	0013      	movs	r3, r2
    46b2:	000d      	movs	r5, r1
    46b4:	e713      	b.n	44de <__aeabi_fadd+0x2e>
    46b6:	2201      	movs	r2, #1
    46b8:	e777      	b.n	45aa <__aeabi_fadd+0xfa>
    46ba:	2c00      	cmp	r4, #0
    46bc:	d11f      	bne.n	46fe <__aeabi_fadd+0x24e>
    46be:	2b00      	cmp	r3, #0
    46c0:	d05a      	beq.n	4778 <__aeabi_fadd+0x2c8>
    46c2:	43c9      	mvns	r1, r1
    46c4:	2900      	cmp	r1, #0
    46c6:	d00b      	beq.n	46e0 <__aeabi_fadd+0x230>
    46c8:	2eff      	cmp	r6, #255	; 0xff
    46ca:	d050      	beq.n	476e <__aeabi_fadd+0x2be>
    46cc:	291b      	cmp	r1, #27
    46ce:	dc5f      	bgt.n	4790 <__aeabi_fadd+0x2e0>
    46d0:	001f      	movs	r7, r3
    46d2:	2420      	movs	r4, #32
    46d4:	40cf      	lsrs	r7, r1
    46d6:	1a61      	subs	r1, r4, r1
    46d8:	408b      	lsls	r3, r1
    46da:	1e59      	subs	r1, r3, #1
    46dc:	418b      	sbcs	r3, r1
    46de:	433b      	orrs	r3, r7
    46e0:	189b      	adds	r3, r3, r2
    46e2:	0034      	movs	r4, r6
    46e4:	e762      	b.n	45ac <__aeabi_fadd+0xfc>
    46e6:	2b00      	cmp	r3, #0
    46e8:	d11c      	bne.n	4724 <__aeabi_fadd+0x274>
    46ea:	2a00      	cmp	r2, #0
    46ec:	d04a      	beq.n	4784 <__aeabi_fadd+0x2d4>
    46ee:	0013      	movs	r3, r2
    46f0:	000d      	movs	r5, r1
    46f2:	24ff      	movs	r4, #255	; 0xff
    46f4:	e6f3      	b.n	44de <__aeabi_fadd+0x2e>
    46f6:	0013      	movs	r3, r2
    46f8:	0034      	movs	r4, r6
    46fa:	000d      	movs	r5, r1
    46fc:	e6ef      	b.n	44de <__aeabi_fadd+0x2e>
    46fe:	2eff      	cmp	r6, #255	; 0xff
    4700:	d035      	beq.n	476e <__aeabi_fadd+0x2be>
    4702:	2480      	movs	r4, #128	; 0x80
    4704:	04e4      	lsls	r4, r4, #19
    4706:	4249      	negs	r1, r1
    4708:	4323      	orrs	r3, r4
    470a:	e7df      	b.n	46cc <__aeabi_fadd+0x21c>
    470c:	2a00      	cmp	r2, #0
    470e:	d100      	bne.n	4712 <__aeabi_fadd+0x262>
    4710:	e6e5      	b.n	44de <__aeabi_fadd+0x2e>
    4712:	2780      	movs	r7, #128	; 0x80
    4714:	1a98      	subs	r0, r3, r2
    4716:	04ff      	lsls	r7, r7, #19
    4718:	4007      	ands	r7, r0
    471a:	d100      	bne.n	471e <__aeabi_fadd+0x26e>
    471c:	e752      	b.n	45c4 <__aeabi_fadd+0x114>
    471e:	1ad3      	subs	r3, r2, r3
    4720:	000d      	movs	r5, r1
    4722:	e6dc      	b.n	44de <__aeabi_fadd+0x2e>
    4724:	24ff      	movs	r4, #255	; 0xff
    4726:	2a00      	cmp	r2, #0
    4728:	d100      	bne.n	472c <__aeabi_fadd+0x27c>
    472a:	e6d8      	b.n	44de <__aeabi_fadd+0x2e>
    472c:	2080      	movs	r0, #128	; 0x80
    472e:	08db      	lsrs	r3, r3, #3
    4730:	03c0      	lsls	r0, r0, #15
    4732:	4203      	tst	r3, r0
    4734:	d004      	beq.n	4740 <__aeabi_fadd+0x290>
    4736:	08d2      	lsrs	r2, r2, #3
    4738:	4202      	tst	r2, r0
    473a:	d101      	bne.n	4740 <__aeabi_fadd+0x290>
    473c:	0013      	movs	r3, r2
    473e:	000d      	movs	r5, r1
    4740:	00db      	lsls	r3, r3, #3
    4742:	24ff      	movs	r4, #255	; 0xff
    4744:	e6cb      	b.n	44de <__aeabi_fadd+0x2e>
    4746:	0013      	movs	r3, r2
    4748:	24ff      	movs	r4, #255	; 0xff
    474a:	000d      	movs	r5, r1
    474c:	e6c7      	b.n	44de <__aeabi_fadd+0x2e>
    474e:	2b00      	cmp	r3, #0
    4750:	d00d      	beq.n	476e <__aeabi_fadd+0x2be>
    4752:	24ff      	movs	r4, #255	; 0xff
    4754:	2a00      	cmp	r2, #0
    4756:	d100      	bne.n	475a <__aeabi_fadd+0x2aa>
    4758:	e6c1      	b.n	44de <__aeabi_fadd+0x2e>
    475a:	2180      	movs	r1, #128	; 0x80
    475c:	08db      	lsrs	r3, r3, #3
    475e:	03c9      	lsls	r1, r1, #15
    4760:	420b      	tst	r3, r1
    4762:	d0ed      	beq.n	4740 <__aeabi_fadd+0x290>
    4764:	08d2      	lsrs	r2, r2, #3
    4766:	420a      	tst	r2, r1
    4768:	d1ea      	bne.n	4740 <__aeabi_fadd+0x290>
    476a:	0013      	movs	r3, r2
    476c:	e7e8      	b.n	4740 <__aeabi_fadd+0x290>
    476e:	0013      	movs	r3, r2
    4770:	24ff      	movs	r4, #255	; 0xff
    4772:	e6b4      	b.n	44de <__aeabi_fadd+0x2e>
    4774:	2301      	movs	r3, #1
    4776:	e772      	b.n	465e <__aeabi_fadd+0x1ae>
    4778:	0013      	movs	r3, r2
    477a:	0034      	movs	r4, r6
    477c:	e6af      	b.n	44de <__aeabi_fadd+0x2e>
    477e:	2700      	movs	r7, #0
    4780:	2000      	movs	r0, #0
    4782:	e722      	b.n	45ca <__aeabi_fadd+0x11a>
    4784:	2780      	movs	r7, #128	; 0x80
    4786:	2000      	movs	r0, #0
    4788:	03ff      	lsls	r7, r7, #15
    478a:	e6f1      	b.n	4570 <__aeabi_fadd+0xc0>
    478c:	0013      	movs	r3, r2
    478e:	e6a6      	b.n	44de <__aeabi_fadd+0x2e>
    4790:	2301      	movs	r3, #1
    4792:	e7a5      	b.n	46e0 <__aeabi_fadd+0x230>
    4794:	7dffffff 	.word	0x7dffffff
    4798:	fbffffff 	.word	0xfbffffff

0000479c <__eqsf2>:
    479c:	0243      	lsls	r3, r0, #9
    479e:	b570      	push	{r4, r5, r6, lr}
    47a0:	0042      	lsls	r2, r0, #1
    47a2:	004c      	lsls	r4, r1, #1
    47a4:	0a5d      	lsrs	r5, r3, #9
    47a6:	0fc3      	lsrs	r3, r0, #31
    47a8:	0248      	lsls	r0, r1, #9
    47aa:	0e12      	lsrs	r2, r2, #24
    47ac:	0a46      	lsrs	r6, r0, #9
    47ae:	0e24      	lsrs	r4, r4, #24
    47b0:	0fc9      	lsrs	r1, r1, #31
    47b2:	2aff      	cmp	r2, #255	; 0xff
    47b4:	d00f      	beq.n	47d6 <__eqsf2+0x3a>
    47b6:	2cff      	cmp	r4, #255	; 0xff
    47b8:	d011      	beq.n	47de <__eqsf2+0x42>
    47ba:	2001      	movs	r0, #1
    47bc:	42a2      	cmp	r2, r4
    47be:	d000      	beq.n	47c2 <__eqsf2+0x26>
    47c0:	bd70      	pop	{r4, r5, r6, pc}
    47c2:	42b5      	cmp	r5, r6
    47c4:	d1fc      	bne.n	47c0 <__eqsf2+0x24>
    47c6:	428b      	cmp	r3, r1
    47c8:	d00d      	beq.n	47e6 <__eqsf2+0x4a>
    47ca:	2a00      	cmp	r2, #0
    47cc:	d1f8      	bne.n	47c0 <__eqsf2+0x24>
    47ce:	0028      	movs	r0, r5
    47d0:	1e43      	subs	r3, r0, #1
    47d2:	4198      	sbcs	r0, r3
    47d4:	e7f4      	b.n	47c0 <__eqsf2+0x24>
    47d6:	2001      	movs	r0, #1
    47d8:	2d00      	cmp	r5, #0
    47da:	d1f1      	bne.n	47c0 <__eqsf2+0x24>
    47dc:	e7eb      	b.n	47b6 <__eqsf2+0x1a>
    47de:	2001      	movs	r0, #1
    47e0:	2e00      	cmp	r6, #0
    47e2:	d1ed      	bne.n	47c0 <__eqsf2+0x24>
    47e4:	e7e9      	b.n	47ba <__eqsf2+0x1e>
    47e6:	2000      	movs	r0, #0
    47e8:	e7ea      	b.n	47c0 <__eqsf2+0x24>
    47ea:	46c0      	nop			; (mov r8, r8)

000047ec <__gesf2>:
    47ec:	0243      	lsls	r3, r0, #9
    47ee:	b5f0      	push	{r4, r5, r6, r7, lr}
    47f0:	0042      	lsls	r2, r0, #1
    47f2:	0a5d      	lsrs	r5, r3, #9
    47f4:	0fc3      	lsrs	r3, r0, #31
    47f6:	0248      	lsls	r0, r1, #9
    47f8:	0a44      	lsrs	r4, r0, #9
    47fa:	0048      	lsls	r0, r1, #1
    47fc:	0e12      	lsrs	r2, r2, #24
    47fe:	0e00      	lsrs	r0, r0, #24
    4800:	0fc9      	lsrs	r1, r1, #31
    4802:	2aff      	cmp	r2, #255	; 0xff
    4804:	d01f      	beq.n	4846 <__gesf2+0x5a>
    4806:	28ff      	cmp	r0, #255	; 0xff
    4808:	d022      	beq.n	4850 <__gesf2+0x64>
    480a:	2a00      	cmp	r2, #0
    480c:	d109      	bne.n	4822 <__gesf2+0x36>
    480e:	426e      	negs	r6, r5
    4810:	416e      	adcs	r6, r5
    4812:	2800      	cmp	r0, #0
    4814:	d10f      	bne.n	4836 <__gesf2+0x4a>
    4816:	2c00      	cmp	r4, #0
    4818:	d10d      	bne.n	4836 <__gesf2+0x4a>
    481a:	2000      	movs	r0, #0
    481c:	2d00      	cmp	r5, #0
    481e:	d009      	beq.n	4834 <__gesf2+0x48>
    4820:	e005      	b.n	482e <__gesf2+0x42>
    4822:	2800      	cmp	r0, #0
    4824:	d101      	bne.n	482a <__gesf2+0x3e>
    4826:	2c00      	cmp	r4, #0
    4828:	d001      	beq.n	482e <__gesf2+0x42>
    482a:	428b      	cmp	r3, r1
    482c:	d013      	beq.n	4856 <__gesf2+0x6a>
    482e:	4258      	negs	r0, r3
    4830:	2301      	movs	r3, #1
    4832:	4318      	orrs	r0, r3
    4834:	bdf0      	pop	{r4, r5, r6, r7, pc}
    4836:	2e00      	cmp	r6, #0
    4838:	d0f7      	beq.n	482a <__gesf2+0x3e>
    483a:	4248      	negs	r0, r1
    483c:	4141      	adcs	r1, r0
    483e:	2001      	movs	r0, #1
    4840:	4249      	negs	r1, r1
    4842:	4308      	orrs	r0, r1
    4844:	e7f6      	b.n	4834 <__gesf2+0x48>
    4846:	2d00      	cmp	r5, #0
    4848:	d0dd      	beq.n	4806 <__gesf2+0x1a>
    484a:	2002      	movs	r0, #2
    484c:	4240      	negs	r0, r0
    484e:	e7f1      	b.n	4834 <__gesf2+0x48>
    4850:	2c00      	cmp	r4, #0
    4852:	d0da      	beq.n	480a <__gesf2+0x1e>
    4854:	e7f9      	b.n	484a <__gesf2+0x5e>
    4856:	4282      	cmp	r2, r0
    4858:	dce9      	bgt.n	482e <__gesf2+0x42>
    485a:	db04      	blt.n	4866 <__gesf2+0x7a>
    485c:	42a5      	cmp	r5, r4
    485e:	d8e6      	bhi.n	482e <__gesf2+0x42>
    4860:	2000      	movs	r0, #0
    4862:	42a5      	cmp	r5, r4
    4864:	d2e6      	bcs.n	4834 <__gesf2+0x48>
    4866:	4258      	negs	r0, r3
    4868:	4143      	adcs	r3, r0
    486a:	2001      	movs	r0, #1
    486c:	425b      	negs	r3, r3
    486e:	4318      	orrs	r0, r3
    4870:	e7e0      	b.n	4834 <__gesf2+0x48>
    4872:	46c0      	nop			; (mov r8, r8)

00004874 <__lesf2>:
    4874:	0243      	lsls	r3, r0, #9
    4876:	b5f0      	push	{r4, r5, r6, r7, lr}
    4878:	0042      	lsls	r2, r0, #1
    487a:	004c      	lsls	r4, r1, #1
    487c:	0a5e      	lsrs	r6, r3, #9
    487e:	0fc3      	lsrs	r3, r0, #31
    4880:	0248      	lsls	r0, r1, #9
    4882:	0e12      	lsrs	r2, r2, #24
    4884:	0a45      	lsrs	r5, r0, #9
    4886:	0e24      	lsrs	r4, r4, #24
    4888:	0fc9      	lsrs	r1, r1, #31
    488a:	2aff      	cmp	r2, #255	; 0xff
    488c:	d017      	beq.n	48be <__lesf2+0x4a>
    488e:	2cff      	cmp	r4, #255	; 0xff
    4890:	d019      	beq.n	48c6 <__lesf2+0x52>
    4892:	2a00      	cmp	r2, #0
    4894:	d10b      	bne.n	48ae <__lesf2+0x3a>
    4896:	4270      	negs	r0, r6
    4898:	4170      	adcs	r0, r6
    489a:	2c00      	cmp	r4, #0
    489c:	d017      	beq.n	48ce <__lesf2+0x5a>
    489e:	2800      	cmp	r0, #0
    48a0:	d007      	beq.n	48b2 <__lesf2+0x3e>
    48a2:	4248      	negs	r0, r1
    48a4:	4141      	adcs	r1, r0
    48a6:	2001      	movs	r0, #1
    48a8:	4249      	negs	r1, r1
    48aa:	4308      	orrs	r0, r1
    48ac:	bdf0      	pop	{r4, r5, r6, r7, pc}
    48ae:	2c00      	cmp	r4, #0
    48b0:	d013      	beq.n	48da <__lesf2+0x66>
    48b2:	428b      	cmp	r3, r1
    48b4:	d014      	beq.n	48e0 <__lesf2+0x6c>
    48b6:	4258      	negs	r0, r3
    48b8:	2301      	movs	r3, #1
    48ba:	4318      	orrs	r0, r3
    48bc:	e7f6      	b.n	48ac <__lesf2+0x38>
    48be:	2002      	movs	r0, #2
    48c0:	2e00      	cmp	r6, #0
    48c2:	d1f3      	bne.n	48ac <__lesf2+0x38>
    48c4:	e7e3      	b.n	488e <__lesf2+0x1a>
    48c6:	2002      	movs	r0, #2
    48c8:	2d00      	cmp	r5, #0
    48ca:	d1ef      	bne.n	48ac <__lesf2+0x38>
    48cc:	e7e1      	b.n	4892 <__lesf2+0x1e>
    48ce:	2d00      	cmp	r5, #0
    48d0:	d1e5      	bne.n	489e <__lesf2+0x2a>
    48d2:	2000      	movs	r0, #0
    48d4:	2e00      	cmp	r6, #0
    48d6:	d0e9      	beq.n	48ac <__lesf2+0x38>
    48d8:	e7ed      	b.n	48b6 <__lesf2+0x42>
    48da:	2d00      	cmp	r5, #0
    48dc:	d1e9      	bne.n	48b2 <__lesf2+0x3e>
    48de:	e7ea      	b.n	48b6 <__lesf2+0x42>
    48e0:	42a2      	cmp	r2, r4
    48e2:	dce8      	bgt.n	48b6 <__lesf2+0x42>
    48e4:	db04      	blt.n	48f0 <__lesf2+0x7c>
    48e6:	42ae      	cmp	r6, r5
    48e8:	d8e5      	bhi.n	48b6 <__lesf2+0x42>
    48ea:	2000      	movs	r0, #0
    48ec:	42ae      	cmp	r6, r5
    48ee:	d2dd      	bcs.n	48ac <__lesf2+0x38>
    48f0:	4258      	negs	r0, r3
    48f2:	4143      	adcs	r3, r0
    48f4:	2001      	movs	r0, #1
    48f6:	425b      	negs	r3, r3
    48f8:	4318      	orrs	r0, r3
    48fa:	e7d7      	b.n	48ac <__lesf2+0x38>

000048fc <__aeabi_fsub>:
    48fc:	b5f8      	push	{r3, r4, r5, r6, r7, lr}
    48fe:	024a      	lsls	r2, r1, #9
    4900:	004e      	lsls	r6, r1, #1
    4902:	0243      	lsls	r3, r0, #9
    4904:	0044      	lsls	r4, r0, #1
    4906:	0e24      	lsrs	r4, r4, #24
    4908:	0fc5      	lsrs	r5, r0, #31
    490a:	099b      	lsrs	r3, r3, #6
    490c:	0e36      	lsrs	r6, r6, #24
    490e:	0fc9      	lsrs	r1, r1, #31
    4910:	0992      	lsrs	r2, r2, #6
    4912:	2eff      	cmp	r6, #255	; 0xff
    4914:	d100      	bne.n	4918 <__aeabi_fsub+0x1c>
    4916:	e083      	b.n	4a20 <__aeabi_fsub+0x124>
    4918:	2001      	movs	r0, #1
    491a:	4041      	eors	r1, r0
    491c:	1ba0      	subs	r0, r4, r6
    491e:	42a9      	cmp	r1, r5
    4920:	d05c      	beq.n	49dc <__aeabi_fsub+0xe0>
    4922:	2800      	cmp	r0, #0
    4924:	dc00      	bgt.n	4928 <__aeabi_fsub+0x2c>
    4926:	e095      	b.n	4a54 <__aeabi_fsub+0x158>
    4928:	2e00      	cmp	r6, #0
    492a:	d11c      	bne.n	4966 <__aeabi_fsub+0x6a>
    492c:	2a00      	cmp	r2, #0
    492e:	d000      	beq.n	4932 <__aeabi_fsub+0x36>
    4930:	e081      	b.n	4a36 <__aeabi_fsub+0x13a>
    4932:	075a      	lsls	r2, r3, #29
    4934:	d004      	beq.n	4940 <__aeabi_fsub+0x44>
    4936:	220f      	movs	r2, #15
    4938:	401a      	ands	r2, r3
    493a:	2a04      	cmp	r2, #4
    493c:	d000      	beq.n	4940 <__aeabi_fsub+0x44>
    493e:	3304      	adds	r3, #4
    4940:	015a      	lsls	r2, r3, #5
    4942:	d53b      	bpl.n	49bc <__aeabi_fsub+0xc0>
    4944:	3401      	adds	r4, #1
    4946:	2cff      	cmp	r4, #255	; 0xff
    4948:	d100      	bne.n	494c <__aeabi_fsub+0x50>
    494a:	e091      	b.n	4a70 <__aeabi_fsub+0x174>
    494c:	2001      	movs	r0, #1
    494e:	019b      	lsls	r3, r3, #6
    4950:	0a5b      	lsrs	r3, r3, #9
    4952:	b2e4      	uxtb	r4, r4
    4954:	4005      	ands	r5, r0
    4956:	025b      	lsls	r3, r3, #9
    4958:	05e4      	lsls	r4, r4, #23
    495a:	0a5b      	lsrs	r3, r3, #9
    495c:	07ed      	lsls	r5, r5, #31
    495e:	4323      	orrs	r3, r4
    4960:	432b      	orrs	r3, r5
    4962:	0018      	movs	r0, r3
    4964:	bdf8      	pop	{r3, r4, r5, r6, r7, pc}
    4966:	2cff      	cmp	r4, #255	; 0xff
    4968:	d0e3      	beq.n	4932 <__aeabi_fsub+0x36>
    496a:	2180      	movs	r1, #128	; 0x80
    496c:	04c9      	lsls	r1, r1, #19
    496e:	430a      	orrs	r2, r1
    4970:	281b      	cmp	r0, #27
    4972:	dd00      	ble.n	4976 <__aeabi_fsub+0x7a>
    4974:	e090      	b.n	4a98 <__aeabi_fsub+0x19c>
    4976:	0016      	movs	r6, r2
    4978:	2120      	movs	r1, #32
    497a:	40c6      	lsrs	r6, r0
    497c:	1a08      	subs	r0, r1, r0
    497e:	4082      	lsls	r2, r0
    4980:	1e51      	subs	r1, r2, #1
    4982:	418a      	sbcs	r2, r1
    4984:	4332      	orrs	r2, r6
    4986:	1a9b      	subs	r3, r3, r2
    4988:	015a      	lsls	r2, r3, #5
    498a:	d515      	bpl.n	49b8 <__aeabi_fsub+0xbc>
    498c:	019b      	lsls	r3, r3, #6
    498e:	099e      	lsrs	r6, r3, #6
    4990:	0030      	movs	r0, r6
    4992:	f001 ffcf 	bl	6934 <__clzsi2>
    4996:	3805      	subs	r0, #5
    4998:	4086      	lsls	r6, r0
    499a:	4284      	cmp	r4, r0
    499c:	dc6c      	bgt.n	4a78 <__aeabi_fsub+0x17c>
    499e:	1b04      	subs	r4, r0, r4
    49a0:	0033      	movs	r3, r6
    49a2:	2020      	movs	r0, #32
    49a4:	3401      	adds	r4, #1
    49a6:	40e3      	lsrs	r3, r4
    49a8:	1b04      	subs	r4, r0, r4
    49aa:	40a6      	lsls	r6, r4
    49ac:	1e72      	subs	r2, r6, #1
    49ae:	4196      	sbcs	r6, r2
    49b0:	2400      	movs	r4, #0
    49b2:	4333      	orrs	r3, r6
    49b4:	e7bd      	b.n	4932 <__aeabi_fsub+0x36>
    49b6:	000d      	movs	r5, r1
    49b8:	075a      	lsls	r2, r3, #29
    49ba:	d1bc      	bne.n	4936 <__aeabi_fsub+0x3a>
    49bc:	08df      	lsrs	r7, r3, #3
    49be:	2301      	movs	r3, #1
    49c0:	401d      	ands	r5, r3
    49c2:	2cff      	cmp	r4, #255	; 0xff
    49c4:	d133      	bne.n	4a2e <__aeabi_fsub+0x132>
    49c6:	2f00      	cmp	r7, #0
    49c8:	d100      	bne.n	49cc <__aeabi_fsub+0xd0>
    49ca:	e090      	b.n	4aee <__aeabi_fsub+0x1f2>
    49cc:	2280      	movs	r2, #128	; 0x80
    49ce:	03d2      	lsls	r2, r2, #15
    49d0:	0013      	movs	r3, r2
    49d2:	433b      	orrs	r3, r7
    49d4:	025b      	lsls	r3, r3, #9
    49d6:	0a5b      	lsrs	r3, r3, #9
    49d8:	24ff      	movs	r4, #255	; 0xff
    49da:	e7bc      	b.n	4956 <__aeabi_fsub+0x5a>
    49dc:	2800      	cmp	r0, #0
    49de:	dd4f      	ble.n	4a80 <__aeabi_fsub+0x184>
    49e0:	2e00      	cmp	r6, #0
    49e2:	d02e      	beq.n	4a42 <__aeabi_fsub+0x146>
    49e4:	2cff      	cmp	r4, #255	; 0xff
    49e6:	d0a4      	beq.n	4932 <__aeabi_fsub+0x36>
    49e8:	2580      	movs	r5, #128	; 0x80
    49ea:	04ed      	lsls	r5, r5, #19
    49ec:	432a      	orrs	r2, r5
    49ee:	281b      	cmp	r0, #27
    49f0:	dd00      	ble.n	49f4 <__aeabi_fsub+0xf8>
    49f2:	e097      	b.n	4b24 <__aeabi_fsub+0x228>
    49f4:	0016      	movs	r6, r2
    49f6:	2520      	movs	r5, #32
    49f8:	40c6      	lsrs	r6, r0
    49fa:	1a28      	subs	r0, r5, r0
    49fc:	4082      	lsls	r2, r0
    49fe:	1e50      	subs	r0, r2, #1
    4a00:	4182      	sbcs	r2, r0
    4a02:	4332      	orrs	r2, r6
    4a04:	189b      	adds	r3, r3, r2
    4a06:	015a      	lsls	r2, r3, #5
    4a08:	d5d5      	bpl.n	49b6 <__aeabi_fsub+0xba>
    4a0a:	3401      	adds	r4, #1
    4a0c:	2cff      	cmp	r4, #255	; 0xff
    4a0e:	d06d      	beq.n	4aec <__aeabi_fsub+0x1f0>
    4a10:	2201      	movs	r2, #1
    4a12:	487b      	ldr	r0, [pc, #492]	; (4c00 <__aeabi_fsub+0x304>)
    4a14:	401a      	ands	r2, r3
    4a16:	085b      	lsrs	r3, r3, #1
    4a18:	4003      	ands	r3, r0
    4a1a:	4313      	orrs	r3, r2
    4a1c:	000d      	movs	r5, r1
    4a1e:	e788      	b.n	4932 <__aeabi_fsub+0x36>
    4a20:	2a00      	cmp	r2, #0
    4a22:	d000      	beq.n	4a26 <__aeabi_fsub+0x12a>
    4a24:	e77a      	b.n	491c <__aeabi_fsub+0x20>
    4a26:	e777      	b.n	4918 <__aeabi_fsub+0x1c>
    4a28:	1e03      	subs	r3, r0, #0
    4a2a:	d1c5      	bne.n	49b8 <__aeabi_fsub+0xbc>
    4a2c:	2500      	movs	r5, #0
    4a2e:	027b      	lsls	r3, r7, #9
    4a30:	0a5b      	lsrs	r3, r3, #9
    4a32:	b2e4      	uxtb	r4, r4
    4a34:	e78f      	b.n	4956 <__aeabi_fsub+0x5a>
    4a36:	3801      	subs	r0, #1
    4a38:	2800      	cmp	r0, #0
    4a3a:	d0a4      	beq.n	4986 <__aeabi_fsub+0x8a>
    4a3c:	2cff      	cmp	r4, #255	; 0xff
    4a3e:	d197      	bne.n	4970 <__aeabi_fsub+0x74>
    4a40:	e777      	b.n	4932 <__aeabi_fsub+0x36>
    4a42:	2a00      	cmp	r2, #0
    4a44:	d100      	bne.n	4a48 <__aeabi_fsub+0x14c>
    4a46:	e774      	b.n	4932 <__aeabi_fsub+0x36>
    4a48:	3801      	subs	r0, #1
    4a4a:	2800      	cmp	r0, #0
    4a4c:	d0da      	beq.n	4a04 <__aeabi_fsub+0x108>
    4a4e:	2cff      	cmp	r4, #255	; 0xff
    4a50:	d1cd      	bne.n	49ee <__aeabi_fsub+0xf2>
    4a52:	e76e      	b.n	4932 <__aeabi_fsub+0x36>
    4a54:	2800      	cmp	r0, #0
    4a56:	d121      	bne.n	4a9c <__aeabi_fsub+0x1a0>
    4a58:	1c60      	adds	r0, r4, #1
    4a5a:	b2c0      	uxtb	r0, r0
    4a5c:	2801      	cmp	r0, #1
    4a5e:	dd58      	ble.n	4b12 <__aeabi_fsub+0x216>
    4a60:	2780      	movs	r7, #128	; 0x80
    4a62:	1a9e      	subs	r6, r3, r2
    4a64:	04ff      	lsls	r7, r7, #19
    4a66:	4037      	ands	r7, r6
    4a68:	d02f      	beq.n	4aca <__aeabi_fsub+0x1ce>
    4a6a:	1ad6      	subs	r6, r2, r3
    4a6c:	000d      	movs	r5, r1
    4a6e:	e78f      	b.n	4990 <__aeabi_fsub+0x94>
    4a70:	2301      	movs	r3, #1
    4a72:	401d      	ands	r5, r3
    4a74:	2300      	movs	r3, #0
    4a76:	e76e      	b.n	4956 <__aeabi_fsub+0x5a>
    4a78:	4b62      	ldr	r3, [pc, #392]	; (4c04 <__aeabi_fsub+0x308>)
    4a7a:	1a24      	subs	r4, r4, r0
    4a7c:	4033      	ands	r3, r6
    4a7e:	e758      	b.n	4932 <__aeabi_fsub+0x36>
    4a80:	2800      	cmp	r0, #0
    4a82:	d151      	bne.n	4b28 <__aeabi_fsub+0x22c>
    4a84:	1c60      	adds	r0, r4, #1
    4a86:	b2c6      	uxtb	r6, r0
    4a88:	2e01      	cmp	r6, #1
    4a8a:	dd33      	ble.n	4af4 <__aeabi_fsub+0x1f8>
    4a8c:	28ff      	cmp	r0, #255	; 0xff
    4a8e:	d02d      	beq.n	4aec <__aeabi_fsub+0x1f0>
    4a90:	189b      	adds	r3, r3, r2
    4a92:	085b      	lsrs	r3, r3, #1
    4a94:	0004      	movs	r4, r0
    4a96:	e74c      	b.n	4932 <__aeabi_fsub+0x36>
    4a98:	2201      	movs	r2, #1
    4a9a:	e774      	b.n	4986 <__aeabi_fsub+0x8a>
    4a9c:	2c00      	cmp	r4, #0
    4a9e:	d01a      	beq.n	4ad6 <__aeabi_fsub+0x1da>
    4aa0:	2eff      	cmp	r6, #255	; 0xff
    4aa2:	d01f      	beq.n	4ae4 <__aeabi_fsub+0x1e8>
    4aa4:	2480      	movs	r4, #128	; 0x80
    4aa6:	04e4      	lsls	r4, r4, #19
    4aa8:	4240      	negs	r0, r0
    4aaa:	4323      	orrs	r3, r4
    4aac:	281b      	cmp	r0, #27
    4aae:	dd00      	ble.n	4ab2 <__aeabi_fsub+0x1b6>
    4ab0:	e096      	b.n	4be0 <__aeabi_fsub+0x2e4>
    4ab2:	001d      	movs	r5, r3
    4ab4:	2420      	movs	r4, #32
    4ab6:	40c5      	lsrs	r5, r0
    4ab8:	1a20      	subs	r0, r4, r0
    4aba:	4083      	lsls	r3, r0
    4abc:	1e58      	subs	r0, r3, #1
    4abe:	4183      	sbcs	r3, r0
    4ac0:	432b      	orrs	r3, r5
    4ac2:	1ad3      	subs	r3, r2, r3
    4ac4:	0034      	movs	r4, r6
    4ac6:	000d      	movs	r5, r1
    4ac8:	e75e      	b.n	4988 <__aeabi_fsub+0x8c>
    4aca:	2e00      	cmp	r6, #0
    4acc:	d000      	beq.n	4ad0 <__aeabi_fsub+0x1d4>
    4ace:	e75f      	b.n	4990 <__aeabi_fsub+0x94>
    4ad0:	2500      	movs	r5, #0
    4ad2:	2400      	movs	r4, #0
    4ad4:	e7ab      	b.n	4a2e <__aeabi_fsub+0x132>
    4ad6:	2b00      	cmp	r3, #0
    4ad8:	d044      	beq.n	4b64 <__aeabi_fsub+0x268>
    4ada:	43c0      	mvns	r0, r0
    4adc:	2800      	cmp	r0, #0
    4ade:	d0f0      	beq.n	4ac2 <__aeabi_fsub+0x1c6>
    4ae0:	2eff      	cmp	r6, #255	; 0xff
    4ae2:	d1e3      	bne.n	4aac <__aeabi_fsub+0x1b0>
    4ae4:	0013      	movs	r3, r2
    4ae6:	24ff      	movs	r4, #255	; 0xff
    4ae8:	000d      	movs	r5, r1
    4aea:	e722      	b.n	4932 <__aeabi_fsub+0x36>
    4aec:	000d      	movs	r5, r1
    4aee:	24ff      	movs	r4, #255	; 0xff
    4af0:	2300      	movs	r3, #0
    4af2:	e730      	b.n	4956 <__aeabi_fsub+0x5a>
    4af4:	2c00      	cmp	r4, #0
    4af6:	d15d      	bne.n	4bb4 <__aeabi_fsub+0x2b8>
    4af8:	2b00      	cmp	r3, #0
    4afa:	d07d      	beq.n	4bf8 <__aeabi_fsub+0x2fc>
    4afc:	2a00      	cmp	r2, #0
    4afe:	d100      	bne.n	4b02 <__aeabi_fsub+0x206>
    4b00:	e717      	b.n	4932 <__aeabi_fsub+0x36>
    4b02:	189b      	adds	r3, r3, r2
    4b04:	015a      	lsls	r2, r3, #5
    4b06:	d400      	bmi.n	4b0a <__aeabi_fsub+0x20e>
    4b08:	e756      	b.n	49b8 <__aeabi_fsub+0xbc>
    4b0a:	4a3e      	ldr	r2, [pc, #248]	; (4c04 <__aeabi_fsub+0x308>)
    4b0c:	0004      	movs	r4, r0
    4b0e:	4013      	ands	r3, r2
    4b10:	e70f      	b.n	4932 <__aeabi_fsub+0x36>
    4b12:	2c00      	cmp	r4, #0
    4b14:	d11e      	bne.n	4b54 <__aeabi_fsub+0x258>
    4b16:	2b00      	cmp	r3, #0
    4b18:	d12f      	bne.n	4b7a <__aeabi_fsub+0x27e>
    4b1a:	2a00      	cmp	r2, #0
    4b1c:	d065      	beq.n	4bea <__aeabi_fsub+0x2ee>
    4b1e:	0013      	movs	r3, r2
    4b20:	000d      	movs	r5, r1
    4b22:	e706      	b.n	4932 <__aeabi_fsub+0x36>
    4b24:	2201      	movs	r2, #1
    4b26:	e76d      	b.n	4a04 <__aeabi_fsub+0x108>
    4b28:	2c00      	cmp	r4, #0
    4b2a:	d11f      	bne.n	4b6c <__aeabi_fsub+0x270>
    4b2c:	2b00      	cmp	r3, #0
    4b2e:	d059      	beq.n	4be4 <__aeabi_fsub+0x2e8>
    4b30:	43c0      	mvns	r0, r0
    4b32:	2800      	cmp	r0, #0
    4b34:	d00b      	beq.n	4b4e <__aeabi_fsub+0x252>
    4b36:	2eff      	cmp	r6, #255	; 0xff
    4b38:	d04f      	beq.n	4bda <__aeabi_fsub+0x2de>
    4b3a:	281b      	cmp	r0, #27
    4b3c:	dc5e      	bgt.n	4bfc <__aeabi_fsub+0x300>
    4b3e:	001d      	movs	r5, r3
    4b40:	2420      	movs	r4, #32
    4b42:	40c5      	lsrs	r5, r0
    4b44:	1a20      	subs	r0, r4, r0
    4b46:	4083      	lsls	r3, r0
    4b48:	1e58      	subs	r0, r3, #1
    4b4a:	4183      	sbcs	r3, r0
    4b4c:	432b      	orrs	r3, r5
    4b4e:	189b      	adds	r3, r3, r2
    4b50:	0034      	movs	r4, r6
    4b52:	e758      	b.n	4a06 <__aeabi_fsub+0x10a>
    4b54:	2b00      	cmp	r3, #0
    4b56:	d11c      	bne.n	4b92 <__aeabi_fsub+0x296>
    4b58:	2a00      	cmp	r2, #0
    4b5a:	d049      	beq.n	4bf0 <__aeabi_fsub+0x2f4>
    4b5c:	0013      	movs	r3, r2
    4b5e:	000d      	movs	r5, r1
    4b60:	24ff      	movs	r4, #255	; 0xff
    4b62:	e6e6      	b.n	4932 <__aeabi_fsub+0x36>
    4b64:	0013      	movs	r3, r2
    4b66:	0034      	movs	r4, r6
    4b68:	000d      	movs	r5, r1
    4b6a:	e6e2      	b.n	4932 <__aeabi_fsub+0x36>
    4b6c:	2eff      	cmp	r6, #255	; 0xff
    4b6e:	d034      	beq.n	4bda <__aeabi_fsub+0x2de>
    4b70:	2480      	movs	r4, #128	; 0x80
    4b72:	04e4      	lsls	r4, r4, #19
    4b74:	4240      	negs	r0, r0
    4b76:	4323      	orrs	r3, r4
    4b78:	e7df      	b.n	4b3a <__aeabi_fsub+0x23e>
    4b7a:	2a00      	cmp	r2, #0
    4b7c:	d100      	bne.n	4b80 <__aeabi_fsub+0x284>
    4b7e:	e6d8      	b.n	4932 <__aeabi_fsub+0x36>
    4b80:	2780      	movs	r7, #128	; 0x80
    4b82:	1a98      	subs	r0, r3, r2
    4b84:	04ff      	lsls	r7, r7, #19
    4b86:	4007      	ands	r7, r0
    4b88:	d100      	bne.n	4b8c <__aeabi_fsub+0x290>
    4b8a:	e74d      	b.n	4a28 <__aeabi_fsub+0x12c>
    4b8c:	1ad3      	subs	r3, r2, r3
    4b8e:	000d      	movs	r5, r1
    4b90:	e6cf      	b.n	4932 <__aeabi_fsub+0x36>
    4b92:	24ff      	movs	r4, #255	; 0xff
    4b94:	2a00      	cmp	r2, #0
    4b96:	d100      	bne.n	4b9a <__aeabi_fsub+0x29e>
    4b98:	e6cb      	b.n	4932 <__aeabi_fsub+0x36>
    4b9a:	2080      	movs	r0, #128	; 0x80
    4b9c:	08db      	lsrs	r3, r3, #3
    4b9e:	03c0      	lsls	r0, r0, #15
    4ba0:	4203      	tst	r3, r0
    4ba2:	d004      	beq.n	4bae <__aeabi_fsub+0x2b2>
    4ba4:	08d2      	lsrs	r2, r2, #3
    4ba6:	4202      	tst	r2, r0
    4ba8:	d101      	bne.n	4bae <__aeabi_fsub+0x2b2>
    4baa:	0013      	movs	r3, r2
    4bac:	000d      	movs	r5, r1
    4bae:	00db      	lsls	r3, r3, #3
    4bb0:	24ff      	movs	r4, #255	; 0xff
    4bb2:	e6be      	b.n	4932 <__aeabi_fsub+0x36>
    4bb4:	2b00      	cmp	r3, #0
    4bb6:	d010      	beq.n	4bda <__aeabi_fsub+0x2de>
    4bb8:	24ff      	movs	r4, #255	; 0xff
    4bba:	2a00      	cmp	r2, #0
    4bbc:	d100      	bne.n	4bc0 <__aeabi_fsub+0x2c4>
    4bbe:	e6b8      	b.n	4932 <__aeabi_fsub+0x36>
    4bc0:	2080      	movs	r0, #128	; 0x80
    4bc2:	08db      	lsrs	r3, r3, #3
    4bc4:	03c0      	lsls	r0, r0, #15
    4bc6:	4203      	tst	r3, r0
    4bc8:	d003      	beq.n	4bd2 <__aeabi_fsub+0x2d6>
    4bca:	08d2      	lsrs	r2, r2, #3
    4bcc:	4202      	tst	r2, r0
    4bce:	d100      	bne.n	4bd2 <__aeabi_fsub+0x2d6>
    4bd0:	0013      	movs	r3, r2
    4bd2:	00db      	lsls	r3, r3, #3
    4bd4:	000d      	movs	r5, r1
    4bd6:	24ff      	movs	r4, #255	; 0xff
    4bd8:	e6ab      	b.n	4932 <__aeabi_fsub+0x36>
    4bda:	0013      	movs	r3, r2
    4bdc:	24ff      	movs	r4, #255	; 0xff
    4bde:	e6a8      	b.n	4932 <__aeabi_fsub+0x36>
    4be0:	2301      	movs	r3, #1
    4be2:	e76e      	b.n	4ac2 <__aeabi_fsub+0x1c6>
    4be4:	0013      	movs	r3, r2
    4be6:	0034      	movs	r4, r6
    4be8:	e6a3      	b.n	4932 <__aeabi_fsub+0x36>
    4bea:	2700      	movs	r7, #0
    4bec:	2500      	movs	r5, #0
    4bee:	e71e      	b.n	4a2e <__aeabi_fsub+0x132>
    4bf0:	2780      	movs	r7, #128	; 0x80
    4bf2:	2500      	movs	r5, #0
    4bf4:	03ff      	lsls	r7, r7, #15
    4bf6:	e6e9      	b.n	49cc <__aeabi_fsub+0xd0>
    4bf8:	0013      	movs	r3, r2
    4bfa:	e69a      	b.n	4932 <__aeabi_fsub+0x36>
    4bfc:	2301      	movs	r3, #1
    4bfe:	e7a6      	b.n	4b4e <__aeabi_fsub+0x252>
    4c00:	7dffffff 	.word	0x7dffffff
    4c04:	fbffffff 	.word	0xfbffffff

00004c08 <__aeabi_dadd>:
    4c08:	b5f8      	push	{r3, r4, r5, r6, r7, lr}
    4c0a:	4656      	mov	r6, sl
    4c0c:	465f      	mov	r7, fp
    4c0e:	464d      	mov	r5, r9
    4c10:	4644      	mov	r4, r8
    4c12:	b4f0      	push	{r4, r5, r6, r7}
    4c14:	000f      	movs	r7, r1
    4c16:	0ffd      	lsrs	r5, r7, #31
    4c18:	46aa      	mov	sl, r5
    4c1a:	0309      	lsls	r1, r1, #12
    4c1c:	007c      	lsls	r4, r7, #1
    4c1e:	002e      	movs	r6, r5
    4c20:	005f      	lsls	r7, r3, #1
    4c22:	0f45      	lsrs	r5, r0, #29
    4c24:	0a49      	lsrs	r1, r1, #9
    4c26:	0d7f      	lsrs	r7, r7, #21
    4c28:	4329      	orrs	r1, r5
    4c2a:	00c5      	lsls	r5, r0, #3
    4c2c:	0318      	lsls	r0, r3, #12
    4c2e:	46bc      	mov	ip, r7
    4c30:	0a40      	lsrs	r0, r0, #9
    4c32:	0f57      	lsrs	r7, r2, #29
    4c34:	0d64      	lsrs	r4, r4, #21
    4c36:	0fdb      	lsrs	r3, r3, #31
    4c38:	4338      	orrs	r0, r7
    4c3a:	00d2      	lsls	r2, r2, #3
    4c3c:	459a      	cmp	sl, r3
    4c3e:	d100      	bne.n	4c42 <__aeabi_dadd+0x3a>
    4c40:	e0aa      	b.n	4d98 <__aeabi_dadd+0x190>
    4c42:	4666      	mov	r6, ip
    4c44:	1ba6      	subs	r6, r4, r6
    4c46:	2e00      	cmp	r6, #0
    4c48:	dc00      	bgt.n	4c4c <__aeabi_dadd+0x44>
    4c4a:	e0ff      	b.n	4e4c <__aeabi_dadd+0x244>
    4c4c:	4663      	mov	r3, ip
    4c4e:	2b00      	cmp	r3, #0
    4c50:	d139      	bne.n	4cc6 <__aeabi_dadd+0xbe>
    4c52:	0003      	movs	r3, r0
    4c54:	4313      	orrs	r3, r2
    4c56:	d000      	beq.n	4c5a <__aeabi_dadd+0x52>
    4c58:	e0d9      	b.n	4e0e <__aeabi_dadd+0x206>
    4c5a:	076b      	lsls	r3, r5, #29
    4c5c:	d009      	beq.n	4c72 <__aeabi_dadd+0x6a>
    4c5e:	230f      	movs	r3, #15
    4c60:	402b      	ands	r3, r5
    4c62:	2b04      	cmp	r3, #4
    4c64:	d005      	beq.n	4c72 <__aeabi_dadd+0x6a>
    4c66:	1d2b      	adds	r3, r5, #4
    4c68:	42ab      	cmp	r3, r5
    4c6a:	41ad      	sbcs	r5, r5
    4c6c:	426d      	negs	r5, r5
    4c6e:	1949      	adds	r1, r1, r5
    4c70:	001d      	movs	r5, r3
    4c72:	020b      	lsls	r3, r1, #8
    4c74:	d400      	bmi.n	4c78 <__aeabi_dadd+0x70>
    4c76:	e082      	b.n	4d7e <__aeabi_dadd+0x176>
    4c78:	4bca      	ldr	r3, [pc, #808]	; (4fa4 <__aeabi_dadd+0x39c>)
    4c7a:	3401      	adds	r4, #1
    4c7c:	429c      	cmp	r4, r3
    4c7e:	d100      	bne.n	4c82 <__aeabi_dadd+0x7a>
    4c80:	e0fe      	b.n	4e80 <__aeabi_dadd+0x278>
    4c82:	000a      	movs	r2, r1
    4c84:	4656      	mov	r6, sl
    4c86:	4bc8      	ldr	r3, [pc, #800]	; (4fa8 <__aeabi_dadd+0x3a0>)
    4c88:	08ed      	lsrs	r5, r5, #3
    4c8a:	401a      	ands	r2, r3
    4c8c:	0750      	lsls	r0, r2, #29
    4c8e:	0564      	lsls	r4, r4, #21
    4c90:	0252      	lsls	r2, r2, #9
    4c92:	4305      	orrs	r5, r0
    4c94:	0b12      	lsrs	r2, r2, #12
    4c96:	0d64      	lsrs	r4, r4, #21
    4c98:	2100      	movs	r1, #0
    4c9a:	0312      	lsls	r2, r2, #12
    4c9c:	0d0b      	lsrs	r3, r1, #20
    4c9e:	051b      	lsls	r3, r3, #20
    4ca0:	0564      	lsls	r4, r4, #21
    4ca2:	0b12      	lsrs	r2, r2, #12
    4ca4:	431a      	orrs	r2, r3
    4ca6:	0863      	lsrs	r3, r4, #1
    4ca8:	4cc0      	ldr	r4, [pc, #768]	; (4fac <__aeabi_dadd+0x3a4>)
    4caa:	07f6      	lsls	r6, r6, #31
    4cac:	4014      	ands	r4, r2
    4cae:	431c      	orrs	r4, r3
    4cb0:	0064      	lsls	r4, r4, #1
    4cb2:	0864      	lsrs	r4, r4, #1
    4cb4:	4334      	orrs	r4, r6
    4cb6:	0028      	movs	r0, r5
    4cb8:	0021      	movs	r1, r4
    4cba:	bc3c      	pop	{r2, r3, r4, r5}
    4cbc:	4690      	mov	r8, r2
    4cbe:	4699      	mov	r9, r3
    4cc0:	46a2      	mov	sl, r4
    4cc2:	46ab      	mov	fp, r5
    4cc4:	bdf8      	pop	{r3, r4, r5, r6, r7, pc}
    4cc6:	4bb7      	ldr	r3, [pc, #732]	; (4fa4 <__aeabi_dadd+0x39c>)
    4cc8:	429c      	cmp	r4, r3
    4cca:	d0c6      	beq.n	4c5a <__aeabi_dadd+0x52>
    4ccc:	2380      	movs	r3, #128	; 0x80
    4cce:	041b      	lsls	r3, r3, #16
    4cd0:	4318      	orrs	r0, r3
    4cd2:	2e38      	cmp	r6, #56	; 0x38
    4cd4:	dd00      	ble.n	4cd8 <__aeabi_dadd+0xd0>
    4cd6:	e0eb      	b.n	4eb0 <__aeabi_dadd+0x2a8>
    4cd8:	2e1f      	cmp	r6, #31
    4cda:	dd00      	ble.n	4cde <__aeabi_dadd+0xd6>
    4cdc:	e11e      	b.n	4f1c <__aeabi_dadd+0x314>
    4cde:	2320      	movs	r3, #32
    4ce0:	1b9b      	subs	r3, r3, r6
    4ce2:	469c      	mov	ip, r3
    4ce4:	0003      	movs	r3, r0
    4ce6:	4667      	mov	r7, ip
    4ce8:	40bb      	lsls	r3, r7
    4cea:	4698      	mov	r8, r3
    4cec:	0013      	movs	r3, r2
    4cee:	4647      	mov	r7, r8
    4cf0:	40f3      	lsrs	r3, r6
    4cf2:	433b      	orrs	r3, r7
    4cf4:	4667      	mov	r7, ip
    4cf6:	40ba      	lsls	r2, r7
    4cf8:	1e57      	subs	r7, r2, #1
    4cfa:	41ba      	sbcs	r2, r7
    4cfc:	4313      	orrs	r3, r2
    4cfe:	0002      	movs	r2, r0
    4d00:	40f2      	lsrs	r2, r6
    4d02:	1aeb      	subs	r3, r5, r3
    4d04:	429d      	cmp	r5, r3
    4d06:	41b6      	sbcs	r6, r6
    4d08:	001d      	movs	r5, r3
    4d0a:	1a8a      	subs	r2, r1, r2
    4d0c:	4276      	negs	r6, r6
    4d0e:	1b91      	subs	r1, r2, r6
    4d10:	020b      	lsls	r3, r1, #8
    4d12:	d531      	bpl.n	4d78 <__aeabi_dadd+0x170>
    4d14:	024a      	lsls	r2, r1, #9
    4d16:	0a56      	lsrs	r6, r2, #9
    4d18:	2e00      	cmp	r6, #0
    4d1a:	d100      	bne.n	4d1e <__aeabi_dadd+0x116>
    4d1c:	e0b4      	b.n	4e88 <__aeabi_dadd+0x280>
    4d1e:	0030      	movs	r0, r6
    4d20:	f001 fe08 	bl	6934 <__clzsi2>
    4d24:	0003      	movs	r3, r0
    4d26:	3b08      	subs	r3, #8
    4d28:	2b1f      	cmp	r3, #31
    4d2a:	dd00      	ble.n	4d2e <__aeabi_dadd+0x126>
    4d2c:	e0b5      	b.n	4e9a <__aeabi_dadd+0x292>
    4d2e:	2220      	movs	r2, #32
    4d30:	0029      	movs	r1, r5
    4d32:	1ad2      	subs	r2, r2, r3
    4d34:	40d1      	lsrs	r1, r2
    4d36:	409e      	lsls	r6, r3
    4d38:	000a      	movs	r2, r1
    4d3a:	409d      	lsls	r5, r3
    4d3c:	4332      	orrs	r2, r6
    4d3e:	429c      	cmp	r4, r3
    4d40:	dd00      	ble.n	4d44 <__aeabi_dadd+0x13c>
    4d42:	e0b1      	b.n	4ea8 <__aeabi_dadd+0x2a0>
    4d44:	1b1c      	subs	r4, r3, r4
    4d46:	1c63      	adds	r3, r4, #1
    4d48:	2b1f      	cmp	r3, #31
    4d4a:	dd00      	ble.n	4d4e <__aeabi_dadd+0x146>
    4d4c:	e0d5      	b.n	4efa <__aeabi_dadd+0x2f2>
    4d4e:	2120      	movs	r1, #32
    4d50:	0014      	movs	r4, r2
    4d52:	0028      	movs	r0, r5
    4d54:	1ac9      	subs	r1, r1, r3
    4d56:	408c      	lsls	r4, r1
    4d58:	40d8      	lsrs	r0, r3
    4d5a:	408d      	lsls	r5, r1
    4d5c:	4304      	orrs	r4, r0
    4d5e:	40da      	lsrs	r2, r3
    4d60:	1e68      	subs	r0, r5, #1
    4d62:	4185      	sbcs	r5, r0
    4d64:	0011      	movs	r1, r2
    4d66:	4325      	orrs	r5, r4
    4d68:	2400      	movs	r4, #0
    4d6a:	e776      	b.n	4c5a <__aeabi_dadd+0x52>
    4d6c:	4641      	mov	r1, r8
    4d6e:	4331      	orrs	r1, r6
    4d70:	d100      	bne.n	4d74 <__aeabi_dadd+0x16c>
    4d72:	e234      	b.n	51de <__aeabi_dadd+0x5d6>
    4d74:	0031      	movs	r1, r6
    4d76:	4645      	mov	r5, r8
    4d78:	076b      	lsls	r3, r5, #29
    4d7a:	d000      	beq.n	4d7e <__aeabi_dadd+0x176>
    4d7c:	e76f      	b.n	4c5e <__aeabi_dadd+0x56>
    4d7e:	4656      	mov	r6, sl
    4d80:	0748      	lsls	r0, r1, #29
    4d82:	08ed      	lsrs	r5, r5, #3
    4d84:	08c9      	lsrs	r1, r1, #3
    4d86:	4305      	orrs	r5, r0
    4d88:	4b86      	ldr	r3, [pc, #536]	; (4fa4 <__aeabi_dadd+0x39c>)
    4d8a:	429c      	cmp	r4, r3
    4d8c:	d035      	beq.n	4dfa <__aeabi_dadd+0x1f2>
    4d8e:	030a      	lsls	r2, r1, #12
    4d90:	0564      	lsls	r4, r4, #21
    4d92:	0b12      	lsrs	r2, r2, #12
    4d94:	0d64      	lsrs	r4, r4, #21
    4d96:	e77f      	b.n	4c98 <__aeabi_dadd+0x90>
    4d98:	4663      	mov	r3, ip
    4d9a:	1ae3      	subs	r3, r4, r3
    4d9c:	469b      	mov	fp, r3
    4d9e:	2b00      	cmp	r3, #0
    4da0:	dc00      	bgt.n	4da4 <__aeabi_dadd+0x19c>
    4da2:	e08b      	b.n	4ebc <__aeabi_dadd+0x2b4>
    4da4:	4667      	mov	r7, ip
    4da6:	2f00      	cmp	r7, #0
    4da8:	d03c      	beq.n	4e24 <__aeabi_dadd+0x21c>
    4daa:	4f7e      	ldr	r7, [pc, #504]	; (4fa4 <__aeabi_dadd+0x39c>)
    4dac:	42bc      	cmp	r4, r7
    4dae:	d100      	bne.n	4db2 <__aeabi_dadd+0x1aa>
    4db0:	e753      	b.n	4c5a <__aeabi_dadd+0x52>
    4db2:	2780      	movs	r7, #128	; 0x80
    4db4:	043f      	lsls	r7, r7, #16
    4db6:	4338      	orrs	r0, r7
    4db8:	465b      	mov	r3, fp
    4dba:	2b38      	cmp	r3, #56	; 0x38
    4dbc:	dc00      	bgt.n	4dc0 <__aeabi_dadd+0x1b8>
    4dbe:	e0f7      	b.n	4fb0 <__aeabi_dadd+0x3a8>
    4dc0:	4302      	orrs	r2, r0
    4dc2:	1e50      	subs	r0, r2, #1
    4dc4:	4182      	sbcs	r2, r0
    4dc6:	2000      	movs	r0, #0
    4dc8:	b2d2      	uxtb	r2, r2
    4dca:	1953      	adds	r3, r2, r5
    4dcc:	1842      	adds	r2, r0, r1
    4dce:	42ab      	cmp	r3, r5
    4dd0:	4189      	sbcs	r1, r1
    4dd2:	001d      	movs	r5, r3
    4dd4:	4249      	negs	r1, r1
    4dd6:	1889      	adds	r1, r1, r2
    4dd8:	020b      	lsls	r3, r1, #8
    4dda:	d5cd      	bpl.n	4d78 <__aeabi_dadd+0x170>
    4ddc:	4b71      	ldr	r3, [pc, #452]	; (4fa4 <__aeabi_dadd+0x39c>)
    4dde:	3401      	adds	r4, #1
    4de0:	429c      	cmp	r4, r3
    4de2:	d100      	bne.n	4de6 <__aeabi_dadd+0x1de>
    4de4:	e13d      	b.n	5062 <__aeabi_dadd+0x45a>
    4de6:	2001      	movs	r0, #1
    4de8:	4a6f      	ldr	r2, [pc, #444]	; (4fa8 <__aeabi_dadd+0x3a0>)
    4dea:	086b      	lsrs	r3, r5, #1
    4dec:	400a      	ands	r2, r1
    4dee:	4028      	ands	r0, r5
    4df0:	4318      	orrs	r0, r3
    4df2:	07d5      	lsls	r5, r2, #31
    4df4:	4305      	orrs	r5, r0
    4df6:	0851      	lsrs	r1, r2, #1
    4df8:	e72f      	b.n	4c5a <__aeabi_dadd+0x52>
    4dfa:	002b      	movs	r3, r5
    4dfc:	430b      	orrs	r3, r1
    4dfe:	d100      	bne.n	4e02 <__aeabi_dadd+0x1fa>
    4e00:	e1cb      	b.n	519a <__aeabi_dadd+0x592>
    4e02:	2380      	movs	r3, #128	; 0x80
    4e04:	031b      	lsls	r3, r3, #12
    4e06:	430b      	orrs	r3, r1
    4e08:	031a      	lsls	r2, r3, #12
    4e0a:	0b12      	lsrs	r2, r2, #12
    4e0c:	e744      	b.n	4c98 <__aeabi_dadd+0x90>
    4e0e:	3e01      	subs	r6, #1
    4e10:	2e00      	cmp	r6, #0
    4e12:	d16d      	bne.n	4ef0 <__aeabi_dadd+0x2e8>
    4e14:	1aae      	subs	r6, r5, r2
    4e16:	42b5      	cmp	r5, r6
    4e18:	419b      	sbcs	r3, r3
    4e1a:	1a09      	subs	r1, r1, r0
    4e1c:	425b      	negs	r3, r3
    4e1e:	1ac9      	subs	r1, r1, r3
    4e20:	0035      	movs	r5, r6
    4e22:	e775      	b.n	4d10 <__aeabi_dadd+0x108>
    4e24:	0007      	movs	r7, r0
    4e26:	4317      	orrs	r7, r2
    4e28:	d100      	bne.n	4e2c <__aeabi_dadd+0x224>
    4e2a:	e716      	b.n	4c5a <__aeabi_dadd+0x52>
    4e2c:	2301      	movs	r3, #1
    4e2e:	425b      	negs	r3, r3
    4e30:	469c      	mov	ip, r3
    4e32:	44e3      	add	fp, ip
    4e34:	465b      	mov	r3, fp
    4e36:	2b00      	cmp	r3, #0
    4e38:	d000      	beq.n	4e3c <__aeabi_dadd+0x234>
    4e3a:	e0e0      	b.n	4ffe <__aeabi_dadd+0x3f6>
    4e3c:	18aa      	adds	r2, r5, r2
    4e3e:	42aa      	cmp	r2, r5
    4e40:	419b      	sbcs	r3, r3
    4e42:	1809      	adds	r1, r1, r0
    4e44:	425b      	negs	r3, r3
    4e46:	1859      	adds	r1, r3, r1
    4e48:	0015      	movs	r5, r2
    4e4a:	e7c5      	b.n	4dd8 <__aeabi_dadd+0x1d0>
    4e4c:	2e00      	cmp	r6, #0
    4e4e:	d175      	bne.n	4f3c <__aeabi_dadd+0x334>
    4e50:	1c66      	adds	r6, r4, #1
    4e52:	0576      	lsls	r6, r6, #21
    4e54:	0d76      	lsrs	r6, r6, #21
    4e56:	2e01      	cmp	r6, #1
    4e58:	dc00      	bgt.n	4e5c <__aeabi_dadd+0x254>
    4e5a:	e0f3      	b.n	5044 <__aeabi_dadd+0x43c>
    4e5c:	1aae      	subs	r6, r5, r2
    4e5e:	46b0      	mov	r8, r6
    4e60:	4545      	cmp	r5, r8
    4e62:	41bf      	sbcs	r7, r7
    4e64:	1a0e      	subs	r6, r1, r0
    4e66:	427f      	negs	r7, r7
    4e68:	1bf6      	subs	r6, r6, r7
    4e6a:	0237      	lsls	r7, r6, #8
    4e6c:	d400      	bmi.n	4e70 <__aeabi_dadd+0x268>
    4e6e:	e08f      	b.n	4f90 <__aeabi_dadd+0x388>
    4e70:	1b55      	subs	r5, r2, r5
    4e72:	42aa      	cmp	r2, r5
    4e74:	41b6      	sbcs	r6, r6
    4e76:	1a41      	subs	r1, r0, r1
    4e78:	4276      	negs	r6, r6
    4e7a:	1b8e      	subs	r6, r1, r6
    4e7c:	469a      	mov	sl, r3
    4e7e:	e74b      	b.n	4d18 <__aeabi_dadd+0x110>
    4e80:	4656      	mov	r6, sl
    4e82:	2200      	movs	r2, #0
    4e84:	2500      	movs	r5, #0
    4e86:	e707      	b.n	4c98 <__aeabi_dadd+0x90>
    4e88:	0028      	movs	r0, r5
    4e8a:	f001 fd53 	bl	6934 <__clzsi2>
    4e8e:	3020      	adds	r0, #32
    4e90:	0003      	movs	r3, r0
    4e92:	3b08      	subs	r3, #8
    4e94:	2b1f      	cmp	r3, #31
    4e96:	dc00      	bgt.n	4e9a <__aeabi_dadd+0x292>
    4e98:	e749      	b.n	4d2e <__aeabi_dadd+0x126>
    4e9a:	002a      	movs	r2, r5
    4e9c:	3828      	subs	r0, #40	; 0x28
    4e9e:	4082      	lsls	r2, r0
    4ea0:	2500      	movs	r5, #0
    4ea2:	429c      	cmp	r4, r3
    4ea4:	dc00      	bgt.n	4ea8 <__aeabi_dadd+0x2a0>
    4ea6:	e74d      	b.n	4d44 <__aeabi_dadd+0x13c>
    4ea8:	493f      	ldr	r1, [pc, #252]	; (4fa8 <__aeabi_dadd+0x3a0>)
    4eaa:	1ae4      	subs	r4, r4, r3
    4eac:	4011      	ands	r1, r2
    4eae:	e6d4      	b.n	4c5a <__aeabi_dadd+0x52>
    4eb0:	4302      	orrs	r2, r0
    4eb2:	1e50      	subs	r0, r2, #1
    4eb4:	4182      	sbcs	r2, r0
    4eb6:	b2d3      	uxtb	r3, r2
    4eb8:	2200      	movs	r2, #0
    4eba:	e722      	b.n	4d02 <__aeabi_dadd+0xfa>
    4ebc:	2b00      	cmp	r3, #0
    4ebe:	d000      	beq.n	4ec2 <__aeabi_dadd+0x2ba>
    4ec0:	e0f3      	b.n	50aa <__aeabi_dadd+0x4a2>
    4ec2:	1c63      	adds	r3, r4, #1
    4ec4:	469c      	mov	ip, r3
    4ec6:	055b      	lsls	r3, r3, #21
    4ec8:	0d5b      	lsrs	r3, r3, #21
    4eca:	2b01      	cmp	r3, #1
    4ecc:	dc00      	bgt.n	4ed0 <__aeabi_dadd+0x2c8>
    4ece:	e09f      	b.n	5010 <__aeabi_dadd+0x408>
    4ed0:	4b34      	ldr	r3, [pc, #208]	; (4fa4 <__aeabi_dadd+0x39c>)
    4ed2:	459c      	cmp	ip, r3
    4ed4:	d100      	bne.n	4ed8 <__aeabi_dadd+0x2d0>
    4ed6:	e0c3      	b.n	5060 <__aeabi_dadd+0x458>
    4ed8:	18aa      	adds	r2, r5, r2
    4eda:	1809      	adds	r1, r1, r0
    4edc:	42aa      	cmp	r2, r5
    4ede:	4180      	sbcs	r0, r0
    4ee0:	4240      	negs	r0, r0
    4ee2:	1841      	adds	r1, r0, r1
    4ee4:	07cd      	lsls	r5, r1, #31
    4ee6:	0852      	lsrs	r2, r2, #1
    4ee8:	4315      	orrs	r5, r2
    4eea:	0849      	lsrs	r1, r1, #1
    4eec:	4664      	mov	r4, ip
    4eee:	e6b4      	b.n	4c5a <__aeabi_dadd+0x52>
    4ef0:	4b2c      	ldr	r3, [pc, #176]	; (4fa4 <__aeabi_dadd+0x39c>)
    4ef2:	429c      	cmp	r4, r3
    4ef4:	d000      	beq.n	4ef8 <__aeabi_dadd+0x2f0>
    4ef6:	e6ec      	b.n	4cd2 <__aeabi_dadd+0xca>
    4ef8:	e6af      	b.n	4c5a <__aeabi_dadd+0x52>
    4efa:	0011      	movs	r1, r2
    4efc:	3c1f      	subs	r4, #31
    4efe:	40e1      	lsrs	r1, r4
    4f00:	000c      	movs	r4, r1
    4f02:	2b20      	cmp	r3, #32
    4f04:	d100      	bne.n	4f08 <__aeabi_dadd+0x300>
    4f06:	e07f      	b.n	5008 <__aeabi_dadd+0x400>
    4f08:	2140      	movs	r1, #64	; 0x40
    4f0a:	1acb      	subs	r3, r1, r3
    4f0c:	409a      	lsls	r2, r3
    4f0e:	4315      	orrs	r5, r2
    4f10:	1e6a      	subs	r2, r5, #1
    4f12:	4195      	sbcs	r5, r2
    4f14:	2100      	movs	r1, #0
    4f16:	4325      	orrs	r5, r4
    4f18:	2400      	movs	r4, #0
    4f1a:	e72d      	b.n	4d78 <__aeabi_dadd+0x170>
    4f1c:	0033      	movs	r3, r6
    4f1e:	0007      	movs	r7, r0
    4f20:	3b20      	subs	r3, #32
    4f22:	40df      	lsrs	r7, r3
    4f24:	003b      	movs	r3, r7
    4f26:	2e20      	cmp	r6, #32
    4f28:	d070      	beq.n	500c <__aeabi_dadd+0x404>
    4f2a:	2740      	movs	r7, #64	; 0x40
    4f2c:	1bbe      	subs	r6, r7, r6
    4f2e:	40b0      	lsls	r0, r6
    4f30:	4302      	orrs	r2, r0
    4f32:	1e50      	subs	r0, r2, #1
    4f34:	4182      	sbcs	r2, r0
    4f36:	4313      	orrs	r3, r2
    4f38:	2200      	movs	r2, #0
    4f3a:	e6e2      	b.n	4d02 <__aeabi_dadd+0xfa>
    4f3c:	2c00      	cmp	r4, #0
    4f3e:	d04f      	beq.n	4fe0 <__aeabi_dadd+0x3d8>
    4f40:	4c18      	ldr	r4, [pc, #96]	; (4fa4 <__aeabi_dadd+0x39c>)
    4f42:	45a4      	cmp	ip, r4
    4f44:	d100      	bne.n	4f48 <__aeabi_dadd+0x340>
    4f46:	e0ab      	b.n	50a0 <__aeabi_dadd+0x498>
    4f48:	2480      	movs	r4, #128	; 0x80
    4f4a:	0424      	lsls	r4, r4, #16
    4f4c:	4276      	negs	r6, r6
    4f4e:	4321      	orrs	r1, r4
    4f50:	2e38      	cmp	r6, #56	; 0x38
    4f52:	dd00      	ble.n	4f56 <__aeabi_dadd+0x34e>
    4f54:	e0df      	b.n	5116 <__aeabi_dadd+0x50e>
    4f56:	2e1f      	cmp	r6, #31
    4f58:	dd00      	ble.n	4f5c <__aeabi_dadd+0x354>
    4f5a:	e143      	b.n	51e4 <__aeabi_dadd+0x5dc>
    4f5c:	2720      	movs	r7, #32
    4f5e:	1bbc      	subs	r4, r7, r6
    4f60:	46a1      	mov	r9, r4
    4f62:	000c      	movs	r4, r1
    4f64:	464f      	mov	r7, r9
    4f66:	40bc      	lsls	r4, r7
    4f68:	46a0      	mov	r8, r4
    4f6a:	002c      	movs	r4, r5
    4f6c:	4647      	mov	r7, r8
    4f6e:	40f4      	lsrs	r4, r6
    4f70:	433c      	orrs	r4, r7
    4f72:	464f      	mov	r7, r9
    4f74:	40bd      	lsls	r5, r7
    4f76:	1e6f      	subs	r7, r5, #1
    4f78:	41bd      	sbcs	r5, r7
    4f7a:	40f1      	lsrs	r1, r6
    4f7c:	432c      	orrs	r4, r5
    4f7e:	1b15      	subs	r5, r2, r4
    4f80:	42aa      	cmp	r2, r5
    4f82:	4192      	sbcs	r2, r2
    4f84:	1a41      	subs	r1, r0, r1
    4f86:	4252      	negs	r2, r2
    4f88:	1a89      	subs	r1, r1, r2
    4f8a:	4664      	mov	r4, ip
    4f8c:	469a      	mov	sl, r3
    4f8e:	e6bf      	b.n	4d10 <__aeabi_dadd+0x108>
    4f90:	4641      	mov	r1, r8
    4f92:	4645      	mov	r5, r8
    4f94:	4331      	orrs	r1, r6
    4f96:	d000      	beq.n	4f9a <__aeabi_dadd+0x392>
    4f98:	e6be      	b.n	4d18 <__aeabi_dadd+0x110>
    4f9a:	2600      	movs	r6, #0
    4f9c:	2400      	movs	r4, #0
    4f9e:	2500      	movs	r5, #0
    4fa0:	e6f2      	b.n	4d88 <__aeabi_dadd+0x180>
    4fa2:	46c0      	nop			; (mov r8, r8)
    4fa4:	000007ff 	.word	0x000007ff
    4fa8:	ff7fffff 	.word	0xff7fffff
    4fac:	800fffff 	.word	0x800fffff
    4fb0:	2b1f      	cmp	r3, #31
    4fb2:	dc59      	bgt.n	5068 <__aeabi_dadd+0x460>
    4fb4:	2720      	movs	r7, #32
    4fb6:	1aff      	subs	r7, r7, r3
    4fb8:	46bc      	mov	ip, r7
    4fba:	0007      	movs	r7, r0
    4fbc:	4663      	mov	r3, ip
    4fbe:	409f      	lsls	r7, r3
    4fc0:	465b      	mov	r3, fp
    4fc2:	46b9      	mov	r9, r7
    4fc4:	0017      	movs	r7, r2
    4fc6:	40df      	lsrs	r7, r3
    4fc8:	46b8      	mov	r8, r7
    4fca:	464f      	mov	r7, r9
    4fcc:	4643      	mov	r3, r8
    4fce:	431f      	orrs	r7, r3
    4fd0:	4663      	mov	r3, ip
    4fd2:	409a      	lsls	r2, r3
    4fd4:	1e53      	subs	r3, r2, #1
    4fd6:	419a      	sbcs	r2, r3
    4fd8:	465b      	mov	r3, fp
    4fda:	433a      	orrs	r2, r7
    4fdc:	40d8      	lsrs	r0, r3
    4fde:	e6f4      	b.n	4dca <__aeabi_dadd+0x1c2>
    4fe0:	000c      	movs	r4, r1
    4fe2:	432c      	orrs	r4, r5
    4fe4:	d05c      	beq.n	50a0 <__aeabi_dadd+0x498>
    4fe6:	43f6      	mvns	r6, r6
    4fe8:	2e00      	cmp	r6, #0
    4fea:	d155      	bne.n	5098 <__aeabi_dadd+0x490>
    4fec:	1b55      	subs	r5, r2, r5
    4fee:	42aa      	cmp	r2, r5
    4ff0:	41a4      	sbcs	r4, r4
    4ff2:	1a41      	subs	r1, r0, r1
    4ff4:	4264      	negs	r4, r4
    4ff6:	1b09      	subs	r1, r1, r4
    4ff8:	469a      	mov	sl, r3
    4ffa:	4664      	mov	r4, ip
    4ffc:	e688      	b.n	4d10 <__aeabi_dadd+0x108>
    4ffe:	4f96      	ldr	r7, [pc, #600]	; (5258 <__aeabi_dadd+0x650>)
    5000:	42bc      	cmp	r4, r7
    5002:	d000      	beq.n	5006 <__aeabi_dadd+0x3fe>
    5004:	e6d8      	b.n	4db8 <__aeabi_dadd+0x1b0>
    5006:	e628      	b.n	4c5a <__aeabi_dadd+0x52>
    5008:	2200      	movs	r2, #0
    500a:	e780      	b.n	4f0e <__aeabi_dadd+0x306>
    500c:	2000      	movs	r0, #0
    500e:	e78f      	b.n	4f30 <__aeabi_dadd+0x328>
    5010:	000b      	movs	r3, r1
    5012:	432b      	orrs	r3, r5
    5014:	2c00      	cmp	r4, #0
    5016:	d000      	beq.n	501a <__aeabi_dadd+0x412>
    5018:	e0c2      	b.n	51a0 <__aeabi_dadd+0x598>
    501a:	2b00      	cmp	r3, #0
    501c:	d100      	bne.n	5020 <__aeabi_dadd+0x418>
    501e:	e101      	b.n	5224 <__aeabi_dadd+0x61c>
    5020:	0003      	movs	r3, r0
    5022:	4313      	orrs	r3, r2
    5024:	d100      	bne.n	5028 <__aeabi_dadd+0x420>
    5026:	e618      	b.n	4c5a <__aeabi_dadd+0x52>
    5028:	18ab      	adds	r3, r5, r2
    502a:	42ab      	cmp	r3, r5
    502c:	41b6      	sbcs	r6, r6
    502e:	1809      	adds	r1, r1, r0
    5030:	4276      	negs	r6, r6
    5032:	1871      	adds	r1, r6, r1
    5034:	020a      	lsls	r2, r1, #8
    5036:	d400      	bmi.n	503a <__aeabi_dadd+0x432>
    5038:	e109      	b.n	524e <__aeabi_dadd+0x646>
    503a:	4a88      	ldr	r2, [pc, #544]	; (525c <__aeabi_dadd+0x654>)
    503c:	001d      	movs	r5, r3
    503e:	4011      	ands	r1, r2
    5040:	4664      	mov	r4, ip
    5042:	e60a      	b.n	4c5a <__aeabi_dadd+0x52>
    5044:	2c00      	cmp	r4, #0
    5046:	d15b      	bne.n	5100 <__aeabi_dadd+0x4f8>
    5048:	000e      	movs	r6, r1
    504a:	432e      	orrs	r6, r5
    504c:	d000      	beq.n	5050 <__aeabi_dadd+0x448>
    504e:	e08a      	b.n	5166 <__aeabi_dadd+0x55e>
    5050:	0001      	movs	r1, r0
    5052:	4311      	orrs	r1, r2
    5054:	d100      	bne.n	5058 <__aeabi_dadd+0x450>
    5056:	e0c2      	b.n	51de <__aeabi_dadd+0x5d6>
    5058:	0001      	movs	r1, r0
    505a:	0015      	movs	r5, r2
    505c:	469a      	mov	sl, r3
    505e:	e5fc      	b.n	4c5a <__aeabi_dadd+0x52>
    5060:	4664      	mov	r4, ip
    5062:	2100      	movs	r1, #0
    5064:	2500      	movs	r5, #0
    5066:	e68f      	b.n	4d88 <__aeabi_dadd+0x180>
    5068:	2320      	movs	r3, #32
    506a:	425b      	negs	r3, r3
    506c:	469c      	mov	ip, r3
    506e:	44dc      	add	ip, fp
    5070:	4663      	mov	r3, ip
    5072:	0007      	movs	r7, r0
    5074:	40df      	lsrs	r7, r3
    5076:	465b      	mov	r3, fp
    5078:	46bc      	mov	ip, r7
    507a:	2b20      	cmp	r3, #32
    507c:	d100      	bne.n	5080 <__aeabi_dadd+0x478>
    507e:	e0ac      	b.n	51da <__aeabi_dadd+0x5d2>
    5080:	2340      	movs	r3, #64	; 0x40
    5082:	465f      	mov	r7, fp
    5084:	1bdb      	subs	r3, r3, r7
    5086:	4098      	lsls	r0, r3
    5088:	4302      	orrs	r2, r0
    508a:	1e50      	subs	r0, r2, #1
    508c:	4182      	sbcs	r2, r0
    508e:	4663      	mov	r3, ip
    5090:	4313      	orrs	r3, r2
    5092:	001a      	movs	r2, r3
    5094:	2000      	movs	r0, #0
    5096:	e698      	b.n	4dca <__aeabi_dadd+0x1c2>
    5098:	4c6f      	ldr	r4, [pc, #444]	; (5258 <__aeabi_dadd+0x650>)
    509a:	45a4      	cmp	ip, r4
    509c:	d000      	beq.n	50a0 <__aeabi_dadd+0x498>
    509e:	e757      	b.n	4f50 <__aeabi_dadd+0x348>
    50a0:	0001      	movs	r1, r0
    50a2:	0015      	movs	r5, r2
    50a4:	4664      	mov	r4, ip
    50a6:	469a      	mov	sl, r3
    50a8:	e5d7      	b.n	4c5a <__aeabi_dadd+0x52>
    50aa:	2c00      	cmp	r4, #0
    50ac:	d139      	bne.n	5122 <__aeabi_dadd+0x51a>
    50ae:	000c      	movs	r4, r1
    50b0:	432c      	orrs	r4, r5
    50b2:	d06e      	beq.n	5192 <__aeabi_dadd+0x58a>
    50b4:	43db      	mvns	r3, r3
    50b6:	2b00      	cmp	r3, #0
    50b8:	d01a      	beq.n	50f0 <__aeabi_dadd+0x4e8>
    50ba:	4c67      	ldr	r4, [pc, #412]	; (5258 <__aeabi_dadd+0x650>)
    50bc:	45a4      	cmp	ip, r4
    50be:	d068      	beq.n	5192 <__aeabi_dadd+0x58a>
    50c0:	2b38      	cmp	r3, #56	; 0x38
    50c2:	dd00      	ble.n	50c6 <__aeabi_dadd+0x4be>
    50c4:	e0a4      	b.n	5210 <__aeabi_dadd+0x608>
    50c6:	2b1f      	cmp	r3, #31
    50c8:	dd00      	ble.n	50cc <__aeabi_dadd+0x4c4>
    50ca:	e0ae      	b.n	522a <__aeabi_dadd+0x622>
    50cc:	2420      	movs	r4, #32
    50ce:	000f      	movs	r7, r1
    50d0:	1ae4      	subs	r4, r4, r3
    50d2:	40a7      	lsls	r7, r4
    50d4:	46b9      	mov	r9, r7
    50d6:	002f      	movs	r7, r5
    50d8:	40df      	lsrs	r7, r3
    50da:	46b8      	mov	r8, r7
    50dc:	46a3      	mov	fp, r4
    50de:	464f      	mov	r7, r9
    50e0:	4644      	mov	r4, r8
    50e2:	4327      	orrs	r7, r4
    50e4:	465c      	mov	r4, fp
    50e6:	40a5      	lsls	r5, r4
    50e8:	1e6c      	subs	r4, r5, #1
    50ea:	41a5      	sbcs	r5, r4
    50ec:	40d9      	lsrs	r1, r3
    50ee:	433d      	orrs	r5, r7
    50f0:	18ad      	adds	r5, r5, r2
    50f2:	4295      	cmp	r5, r2
    50f4:	419b      	sbcs	r3, r3
    50f6:	1809      	adds	r1, r1, r0
    50f8:	425b      	negs	r3, r3
    50fa:	1859      	adds	r1, r3, r1
    50fc:	4664      	mov	r4, ip
    50fe:	e66b      	b.n	4dd8 <__aeabi_dadd+0x1d0>
    5100:	000c      	movs	r4, r1
    5102:	432c      	orrs	r4, r5
    5104:	d115      	bne.n	5132 <__aeabi_dadd+0x52a>
    5106:	0001      	movs	r1, r0
    5108:	4311      	orrs	r1, r2
    510a:	d07b      	beq.n	5204 <__aeabi_dadd+0x5fc>
    510c:	0001      	movs	r1, r0
    510e:	0015      	movs	r5, r2
    5110:	469a      	mov	sl, r3
    5112:	4c51      	ldr	r4, [pc, #324]	; (5258 <__aeabi_dadd+0x650>)
    5114:	e5a1      	b.n	4c5a <__aeabi_dadd+0x52>
    5116:	430d      	orrs	r5, r1
    5118:	1e69      	subs	r1, r5, #1
    511a:	418d      	sbcs	r5, r1
    511c:	2100      	movs	r1, #0
    511e:	b2ec      	uxtb	r4, r5
    5120:	e72d      	b.n	4f7e <__aeabi_dadd+0x376>
    5122:	4c4d      	ldr	r4, [pc, #308]	; (5258 <__aeabi_dadd+0x650>)
    5124:	45a4      	cmp	ip, r4
    5126:	d034      	beq.n	5192 <__aeabi_dadd+0x58a>
    5128:	2480      	movs	r4, #128	; 0x80
    512a:	0424      	lsls	r4, r4, #16
    512c:	425b      	negs	r3, r3
    512e:	4321      	orrs	r1, r4
    5130:	e7c6      	b.n	50c0 <__aeabi_dadd+0x4b8>
    5132:	0004      	movs	r4, r0
    5134:	4314      	orrs	r4, r2
    5136:	d04e      	beq.n	51d6 <__aeabi_dadd+0x5ce>
    5138:	08ed      	lsrs	r5, r5, #3
    513a:	074c      	lsls	r4, r1, #29
    513c:	432c      	orrs	r4, r5
    513e:	2580      	movs	r5, #128	; 0x80
    5140:	08c9      	lsrs	r1, r1, #3
    5142:	032d      	lsls	r5, r5, #12
    5144:	4229      	tst	r1, r5
    5146:	d008      	beq.n	515a <__aeabi_dadd+0x552>
    5148:	08c6      	lsrs	r6, r0, #3
    514a:	422e      	tst	r6, r5
    514c:	d105      	bne.n	515a <__aeabi_dadd+0x552>
    514e:	08d2      	lsrs	r2, r2, #3
    5150:	0741      	lsls	r1, r0, #29
    5152:	4311      	orrs	r1, r2
    5154:	000c      	movs	r4, r1
    5156:	469a      	mov	sl, r3
    5158:	0031      	movs	r1, r6
    515a:	0f62      	lsrs	r2, r4, #29
    515c:	00c9      	lsls	r1, r1, #3
    515e:	00e5      	lsls	r5, r4, #3
    5160:	4311      	orrs	r1, r2
    5162:	4c3d      	ldr	r4, [pc, #244]	; (5258 <__aeabi_dadd+0x650>)
    5164:	e579      	b.n	4c5a <__aeabi_dadd+0x52>
    5166:	0006      	movs	r6, r0
    5168:	4316      	orrs	r6, r2
    516a:	d100      	bne.n	516e <__aeabi_dadd+0x566>
    516c:	e575      	b.n	4c5a <__aeabi_dadd+0x52>
    516e:	1aae      	subs	r6, r5, r2
    5170:	46b0      	mov	r8, r6
    5172:	4545      	cmp	r5, r8
    5174:	41bf      	sbcs	r7, r7
    5176:	1a0e      	subs	r6, r1, r0
    5178:	427f      	negs	r7, r7
    517a:	1bf6      	subs	r6, r6, r7
    517c:	0237      	lsls	r7, r6, #8
    517e:	d400      	bmi.n	5182 <__aeabi_dadd+0x57a>
    5180:	e5f4      	b.n	4d6c <__aeabi_dadd+0x164>
    5182:	1b55      	subs	r5, r2, r5
    5184:	42aa      	cmp	r2, r5
    5186:	41b6      	sbcs	r6, r6
    5188:	1a41      	subs	r1, r0, r1
    518a:	4276      	negs	r6, r6
    518c:	1b89      	subs	r1, r1, r6
    518e:	469a      	mov	sl, r3
    5190:	e563      	b.n	4c5a <__aeabi_dadd+0x52>
    5192:	0001      	movs	r1, r0
    5194:	0015      	movs	r5, r2
    5196:	4664      	mov	r4, ip
    5198:	e55f      	b.n	4c5a <__aeabi_dadd+0x52>
    519a:	2200      	movs	r2, #0
    519c:	2500      	movs	r5, #0
    519e:	e57b      	b.n	4c98 <__aeabi_dadd+0x90>
    51a0:	2b00      	cmp	r3, #0
    51a2:	d03b      	beq.n	521c <__aeabi_dadd+0x614>
    51a4:	0003      	movs	r3, r0
    51a6:	4313      	orrs	r3, r2
    51a8:	d015      	beq.n	51d6 <__aeabi_dadd+0x5ce>
    51aa:	08ed      	lsrs	r5, r5, #3
    51ac:	074b      	lsls	r3, r1, #29
    51ae:	432b      	orrs	r3, r5
    51b0:	2580      	movs	r5, #128	; 0x80
    51b2:	08c9      	lsrs	r1, r1, #3
    51b4:	032d      	lsls	r5, r5, #12
    51b6:	4229      	tst	r1, r5
    51b8:	d007      	beq.n	51ca <__aeabi_dadd+0x5c2>
    51ba:	08c4      	lsrs	r4, r0, #3
    51bc:	422c      	tst	r4, r5
    51be:	d104      	bne.n	51ca <__aeabi_dadd+0x5c2>
    51c0:	0741      	lsls	r1, r0, #29
    51c2:	000b      	movs	r3, r1
    51c4:	0021      	movs	r1, r4
    51c6:	08d2      	lsrs	r2, r2, #3
    51c8:	4313      	orrs	r3, r2
    51ca:	00c9      	lsls	r1, r1, #3
    51cc:	0f5a      	lsrs	r2, r3, #29
    51ce:	4311      	orrs	r1, r2
    51d0:	00dd      	lsls	r5, r3, #3
    51d2:	4c21      	ldr	r4, [pc, #132]	; (5258 <__aeabi_dadd+0x650>)
    51d4:	e541      	b.n	4c5a <__aeabi_dadd+0x52>
    51d6:	4c20      	ldr	r4, [pc, #128]	; (5258 <__aeabi_dadd+0x650>)
    51d8:	e53f      	b.n	4c5a <__aeabi_dadd+0x52>
    51da:	2000      	movs	r0, #0
    51dc:	e754      	b.n	5088 <__aeabi_dadd+0x480>
    51de:	2600      	movs	r6, #0
    51e0:	2500      	movs	r5, #0
    51e2:	e5d1      	b.n	4d88 <__aeabi_dadd+0x180>
    51e4:	0034      	movs	r4, r6
    51e6:	000f      	movs	r7, r1
    51e8:	3c20      	subs	r4, #32
    51ea:	40e7      	lsrs	r7, r4
    51ec:	003c      	movs	r4, r7
    51ee:	2e20      	cmp	r6, #32
    51f0:	d02b      	beq.n	524a <__aeabi_dadd+0x642>
    51f2:	2740      	movs	r7, #64	; 0x40
    51f4:	1bbe      	subs	r6, r7, r6
    51f6:	40b1      	lsls	r1, r6
    51f8:	430d      	orrs	r5, r1
    51fa:	1e69      	subs	r1, r5, #1
    51fc:	418d      	sbcs	r5, r1
    51fe:	2100      	movs	r1, #0
    5200:	432c      	orrs	r4, r5
    5202:	e6bc      	b.n	4f7e <__aeabi_dadd+0x376>
    5204:	2180      	movs	r1, #128	; 0x80
    5206:	2600      	movs	r6, #0
    5208:	0309      	lsls	r1, r1, #12
    520a:	4c13      	ldr	r4, [pc, #76]	; (5258 <__aeabi_dadd+0x650>)
    520c:	2500      	movs	r5, #0
    520e:	e5bb      	b.n	4d88 <__aeabi_dadd+0x180>
    5210:	430d      	orrs	r5, r1
    5212:	1e69      	subs	r1, r5, #1
    5214:	418d      	sbcs	r5, r1
    5216:	2100      	movs	r1, #0
    5218:	b2ed      	uxtb	r5, r5
    521a:	e769      	b.n	50f0 <__aeabi_dadd+0x4e8>
    521c:	0001      	movs	r1, r0
    521e:	0015      	movs	r5, r2
    5220:	4c0d      	ldr	r4, [pc, #52]	; (5258 <__aeabi_dadd+0x650>)
    5222:	e51a      	b.n	4c5a <__aeabi_dadd+0x52>
    5224:	0001      	movs	r1, r0
    5226:	0015      	movs	r5, r2
    5228:	e517      	b.n	4c5a <__aeabi_dadd+0x52>
    522a:	001c      	movs	r4, r3
    522c:	000f      	movs	r7, r1
    522e:	3c20      	subs	r4, #32
    5230:	40e7      	lsrs	r7, r4
    5232:	003c      	movs	r4, r7
    5234:	2b20      	cmp	r3, #32
    5236:	d00c      	beq.n	5252 <__aeabi_dadd+0x64a>
    5238:	2740      	movs	r7, #64	; 0x40
    523a:	1afb      	subs	r3, r7, r3
    523c:	4099      	lsls	r1, r3
    523e:	430d      	orrs	r5, r1
    5240:	1e69      	subs	r1, r5, #1
    5242:	418d      	sbcs	r5, r1
    5244:	2100      	movs	r1, #0
    5246:	4325      	orrs	r5, r4
    5248:	e752      	b.n	50f0 <__aeabi_dadd+0x4e8>
    524a:	2100      	movs	r1, #0
    524c:	e7d4      	b.n	51f8 <__aeabi_dadd+0x5f0>
    524e:	001d      	movs	r5, r3
    5250:	e592      	b.n	4d78 <__aeabi_dadd+0x170>
    5252:	2100      	movs	r1, #0
    5254:	e7f3      	b.n	523e <__aeabi_dadd+0x636>
    5256:	46c0      	nop			; (mov r8, r8)
    5258:	000007ff 	.word	0x000007ff
    525c:	ff7fffff 	.word	0xff7fffff

00005260 <__aeabi_ddiv>:
    5260:	b5f0      	push	{r4, r5, r6, r7, lr}
    5262:	4656      	mov	r6, sl
    5264:	464d      	mov	r5, r9
    5266:	4644      	mov	r4, r8
    5268:	465f      	mov	r7, fp
    526a:	b4f0      	push	{r4, r5, r6, r7}
    526c:	001d      	movs	r5, r3
    526e:	030e      	lsls	r6, r1, #12
    5270:	004c      	lsls	r4, r1, #1
    5272:	0fcb      	lsrs	r3, r1, #31
    5274:	b087      	sub	sp, #28
    5276:	0007      	movs	r7, r0
    5278:	4692      	mov	sl, r2
    527a:	4681      	mov	r9, r0
    527c:	0b36      	lsrs	r6, r6, #12
    527e:	0d64      	lsrs	r4, r4, #21
    5280:	4698      	mov	r8, r3
    5282:	d06a      	beq.n	535a <__aeabi_ddiv+0xfa>
    5284:	4b6d      	ldr	r3, [pc, #436]	; (543c <__aeabi_ddiv+0x1dc>)
    5286:	429c      	cmp	r4, r3
    5288:	d035      	beq.n	52f6 <__aeabi_ddiv+0x96>
    528a:	2280      	movs	r2, #128	; 0x80
    528c:	0f43      	lsrs	r3, r0, #29
    528e:	0412      	lsls	r2, r2, #16
    5290:	4313      	orrs	r3, r2
    5292:	00f6      	lsls	r6, r6, #3
    5294:	431e      	orrs	r6, r3
    5296:	00c3      	lsls	r3, r0, #3
    5298:	4699      	mov	r9, r3
    529a:	4b69      	ldr	r3, [pc, #420]	; (5440 <__aeabi_ddiv+0x1e0>)
    529c:	2700      	movs	r7, #0
    529e:	469c      	mov	ip, r3
    52a0:	2300      	movs	r3, #0
    52a2:	4464      	add	r4, ip
    52a4:	9302      	str	r3, [sp, #8]
    52a6:	032b      	lsls	r3, r5, #12
    52a8:	0068      	lsls	r0, r5, #1
    52aa:	0b1b      	lsrs	r3, r3, #12
    52ac:	0fed      	lsrs	r5, r5, #31
    52ae:	4651      	mov	r1, sl
    52b0:	469b      	mov	fp, r3
    52b2:	0d40      	lsrs	r0, r0, #21
    52b4:	9500      	str	r5, [sp, #0]
    52b6:	d100      	bne.n	52ba <__aeabi_ddiv+0x5a>
    52b8:	e078      	b.n	53ac <__aeabi_ddiv+0x14c>
    52ba:	4b60      	ldr	r3, [pc, #384]	; (543c <__aeabi_ddiv+0x1dc>)
    52bc:	4298      	cmp	r0, r3
    52be:	d06c      	beq.n	539a <__aeabi_ddiv+0x13a>
    52c0:	465b      	mov	r3, fp
    52c2:	00da      	lsls	r2, r3, #3
    52c4:	0f4b      	lsrs	r3, r1, #29
    52c6:	2180      	movs	r1, #128	; 0x80
    52c8:	0409      	lsls	r1, r1, #16
    52ca:	430b      	orrs	r3, r1
    52cc:	4313      	orrs	r3, r2
    52ce:	469b      	mov	fp, r3
    52d0:	4653      	mov	r3, sl
    52d2:	00d9      	lsls	r1, r3, #3
    52d4:	4b5a      	ldr	r3, [pc, #360]	; (5440 <__aeabi_ddiv+0x1e0>)
    52d6:	469c      	mov	ip, r3
    52d8:	2300      	movs	r3, #0
    52da:	4460      	add	r0, ip
    52dc:	4642      	mov	r2, r8
    52de:	1a20      	subs	r0, r4, r0
    52e0:	406a      	eors	r2, r5
    52e2:	4692      	mov	sl, r2
    52e4:	9001      	str	r0, [sp, #4]
    52e6:	431f      	orrs	r7, r3
    52e8:	2f0f      	cmp	r7, #15
    52ea:	d900      	bls.n	52ee <__aeabi_ddiv+0x8e>
    52ec:	e0b0      	b.n	5450 <__aeabi_ddiv+0x1f0>
    52ee:	4855      	ldr	r0, [pc, #340]	; (5444 <__aeabi_ddiv+0x1e4>)
    52f0:	00bf      	lsls	r7, r7, #2
    52f2:	59c0      	ldr	r0, [r0, r7]
    52f4:	4687      	mov	pc, r0
    52f6:	4337      	orrs	r7, r6
    52f8:	d000      	beq.n	52fc <__aeabi_ddiv+0x9c>
    52fa:	e088      	b.n	540e <__aeabi_ddiv+0x1ae>
    52fc:	2300      	movs	r3, #0
    52fe:	4699      	mov	r9, r3
    5300:	3302      	adds	r3, #2
    5302:	2708      	movs	r7, #8
    5304:	2600      	movs	r6, #0
    5306:	9302      	str	r3, [sp, #8]
    5308:	e7cd      	b.n	52a6 <__aeabi_ddiv+0x46>
    530a:	4643      	mov	r3, r8
    530c:	46b3      	mov	fp, r6
    530e:	4649      	mov	r1, r9
    5310:	9300      	str	r3, [sp, #0]
    5312:	9b02      	ldr	r3, [sp, #8]
    5314:	9a00      	ldr	r2, [sp, #0]
    5316:	4692      	mov	sl, r2
    5318:	2b02      	cmp	r3, #2
    531a:	d000      	beq.n	531e <__aeabi_ddiv+0xbe>
    531c:	e1bf      	b.n	569e <__aeabi_ddiv+0x43e>
    531e:	2100      	movs	r1, #0
    5320:	4653      	mov	r3, sl
    5322:	2201      	movs	r2, #1
    5324:	2600      	movs	r6, #0
    5326:	4689      	mov	r9, r1
    5328:	401a      	ands	r2, r3
    532a:	4b44      	ldr	r3, [pc, #272]	; (543c <__aeabi_ddiv+0x1dc>)
    532c:	2100      	movs	r1, #0
    532e:	0336      	lsls	r6, r6, #12
    5330:	0d0c      	lsrs	r4, r1, #20
    5332:	0524      	lsls	r4, r4, #20
    5334:	0b36      	lsrs	r6, r6, #12
    5336:	4326      	orrs	r6, r4
    5338:	4c43      	ldr	r4, [pc, #268]	; (5448 <__aeabi_ddiv+0x1e8>)
    533a:	051b      	lsls	r3, r3, #20
    533c:	4026      	ands	r6, r4
    533e:	431e      	orrs	r6, r3
    5340:	0076      	lsls	r6, r6, #1
    5342:	07d2      	lsls	r2, r2, #31
    5344:	0876      	lsrs	r6, r6, #1
    5346:	4316      	orrs	r6, r2
    5348:	4648      	mov	r0, r9
    534a:	0031      	movs	r1, r6
    534c:	b007      	add	sp, #28
    534e:	bc3c      	pop	{r2, r3, r4, r5}
    5350:	4690      	mov	r8, r2
    5352:	4699      	mov	r9, r3
    5354:	46a2      	mov	sl, r4
    5356:	46ab      	mov	fp, r5
    5358:	bdf0      	pop	{r4, r5, r6, r7, pc}
    535a:	0033      	movs	r3, r6
    535c:	4303      	orrs	r3, r0
    535e:	d04f      	beq.n	5400 <__aeabi_ddiv+0x1a0>
    5360:	2e00      	cmp	r6, #0
    5362:	d100      	bne.n	5366 <__aeabi_ddiv+0x106>
    5364:	e1bc      	b.n	56e0 <__aeabi_ddiv+0x480>
    5366:	0030      	movs	r0, r6
    5368:	f001 fae4 	bl	6934 <__clzsi2>
    536c:	0003      	movs	r3, r0
    536e:	3b0b      	subs	r3, #11
    5370:	2b1c      	cmp	r3, #28
    5372:	dd00      	ble.n	5376 <__aeabi_ddiv+0x116>
    5374:	e1ad      	b.n	56d2 <__aeabi_ddiv+0x472>
    5376:	221d      	movs	r2, #29
    5378:	0001      	movs	r1, r0
    537a:	1ad3      	subs	r3, r2, r3
    537c:	3908      	subs	r1, #8
    537e:	003a      	movs	r2, r7
    5380:	408f      	lsls	r7, r1
    5382:	408e      	lsls	r6, r1
    5384:	40da      	lsrs	r2, r3
    5386:	46b9      	mov	r9, r7
    5388:	4316      	orrs	r6, r2
    538a:	4b30      	ldr	r3, [pc, #192]	; (544c <__aeabi_ddiv+0x1ec>)
    538c:	2700      	movs	r7, #0
    538e:	469c      	mov	ip, r3
    5390:	2300      	movs	r3, #0
    5392:	4460      	add	r0, ip
    5394:	4244      	negs	r4, r0
    5396:	9302      	str	r3, [sp, #8]
    5398:	e785      	b.n	52a6 <__aeabi_ddiv+0x46>
    539a:	4653      	mov	r3, sl
    539c:	465a      	mov	r2, fp
    539e:	4313      	orrs	r3, r2
    53a0:	d12c      	bne.n	53fc <__aeabi_ddiv+0x19c>
    53a2:	2300      	movs	r3, #0
    53a4:	2100      	movs	r1, #0
    53a6:	469b      	mov	fp, r3
    53a8:	3302      	adds	r3, #2
    53aa:	e797      	b.n	52dc <__aeabi_ddiv+0x7c>
    53ac:	430b      	orrs	r3, r1
    53ae:	d020      	beq.n	53f2 <__aeabi_ddiv+0x192>
    53b0:	465b      	mov	r3, fp
    53b2:	2b00      	cmp	r3, #0
    53b4:	d100      	bne.n	53b8 <__aeabi_ddiv+0x158>
    53b6:	e19e      	b.n	56f6 <__aeabi_ddiv+0x496>
    53b8:	4658      	mov	r0, fp
    53ba:	f001 fabb 	bl	6934 <__clzsi2>
    53be:	0003      	movs	r3, r0
    53c0:	3b0b      	subs	r3, #11
    53c2:	2b1c      	cmp	r3, #28
    53c4:	dd00      	ble.n	53c8 <__aeabi_ddiv+0x168>
    53c6:	e18f      	b.n	56e8 <__aeabi_ddiv+0x488>
    53c8:	0002      	movs	r2, r0
    53ca:	4659      	mov	r1, fp
    53cc:	3a08      	subs	r2, #8
    53ce:	4091      	lsls	r1, r2
    53d0:	468b      	mov	fp, r1
    53d2:	211d      	movs	r1, #29
    53d4:	1acb      	subs	r3, r1, r3
    53d6:	4651      	mov	r1, sl
    53d8:	40d9      	lsrs	r1, r3
    53da:	000b      	movs	r3, r1
    53dc:	4659      	mov	r1, fp
    53de:	430b      	orrs	r3, r1
    53e0:	4651      	mov	r1, sl
    53e2:	469b      	mov	fp, r3
    53e4:	4091      	lsls	r1, r2
    53e6:	4b19      	ldr	r3, [pc, #100]	; (544c <__aeabi_ddiv+0x1ec>)
    53e8:	469c      	mov	ip, r3
    53ea:	4460      	add	r0, ip
    53ec:	4240      	negs	r0, r0
    53ee:	2300      	movs	r3, #0
    53f0:	e774      	b.n	52dc <__aeabi_ddiv+0x7c>
    53f2:	2300      	movs	r3, #0
    53f4:	2100      	movs	r1, #0
    53f6:	469b      	mov	fp, r3
    53f8:	3301      	adds	r3, #1
    53fa:	e76f      	b.n	52dc <__aeabi_ddiv+0x7c>
    53fc:	2303      	movs	r3, #3
    53fe:	e76d      	b.n	52dc <__aeabi_ddiv+0x7c>
    5400:	2300      	movs	r3, #0
    5402:	4699      	mov	r9, r3
    5404:	3301      	adds	r3, #1
    5406:	2704      	movs	r7, #4
    5408:	2600      	movs	r6, #0
    540a:	9302      	str	r3, [sp, #8]
    540c:	e74b      	b.n	52a6 <__aeabi_ddiv+0x46>
    540e:	2303      	movs	r3, #3
    5410:	270c      	movs	r7, #12
    5412:	9302      	str	r3, [sp, #8]
    5414:	e747      	b.n	52a6 <__aeabi_ddiv+0x46>
    5416:	2201      	movs	r2, #1
    5418:	1ad5      	subs	r5, r2, r3
    541a:	2d38      	cmp	r5, #56	; 0x38
    541c:	dc00      	bgt.n	5420 <__aeabi_ddiv+0x1c0>
    541e:	e1b0      	b.n	5782 <__aeabi_ddiv+0x522>
    5420:	4653      	mov	r3, sl
    5422:	401a      	ands	r2, r3
    5424:	2100      	movs	r1, #0
    5426:	2300      	movs	r3, #0
    5428:	2600      	movs	r6, #0
    542a:	4689      	mov	r9, r1
    542c:	e77e      	b.n	532c <__aeabi_ddiv+0xcc>
    542e:	2300      	movs	r3, #0
    5430:	2680      	movs	r6, #128	; 0x80
    5432:	4699      	mov	r9, r3
    5434:	2200      	movs	r2, #0
    5436:	0336      	lsls	r6, r6, #12
    5438:	4b00      	ldr	r3, [pc, #0]	; (543c <__aeabi_ddiv+0x1dc>)
    543a:	e777      	b.n	532c <__aeabi_ddiv+0xcc>
    543c:	000007ff 	.word	0x000007ff
    5440:	fffffc01 	.word	0xfffffc01
    5444:	0000bda8 	.word	0x0000bda8
    5448:	800fffff 	.word	0x800fffff
    544c:	000003f3 	.word	0x000003f3
    5450:	455e      	cmp	r6, fp
    5452:	d900      	bls.n	5456 <__aeabi_ddiv+0x1f6>
    5454:	e172      	b.n	573c <__aeabi_ddiv+0x4dc>
    5456:	d100      	bne.n	545a <__aeabi_ddiv+0x1fa>
    5458:	e16d      	b.n	5736 <__aeabi_ddiv+0x4d6>
    545a:	9b01      	ldr	r3, [sp, #4]
    545c:	464d      	mov	r5, r9
    545e:	3b01      	subs	r3, #1
    5460:	9301      	str	r3, [sp, #4]
    5462:	2300      	movs	r3, #0
    5464:	0034      	movs	r4, r6
    5466:	9302      	str	r3, [sp, #8]
    5468:	465b      	mov	r3, fp
    546a:	021e      	lsls	r6, r3, #8
    546c:	0e0b      	lsrs	r3, r1, #24
    546e:	431e      	orrs	r6, r3
    5470:	020b      	lsls	r3, r1, #8
    5472:	9303      	str	r3, [sp, #12]
    5474:	0c33      	lsrs	r3, r6, #16
    5476:	4699      	mov	r9, r3
    5478:	0433      	lsls	r3, r6, #16
    547a:	0c1b      	lsrs	r3, r3, #16
    547c:	4649      	mov	r1, r9
    547e:	0020      	movs	r0, r4
    5480:	9300      	str	r3, [sp, #0]
    5482:	f7fe fe09 	bl	4098 <__aeabi_uidiv>
    5486:	9b00      	ldr	r3, [sp, #0]
    5488:	0037      	movs	r7, r6
    548a:	4343      	muls	r3, r0
    548c:	0006      	movs	r6, r0
    548e:	4649      	mov	r1, r9
    5490:	0020      	movs	r0, r4
    5492:	4698      	mov	r8, r3
    5494:	f7fe fe86 	bl	41a4 <__aeabi_uidivmod>
    5498:	0c2c      	lsrs	r4, r5, #16
    549a:	0409      	lsls	r1, r1, #16
    549c:	430c      	orrs	r4, r1
    549e:	45a0      	cmp	r8, r4
    54a0:	d909      	bls.n	54b6 <__aeabi_ddiv+0x256>
    54a2:	19e4      	adds	r4, r4, r7
    54a4:	1e73      	subs	r3, r6, #1
    54a6:	42a7      	cmp	r7, r4
    54a8:	d900      	bls.n	54ac <__aeabi_ddiv+0x24c>
    54aa:	e15c      	b.n	5766 <__aeabi_ddiv+0x506>
    54ac:	45a0      	cmp	r8, r4
    54ae:	d800      	bhi.n	54b2 <__aeabi_ddiv+0x252>
    54b0:	e159      	b.n	5766 <__aeabi_ddiv+0x506>
    54b2:	3e02      	subs	r6, #2
    54b4:	19e4      	adds	r4, r4, r7
    54b6:	4643      	mov	r3, r8
    54b8:	1ae4      	subs	r4, r4, r3
    54ba:	4649      	mov	r1, r9
    54bc:	0020      	movs	r0, r4
    54be:	f7fe fdeb 	bl	4098 <__aeabi_uidiv>
    54c2:	0003      	movs	r3, r0
    54c4:	9a00      	ldr	r2, [sp, #0]
    54c6:	4680      	mov	r8, r0
    54c8:	4353      	muls	r3, r2
    54ca:	4649      	mov	r1, r9
    54cc:	0020      	movs	r0, r4
    54ce:	469b      	mov	fp, r3
    54d0:	f7fe fe68 	bl	41a4 <__aeabi_uidivmod>
    54d4:	042a      	lsls	r2, r5, #16
    54d6:	0409      	lsls	r1, r1, #16
    54d8:	0c12      	lsrs	r2, r2, #16
    54da:	430a      	orrs	r2, r1
    54dc:	4593      	cmp	fp, r2
    54de:	d90d      	bls.n	54fc <__aeabi_ddiv+0x29c>
    54e0:	4643      	mov	r3, r8
    54e2:	19d2      	adds	r2, r2, r7
    54e4:	3b01      	subs	r3, #1
    54e6:	4297      	cmp	r7, r2
    54e8:	d900      	bls.n	54ec <__aeabi_ddiv+0x28c>
    54ea:	e13a      	b.n	5762 <__aeabi_ddiv+0x502>
    54ec:	4593      	cmp	fp, r2
    54ee:	d800      	bhi.n	54f2 <__aeabi_ddiv+0x292>
    54f0:	e137      	b.n	5762 <__aeabi_ddiv+0x502>
    54f2:	2302      	movs	r3, #2
    54f4:	425b      	negs	r3, r3
    54f6:	469c      	mov	ip, r3
    54f8:	19d2      	adds	r2, r2, r7
    54fa:	44e0      	add	r8, ip
    54fc:	465b      	mov	r3, fp
    54fe:	1ad2      	subs	r2, r2, r3
    5500:	4643      	mov	r3, r8
    5502:	0436      	lsls	r6, r6, #16
    5504:	4333      	orrs	r3, r6
    5506:	469b      	mov	fp, r3
    5508:	9903      	ldr	r1, [sp, #12]
    550a:	0c18      	lsrs	r0, r3, #16
    550c:	0c0b      	lsrs	r3, r1, #16
    550e:	001d      	movs	r5, r3
    5510:	9305      	str	r3, [sp, #20]
    5512:	0409      	lsls	r1, r1, #16
    5514:	465b      	mov	r3, fp
    5516:	0c09      	lsrs	r1, r1, #16
    5518:	000c      	movs	r4, r1
    551a:	041b      	lsls	r3, r3, #16
    551c:	0c1b      	lsrs	r3, r3, #16
    551e:	4344      	muls	r4, r0
    5520:	9104      	str	r1, [sp, #16]
    5522:	4359      	muls	r1, r3
    5524:	436b      	muls	r3, r5
    5526:	4368      	muls	r0, r5
    5528:	191b      	adds	r3, r3, r4
    552a:	0c0d      	lsrs	r5, r1, #16
    552c:	18eb      	adds	r3, r5, r3
    552e:	429c      	cmp	r4, r3
    5530:	d903      	bls.n	553a <__aeabi_ddiv+0x2da>
    5532:	2480      	movs	r4, #128	; 0x80
    5534:	0264      	lsls	r4, r4, #9
    5536:	46a4      	mov	ip, r4
    5538:	4460      	add	r0, ip
    553a:	0c1c      	lsrs	r4, r3, #16
    553c:	0409      	lsls	r1, r1, #16
    553e:	041b      	lsls	r3, r3, #16
    5540:	0c09      	lsrs	r1, r1, #16
    5542:	1820      	adds	r0, r4, r0
    5544:	185d      	adds	r5, r3, r1
    5546:	4282      	cmp	r2, r0
    5548:	d200      	bcs.n	554c <__aeabi_ddiv+0x2ec>
    554a:	e0de      	b.n	570a <__aeabi_ddiv+0x4aa>
    554c:	d100      	bne.n	5550 <__aeabi_ddiv+0x2f0>
    554e:	e0d7      	b.n	5700 <__aeabi_ddiv+0x4a0>
    5550:	1a16      	subs	r6, r2, r0
    5552:	9b02      	ldr	r3, [sp, #8]
    5554:	469c      	mov	ip, r3
    5556:	1b5d      	subs	r5, r3, r5
    5558:	45ac      	cmp	ip, r5
    555a:	419b      	sbcs	r3, r3
    555c:	425b      	negs	r3, r3
    555e:	1af6      	subs	r6, r6, r3
    5560:	42b7      	cmp	r7, r6
    5562:	d100      	bne.n	5566 <__aeabi_ddiv+0x306>
    5564:	e106      	b.n	5774 <__aeabi_ddiv+0x514>
    5566:	4649      	mov	r1, r9
    5568:	0030      	movs	r0, r6
    556a:	f7fe fd95 	bl	4098 <__aeabi_uidiv>
    556e:	9b00      	ldr	r3, [sp, #0]
    5570:	0004      	movs	r4, r0
    5572:	4343      	muls	r3, r0
    5574:	4649      	mov	r1, r9
    5576:	0030      	movs	r0, r6
    5578:	4698      	mov	r8, r3
    557a:	f7fe fe13 	bl	41a4 <__aeabi_uidivmod>
    557e:	0c2e      	lsrs	r6, r5, #16
    5580:	0409      	lsls	r1, r1, #16
    5582:	430e      	orrs	r6, r1
    5584:	45b0      	cmp	r8, r6
    5586:	d909      	bls.n	559c <__aeabi_ddiv+0x33c>
    5588:	19f6      	adds	r6, r6, r7
    558a:	1e63      	subs	r3, r4, #1
    558c:	42b7      	cmp	r7, r6
    558e:	d900      	bls.n	5592 <__aeabi_ddiv+0x332>
    5590:	e0f3      	b.n	577a <__aeabi_ddiv+0x51a>
    5592:	45b0      	cmp	r8, r6
    5594:	d800      	bhi.n	5598 <__aeabi_ddiv+0x338>
    5596:	e0f0      	b.n	577a <__aeabi_ddiv+0x51a>
    5598:	3c02      	subs	r4, #2
    559a:	19f6      	adds	r6, r6, r7
    559c:	4643      	mov	r3, r8
    559e:	1af3      	subs	r3, r6, r3
    55a0:	4649      	mov	r1, r9
    55a2:	0018      	movs	r0, r3
    55a4:	9302      	str	r3, [sp, #8]
    55a6:	f7fe fd77 	bl	4098 <__aeabi_uidiv>
    55aa:	9b00      	ldr	r3, [sp, #0]
    55ac:	0006      	movs	r6, r0
    55ae:	4343      	muls	r3, r0
    55b0:	4649      	mov	r1, r9
    55b2:	9802      	ldr	r0, [sp, #8]
    55b4:	4698      	mov	r8, r3
    55b6:	f7fe fdf5 	bl	41a4 <__aeabi_uidivmod>
    55ba:	042d      	lsls	r5, r5, #16
    55bc:	0409      	lsls	r1, r1, #16
    55be:	0c2d      	lsrs	r5, r5, #16
    55c0:	430d      	orrs	r5, r1
    55c2:	45a8      	cmp	r8, r5
    55c4:	d909      	bls.n	55da <__aeabi_ddiv+0x37a>
    55c6:	19ed      	adds	r5, r5, r7
    55c8:	1e73      	subs	r3, r6, #1
    55ca:	42af      	cmp	r7, r5
    55cc:	d900      	bls.n	55d0 <__aeabi_ddiv+0x370>
    55ce:	e0d6      	b.n	577e <__aeabi_ddiv+0x51e>
    55d0:	45a8      	cmp	r8, r5
    55d2:	d800      	bhi.n	55d6 <__aeabi_ddiv+0x376>
    55d4:	e0d3      	b.n	577e <__aeabi_ddiv+0x51e>
    55d6:	3e02      	subs	r6, #2
    55d8:	19ed      	adds	r5, r5, r7
    55da:	0424      	lsls	r4, r4, #16
    55dc:	0021      	movs	r1, r4
    55de:	4643      	mov	r3, r8
    55e0:	4331      	orrs	r1, r6
    55e2:	9e04      	ldr	r6, [sp, #16]
    55e4:	9a05      	ldr	r2, [sp, #20]
    55e6:	0030      	movs	r0, r6
    55e8:	1aed      	subs	r5, r5, r3
    55ea:	040b      	lsls	r3, r1, #16
    55ec:	0c0c      	lsrs	r4, r1, #16
    55ee:	0c1b      	lsrs	r3, r3, #16
    55f0:	4358      	muls	r0, r3
    55f2:	4366      	muls	r6, r4
    55f4:	4353      	muls	r3, r2
    55f6:	4354      	muls	r4, r2
    55f8:	199a      	adds	r2, r3, r6
    55fa:	0c03      	lsrs	r3, r0, #16
    55fc:	189b      	adds	r3, r3, r2
    55fe:	429e      	cmp	r6, r3
    5600:	d903      	bls.n	560a <__aeabi_ddiv+0x3aa>
    5602:	2280      	movs	r2, #128	; 0x80
    5604:	0252      	lsls	r2, r2, #9
    5606:	4694      	mov	ip, r2
    5608:	4464      	add	r4, ip
    560a:	0c1a      	lsrs	r2, r3, #16
    560c:	0400      	lsls	r0, r0, #16
    560e:	041b      	lsls	r3, r3, #16
    5610:	0c00      	lsrs	r0, r0, #16
    5612:	1914      	adds	r4, r2, r4
    5614:	181b      	adds	r3, r3, r0
    5616:	42a5      	cmp	r5, r4
    5618:	d350      	bcc.n	56bc <__aeabi_ddiv+0x45c>
    561a:	d04d      	beq.n	56b8 <__aeabi_ddiv+0x458>
    561c:	2301      	movs	r3, #1
    561e:	4319      	orrs	r1, r3
    5620:	4a96      	ldr	r2, [pc, #600]	; (587c <__aeabi_ddiv+0x61c>)
    5622:	9b01      	ldr	r3, [sp, #4]
    5624:	4694      	mov	ip, r2
    5626:	4463      	add	r3, ip
    5628:	2b00      	cmp	r3, #0
    562a:	dc00      	bgt.n	562e <__aeabi_ddiv+0x3ce>
    562c:	e6f3      	b.n	5416 <__aeabi_ddiv+0x1b6>
    562e:	074a      	lsls	r2, r1, #29
    5630:	d009      	beq.n	5646 <__aeabi_ddiv+0x3e6>
    5632:	220f      	movs	r2, #15
    5634:	400a      	ands	r2, r1
    5636:	2a04      	cmp	r2, #4
    5638:	d005      	beq.n	5646 <__aeabi_ddiv+0x3e6>
    563a:	1d0a      	adds	r2, r1, #4
    563c:	428a      	cmp	r2, r1
    563e:	4189      	sbcs	r1, r1
    5640:	4249      	negs	r1, r1
    5642:	448b      	add	fp, r1
    5644:	0011      	movs	r1, r2
    5646:	465a      	mov	r2, fp
    5648:	01d2      	lsls	r2, r2, #7
    564a:	d508      	bpl.n	565e <__aeabi_ddiv+0x3fe>
    564c:	465a      	mov	r2, fp
    564e:	4b8c      	ldr	r3, [pc, #560]	; (5880 <__aeabi_ddiv+0x620>)
    5650:	401a      	ands	r2, r3
    5652:	4693      	mov	fp, r2
    5654:	2280      	movs	r2, #128	; 0x80
    5656:	00d2      	lsls	r2, r2, #3
    5658:	4694      	mov	ip, r2
    565a:	9b01      	ldr	r3, [sp, #4]
    565c:	4463      	add	r3, ip
    565e:	4a89      	ldr	r2, [pc, #548]	; (5884 <__aeabi_ddiv+0x624>)
    5660:	4293      	cmp	r3, r2
    5662:	dd00      	ble.n	5666 <__aeabi_ddiv+0x406>
    5664:	e65b      	b.n	531e <__aeabi_ddiv+0xbe>
    5666:	465a      	mov	r2, fp
    5668:	08c9      	lsrs	r1, r1, #3
    566a:	0750      	lsls	r0, r2, #29
    566c:	4308      	orrs	r0, r1
    566e:	0256      	lsls	r6, r2, #9
    5670:	4651      	mov	r1, sl
    5672:	2201      	movs	r2, #1
    5674:	055b      	lsls	r3, r3, #21
    5676:	4681      	mov	r9, r0
    5678:	0b36      	lsrs	r6, r6, #12
    567a:	0d5b      	lsrs	r3, r3, #21
    567c:	400a      	ands	r2, r1
    567e:	e655      	b.n	532c <__aeabi_ddiv+0xcc>
    5680:	2380      	movs	r3, #128	; 0x80
    5682:	031b      	lsls	r3, r3, #12
    5684:	421e      	tst	r6, r3
    5686:	d011      	beq.n	56ac <__aeabi_ddiv+0x44c>
    5688:	465a      	mov	r2, fp
    568a:	421a      	tst	r2, r3
    568c:	d10e      	bne.n	56ac <__aeabi_ddiv+0x44c>
    568e:	465e      	mov	r6, fp
    5690:	431e      	orrs	r6, r3
    5692:	0336      	lsls	r6, r6, #12
    5694:	0b36      	lsrs	r6, r6, #12
    5696:	002a      	movs	r2, r5
    5698:	4689      	mov	r9, r1
    569a:	4b7b      	ldr	r3, [pc, #492]	; (5888 <__aeabi_ddiv+0x628>)
    569c:	e646      	b.n	532c <__aeabi_ddiv+0xcc>
    569e:	2b03      	cmp	r3, #3
    56a0:	d100      	bne.n	56a4 <__aeabi_ddiv+0x444>
    56a2:	e0e1      	b.n	5868 <__aeabi_ddiv+0x608>
    56a4:	2b01      	cmp	r3, #1
    56a6:	d1bb      	bne.n	5620 <__aeabi_ddiv+0x3c0>
    56a8:	401a      	ands	r2, r3
    56aa:	e6bb      	b.n	5424 <__aeabi_ddiv+0x1c4>
    56ac:	431e      	orrs	r6, r3
    56ae:	0336      	lsls	r6, r6, #12
    56b0:	0b36      	lsrs	r6, r6, #12
    56b2:	4642      	mov	r2, r8
    56b4:	4b74      	ldr	r3, [pc, #464]	; (5888 <__aeabi_ddiv+0x628>)
    56b6:	e639      	b.n	532c <__aeabi_ddiv+0xcc>
    56b8:	2b00      	cmp	r3, #0
    56ba:	d0b1      	beq.n	5620 <__aeabi_ddiv+0x3c0>
    56bc:	197d      	adds	r5, r7, r5
    56be:	1e4a      	subs	r2, r1, #1
    56c0:	42af      	cmp	r7, r5
    56c2:	d952      	bls.n	576a <__aeabi_ddiv+0x50a>
    56c4:	0011      	movs	r1, r2
    56c6:	42a5      	cmp	r5, r4
    56c8:	d1a8      	bne.n	561c <__aeabi_ddiv+0x3bc>
    56ca:	9a03      	ldr	r2, [sp, #12]
    56cc:	429a      	cmp	r2, r3
    56ce:	d1a5      	bne.n	561c <__aeabi_ddiv+0x3bc>
    56d0:	e7a6      	b.n	5620 <__aeabi_ddiv+0x3c0>
    56d2:	0003      	movs	r3, r0
    56d4:	003e      	movs	r6, r7
    56d6:	3b28      	subs	r3, #40	; 0x28
    56d8:	409e      	lsls	r6, r3
    56da:	2300      	movs	r3, #0
    56dc:	4699      	mov	r9, r3
    56de:	e654      	b.n	538a <__aeabi_ddiv+0x12a>
    56e0:	f001 f928 	bl	6934 <__clzsi2>
    56e4:	3020      	adds	r0, #32
    56e6:	e641      	b.n	536c <__aeabi_ddiv+0x10c>
    56e8:	0003      	movs	r3, r0
    56ea:	4652      	mov	r2, sl
    56ec:	3b28      	subs	r3, #40	; 0x28
    56ee:	409a      	lsls	r2, r3
    56f0:	2100      	movs	r1, #0
    56f2:	4693      	mov	fp, r2
    56f4:	e677      	b.n	53e6 <__aeabi_ddiv+0x186>
    56f6:	4650      	mov	r0, sl
    56f8:	f001 f91c 	bl	6934 <__clzsi2>
    56fc:	3020      	adds	r0, #32
    56fe:	e65e      	b.n	53be <__aeabi_ddiv+0x15e>
    5700:	9b02      	ldr	r3, [sp, #8]
    5702:	2600      	movs	r6, #0
    5704:	42ab      	cmp	r3, r5
    5706:	d300      	bcc.n	570a <__aeabi_ddiv+0x4aa>
    5708:	e723      	b.n	5552 <__aeabi_ddiv+0x2f2>
    570a:	9e03      	ldr	r6, [sp, #12]
    570c:	9902      	ldr	r1, [sp, #8]
    570e:	46b4      	mov	ip, r6
    5710:	4461      	add	r1, ip
    5712:	4688      	mov	r8, r1
    5714:	45b0      	cmp	r8, r6
    5716:	41b6      	sbcs	r6, r6
    5718:	465b      	mov	r3, fp
    571a:	4276      	negs	r6, r6
    571c:	19f6      	adds	r6, r6, r7
    571e:	18b2      	adds	r2, r6, r2
    5720:	3b01      	subs	r3, #1
    5722:	9102      	str	r1, [sp, #8]
    5724:	4297      	cmp	r7, r2
    5726:	d213      	bcs.n	5750 <__aeabi_ddiv+0x4f0>
    5728:	4290      	cmp	r0, r2
    572a:	d84f      	bhi.n	57cc <__aeabi_ddiv+0x56c>
    572c:	d100      	bne.n	5730 <__aeabi_ddiv+0x4d0>
    572e:	e08e      	b.n	584e <__aeabi_ddiv+0x5ee>
    5730:	1a16      	subs	r6, r2, r0
    5732:	469b      	mov	fp, r3
    5734:	e70d      	b.n	5552 <__aeabi_ddiv+0x2f2>
    5736:	4589      	cmp	r9, r1
    5738:	d200      	bcs.n	573c <__aeabi_ddiv+0x4dc>
    573a:	e68e      	b.n	545a <__aeabi_ddiv+0x1fa>
    573c:	0874      	lsrs	r4, r6, #1
    573e:	464b      	mov	r3, r9
    5740:	07f6      	lsls	r6, r6, #31
    5742:	0035      	movs	r5, r6
    5744:	085b      	lsrs	r3, r3, #1
    5746:	431d      	orrs	r5, r3
    5748:	464b      	mov	r3, r9
    574a:	07db      	lsls	r3, r3, #31
    574c:	9302      	str	r3, [sp, #8]
    574e:	e68b      	b.n	5468 <__aeabi_ddiv+0x208>
    5750:	4297      	cmp	r7, r2
    5752:	d1ed      	bne.n	5730 <__aeabi_ddiv+0x4d0>
    5754:	9903      	ldr	r1, [sp, #12]
    5756:	9c02      	ldr	r4, [sp, #8]
    5758:	42a1      	cmp	r1, r4
    575a:	d9e5      	bls.n	5728 <__aeabi_ddiv+0x4c8>
    575c:	1a3e      	subs	r6, r7, r0
    575e:	469b      	mov	fp, r3
    5760:	e6f7      	b.n	5552 <__aeabi_ddiv+0x2f2>
    5762:	4698      	mov	r8, r3
    5764:	e6ca      	b.n	54fc <__aeabi_ddiv+0x29c>
    5766:	001e      	movs	r6, r3
    5768:	e6a5      	b.n	54b6 <__aeabi_ddiv+0x256>
    576a:	42ac      	cmp	r4, r5
    576c:	d83e      	bhi.n	57ec <__aeabi_ddiv+0x58c>
    576e:	d074      	beq.n	585a <__aeabi_ddiv+0x5fa>
    5770:	0011      	movs	r1, r2
    5772:	e753      	b.n	561c <__aeabi_ddiv+0x3bc>
    5774:	2101      	movs	r1, #1
    5776:	4249      	negs	r1, r1
    5778:	e752      	b.n	5620 <__aeabi_ddiv+0x3c0>
    577a:	001c      	movs	r4, r3
    577c:	e70e      	b.n	559c <__aeabi_ddiv+0x33c>
    577e:	001e      	movs	r6, r3
    5780:	e72b      	b.n	55da <__aeabi_ddiv+0x37a>
    5782:	2d1f      	cmp	r5, #31
    5784:	dc3c      	bgt.n	5800 <__aeabi_ddiv+0x5a0>
    5786:	2320      	movs	r3, #32
    5788:	000a      	movs	r2, r1
    578a:	4658      	mov	r0, fp
    578c:	1b5b      	subs	r3, r3, r5
    578e:	4098      	lsls	r0, r3
    5790:	40ea      	lsrs	r2, r5
    5792:	4099      	lsls	r1, r3
    5794:	4302      	orrs	r2, r0
    5796:	1e48      	subs	r0, r1, #1
    5798:	4181      	sbcs	r1, r0
    579a:	465e      	mov	r6, fp
    579c:	4311      	orrs	r1, r2
    579e:	40ee      	lsrs	r6, r5
    57a0:	074b      	lsls	r3, r1, #29
    57a2:	d009      	beq.n	57b8 <__aeabi_ddiv+0x558>
    57a4:	230f      	movs	r3, #15
    57a6:	400b      	ands	r3, r1
    57a8:	2b04      	cmp	r3, #4
    57aa:	d005      	beq.n	57b8 <__aeabi_ddiv+0x558>
    57ac:	000b      	movs	r3, r1
    57ae:	1d19      	adds	r1, r3, #4
    57b0:	4299      	cmp	r1, r3
    57b2:	419b      	sbcs	r3, r3
    57b4:	425b      	negs	r3, r3
    57b6:	18f6      	adds	r6, r6, r3
    57b8:	0233      	lsls	r3, r6, #8
    57ba:	d53c      	bpl.n	5836 <__aeabi_ddiv+0x5d6>
    57bc:	4653      	mov	r3, sl
    57be:	2201      	movs	r2, #1
    57c0:	2100      	movs	r1, #0
    57c2:	401a      	ands	r2, r3
    57c4:	2600      	movs	r6, #0
    57c6:	2301      	movs	r3, #1
    57c8:	4689      	mov	r9, r1
    57ca:	e5af      	b.n	532c <__aeabi_ddiv+0xcc>
    57cc:	2302      	movs	r3, #2
    57ce:	425b      	negs	r3, r3
    57d0:	469c      	mov	ip, r3
    57d2:	9c03      	ldr	r4, [sp, #12]
    57d4:	44e3      	add	fp, ip
    57d6:	46a4      	mov	ip, r4
    57d8:	9b02      	ldr	r3, [sp, #8]
    57da:	4463      	add	r3, ip
    57dc:	4698      	mov	r8, r3
    57de:	45a0      	cmp	r8, r4
    57e0:	41b6      	sbcs	r6, r6
    57e2:	4276      	negs	r6, r6
    57e4:	19f6      	adds	r6, r6, r7
    57e6:	9302      	str	r3, [sp, #8]
    57e8:	18b2      	adds	r2, r6, r2
    57ea:	e6b1      	b.n	5550 <__aeabi_ddiv+0x2f0>
    57ec:	9803      	ldr	r0, [sp, #12]
    57ee:	1e8a      	subs	r2, r1, #2
    57f0:	0041      	lsls	r1, r0, #1
    57f2:	4281      	cmp	r1, r0
    57f4:	41b6      	sbcs	r6, r6
    57f6:	4276      	negs	r6, r6
    57f8:	19f6      	adds	r6, r6, r7
    57fa:	19ad      	adds	r5, r5, r6
    57fc:	9103      	str	r1, [sp, #12]
    57fe:	e761      	b.n	56c4 <__aeabi_ddiv+0x464>
    5800:	221f      	movs	r2, #31
    5802:	4252      	negs	r2, r2
    5804:	1ad3      	subs	r3, r2, r3
    5806:	465a      	mov	r2, fp
    5808:	40da      	lsrs	r2, r3
    580a:	0013      	movs	r3, r2
    580c:	2d20      	cmp	r5, #32
    580e:	d029      	beq.n	5864 <__aeabi_ddiv+0x604>
    5810:	2240      	movs	r2, #64	; 0x40
    5812:	4658      	mov	r0, fp
    5814:	1b55      	subs	r5, r2, r5
    5816:	40a8      	lsls	r0, r5
    5818:	4301      	orrs	r1, r0
    581a:	1e48      	subs	r0, r1, #1
    581c:	4181      	sbcs	r1, r0
    581e:	2007      	movs	r0, #7
    5820:	430b      	orrs	r3, r1
    5822:	4018      	ands	r0, r3
    5824:	2600      	movs	r6, #0
    5826:	2800      	cmp	r0, #0
    5828:	d009      	beq.n	583e <__aeabi_ddiv+0x5de>
    582a:	220f      	movs	r2, #15
    582c:	2600      	movs	r6, #0
    582e:	401a      	ands	r2, r3
    5830:	0019      	movs	r1, r3
    5832:	2a04      	cmp	r2, #4
    5834:	d1bb      	bne.n	57ae <__aeabi_ddiv+0x54e>
    5836:	000b      	movs	r3, r1
    5838:	0770      	lsls	r0, r6, #29
    583a:	0276      	lsls	r6, r6, #9
    583c:	0b36      	lsrs	r6, r6, #12
    583e:	08db      	lsrs	r3, r3, #3
    5840:	4303      	orrs	r3, r0
    5842:	4699      	mov	r9, r3
    5844:	2201      	movs	r2, #1
    5846:	4653      	mov	r3, sl
    5848:	401a      	ands	r2, r3
    584a:	2300      	movs	r3, #0
    584c:	e56e      	b.n	532c <__aeabi_ddiv+0xcc>
    584e:	9902      	ldr	r1, [sp, #8]
    5850:	428d      	cmp	r5, r1
    5852:	d8bb      	bhi.n	57cc <__aeabi_ddiv+0x56c>
    5854:	469b      	mov	fp, r3
    5856:	2600      	movs	r6, #0
    5858:	e67b      	b.n	5552 <__aeabi_ddiv+0x2f2>
    585a:	9803      	ldr	r0, [sp, #12]
    585c:	4298      	cmp	r0, r3
    585e:	d3c5      	bcc.n	57ec <__aeabi_ddiv+0x58c>
    5860:	0011      	movs	r1, r2
    5862:	e732      	b.n	56ca <__aeabi_ddiv+0x46a>
    5864:	2000      	movs	r0, #0
    5866:	e7d7      	b.n	5818 <__aeabi_ddiv+0x5b8>
    5868:	2680      	movs	r6, #128	; 0x80
    586a:	465b      	mov	r3, fp
    586c:	0336      	lsls	r6, r6, #12
    586e:	431e      	orrs	r6, r3
    5870:	0336      	lsls	r6, r6, #12
    5872:	0b36      	lsrs	r6, r6, #12
    5874:	9a00      	ldr	r2, [sp, #0]
    5876:	4689      	mov	r9, r1
    5878:	4b03      	ldr	r3, [pc, #12]	; (5888 <__aeabi_ddiv+0x628>)
    587a:	e557      	b.n	532c <__aeabi_ddiv+0xcc>
    587c:	000003ff 	.word	0x000003ff
    5880:	feffffff 	.word	0xfeffffff
    5884:	000007fe 	.word	0x000007fe
    5888:	000007ff 	.word	0x000007ff

0000588c <__eqdf2>:
    588c:	b5f0      	push	{r4, r5, r6, r7, lr}
    588e:	465f      	mov	r7, fp
    5890:	4656      	mov	r6, sl
    5892:	464d      	mov	r5, r9
    5894:	4644      	mov	r4, r8
    5896:	b4f0      	push	{r4, r5, r6, r7}
    5898:	031f      	lsls	r7, r3, #12
    589a:	005c      	lsls	r4, r3, #1
    589c:	0fdb      	lsrs	r3, r3, #31
    589e:	469a      	mov	sl, r3
    58a0:	4b19      	ldr	r3, [pc, #100]	; (5908 <__eqdf2+0x7c>)
    58a2:	030e      	lsls	r6, r1, #12
    58a4:	004d      	lsls	r5, r1, #1
    58a6:	0fc9      	lsrs	r1, r1, #31
    58a8:	4680      	mov	r8, r0
    58aa:	0b36      	lsrs	r6, r6, #12
    58ac:	0d6d      	lsrs	r5, r5, #21
    58ae:	468b      	mov	fp, r1
    58b0:	4691      	mov	r9, r2
    58b2:	0b3f      	lsrs	r7, r7, #12
    58b4:	0d64      	lsrs	r4, r4, #21
    58b6:	429d      	cmp	r5, r3
    58b8:	d019      	beq.n	58ee <__eqdf2+0x62>
    58ba:	4b13      	ldr	r3, [pc, #76]	; (5908 <__eqdf2+0x7c>)
    58bc:	429c      	cmp	r4, r3
    58be:	d01b      	beq.n	58f8 <__eqdf2+0x6c>
    58c0:	2301      	movs	r3, #1
    58c2:	42a5      	cmp	r5, r4
    58c4:	d006      	beq.n	58d4 <__eqdf2+0x48>
    58c6:	0018      	movs	r0, r3
    58c8:	bc3c      	pop	{r2, r3, r4, r5}
    58ca:	4690      	mov	r8, r2
    58cc:	4699      	mov	r9, r3
    58ce:	46a2      	mov	sl, r4
    58d0:	46ab      	mov	fp, r5
    58d2:	bdf0      	pop	{r4, r5, r6, r7, pc}
    58d4:	42be      	cmp	r6, r7
    58d6:	d1f6      	bne.n	58c6 <__eqdf2+0x3a>
    58d8:	45c8      	cmp	r8, r9
    58da:	d1f4      	bne.n	58c6 <__eqdf2+0x3a>
    58dc:	45d3      	cmp	fp, sl
    58de:	d010      	beq.n	5902 <__eqdf2+0x76>
    58e0:	2d00      	cmp	r5, #0
    58e2:	d1f0      	bne.n	58c6 <__eqdf2+0x3a>
    58e4:	4330      	orrs	r0, r6
    58e6:	0003      	movs	r3, r0
    58e8:	1e5a      	subs	r2, r3, #1
    58ea:	4193      	sbcs	r3, r2
    58ec:	e7eb      	b.n	58c6 <__eqdf2+0x3a>
    58ee:	0031      	movs	r1, r6
    58f0:	2301      	movs	r3, #1
    58f2:	4301      	orrs	r1, r0
    58f4:	d1e7      	bne.n	58c6 <__eqdf2+0x3a>
    58f6:	e7e0      	b.n	58ba <__eqdf2+0x2e>
    58f8:	433a      	orrs	r2, r7
    58fa:	2301      	movs	r3, #1
    58fc:	2a00      	cmp	r2, #0
    58fe:	d1e2      	bne.n	58c6 <__eqdf2+0x3a>
    5900:	e7de      	b.n	58c0 <__eqdf2+0x34>
    5902:	2300      	movs	r3, #0
    5904:	e7df      	b.n	58c6 <__eqdf2+0x3a>
    5906:	46c0      	nop			; (mov r8, r8)
    5908:	000007ff 	.word	0x000007ff

0000590c <__gedf2>:
    590c:	b5f0      	push	{r4, r5, r6, r7, lr}
    590e:	465f      	mov	r7, fp
    5910:	4644      	mov	r4, r8
    5912:	4656      	mov	r6, sl
    5914:	464d      	mov	r5, r9
    5916:	b4f0      	push	{r4, r5, r6, r7}
    5918:	031f      	lsls	r7, r3, #12
    591a:	0b3c      	lsrs	r4, r7, #12
    591c:	4f2c      	ldr	r7, [pc, #176]	; (59d0 <__gedf2+0xc4>)
    591e:	030e      	lsls	r6, r1, #12
    5920:	004d      	lsls	r5, r1, #1
    5922:	46a3      	mov	fp, r4
    5924:	005c      	lsls	r4, r3, #1
    5926:	4684      	mov	ip, r0
    5928:	0b36      	lsrs	r6, r6, #12
    592a:	0d6d      	lsrs	r5, r5, #21
    592c:	0fc9      	lsrs	r1, r1, #31
    592e:	4690      	mov	r8, r2
    5930:	0d64      	lsrs	r4, r4, #21
    5932:	0fdb      	lsrs	r3, r3, #31
    5934:	42bd      	cmp	r5, r7
    5936:	d02b      	beq.n	5990 <__gedf2+0x84>
    5938:	4f25      	ldr	r7, [pc, #148]	; (59d0 <__gedf2+0xc4>)
    593a:	42bc      	cmp	r4, r7
    593c:	d02e      	beq.n	599c <__gedf2+0x90>
    593e:	2d00      	cmp	r5, #0
    5940:	d10e      	bne.n	5960 <__gedf2+0x54>
    5942:	4330      	orrs	r0, r6
    5944:	0007      	movs	r7, r0
    5946:	4681      	mov	r9, r0
    5948:	4278      	negs	r0, r7
    594a:	4178      	adcs	r0, r7
    594c:	2c00      	cmp	r4, #0
    594e:	d117      	bne.n	5980 <__gedf2+0x74>
    5950:	465f      	mov	r7, fp
    5952:	433a      	orrs	r2, r7
    5954:	d114      	bne.n	5980 <__gedf2+0x74>
    5956:	464b      	mov	r3, r9
    5958:	2000      	movs	r0, #0
    595a:	2b00      	cmp	r3, #0
    595c:	d00a      	beq.n	5974 <__gedf2+0x68>
    595e:	e006      	b.n	596e <__gedf2+0x62>
    5960:	2c00      	cmp	r4, #0
    5962:	d102      	bne.n	596a <__gedf2+0x5e>
    5964:	4658      	mov	r0, fp
    5966:	4302      	orrs	r2, r0
    5968:	d001      	beq.n	596e <__gedf2+0x62>
    596a:	4299      	cmp	r1, r3
    596c:	d01a      	beq.n	59a4 <__gedf2+0x98>
    596e:	2301      	movs	r3, #1
    5970:	4248      	negs	r0, r1
    5972:	4318      	orrs	r0, r3
    5974:	bc3c      	pop	{r2, r3, r4, r5}
    5976:	4690      	mov	r8, r2
    5978:	4699      	mov	r9, r3
    597a:	46a2      	mov	sl, r4
    597c:	46ab      	mov	fp, r5
    597e:	bdf0      	pop	{r4, r5, r6, r7, pc}
    5980:	2800      	cmp	r0, #0
    5982:	d0f2      	beq.n	596a <__gedf2+0x5e>
    5984:	4258      	negs	r0, r3
    5986:	4158      	adcs	r0, r3
    5988:	2201      	movs	r2, #1
    598a:	4240      	negs	r0, r0
    598c:	4310      	orrs	r0, r2
    598e:	e7f1      	b.n	5974 <__gedf2+0x68>
    5990:	0037      	movs	r7, r6
    5992:	4307      	orrs	r7, r0
    5994:	d0d0      	beq.n	5938 <__gedf2+0x2c>
    5996:	2002      	movs	r0, #2
    5998:	4240      	negs	r0, r0
    599a:	e7eb      	b.n	5974 <__gedf2+0x68>
    599c:	465f      	mov	r7, fp
    599e:	4317      	orrs	r7, r2
    59a0:	d0cd      	beq.n	593e <__gedf2+0x32>
    59a2:	e7f8      	b.n	5996 <__gedf2+0x8a>
    59a4:	42a5      	cmp	r5, r4
    59a6:	dce2      	bgt.n	596e <__gedf2+0x62>
    59a8:	db05      	blt.n	59b6 <__gedf2+0xaa>
    59aa:	455e      	cmp	r6, fp
    59ac:	d8df      	bhi.n	596e <__gedf2+0x62>
    59ae:	d008      	beq.n	59c2 <__gedf2+0xb6>
    59b0:	2000      	movs	r0, #0
    59b2:	455e      	cmp	r6, fp
    59b4:	d2de      	bcs.n	5974 <__gedf2+0x68>
    59b6:	4248      	negs	r0, r1
    59b8:	4148      	adcs	r0, r1
    59ba:	2301      	movs	r3, #1
    59bc:	4240      	negs	r0, r0
    59be:	4318      	orrs	r0, r3
    59c0:	e7d8      	b.n	5974 <__gedf2+0x68>
    59c2:	45c4      	cmp	ip, r8
    59c4:	d8d3      	bhi.n	596e <__gedf2+0x62>
    59c6:	2000      	movs	r0, #0
    59c8:	45c4      	cmp	ip, r8
    59ca:	d3f4      	bcc.n	59b6 <__gedf2+0xaa>
    59cc:	e7d2      	b.n	5974 <__gedf2+0x68>
    59ce:	46c0      	nop			; (mov r8, r8)
    59d0:	000007ff 	.word	0x000007ff

000059d4 <__ledf2>:
    59d4:	b5f0      	push	{r4, r5, r6, r7, lr}
    59d6:	465f      	mov	r7, fp
    59d8:	464d      	mov	r5, r9
    59da:	4644      	mov	r4, r8
    59dc:	4656      	mov	r6, sl
    59de:	b4f0      	push	{r4, r5, r6, r7}
    59e0:	031c      	lsls	r4, r3, #12
    59e2:	0b24      	lsrs	r4, r4, #12
    59e4:	46a4      	mov	ip, r4
    59e6:	4c2f      	ldr	r4, [pc, #188]	; (5aa4 <__ledf2+0xd0>)
    59e8:	030f      	lsls	r7, r1, #12
    59ea:	004d      	lsls	r5, r1, #1
    59ec:	005e      	lsls	r6, r3, #1
    59ee:	0fc9      	lsrs	r1, r1, #31
    59f0:	4680      	mov	r8, r0
    59f2:	0b3f      	lsrs	r7, r7, #12
    59f4:	0d6d      	lsrs	r5, r5, #21
    59f6:	468b      	mov	fp, r1
    59f8:	4691      	mov	r9, r2
    59fa:	0d76      	lsrs	r6, r6, #21
    59fc:	0fdb      	lsrs	r3, r3, #31
    59fe:	42a5      	cmp	r5, r4
    5a00:	d020      	beq.n	5a44 <__ledf2+0x70>
    5a02:	4c28      	ldr	r4, [pc, #160]	; (5aa4 <__ledf2+0xd0>)
    5a04:	42a6      	cmp	r6, r4
    5a06:	d022      	beq.n	5a4e <__ledf2+0x7a>
    5a08:	2d00      	cmp	r5, #0
    5a0a:	d112      	bne.n	5a32 <__ledf2+0x5e>
    5a0c:	4338      	orrs	r0, r7
    5a0e:	4244      	negs	r4, r0
    5a10:	4144      	adcs	r4, r0
    5a12:	2e00      	cmp	r6, #0
    5a14:	d020      	beq.n	5a58 <__ledf2+0x84>
    5a16:	2c00      	cmp	r4, #0
    5a18:	d00d      	beq.n	5a36 <__ledf2+0x62>
    5a1a:	425c      	negs	r4, r3
    5a1c:	4163      	adcs	r3, r4
    5a1e:	2401      	movs	r4, #1
    5a20:	425b      	negs	r3, r3
    5a22:	431c      	orrs	r4, r3
    5a24:	0020      	movs	r0, r4
    5a26:	bc3c      	pop	{r2, r3, r4, r5}
    5a28:	4690      	mov	r8, r2
    5a2a:	4699      	mov	r9, r3
    5a2c:	46a2      	mov	sl, r4
    5a2e:	46ab      	mov	fp, r5
    5a30:	bdf0      	pop	{r4, r5, r6, r7, pc}
    5a32:	2e00      	cmp	r6, #0
    5a34:	d017      	beq.n	5a66 <__ledf2+0x92>
    5a36:	455b      	cmp	r3, fp
    5a38:	d019      	beq.n	5a6e <__ledf2+0x9a>
    5a3a:	465b      	mov	r3, fp
    5a3c:	425c      	negs	r4, r3
    5a3e:	2301      	movs	r3, #1
    5a40:	431c      	orrs	r4, r3
    5a42:	e7ef      	b.n	5a24 <__ledf2+0x50>
    5a44:	0039      	movs	r1, r7
    5a46:	2402      	movs	r4, #2
    5a48:	4301      	orrs	r1, r0
    5a4a:	d1eb      	bne.n	5a24 <__ledf2+0x50>
    5a4c:	e7d9      	b.n	5a02 <__ledf2+0x2e>
    5a4e:	4661      	mov	r1, ip
    5a50:	2402      	movs	r4, #2
    5a52:	4311      	orrs	r1, r2
    5a54:	d1e6      	bne.n	5a24 <__ledf2+0x50>
    5a56:	e7d7      	b.n	5a08 <__ledf2+0x34>
    5a58:	4661      	mov	r1, ip
    5a5a:	430a      	orrs	r2, r1
    5a5c:	d1db      	bne.n	5a16 <__ledf2+0x42>
    5a5e:	2400      	movs	r4, #0
    5a60:	2800      	cmp	r0, #0
    5a62:	d0df      	beq.n	5a24 <__ledf2+0x50>
    5a64:	e7e9      	b.n	5a3a <__ledf2+0x66>
    5a66:	4661      	mov	r1, ip
    5a68:	430a      	orrs	r2, r1
    5a6a:	d1e4      	bne.n	5a36 <__ledf2+0x62>
    5a6c:	e7e5      	b.n	5a3a <__ledf2+0x66>
    5a6e:	42b5      	cmp	r5, r6
    5a70:	dd03      	ble.n	5a7a <__ledf2+0xa6>
    5a72:	2201      	movs	r2, #1
    5a74:	425c      	negs	r4, r3
    5a76:	4314      	orrs	r4, r2
    5a78:	e7d4      	b.n	5a24 <__ledf2+0x50>
    5a7a:	42b5      	cmp	r5, r6
    5a7c:	dbcd      	blt.n	5a1a <__ledf2+0x46>
    5a7e:	4567      	cmp	r7, ip
    5a80:	d8db      	bhi.n	5a3a <__ledf2+0x66>
    5a82:	d009      	beq.n	5a98 <__ledf2+0xc4>
    5a84:	2400      	movs	r4, #0
    5a86:	4567      	cmp	r7, ip
    5a88:	d2cc      	bcs.n	5a24 <__ledf2+0x50>
    5a8a:	4659      	mov	r1, fp
    5a8c:	424c      	negs	r4, r1
    5a8e:	4161      	adcs	r1, r4
    5a90:	2401      	movs	r4, #1
    5a92:	4249      	negs	r1, r1
    5a94:	430c      	orrs	r4, r1
    5a96:	e7c5      	b.n	5a24 <__ledf2+0x50>
    5a98:	45c8      	cmp	r8, r9
    5a9a:	d8ce      	bhi.n	5a3a <__ledf2+0x66>
    5a9c:	2400      	movs	r4, #0
    5a9e:	45c8      	cmp	r8, r9
    5aa0:	d3f3      	bcc.n	5a8a <__ledf2+0xb6>
    5aa2:	e7bf      	b.n	5a24 <__ledf2+0x50>
    5aa4:	000007ff 	.word	0x000007ff

00005aa8 <__aeabi_dmul>:
    5aa8:	b5f0      	push	{r4, r5, r6, r7, lr}
    5aaa:	465f      	mov	r7, fp
    5aac:	4656      	mov	r6, sl
    5aae:	464d      	mov	r5, r9
    5ab0:	4644      	mov	r4, r8
    5ab2:	b4f0      	push	{r4, r5, r6, r7}
    5ab4:	030d      	lsls	r5, r1, #12
    5ab6:	4699      	mov	r9, r3
    5ab8:	004e      	lsls	r6, r1, #1
    5aba:	0b2b      	lsrs	r3, r5, #12
    5abc:	b087      	sub	sp, #28
    5abe:	0007      	movs	r7, r0
    5ac0:	4692      	mov	sl, r2
    5ac2:	4680      	mov	r8, r0
    5ac4:	469b      	mov	fp, r3
    5ac6:	0d76      	lsrs	r6, r6, #21
    5ac8:	0fcc      	lsrs	r4, r1, #31
    5aca:	2e00      	cmp	r6, #0
    5acc:	d069      	beq.n	5ba2 <__aeabi_dmul+0xfa>
    5ace:	4b6d      	ldr	r3, [pc, #436]	; (5c84 <__aeabi_dmul+0x1dc>)
    5ad0:	429e      	cmp	r6, r3
    5ad2:	d035      	beq.n	5b40 <__aeabi_dmul+0x98>
    5ad4:	465b      	mov	r3, fp
    5ad6:	2280      	movs	r2, #128	; 0x80
    5ad8:	00dd      	lsls	r5, r3, #3
    5ada:	0412      	lsls	r2, r2, #16
    5adc:	0f43      	lsrs	r3, r0, #29
    5ade:	4313      	orrs	r3, r2
    5ae0:	432b      	orrs	r3, r5
    5ae2:	469b      	mov	fp, r3
    5ae4:	00c3      	lsls	r3, r0, #3
    5ae6:	4698      	mov	r8, r3
    5ae8:	4b67      	ldr	r3, [pc, #412]	; (5c88 <__aeabi_dmul+0x1e0>)
    5aea:	2700      	movs	r7, #0
    5aec:	469c      	mov	ip, r3
    5aee:	2300      	movs	r3, #0
    5af0:	4466      	add	r6, ip
    5af2:	9301      	str	r3, [sp, #4]
    5af4:	464a      	mov	r2, r9
    5af6:	0315      	lsls	r5, r2, #12
    5af8:	0050      	lsls	r0, r2, #1
    5afa:	0fd2      	lsrs	r2, r2, #31
    5afc:	4653      	mov	r3, sl
    5afe:	0b2d      	lsrs	r5, r5, #12
    5b00:	0d40      	lsrs	r0, r0, #21
    5b02:	4691      	mov	r9, r2
    5b04:	d100      	bne.n	5b08 <__aeabi_dmul+0x60>
    5b06:	e076      	b.n	5bf6 <__aeabi_dmul+0x14e>
    5b08:	4a5e      	ldr	r2, [pc, #376]	; (5c84 <__aeabi_dmul+0x1dc>)
    5b0a:	4290      	cmp	r0, r2
    5b0c:	d06c      	beq.n	5be8 <__aeabi_dmul+0x140>
    5b0e:	2280      	movs	r2, #128	; 0x80
    5b10:	0f5b      	lsrs	r3, r3, #29
    5b12:	0412      	lsls	r2, r2, #16
    5b14:	4313      	orrs	r3, r2
    5b16:	4a5c      	ldr	r2, [pc, #368]	; (5c88 <__aeabi_dmul+0x1e0>)
    5b18:	00ed      	lsls	r5, r5, #3
    5b1a:	4694      	mov	ip, r2
    5b1c:	431d      	orrs	r5, r3
    5b1e:	4653      	mov	r3, sl
    5b20:	2200      	movs	r2, #0
    5b22:	00db      	lsls	r3, r3, #3
    5b24:	4460      	add	r0, ip
    5b26:	4649      	mov	r1, r9
    5b28:	1836      	adds	r6, r6, r0
    5b2a:	1c70      	adds	r0, r6, #1
    5b2c:	4061      	eors	r1, r4
    5b2e:	9002      	str	r0, [sp, #8]
    5b30:	4317      	orrs	r7, r2
    5b32:	2f0f      	cmp	r7, #15
    5b34:	d900      	bls.n	5b38 <__aeabi_dmul+0x90>
    5b36:	e0af      	b.n	5c98 <__aeabi_dmul+0x1f0>
    5b38:	4854      	ldr	r0, [pc, #336]	; (5c8c <__aeabi_dmul+0x1e4>)
    5b3a:	00bf      	lsls	r7, r7, #2
    5b3c:	59c7      	ldr	r7, [r0, r7]
    5b3e:	46bf      	mov	pc, r7
    5b40:	465b      	mov	r3, fp
    5b42:	431f      	orrs	r7, r3
    5b44:	d000      	beq.n	5b48 <__aeabi_dmul+0xa0>
    5b46:	e088      	b.n	5c5a <__aeabi_dmul+0x1b2>
    5b48:	2300      	movs	r3, #0
    5b4a:	469b      	mov	fp, r3
    5b4c:	4698      	mov	r8, r3
    5b4e:	3302      	adds	r3, #2
    5b50:	2708      	movs	r7, #8
    5b52:	9301      	str	r3, [sp, #4]
    5b54:	e7ce      	b.n	5af4 <__aeabi_dmul+0x4c>
    5b56:	4649      	mov	r1, r9
    5b58:	2a02      	cmp	r2, #2
    5b5a:	d06a      	beq.n	5c32 <__aeabi_dmul+0x18a>
    5b5c:	2a03      	cmp	r2, #3
    5b5e:	d100      	bne.n	5b62 <__aeabi_dmul+0xba>
    5b60:	e209      	b.n	5f76 <__aeabi_dmul+0x4ce>
    5b62:	2a01      	cmp	r2, #1
    5b64:	d000      	beq.n	5b68 <__aeabi_dmul+0xc0>
    5b66:	e1bb      	b.n	5ee0 <__aeabi_dmul+0x438>
    5b68:	4011      	ands	r1, r2
    5b6a:	2200      	movs	r2, #0
    5b6c:	2300      	movs	r3, #0
    5b6e:	2500      	movs	r5, #0
    5b70:	4690      	mov	r8, r2
    5b72:	b2cc      	uxtb	r4, r1
    5b74:	2100      	movs	r1, #0
    5b76:	032d      	lsls	r5, r5, #12
    5b78:	0d0a      	lsrs	r2, r1, #20
    5b7a:	0512      	lsls	r2, r2, #20
    5b7c:	0b2d      	lsrs	r5, r5, #12
    5b7e:	4315      	orrs	r5, r2
    5b80:	4a43      	ldr	r2, [pc, #268]	; (5c90 <__aeabi_dmul+0x1e8>)
    5b82:	051b      	lsls	r3, r3, #20
    5b84:	4015      	ands	r5, r2
    5b86:	431d      	orrs	r5, r3
    5b88:	006d      	lsls	r5, r5, #1
    5b8a:	07e4      	lsls	r4, r4, #31
    5b8c:	086d      	lsrs	r5, r5, #1
    5b8e:	4325      	orrs	r5, r4
    5b90:	4640      	mov	r0, r8
    5b92:	0029      	movs	r1, r5
    5b94:	b007      	add	sp, #28
    5b96:	bc3c      	pop	{r2, r3, r4, r5}
    5b98:	4690      	mov	r8, r2
    5b9a:	4699      	mov	r9, r3
    5b9c:	46a2      	mov	sl, r4
    5b9e:	46ab      	mov	fp, r5
    5ba0:	bdf0      	pop	{r4, r5, r6, r7, pc}
    5ba2:	4303      	orrs	r3, r0
    5ba4:	d052      	beq.n	5c4c <__aeabi_dmul+0x1a4>
    5ba6:	465b      	mov	r3, fp
    5ba8:	2b00      	cmp	r3, #0
    5baa:	d100      	bne.n	5bae <__aeabi_dmul+0x106>
    5bac:	e18a      	b.n	5ec4 <__aeabi_dmul+0x41c>
    5bae:	4658      	mov	r0, fp
    5bb0:	f000 fec0 	bl	6934 <__clzsi2>
    5bb4:	0003      	movs	r3, r0
    5bb6:	3b0b      	subs	r3, #11
    5bb8:	2b1c      	cmp	r3, #28
    5bba:	dd00      	ble.n	5bbe <__aeabi_dmul+0x116>
    5bbc:	e17b      	b.n	5eb6 <__aeabi_dmul+0x40e>
    5bbe:	221d      	movs	r2, #29
    5bc0:	1ad3      	subs	r3, r2, r3
    5bc2:	003a      	movs	r2, r7
    5bc4:	0001      	movs	r1, r0
    5bc6:	465d      	mov	r5, fp
    5bc8:	40da      	lsrs	r2, r3
    5bca:	3908      	subs	r1, #8
    5bcc:	408d      	lsls	r5, r1
    5bce:	0013      	movs	r3, r2
    5bd0:	408f      	lsls	r7, r1
    5bd2:	432b      	orrs	r3, r5
    5bd4:	469b      	mov	fp, r3
    5bd6:	46b8      	mov	r8, r7
    5bd8:	4b2e      	ldr	r3, [pc, #184]	; (5c94 <__aeabi_dmul+0x1ec>)
    5bda:	2700      	movs	r7, #0
    5bdc:	469c      	mov	ip, r3
    5bde:	2300      	movs	r3, #0
    5be0:	4460      	add	r0, ip
    5be2:	4246      	negs	r6, r0
    5be4:	9301      	str	r3, [sp, #4]
    5be6:	e785      	b.n	5af4 <__aeabi_dmul+0x4c>
    5be8:	4652      	mov	r2, sl
    5bea:	432a      	orrs	r2, r5
    5bec:	d12c      	bne.n	5c48 <__aeabi_dmul+0x1a0>
    5bee:	2500      	movs	r5, #0
    5bf0:	2300      	movs	r3, #0
    5bf2:	2202      	movs	r2, #2
    5bf4:	e797      	b.n	5b26 <__aeabi_dmul+0x7e>
    5bf6:	4652      	mov	r2, sl
    5bf8:	432a      	orrs	r2, r5
    5bfa:	d021      	beq.n	5c40 <__aeabi_dmul+0x198>
    5bfc:	2d00      	cmp	r5, #0
    5bfe:	d100      	bne.n	5c02 <__aeabi_dmul+0x15a>
    5c00:	e154      	b.n	5eac <__aeabi_dmul+0x404>
    5c02:	0028      	movs	r0, r5
    5c04:	f000 fe96 	bl	6934 <__clzsi2>
    5c08:	0003      	movs	r3, r0
    5c0a:	3b0b      	subs	r3, #11
    5c0c:	2b1c      	cmp	r3, #28
    5c0e:	dd00      	ble.n	5c12 <__aeabi_dmul+0x16a>
    5c10:	e146      	b.n	5ea0 <__aeabi_dmul+0x3f8>
    5c12:	211d      	movs	r1, #29
    5c14:	1acb      	subs	r3, r1, r3
    5c16:	4651      	mov	r1, sl
    5c18:	0002      	movs	r2, r0
    5c1a:	40d9      	lsrs	r1, r3
    5c1c:	4653      	mov	r3, sl
    5c1e:	3a08      	subs	r2, #8
    5c20:	4095      	lsls	r5, r2
    5c22:	4093      	lsls	r3, r2
    5c24:	430d      	orrs	r5, r1
    5c26:	4a1b      	ldr	r2, [pc, #108]	; (5c94 <__aeabi_dmul+0x1ec>)
    5c28:	4694      	mov	ip, r2
    5c2a:	4460      	add	r0, ip
    5c2c:	4240      	negs	r0, r0
    5c2e:	2200      	movs	r2, #0
    5c30:	e779      	b.n	5b26 <__aeabi_dmul+0x7e>
    5c32:	2401      	movs	r4, #1
    5c34:	2200      	movs	r2, #0
    5c36:	400c      	ands	r4, r1
    5c38:	4b12      	ldr	r3, [pc, #72]	; (5c84 <__aeabi_dmul+0x1dc>)
    5c3a:	2500      	movs	r5, #0
    5c3c:	4690      	mov	r8, r2
    5c3e:	e799      	b.n	5b74 <__aeabi_dmul+0xcc>
    5c40:	2500      	movs	r5, #0
    5c42:	2300      	movs	r3, #0
    5c44:	2201      	movs	r2, #1
    5c46:	e76e      	b.n	5b26 <__aeabi_dmul+0x7e>
    5c48:	2203      	movs	r2, #3
    5c4a:	e76c      	b.n	5b26 <__aeabi_dmul+0x7e>
    5c4c:	2300      	movs	r3, #0
    5c4e:	469b      	mov	fp, r3
    5c50:	4698      	mov	r8, r3
    5c52:	3301      	adds	r3, #1
    5c54:	2704      	movs	r7, #4
    5c56:	9301      	str	r3, [sp, #4]
    5c58:	e74c      	b.n	5af4 <__aeabi_dmul+0x4c>
    5c5a:	2303      	movs	r3, #3
    5c5c:	270c      	movs	r7, #12
    5c5e:	9301      	str	r3, [sp, #4]
    5c60:	e748      	b.n	5af4 <__aeabi_dmul+0x4c>
    5c62:	2300      	movs	r3, #0
    5c64:	2580      	movs	r5, #128	; 0x80
    5c66:	4698      	mov	r8, r3
    5c68:	2400      	movs	r4, #0
    5c6a:	032d      	lsls	r5, r5, #12
    5c6c:	4b05      	ldr	r3, [pc, #20]	; (5c84 <__aeabi_dmul+0x1dc>)
    5c6e:	e781      	b.n	5b74 <__aeabi_dmul+0xcc>
    5c70:	465d      	mov	r5, fp
    5c72:	4643      	mov	r3, r8
    5c74:	9a01      	ldr	r2, [sp, #4]
    5c76:	e76f      	b.n	5b58 <__aeabi_dmul+0xb0>
    5c78:	465d      	mov	r5, fp
    5c7a:	4643      	mov	r3, r8
    5c7c:	0021      	movs	r1, r4
    5c7e:	9a01      	ldr	r2, [sp, #4]
    5c80:	e76a      	b.n	5b58 <__aeabi_dmul+0xb0>
    5c82:	46c0      	nop			; (mov r8, r8)
    5c84:	000007ff 	.word	0x000007ff
    5c88:	fffffc01 	.word	0xfffffc01
    5c8c:	0000bde8 	.word	0x0000bde8
    5c90:	800fffff 	.word	0x800fffff
    5c94:	000003f3 	.word	0x000003f3
    5c98:	4642      	mov	r2, r8
    5c9a:	0c12      	lsrs	r2, r2, #16
    5c9c:	4691      	mov	r9, r2
    5c9e:	0c1a      	lsrs	r2, r3, #16
    5ca0:	4694      	mov	ip, r2
    5ca2:	4642      	mov	r2, r8
    5ca4:	0417      	lsls	r7, r2, #16
    5ca6:	464a      	mov	r2, r9
    5ca8:	041b      	lsls	r3, r3, #16
    5caa:	0c1b      	lsrs	r3, r3, #16
    5cac:	435a      	muls	r2, r3
    5cae:	4660      	mov	r0, ip
    5cb0:	4690      	mov	r8, r2
    5cb2:	464a      	mov	r2, r9
    5cb4:	4342      	muls	r2, r0
    5cb6:	0010      	movs	r0, r2
    5cb8:	9203      	str	r2, [sp, #12]
    5cba:	4662      	mov	r2, ip
    5cbc:	001c      	movs	r4, r3
    5cbe:	0c3f      	lsrs	r7, r7, #16
    5cc0:	437a      	muls	r2, r7
    5cc2:	437c      	muls	r4, r7
    5cc4:	4442      	add	r2, r8
    5cc6:	9201      	str	r2, [sp, #4]
    5cc8:	0c22      	lsrs	r2, r4, #16
    5cca:	4692      	mov	sl, r2
    5ccc:	9a01      	ldr	r2, [sp, #4]
    5cce:	4452      	add	r2, sl
    5cd0:	4590      	cmp	r8, r2
    5cd2:	d906      	bls.n	5ce2 <__aeabi_dmul+0x23a>
    5cd4:	4682      	mov	sl, r0
    5cd6:	2080      	movs	r0, #128	; 0x80
    5cd8:	0240      	lsls	r0, r0, #9
    5cda:	4680      	mov	r8, r0
    5cdc:	44c2      	add	sl, r8
    5cde:	4650      	mov	r0, sl
    5ce0:	9003      	str	r0, [sp, #12]
    5ce2:	0c10      	lsrs	r0, r2, #16
    5ce4:	9004      	str	r0, [sp, #16]
    5ce6:	4648      	mov	r0, r9
    5ce8:	0424      	lsls	r4, r4, #16
    5cea:	0c24      	lsrs	r4, r4, #16
    5cec:	0412      	lsls	r2, r2, #16
    5cee:	1912      	adds	r2, r2, r4
    5cf0:	9205      	str	r2, [sp, #20]
    5cf2:	0c2a      	lsrs	r2, r5, #16
    5cf4:	042d      	lsls	r5, r5, #16
    5cf6:	0c2d      	lsrs	r5, r5, #16
    5cf8:	4368      	muls	r0, r5
    5cfa:	002c      	movs	r4, r5
    5cfc:	4682      	mov	sl, r0
    5cfe:	4648      	mov	r0, r9
    5d00:	437c      	muls	r4, r7
    5d02:	4350      	muls	r0, r2
    5d04:	4681      	mov	r9, r0
    5d06:	0c20      	lsrs	r0, r4, #16
    5d08:	4680      	mov	r8, r0
    5d0a:	4357      	muls	r7, r2
    5d0c:	4457      	add	r7, sl
    5d0e:	4447      	add	r7, r8
    5d10:	45ba      	cmp	sl, r7
    5d12:	d903      	bls.n	5d1c <__aeabi_dmul+0x274>
    5d14:	2080      	movs	r0, #128	; 0x80
    5d16:	0240      	lsls	r0, r0, #9
    5d18:	4680      	mov	r8, r0
    5d1a:	44c1      	add	r9, r8
    5d1c:	0c38      	lsrs	r0, r7, #16
    5d1e:	043f      	lsls	r7, r7, #16
    5d20:	46b8      	mov	r8, r7
    5d22:	4448      	add	r0, r9
    5d24:	0424      	lsls	r4, r4, #16
    5d26:	0c24      	lsrs	r4, r4, #16
    5d28:	9001      	str	r0, [sp, #4]
    5d2a:	9804      	ldr	r0, [sp, #16]
    5d2c:	44a0      	add	r8, r4
    5d2e:	4440      	add	r0, r8
    5d30:	9004      	str	r0, [sp, #16]
    5d32:	4658      	mov	r0, fp
    5d34:	0c00      	lsrs	r0, r0, #16
    5d36:	4681      	mov	r9, r0
    5d38:	4658      	mov	r0, fp
    5d3a:	0404      	lsls	r4, r0, #16
    5d3c:	0c20      	lsrs	r0, r4, #16
    5d3e:	4682      	mov	sl, r0
    5d40:	0007      	movs	r7, r0
    5d42:	4648      	mov	r0, r9
    5d44:	435f      	muls	r7, r3
    5d46:	464c      	mov	r4, r9
    5d48:	4343      	muls	r3, r0
    5d4a:	4660      	mov	r0, ip
    5d4c:	4360      	muls	r0, r4
    5d4e:	4664      	mov	r4, ip
    5d50:	4683      	mov	fp, r0
    5d52:	4650      	mov	r0, sl
    5d54:	4344      	muls	r4, r0
    5d56:	0c38      	lsrs	r0, r7, #16
    5d58:	4684      	mov	ip, r0
    5d5a:	18e4      	adds	r4, r4, r3
    5d5c:	4464      	add	r4, ip
    5d5e:	42a3      	cmp	r3, r4
    5d60:	d903      	bls.n	5d6a <__aeabi_dmul+0x2c2>
    5d62:	2380      	movs	r3, #128	; 0x80
    5d64:	025b      	lsls	r3, r3, #9
    5d66:	469c      	mov	ip, r3
    5d68:	44e3      	add	fp, ip
    5d6a:	4648      	mov	r0, r9
    5d6c:	043f      	lsls	r7, r7, #16
    5d6e:	0c23      	lsrs	r3, r4, #16
    5d70:	0c3f      	lsrs	r7, r7, #16
    5d72:	0424      	lsls	r4, r4, #16
    5d74:	19e4      	adds	r4, r4, r7
    5d76:	4657      	mov	r7, sl
    5d78:	4368      	muls	r0, r5
    5d7a:	436f      	muls	r7, r5
    5d7c:	4684      	mov	ip, r0
    5d7e:	464d      	mov	r5, r9
    5d80:	4650      	mov	r0, sl
    5d82:	4355      	muls	r5, r2
    5d84:	4342      	muls	r2, r0
    5d86:	0c38      	lsrs	r0, r7, #16
    5d88:	4681      	mov	r9, r0
    5d8a:	4462      	add	r2, ip
    5d8c:	444a      	add	r2, r9
    5d8e:	445b      	add	r3, fp
    5d90:	4594      	cmp	ip, r2
    5d92:	d903      	bls.n	5d9c <__aeabi_dmul+0x2f4>
    5d94:	2080      	movs	r0, #128	; 0x80
    5d96:	0240      	lsls	r0, r0, #9
    5d98:	4684      	mov	ip, r0
    5d9a:	4465      	add	r5, ip
    5d9c:	9803      	ldr	r0, [sp, #12]
    5d9e:	043f      	lsls	r7, r7, #16
    5da0:	4683      	mov	fp, r0
    5da2:	9804      	ldr	r0, [sp, #16]
    5da4:	0c3f      	lsrs	r7, r7, #16
    5da6:	4684      	mov	ip, r0
    5da8:	44e3      	add	fp, ip
    5daa:	45c3      	cmp	fp, r8
    5dac:	4180      	sbcs	r0, r0
    5dae:	4240      	negs	r0, r0
    5db0:	4682      	mov	sl, r0
    5db2:	0410      	lsls	r0, r2, #16
    5db4:	4684      	mov	ip, r0
    5db6:	9801      	ldr	r0, [sp, #4]
    5db8:	4467      	add	r7, ip
    5dba:	4684      	mov	ip, r0
    5dbc:	4467      	add	r7, ip
    5dbe:	44a3      	add	fp, r4
    5dc0:	46bc      	mov	ip, r7
    5dc2:	45a3      	cmp	fp, r4
    5dc4:	41a4      	sbcs	r4, r4
    5dc6:	4699      	mov	r9, r3
    5dc8:	44d4      	add	ip, sl
    5dca:	4264      	negs	r4, r4
    5dcc:	4287      	cmp	r7, r0
    5dce:	41bf      	sbcs	r7, r7
    5dd0:	45d4      	cmp	ip, sl
    5dd2:	4180      	sbcs	r0, r0
    5dd4:	44e1      	add	r9, ip
    5dd6:	46a0      	mov	r8, r4
    5dd8:	4599      	cmp	r9, r3
    5dda:	419b      	sbcs	r3, r3
    5ddc:	427f      	negs	r7, r7
    5dde:	4240      	negs	r0, r0
    5de0:	44c8      	add	r8, r9
    5de2:	4307      	orrs	r7, r0
    5de4:	0c12      	lsrs	r2, r2, #16
    5de6:	18ba      	adds	r2, r7, r2
    5de8:	45a0      	cmp	r8, r4
    5dea:	41a4      	sbcs	r4, r4
    5dec:	425f      	negs	r7, r3
    5dee:	003b      	movs	r3, r7
    5df0:	4264      	negs	r4, r4
    5df2:	4323      	orrs	r3, r4
    5df4:	18d7      	adds	r7, r2, r3
    5df6:	4643      	mov	r3, r8
    5df8:	197d      	adds	r5, r7, r5
    5dfa:	0ddb      	lsrs	r3, r3, #23
    5dfc:	026d      	lsls	r5, r5, #9
    5dfe:	431d      	orrs	r5, r3
    5e00:	465b      	mov	r3, fp
    5e02:	025a      	lsls	r2, r3, #9
    5e04:	9b05      	ldr	r3, [sp, #20]
    5e06:	431a      	orrs	r2, r3
    5e08:	1e53      	subs	r3, r2, #1
    5e0a:	419a      	sbcs	r2, r3
    5e0c:	465b      	mov	r3, fp
    5e0e:	0ddb      	lsrs	r3, r3, #23
    5e10:	431a      	orrs	r2, r3
    5e12:	4643      	mov	r3, r8
    5e14:	025b      	lsls	r3, r3, #9
    5e16:	4313      	orrs	r3, r2
    5e18:	01ea      	lsls	r2, r5, #7
    5e1a:	d507      	bpl.n	5e2c <__aeabi_dmul+0x384>
    5e1c:	2201      	movs	r2, #1
    5e1e:	085c      	lsrs	r4, r3, #1
    5e20:	4013      	ands	r3, r2
    5e22:	4323      	orrs	r3, r4
    5e24:	07ea      	lsls	r2, r5, #31
    5e26:	9e02      	ldr	r6, [sp, #8]
    5e28:	4313      	orrs	r3, r2
    5e2a:	086d      	lsrs	r5, r5, #1
    5e2c:	4a57      	ldr	r2, [pc, #348]	; (5f8c <__aeabi_dmul+0x4e4>)
    5e2e:	18b2      	adds	r2, r6, r2
    5e30:	2a00      	cmp	r2, #0
    5e32:	dd4b      	ble.n	5ecc <__aeabi_dmul+0x424>
    5e34:	0758      	lsls	r0, r3, #29
    5e36:	d009      	beq.n	5e4c <__aeabi_dmul+0x3a4>
    5e38:	200f      	movs	r0, #15
    5e3a:	4018      	ands	r0, r3
    5e3c:	2804      	cmp	r0, #4
    5e3e:	d005      	beq.n	5e4c <__aeabi_dmul+0x3a4>
    5e40:	1d18      	adds	r0, r3, #4
    5e42:	4298      	cmp	r0, r3
    5e44:	419b      	sbcs	r3, r3
    5e46:	425b      	negs	r3, r3
    5e48:	18ed      	adds	r5, r5, r3
    5e4a:	0003      	movs	r3, r0
    5e4c:	01e8      	lsls	r0, r5, #7
    5e4e:	d504      	bpl.n	5e5a <__aeabi_dmul+0x3b2>
    5e50:	4a4f      	ldr	r2, [pc, #316]	; (5f90 <__aeabi_dmul+0x4e8>)
    5e52:	4015      	ands	r5, r2
    5e54:	2280      	movs	r2, #128	; 0x80
    5e56:	00d2      	lsls	r2, r2, #3
    5e58:	18b2      	adds	r2, r6, r2
    5e5a:	484e      	ldr	r0, [pc, #312]	; (5f94 <__aeabi_dmul+0x4ec>)
    5e5c:	4282      	cmp	r2, r0
    5e5e:	dd00      	ble.n	5e62 <__aeabi_dmul+0x3ba>
    5e60:	e6e7      	b.n	5c32 <__aeabi_dmul+0x18a>
    5e62:	2401      	movs	r4, #1
    5e64:	08db      	lsrs	r3, r3, #3
    5e66:	0768      	lsls	r0, r5, #29
    5e68:	4318      	orrs	r0, r3
    5e6a:	026d      	lsls	r5, r5, #9
    5e6c:	0553      	lsls	r3, r2, #21
    5e6e:	4680      	mov	r8, r0
    5e70:	0b2d      	lsrs	r5, r5, #12
    5e72:	0d5b      	lsrs	r3, r3, #21
    5e74:	400c      	ands	r4, r1
    5e76:	e67d      	b.n	5b74 <__aeabi_dmul+0xcc>
    5e78:	2280      	movs	r2, #128	; 0x80
    5e7a:	4659      	mov	r1, fp
    5e7c:	0312      	lsls	r2, r2, #12
    5e7e:	4211      	tst	r1, r2
    5e80:	d008      	beq.n	5e94 <__aeabi_dmul+0x3ec>
    5e82:	4215      	tst	r5, r2
    5e84:	d106      	bne.n	5e94 <__aeabi_dmul+0x3ec>
    5e86:	4315      	orrs	r5, r2
    5e88:	032d      	lsls	r5, r5, #12
    5e8a:	4698      	mov	r8, r3
    5e8c:	0b2d      	lsrs	r5, r5, #12
    5e8e:	464c      	mov	r4, r9
    5e90:	4b41      	ldr	r3, [pc, #260]	; (5f98 <__aeabi_dmul+0x4f0>)
    5e92:	e66f      	b.n	5b74 <__aeabi_dmul+0xcc>
    5e94:	465d      	mov	r5, fp
    5e96:	4315      	orrs	r5, r2
    5e98:	032d      	lsls	r5, r5, #12
    5e9a:	0b2d      	lsrs	r5, r5, #12
    5e9c:	4b3e      	ldr	r3, [pc, #248]	; (5f98 <__aeabi_dmul+0x4f0>)
    5e9e:	e669      	b.n	5b74 <__aeabi_dmul+0xcc>
    5ea0:	0003      	movs	r3, r0
    5ea2:	4655      	mov	r5, sl
    5ea4:	3b28      	subs	r3, #40	; 0x28
    5ea6:	409d      	lsls	r5, r3
    5ea8:	2300      	movs	r3, #0
    5eaa:	e6bc      	b.n	5c26 <__aeabi_dmul+0x17e>
    5eac:	4650      	mov	r0, sl
    5eae:	f000 fd41 	bl	6934 <__clzsi2>
    5eb2:	3020      	adds	r0, #32
    5eb4:	e6a8      	b.n	5c08 <__aeabi_dmul+0x160>
    5eb6:	0003      	movs	r3, r0
    5eb8:	3b28      	subs	r3, #40	; 0x28
    5eba:	409f      	lsls	r7, r3
    5ebc:	2300      	movs	r3, #0
    5ebe:	46bb      	mov	fp, r7
    5ec0:	4698      	mov	r8, r3
    5ec2:	e689      	b.n	5bd8 <__aeabi_dmul+0x130>
    5ec4:	f000 fd36 	bl	6934 <__clzsi2>
    5ec8:	3020      	adds	r0, #32
    5eca:	e673      	b.n	5bb4 <__aeabi_dmul+0x10c>
    5ecc:	2401      	movs	r4, #1
    5ece:	1aa6      	subs	r6, r4, r2
    5ed0:	2e38      	cmp	r6, #56	; 0x38
    5ed2:	dd07      	ble.n	5ee4 <__aeabi_dmul+0x43c>
    5ed4:	2200      	movs	r2, #0
    5ed6:	400c      	ands	r4, r1
    5ed8:	2300      	movs	r3, #0
    5eda:	2500      	movs	r5, #0
    5edc:	4690      	mov	r8, r2
    5ede:	e649      	b.n	5b74 <__aeabi_dmul+0xcc>
    5ee0:	9e02      	ldr	r6, [sp, #8]
    5ee2:	e7a3      	b.n	5e2c <__aeabi_dmul+0x384>
    5ee4:	2e1f      	cmp	r6, #31
    5ee6:	dc20      	bgt.n	5f2a <__aeabi_dmul+0x482>
    5ee8:	2220      	movs	r2, #32
    5eea:	002c      	movs	r4, r5
    5eec:	0018      	movs	r0, r3
    5eee:	1b92      	subs	r2, r2, r6
    5ef0:	40f0      	lsrs	r0, r6
    5ef2:	4094      	lsls	r4, r2
    5ef4:	4093      	lsls	r3, r2
    5ef6:	4304      	orrs	r4, r0
    5ef8:	1e58      	subs	r0, r3, #1
    5efa:	4183      	sbcs	r3, r0
    5efc:	431c      	orrs	r4, r3
    5efe:	40f5      	lsrs	r5, r6
    5f00:	0763      	lsls	r3, r4, #29
    5f02:	d009      	beq.n	5f18 <__aeabi_dmul+0x470>
    5f04:	230f      	movs	r3, #15
    5f06:	4023      	ands	r3, r4
    5f08:	2b04      	cmp	r3, #4
    5f0a:	d005      	beq.n	5f18 <__aeabi_dmul+0x470>
    5f0c:	0023      	movs	r3, r4
    5f0e:	1d1c      	adds	r4, r3, #4
    5f10:	429c      	cmp	r4, r3
    5f12:	4192      	sbcs	r2, r2
    5f14:	4252      	negs	r2, r2
    5f16:	18ad      	adds	r5, r5, r2
    5f18:	022b      	lsls	r3, r5, #8
    5f1a:	d51f      	bpl.n	5f5c <__aeabi_dmul+0x4b4>
    5f1c:	2401      	movs	r4, #1
    5f1e:	2200      	movs	r2, #0
    5f20:	400c      	ands	r4, r1
    5f22:	2301      	movs	r3, #1
    5f24:	2500      	movs	r5, #0
    5f26:	4690      	mov	r8, r2
    5f28:	e624      	b.n	5b74 <__aeabi_dmul+0xcc>
    5f2a:	201f      	movs	r0, #31
    5f2c:	002c      	movs	r4, r5
    5f2e:	4240      	negs	r0, r0
    5f30:	1a82      	subs	r2, r0, r2
    5f32:	40d4      	lsrs	r4, r2
    5f34:	2e20      	cmp	r6, #32
    5f36:	d01c      	beq.n	5f72 <__aeabi_dmul+0x4ca>
    5f38:	2240      	movs	r2, #64	; 0x40
    5f3a:	1b96      	subs	r6, r2, r6
    5f3c:	40b5      	lsls	r5, r6
    5f3e:	432b      	orrs	r3, r5
    5f40:	1e58      	subs	r0, r3, #1
    5f42:	4183      	sbcs	r3, r0
    5f44:	2007      	movs	r0, #7
    5f46:	4323      	orrs	r3, r4
    5f48:	4018      	ands	r0, r3
    5f4a:	2500      	movs	r5, #0
    5f4c:	2800      	cmp	r0, #0
    5f4e:	d009      	beq.n	5f64 <__aeabi_dmul+0x4bc>
    5f50:	220f      	movs	r2, #15
    5f52:	2500      	movs	r5, #0
    5f54:	401a      	ands	r2, r3
    5f56:	001c      	movs	r4, r3
    5f58:	2a04      	cmp	r2, #4
    5f5a:	d1d8      	bne.n	5f0e <__aeabi_dmul+0x466>
    5f5c:	0023      	movs	r3, r4
    5f5e:	0768      	lsls	r0, r5, #29
    5f60:	026d      	lsls	r5, r5, #9
    5f62:	0b2d      	lsrs	r5, r5, #12
    5f64:	2401      	movs	r4, #1
    5f66:	08db      	lsrs	r3, r3, #3
    5f68:	4303      	orrs	r3, r0
    5f6a:	4698      	mov	r8, r3
    5f6c:	400c      	ands	r4, r1
    5f6e:	2300      	movs	r3, #0
    5f70:	e600      	b.n	5b74 <__aeabi_dmul+0xcc>
    5f72:	2500      	movs	r5, #0
    5f74:	e7e3      	b.n	5f3e <__aeabi_dmul+0x496>
    5f76:	2280      	movs	r2, #128	; 0x80
    5f78:	2401      	movs	r4, #1
    5f7a:	0312      	lsls	r2, r2, #12
    5f7c:	4315      	orrs	r5, r2
    5f7e:	032d      	lsls	r5, r5, #12
    5f80:	4698      	mov	r8, r3
    5f82:	0b2d      	lsrs	r5, r5, #12
    5f84:	400c      	ands	r4, r1
    5f86:	4b04      	ldr	r3, [pc, #16]	; (5f98 <__aeabi_dmul+0x4f0>)
    5f88:	e5f4      	b.n	5b74 <__aeabi_dmul+0xcc>
    5f8a:	46c0      	nop			; (mov r8, r8)
    5f8c:	000003ff 	.word	0x000003ff
    5f90:	feffffff 	.word	0xfeffffff
    5f94:	000007fe 	.word	0x000007fe
    5f98:	000007ff 	.word	0x000007ff

00005f9c <__aeabi_dsub>:
    5f9c:	b5f0      	push	{r4, r5, r6, r7, lr}
    5f9e:	4657      	mov	r7, sl
    5fa0:	464e      	mov	r6, r9
    5fa2:	4645      	mov	r5, r8
    5fa4:	b4e0      	push	{r5, r6, r7}
    5fa6:	000e      	movs	r6, r1
    5fa8:	0011      	movs	r1, r2
    5faa:	0ff2      	lsrs	r2, r6, #31
    5fac:	4692      	mov	sl, r2
    5fae:	00c5      	lsls	r5, r0, #3
    5fb0:	0f42      	lsrs	r2, r0, #29
    5fb2:	0318      	lsls	r0, r3, #12
    5fb4:	0337      	lsls	r7, r6, #12
    5fb6:	0074      	lsls	r4, r6, #1
    5fb8:	0a40      	lsrs	r0, r0, #9
    5fba:	0f4e      	lsrs	r6, r1, #29
    5fbc:	0a7f      	lsrs	r7, r7, #9
    5fbe:	4330      	orrs	r0, r6
    5fc0:	4ecf      	ldr	r6, [pc, #828]	; (6300 <__aeabi_dsub+0x364>)
    5fc2:	4317      	orrs	r7, r2
    5fc4:	005a      	lsls	r2, r3, #1
    5fc6:	0d64      	lsrs	r4, r4, #21
    5fc8:	0d52      	lsrs	r2, r2, #21
    5fca:	0fdb      	lsrs	r3, r3, #31
    5fcc:	00c9      	lsls	r1, r1, #3
    5fce:	42b2      	cmp	r2, r6
    5fd0:	d100      	bne.n	5fd4 <__aeabi_dsub+0x38>
    5fd2:	e0e5      	b.n	61a0 <__aeabi_dsub+0x204>
    5fd4:	2601      	movs	r6, #1
    5fd6:	4073      	eors	r3, r6
    5fd8:	1aa6      	subs	r6, r4, r2
    5fda:	46b4      	mov	ip, r6
    5fdc:	4553      	cmp	r3, sl
    5fde:	d100      	bne.n	5fe2 <__aeabi_dsub+0x46>
    5fe0:	e0af      	b.n	6142 <__aeabi_dsub+0x1a6>
    5fe2:	2e00      	cmp	r6, #0
    5fe4:	dc00      	bgt.n	5fe8 <__aeabi_dsub+0x4c>
    5fe6:	e10d      	b.n	6204 <__aeabi_dsub+0x268>
    5fe8:	2a00      	cmp	r2, #0
    5fea:	d13a      	bne.n	6062 <__aeabi_dsub+0xc6>
    5fec:	0003      	movs	r3, r0
    5fee:	430b      	orrs	r3, r1
    5ff0:	d000      	beq.n	5ff4 <__aeabi_dsub+0x58>
    5ff2:	e0e4      	b.n	61be <__aeabi_dsub+0x222>
    5ff4:	076b      	lsls	r3, r5, #29
    5ff6:	d009      	beq.n	600c <__aeabi_dsub+0x70>
    5ff8:	230f      	movs	r3, #15
    5ffa:	402b      	ands	r3, r5
    5ffc:	2b04      	cmp	r3, #4
    5ffe:	d005      	beq.n	600c <__aeabi_dsub+0x70>
    6000:	1d2b      	adds	r3, r5, #4
    6002:	42ab      	cmp	r3, r5
    6004:	41ad      	sbcs	r5, r5
    6006:	426d      	negs	r5, r5
    6008:	197f      	adds	r7, r7, r5
    600a:	001d      	movs	r5, r3
    600c:	023b      	lsls	r3, r7, #8
    600e:	d400      	bmi.n	6012 <__aeabi_dsub+0x76>
    6010:	e088      	b.n	6124 <__aeabi_dsub+0x188>
    6012:	4bbb      	ldr	r3, [pc, #748]	; (6300 <__aeabi_dsub+0x364>)
    6014:	3401      	adds	r4, #1
    6016:	429c      	cmp	r4, r3
    6018:	d100      	bne.n	601c <__aeabi_dsub+0x80>
    601a:	e110      	b.n	623e <__aeabi_dsub+0x2a2>
    601c:	003a      	movs	r2, r7
    601e:	4bb9      	ldr	r3, [pc, #740]	; (6304 <__aeabi_dsub+0x368>)
    6020:	4651      	mov	r1, sl
    6022:	401a      	ands	r2, r3
    6024:	2301      	movs	r3, #1
    6026:	0750      	lsls	r0, r2, #29
    6028:	08ed      	lsrs	r5, r5, #3
    602a:	0252      	lsls	r2, r2, #9
    602c:	0564      	lsls	r4, r4, #21
    602e:	4305      	orrs	r5, r0
    6030:	0b12      	lsrs	r2, r2, #12
    6032:	0d64      	lsrs	r4, r4, #21
    6034:	400b      	ands	r3, r1
    6036:	2100      	movs	r1, #0
    6038:	0028      	movs	r0, r5
    603a:	0312      	lsls	r2, r2, #12
    603c:	0d0d      	lsrs	r5, r1, #20
    603e:	0b12      	lsrs	r2, r2, #12
    6040:	0564      	lsls	r4, r4, #21
    6042:	052d      	lsls	r5, r5, #20
    6044:	4315      	orrs	r5, r2
    6046:	0862      	lsrs	r2, r4, #1
    6048:	4caf      	ldr	r4, [pc, #700]	; (6308 <__aeabi_dsub+0x36c>)
    604a:	07db      	lsls	r3, r3, #31
    604c:	402c      	ands	r4, r5
    604e:	4314      	orrs	r4, r2
    6050:	0064      	lsls	r4, r4, #1
    6052:	0864      	lsrs	r4, r4, #1
    6054:	431c      	orrs	r4, r3
    6056:	0021      	movs	r1, r4
    6058:	bc1c      	pop	{r2, r3, r4}
    605a:	4690      	mov	r8, r2
    605c:	4699      	mov	r9, r3
    605e:	46a2      	mov	sl, r4
    6060:	bdf0      	pop	{r4, r5, r6, r7, pc}
    6062:	4ba7      	ldr	r3, [pc, #668]	; (6300 <__aeabi_dsub+0x364>)
    6064:	429c      	cmp	r4, r3
    6066:	d0c5      	beq.n	5ff4 <__aeabi_dsub+0x58>
    6068:	2380      	movs	r3, #128	; 0x80
    606a:	041b      	lsls	r3, r3, #16
    606c:	4318      	orrs	r0, r3
    606e:	4663      	mov	r3, ip
    6070:	2b38      	cmp	r3, #56	; 0x38
    6072:	dd00      	ble.n	6076 <__aeabi_dsub+0xda>
    6074:	e0fd      	b.n	6272 <__aeabi_dsub+0x2d6>
    6076:	2b1f      	cmp	r3, #31
    6078:	dd00      	ble.n	607c <__aeabi_dsub+0xe0>
    607a:	e130      	b.n	62de <__aeabi_dsub+0x342>
    607c:	4662      	mov	r2, ip
    607e:	2320      	movs	r3, #32
    6080:	1a9b      	subs	r3, r3, r2
    6082:	0002      	movs	r2, r0
    6084:	409a      	lsls	r2, r3
    6086:	4666      	mov	r6, ip
    6088:	4690      	mov	r8, r2
    608a:	000a      	movs	r2, r1
    608c:	4099      	lsls	r1, r3
    608e:	40f2      	lsrs	r2, r6
    6090:	4646      	mov	r6, r8
    6092:	1e4b      	subs	r3, r1, #1
    6094:	4199      	sbcs	r1, r3
    6096:	4332      	orrs	r2, r6
    6098:	4311      	orrs	r1, r2
    609a:	4663      	mov	r3, ip
    609c:	0002      	movs	r2, r0
    609e:	40da      	lsrs	r2, r3
    60a0:	1a69      	subs	r1, r5, r1
    60a2:	428d      	cmp	r5, r1
    60a4:	419b      	sbcs	r3, r3
    60a6:	000d      	movs	r5, r1
    60a8:	1aba      	subs	r2, r7, r2
    60aa:	425b      	negs	r3, r3
    60ac:	1ad7      	subs	r7, r2, r3
    60ae:	023b      	lsls	r3, r7, #8
    60b0:	d535      	bpl.n	611e <__aeabi_dsub+0x182>
    60b2:	027a      	lsls	r2, r7, #9
    60b4:	0a53      	lsrs	r3, r2, #9
    60b6:	4698      	mov	r8, r3
    60b8:	4643      	mov	r3, r8
    60ba:	2b00      	cmp	r3, #0
    60bc:	d100      	bne.n	60c0 <__aeabi_dsub+0x124>
    60be:	e0c4      	b.n	624a <__aeabi_dsub+0x2ae>
    60c0:	4640      	mov	r0, r8
    60c2:	f000 fc37 	bl	6934 <__clzsi2>
    60c6:	0003      	movs	r3, r0
    60c8:	3b08      	subs	r3, #8
    60ca:	2b1f      	cmp	r3, #31
    60cc:	dd00      	ble.n	60d0 <__aeabi_dsub+0x134>
    60ce:	e0c5      	b.n	625c <__aeabi_dsub+0x2c0>
    60d0:	2220      	movs	r2, #32
    60d2:	0029      	movs	r1, r5
    60d4:	1ad2      	subs	r2, r2, r3
    60d6:	4647      	mov	r7, r8
    60d8:	40d1      	lsrs	r1, r2
    60da:	409f      	lsls	r7, r3
    60dc:	000a      	movs	r2, r1
    60de:	409d      	lsls	r5, r3
    60e0:	433a      	orrs	r2, r7
    60e2:	429c      	cmp	r4, r3
    60e4:	dd00      	ble.n	60e8 <__aeabi_dsub+0x14c>
    60e6:	e0c0      	b.n	626a <__aeabi_dsub+0x2ce>
    60e8:	1b1c      	subs	r4, r3, r4
    60ea:	1c63      	adds	r3, r4, #1
    60ec:	2b1f      	cmp	r3, #31
    60ee:	dd00      	ble.n	60f2 <__aeabi_dsub+0x156>
    60f0:	e0e4      	b.n	62bc <__aeabi_dsub+0x320>
    60f2:	2120      	movs	r1, #32
    60f4:	0014      	movs	r4, r2
    60f6:	0028      	movs	r0, r5
    60f8:	1ac9      	subs	r1, r1, r3
    60fa:	40d8      	lsrs	r0, r3
    60fc:	408c      	lsls	r4, r1
    60fe:	408d      	lsls	r5, r1
    6100:	4304      	orrs	r4, r0
    6102:	40da      	lsrs	r2, r3
    6104:	1e68      	subs	r0, r5, #1
    6106:	4185      	sbcs	r5, r0
    6108:	0017      	movs	r7, r2
    610a:	4325      	orrs	r5, r4
    610c:	2400      	movs	r4, #0
    610e:	e771      	b.n	5ff4 <__aeabi_dsub+0x58>
    6110:	4642      	mov	r2, r8
    6112:	4663      	mov	r3, ip
    6114:	431a      	orrs	r2, r3
    6116:	d100      	bne.n	611a <__aeabi_dsub+0x17e>
    6118:	e24c      	b.n	65b4 <__aeabi_dsub+0x618>
    611a:	4667      	mov	r7, ip
    611c:	4645      	mov	r5, r8
    611e:	076b      	lsls	r3, r5, #29
    6120:	d000      	beq.n	6124 <__aeabi_dsub+0x188>
    6122:	e769      	b.n	5ff8 <__aeabi_dsub+0x5c>
    6124:	2301      	movs	r3, #1
    6126:	4651      	mov	r1, sl
    6128:	0778      	lsls	r0, r7, #29
    612a:	08ed      	lsrs	r5, r5, #3
    612c:	08fa      	lsrs	r2, r7, #3
    612e:	400b      	ands	r3, r1
    6130:	4305      	orrs	r5, r0
    6132:	4973      	ldr	r1, [pc, #460]	; (6300 <__aeabi_dsub+0x364>)
    6134:	428c      	cmp	r4, r1
    6136:	d038      	beq.n	61aa <__aeabi_dsub+0x20e>
    6138:	0312      	lsls	r2, r2, #12
    613a:	0564      	lsls	r4, r4, #21
    613c:	0b12      	lsrs	r2, r2, #12
    613e:	0d64      	lsrs	r4, r4, #21
    6140:	e779      	b.n	6036 <__aeabi_dsub+0x9a>
    6142:	2e00      	cmp	r6, #0
    6144:	dc00      	bgt.n	6148 <__aeabi_dsub+0x1ac>
    6146:	e09a      	b.n	627e <__aeabi_dsub+0x2e2>
    6148:	2a00      	cmp	r2, #0
    614a:	d047      	beq.n	61dc <__aeabi_dsub+0x240>
    614c:	4a6c      	ldr	r2, [pc, #432]	; (6300 <__aeabi_dsub+0x364>)
    614e:	4294      	cmp	r4, r2
    6150:	d100      	bne.n	6154 <__aeabi_dsub+0x1b8>
    6152:	e74f      	b.n	5ff4 <__aeabi_dsub+0x58>
    6154:	2280      	movs	r2, #128	; 0x80
    6156:	0412      	lsls	r2, r2, #16
    6158:	4310      	orrs	r0, r2
    615a:	4662      	mov	r2, ip
    615c:	2a38      	cmp	r2, #56	; 0x38
    615e:	dc00      	bgt.n	6162 <__aeabi_dsub+0x1c6>
    6160:	e108      	b.n	6374 <__aeabi_dsub+0x3d8>
    6162:	4301      	orrs	r1, r0
    6164:	1e48      	subs	r0, r1, #1
    6166:	4181      	sbcs	r1, r0
    6168:	2200      	movs	r2, #0
    616a:	b2c9      	uxtb	r1, r1
    616c:	1949      	adds	r1, r1, r5
    616e:	19d2      	adds	r2, r2, r7
    6170:	42a9      	cmp	r1, r5
    6172:	41bf      	sbcs	r7, r7
    6174:	000d      	movs	r5, r1
    6176:	427f      	negs	r7, r7
    6178:	18bf      	adds	r7, r7, r2
    617a:	023a      	lsls	r2, r7, #8
    617c:	d400      	bmi.n	6180 <__aeabi_dsub+0x1e4>
    617e:	e142      	b.n	6406 <__aeabi_dsub+0x46a>
    6180:	4a5f      	ldr	r2, [pc, #380]	; (6300 <__aeabi_dsub+0x364>)
    6182:	3401      	adds	r4, #1
    6184:	4294      	cmp	r4, r2
    6186:	d100      	bne.n	618a <__aeabi_dsub+0x1ee>
    6188:	e14e      	b.n	6428 <__aeabi_dsub+0x48c>
    618a:	2001      	movs	r0, #1
    618c:	4a5d      	ldr	r2, [pc, #372]	; (6304 <__aeabi_dsub+0x368>)
    618e:	0869      	lsrs	r1, r5, #1
    6190:	403a      	ands	r2, r7
    6192:	4028      	ands	r0, r5
    6194:	4308      	orrs	r0, r1
    6196:	07d5      	lsls	r5, r2, #31
    6198:	4305      	orrs	r5, r0
    619a:	0857      	lsrs	r7, r2, #1
    619c:	469a      	mov	sl, r3
    619e:	e729      	b.n	5ff4 <__aeabi_dsub+0x58>
    61a0:	0006      	movs	r6, r0
    61a2:	430e      	orrs	r6, r1
    61a4:	d000      	beq.n	61a8 <__aeabi_dsub+0x20c>
    61a6:	e717      	b.n	5fd8 <__aeabi_dsub+0x3c>
    61a8:	e714      	b.n	5fd4 <__aeabi_dsub+0x38>
    61aa:	0029      	movs	r1, r5
    61ac:	4311      	orrs	r1, r2
    61ae:	d100      	bne.n	61b2 <__aeabi_dsub+0x216>
    61b0:	e1f9      	b.n	65a6 <__aeabi_dsub+0x60a>
    61b2:	2180      	movs	r1, #128	; 0x80
    61b4:	0309      	lsls	r1, r1, #12
    61b6:	430a      	orrs	r2, r1
    61b8:	0312      	lsls	r2, r2, #12
    61ba:	0b12      	lsrs	r2, r2, #12
    61bc:	e73b      	b.n	6036 <__aeabi_dsub+0x9a>
    61be:	2301      	movs	r3, #1
    61c0:	425b      	negs	r3, r3
    61c2:	4698      	mov	r8, r3
    61c4:	44c4      	add	ip, r8
    61c6:	4663      	mov	r3, ip
    61c8:	2b00      	cmp	r3, #0
    61ca:	d172      	bne.n	62b2 <__aeabi_dsub+0x316>
    61cc:	1a69      	subs	r1, r5, r1
    61ce:	428d      	cmp	r5, r1
    61d0:	419b      	sbcs	r3, r3
    61d2:	1a3f      	subs	r7, r7, r0
    61d4:	425b      	negs	r3, r3
    61d6:	1aff      	subs	r7, r7, r3
    61d8:	000d      	movs	r5, r1
    61da:	e768      	b.n	60ae <__aeabi_dsub+0x112>
    61dc:	0002      	movs	r2, r0
    61de:	430a      	orrs	r2, r1
    61e0:	d100      	bne.n	61e4 <__aeabi_dsub+0x248>
    61e2:	e707      	b.n	5ff4 <__aeabi_dsub+0x58>
    61e4:	2201      	movs	r2, #1
    61e6:	4252      	negs	r2, r2
    61e8:	4690      	mov	r8, r2
    61ea:	44c4      	add	ip, r8
    61ec:	4662      	mov	r2, ip
    61ee:	2a00      	cmp	r2, #0
    61f0:	d000      	beq.n	61f4 <__aeabi_dsub+0x258>
    61f2:	e0e6      	b.n	63c2 <__aeabi_dsub+0x426>
    61f4:	1869      	adds	r1, r5, r1
    61f6:	42a9      	cmp	r1, r5
    61f8:	41b6      	sbcs	r6, r6
    61fa:	183f      	adds	r7, r7, r0
    61fc:	4276      	negs	r6, r6
    61fe:	19f7      	adds	r7, r6, r7
    6200:	000d      	movs	r5, r1
    6202:	e7ba      	b.n	617a <__aeabi_dsub+0x1de>
    6204:	2e00      	cmp	r6, #0
    6206:	d000      	beq.n	620a <__aeabi_dsub+0x26e>
    6208:	e080      	b.n	630c <__aeabi_dsub+0x370>
    620a:	1c62      	adds	r2, r4, #1
    620c:	0552      	lsls	r2, r2, #21
    620e:	0d52      	lsrs	r2, r2, #21
    6210:	2a01      	cmp	r2, #1
    6212:	dc00      	bgt.n	6216 <__aeabi_dsub+0x27a>
    6214:	e0f9      	b.n	640a <__aeabi_dsub+0x46e>
    6216:	1a6a      	subs	r2, r5, r1
    6218:	4691      	mov	r9, r2
    621a:	454d      	cmp	r5, r9
    621c:	41b6      	sbcs	r6, r6
    621e:	1a3a      	subs	r2, r7, r0
    6220:	4276      	negs	r6, r6
    6222:	1b92      	subs	r2, r2, r6
    6224:	4690      	mov	r8, r2
    6226:	0212      	lsls	r2, r2, #8
    6228:	d400      	bmi.n	622c <__aeabi_dsub+0x290>
    622a:	e099      	b.n	6360 <__aeabi_dsub+0x3c4>
    622c:	1b4d      	subs	r5, r1, r5
    622e:	42a9      	cmp	r1, r5
    6230:	4189      	sbcs	r1, r1
    6232:	1bc7      	subs	r7, r0, r7
    6234:	4249      	negs	r1, r1
    6236:	1a7a      	subs	r2, r7, r1
    6238:	4690      	mov	r8, r2
    623a:	469a      	mov	sl, r3
    623c:	e73c      	b.n	60b8 <__aeabi_dsub+0x11c>
    623e:	4652      	mov	r2, sl
    6240:	2301      	movs	r3, #1
    6242:	2500      	movs	r5, #0
    6244:	4013      	ands	r3, r2
    6246:	2200      	movs	r2, #0
    6248:	e6f5      	b.n	6036 <__aeabi_dsub+0x9a>
    624a:	0028      	movs	r0, r5
    624c:	f000 fb72 	bl	6934 <__clzsi2>
    6250:	3020      	adds	r0, #32
    6252:	0003      	movs	r3, r0
    6254:	3b08      	subs	r3, #8
    6256:	2b1f      	cmp	r3, #31
    6258:	dc00      	bgt.n	625c <__aeabi_dsub+0x2c0>
    625a:	e739      	b.n	60d0 <__aeabi_dsub+0x134>
    625c:	002a      	movs	r2, r5
    625e:	3828      	subs	r0, #40	; 0x28
    6260:	4082      	lsls	r2, r0
    6262:	2500      	movs	r5, #0
    6264:	429c      	cmp	r4, r3
    6266:	dc00      	bgt.n	626a <__aeabi_dsub+0x2ce>
    6268:	e73e      	b.n	60e8 <__aeabi_dsub+0x14c>
    626a:	4f26      	ldr	r7, [pc, #152]	; (6304 <__aeabi_dsub+0x368>)
    626c:	1ae4      	subs	r4, r4, r3
    626e:	4017      	ands	r7, r2
    6270:	e6c0      	b.n	5ff4 <__aeabi_dsub+0x58>
    6272:	4301      	orrs	r1, r0
    6274:	1e48      	subs	r0, r1, #1
    6276:	4181      	sbcs	r1, r0
    6278:	2200      	movs	r2, #0
    627a:	b2c9      	uxtb	r1, r1
    627c:	e710      	b.n	60a0 <__aeabi_dsub+0x104>
    627e:	2e00      	cmp	r6, #0
    6280:	d000      	beq.n	6284 <__aeabi_dsub+0x2e8>
    6282:	e0f1      	b.n	6468 <__aeabi_dsub+0x4cc>
    6284:	1c62      	adds	r2, r4, #1
    6286:	4694      	mov	ip, r2
    6288:	0552      	lsls	r2, r2, #21
    628a:	0d52      	lsrs	r2, r2, #21
    628c:	2a01      	cmp	r2, #1
    628e:	dc00      	bgt.n	6292 <__aeabi_dsub+0x2f6>
    6290:	e0a0      	b.n	63d4 <__aeabi_dsub+0x438>
    6292:	4a1b      	ldr	r2, [pc, #108]	; (6300 <__aeabi_dsub+0x364>)
    6294:	4594      	cmp	ip, r2
    6296:	d100      	bne.n	629a <__aeabi_dsub+0x2fe>
    6298:	e0c5      	b.n	6426 <__aeabi_dsub+0x48a>
    629a:	1869      	adds	r1, r5, r1
    629c:	42a9      	cmp	r1, r5
    629e:	4192      	sbcs	r2, r2
    62a0:	183f      	adds	r7, r7, r0
    62a2:	4252      	negs	r2, r2
    62a4:	19d2      	adds	r2, r2, r7
    62a6:	0849      	lsrs	r1, r1, #1
    62a8:	07d5      	lsls	r5, r2, #31
    62aa:	430d      	orrs	r5, r1
    62ac:	0857      	lsrs	r7, r2, #1
    62ae:	4664      	mov	r4, ip
    62b0:	e6a0      	b.n	5ff4 <__aeabi_dsub+0x58>
    62b2:	4b13      	ldr	r3, [pc, #76]	; (6300 <__aeabi_dsub+0x364>)
    62b4:	429c      	cmp	r4, r3
    62b6:	d000      	beq.n	62ba <__aeabi_dsub+0x31e>
    62b8:	e6d9      	b.n	606e <__aeabi_dsub+0xd2>
    62ba:	e69b      	b.n	5ff4 <__aeabi_dsub+0x58>
    62bc:	0011      	movs	r1, r2
    62be:	3c1f      	subs	r4, #31
    62c0:	40e1      	lsrs	r1, r4
    62c2:	000c      	movs	r4, r1
    62c4:	2b20      	cmp	r3, #32
    62c6:	d100      	bne.n	62ca <__aeabi_dsub+0x32e>
    62c8:	e080      	b.n	63cc <__aeabi_dsub+0x430>
    62ca:	2140      	movs	r1, #64	; 0x40
    62cc:	1acb      	subs	r3, r1, r3
    62ce:	409a      	lsls	r2, r3
    62d0:	4315      	orrs	r5, r2
    62d2:	1e6a      	subs	r2, r5, #1
    62d4:	4195      	sbcs	r5, r2
    62d6:	2700      	movs	r7, #0
    62d8:	4325      	orrs	r5, r4
    62da:	2400      	movs	r4, #0
    62dc:	e71f      	b.n	611e <__aeabi_dsub+0x182>
    62de:	4663      	mov	r3, ip
    62e0:	0002      	movs	r2, r0
    62e2:	3b20      	subs	r3, #32
    62e4:	40da      	lsrs	r2, r3
    62e6:	4663      	mov	r3, ip
    62e8:	2b20      	cmp	r3, #32
    62ea:	d071      	beq.n	63d0 <__aeabi_dsub+0x434>
    62ec:	2340      	movs	r3, #64	; 0x40
    62ee:	4666      	mov	r6, ip
    62f0:	1b9b      	subs	r3, r3, r6
    62f2:	4098      	lsls	r0, r3
    62f4:	4301      	orrs	r1, r0
    62f6:	1e48      	subs	r0, r1, #1
    62f8:	4181      	sbcs	r1, r0
    62fa:	4311      	orrs	r1, r2
    62fc:	2200      	movs	r2, #0
    62fe:	e6cf      	b.n	60a0 <__aeabi_dsub+0x104>
    6300:	000007ff 	.word	0x000007ff
    6304:	ff7fffff 	.word	0xff7fffff
    6308:	800fffff 	.word	0x800fffff
    630c:	2c00      	cmp	r4, #0
    630e:	d048      	beq.n	63a2 <__aeabi_dsub+0x406>
    6310:	4cca      	ldr	r4, [pc, #808]	; (663c <__aeabi_dsub+0x6a0>)
    6312:	42a2      	cmp	r2, r4
    6314:	d100      	bne.n	6318 <__aeabi_dsub+0x37c>
    6316:	e0a2      	b.n	645e <__aeabi_dsub+0x4c2>
    6318:	4274      	negs	r4, r6
    631a:	46a1      	mov	r9, r4
    631c:	2480      	movs	r4, #128	; 0x80
    631e:	0424      	lsls	r4, r4, #16
    6320:	4327      	orrs	r7, r4
    6322:	464c      	mov	r4, r9
    6324:	2c38      	cmp	r4, #56	; 0x38
    6326:	dd00      	ble.n	632a <__aeabi_dsub+0x38e>
    6328:	e0db      	b.n	64e2 <__aeabi_dsub+0x546>
    632a:	2c1f      	cmp	r4, #31
    632c:	dd00      	ble.n	6330 <__aeabi_dsub+0x394>
    632e:	e144      	b.n	65ba <__aeabi_dsub+0x61e>
    6330:	464e      	mov	r6, r9
    6332:	2420      	movs	r4, #32
    6334:	1ba4      	subs	r4, r4, r6
    6336:	003e      	movs	r6, r7
    6338:	40a6      	lsls	r6, r4
    633a:	46a2      	mov	sl, r4
    633c:	46b0      	mov	r8, r6
    633e:	464c      	mov	r4, r9
    6340:	002e      	movs	r6, r5
    6342:	40e6      	lsrs	r6, r4
    6344:	46b4      	mov	ip, r6
    6346:	4646      	mov	r6, r8
    6348:	4664      	mov	r4, ip
    634a:	4326      	orrs	r6, r4
    634c:	4654      	mov	r4, sl
    634e:	40a5      	lsls	r5, r4
    6350:	1e6c      	subs	r4, r5, #1
    6352:	41a5      	sbcs	r5, r4
    6354:	0034      	movs	r4, r6
    6356:	432c      	orrs	r4, r5
    6358:	464d      	mov	r5, r9
    635a:	40ef      	lsrs	r7, r5
    635c:	1b0d      	subs	r5, r1, r4
    635e:	e028      	b.n	63b2 <__aeabi_dsub+0x416>
    6360:	464a      	mov	r2, r9
    6362:	4643      	mov	r3, r8
    6364:	464d      	mov	r5, r9
    6366:	431a      	orrs	r2, r3
    6368:	d000      	beq.n	636c <__aeabi_dsub+0x3d0>
    636a:	e6a5      	b.n	60b8 <__aeabi_dsub+0x11c>
    636c:	2300      	movs	r3, #0
    636e:	2400      	movs	r4, #0
    6370:	2500      	movs	r5, #0
    6372:	e6de      	b.n	6132 <__aeabi_dsub+0x196>
    6374:	2a1f      	cmp	r2, #31
    6376:	dc5a      	bgt.n	642e <__aeabi_dsub+0x492>
    6378:	4666      	mov	r6, ip
    637a:	2220      	movs	r2, #32
    637c:	1b92      	subs	r2, r2, r6
    637e:	0006      	movs	r6, r0
    6380:	4096      	lsls	r6, r2
    6382:	4691      	mov	r9, r2
    6384:	46b0      	mov	r8, r6
    6386:	4662      	mov	r2, ip
    6388:	000e      	movs	r6, r1
    638a:	40d6      	lsrs	r6, r2
    638c:	4642      	mov	r2, r8
    638e:	4316      	orrs	r6, r2
    6390:	464a      	mov	r2, r9
    6392:	4091      	lsls	r1, r2
    6394:	1e4a      	subs	r2, r1, #1
    6396:	4191      	sbcs	r1, r2
    6398:	0002      	movs	r2, r0
    639a:	4660      	mov	r0, ip
    639c:	4331      	orrs	r1, r6
    639e:	40c2      	lsrs	r2, r0
    63a0:	e6e4      	b.n	616c <__aeabi_dsub+0x1d0>
    63a2:	003c      	movs	r4, r7
    63a4:	432c      	orrs	r4, r5
    63a6:	d05a      	beq.n	645e <__aeabi_dsub+0x4c2>
    63a8:	43f4      	mvns	r4, r6
    63aa:	46a1      	mov	r9, r4
    63ac:	2c00      	cmp	r4, #0
    63ae:	d152      	bne.n	6456 <__aeabi_dsub+0x4ba>
    63b0:	1b4d      	subs	r5, r1, r5
    63b2:	42a9      	cmp	r1, r5
    63b4:	4189      	sbcs	r1, r1
    63b6:	1bc7      	subs	r7, r0, r7
    63b8:	4249      	negs	r1, r1
    63ba:	1a7f      	subs	r7, r7, r1
    63bc:	0014      	movs	r4, r2
    63be:	469a      	mov	sl, r3
    63c0:	e675      	b.n	60ae <__aeabi_dsub+0x112>
    63c2:	4a9e      	ldr	r2, [pc, #632]	; (663c <__aeabi_dsub+0x6a0>)
    63c4:	4294      	cmp	r4, r2
    63c6:	d000      	beq.n	63ca <__aeabi_dsub+0x42e>
    63c8:	e6c7      	b.n	615a <__aeabi_dsub+0x1be>
    63ca:	e613      	b.n	5ff4 <__aeabi_dsub+0x58>
    63cc:	2200      	movs	r2, #0
    63ce:	e77f      	b.n	62d0 <__aeabi_dsub+0x334>
    63d0:	2000      	movs	r0, #0
    63d2:	e78f      	b.n	62f4 <__aeabi_dsub+0x358>
    63d4:	2c00      	cmp	r4, #0
    63d6:	d000      	beq.n	63da <__aeabi_dsub+0x43e>
    63d8:	e0c8      	b.n	656c <__aeabi_dsub+0x5d0>
    63da:	003b      	movs	r3, r7
    63dc:	432b      	orrs	r3, r5
    63de:	d100      	bne.n	63e2 <__aeabi_dsub+0x446>
    63e0:	e10f      	b.n	6602 <__aeabi_dsub+0x666>
    63e2:	0003      	movs	r3, r0
    63e4:	430b      	orrs	r3, r1
    63e6:	d100      	bne.n	63ea <__aeabi_dsub+0x44e>
    63e8:	e604      	b.n	5ff4 <__aeabi_dsub+0x58>
    63ea:	1869      	adds	r1, r5, r1
    63ec:	42a9      	cmp	r1, r5
    63ee:	419b      	sbcs	r3, r3
    63f0:	183f      	adds	r7, r7, r0
    63f2:	425b      	negs	r3, r3
    63f4:	19df      	adds	r7, r3, r7
    63f6:	023b      	lsls	r3, r7, #8
    63f8:	d400      	bmi.n	63fc <__aeabi_dsub+0x460>
    63fa:	e11a      	b.n	6632 <__aeabi_dsub+0x696>
    63fc:	4b90      	ldr	r3, [pc, #576]	; (6640 <__aeabi_dsub+0x6a4>)
    63fe:	000d      	movs	r5, r1
    6400:	401f      	ands	r7, r3
    6402:	4664      	mov	r4, ip
    6404:	e5f6      	b.n	5ff4 <__aeabi_dsub+0x58>
    6406:	469a      	mov	sl, r3
    6408:	e689      	b.n	611e <__aeabi_dsub+0x182>
    640a:	003a      	movs	r2, r7
    640c:	432a      	orrs	r2, r5
    640e:	2c00      	cmp	r4, #0
    6410:	d15c      	bne.n	64cc <__aeabi_dsub+0x530>
    6412:	2a00      	cmp	r2, #0
    6414:	d175      	bne.n	6502 <__aeabi_dsub+0x566>
    6416:	0002      	movs	r2, r0
    6418:	430a      	orrs	r2, r1
    641a:	d100      	bne.n	641e <__aeabi_dsub+0x482>
    641c:	e0ca      	b.n	65b4 <__aeabi_dsub+0x618>
    641e:	0007      	movs	r7, r0
    6420:	000d      	movs	r5, r1
    6422:	469a      	mov	sl, r3
    6424:	e5e6      	b.n	5ff4 <__aeabi_dsub+0x58>
    6426:	4664      	mov	r4, ip
    6428:	2200      	movs	r2, #0
    642a:	2500      	movs	r5, #0
    642c:	e681      	b.n	6132 <__aeabi_dsub+0x196>
    642e:	4662      	mov	r2, ip
    6430:	0006      	movs	r6, r0
    6432:	3a20      	subs	r2, #32
    6434:	40d6      	lsrs	r6, r2
    6436:	4662      	mov	r2, ip
    6438:	46b0      	mov	r8, r6
    643a:	2a20      	cmp	r2, #32
    643c:	d100      	bne.n	6440 <__aeabi_dsub+0x4a4>
    643e:	e0b7      	b.n	65b0 <__aeabi_dsub+0x614>
    6440:	2240      	movs	r2, #64	; 0x40
    6442:	4666      	mov	r6, ip
    6444:	1b92      	subs	r2, r2, r6
    6446:	4090      	lsls	r0, r2
    6448:	4301      	orrs	r1, r0
    644a:	4642      	mov	r2, r8
    644c:	1e48      	subs	r0, r1, #1
    644e:	4181      	sbcs	r1, r0
    6450:	4311      	orrs	r1, r2
    6452:	2200      	movs	r2, #0
    6454:	e68a      	b.n	616c <__aeabi_dsub+0x1d0>
    6456:	4c79      	ldr	r4, [pc, #484]	; (663c <__aeabi_dsub+0x6a0>)
    6458:	42a2      	cmp	r2, r4
    645a:	d000      	beq.n	645e <__aeabi_dsub+0x4c2>
    645c:	e761      	b.n	6322 <__aeabi_dsub+0x386>
    645e:	0007      	movs	r7, r0
    6460:	000d      	movs	r5, r1
    6462:	0014      	movs	r4, r2
    6464:	469a      	mov	sl, r3
    6466:	e5c5      	b.n	5ff4 <__aeabi_dsub+0x58>
    6468:	2c00      	cmp	r4, #0
    646a:	d141      	bne.n	64f0 <__aeabi_dsub+0x554>
    646c:	003c      	movs	r4, r7
    646e:	432c      	orrs	r4, r5
    6470:	d078      	beq.n	6564 <__aeabi_dsub+0x5c8>
    6472:	43f4      	mvns	r4, r6
    6474:	46a1      	mov	r9, r4
    6476:	2c00      	cmp	r4, #0
    6478:	d020      	beq.n	64bc <__aeabi_dsub+0x520>
    647a:	4c70      	ldr	r4, [pc, #448]	; (663c <__aeabi_dsub+0x6a0>)
    647c:	42a2      	cmp	r2, r4
    647e:	d071      	beq.n	6564 <__aeabi_dsub+0x5c8>
    6480:	464c      	mov	r4, r9
    6482:	2c38      	cmp	r4, #56	; 0x38
    6484:	dd00      	ble.n	6488 <__aeabi_dsub+0x4ec>
    6486:	e0b2      	b.n	65ee <__aeabi_dsub+0x652>
    6488:	2c1f      	cmp	r4, #31
    648a:	dd00      	ble.n	648e <__aeabi_dsub+0x4f2>
    648c:	e0bc      	b.n	6608 <__aeabi_dsub+0x66c>
    648e:	2620      	movs	r6, #32
    6490:	1b34      	subs	r4, r6, r4
    6492:	46a2      	mov	sl, r4
    6494:	003c      	movs	r4, r7
    6496:	4656      	mov	r6, sl
    6498:	40b4      	lsls	r4, r6
    649a:	464e      	mov	r6, r9
    649c:	46a0      	mov	r8, r4
    649e:	002c      	movs	r4, r5
    64a0:	40f4      	lsrs	r4, r6
    64a2:	46a4      	mov	ip, r4
    64a4:	4644      	mov	r4, r8
    64a6:	4666      	mov	r6, ip
    64a8:	4334      	orrs	r4, r6
    64aa:	46a4      	mov	ip, r4
    64ac:	4654      	mov	r4, sl
    64ae:	40a5      	lsls	r5, r4
    64b0:	4664      	mov	r4, ip
    64b2:	1e6e      	subs	r6, r5, #1
    64b4:	41b5      	sbcs	r5, r6
    64b6:	4325      	orrs	r5, r4
    64b8:	464c      	mov	r4, r9
    64ba:	40e7      	lsrs	r7, r4
    64bc:	186d      	adds	r5, r5, r1
    64be:	428d      	cmp	r5, r1
    64c0:	4189      	sbcs	r1, r1
    64c2:	183f      	adds	r7, r7, r0
    64c4:	4249      	negs	r1, r1
    64c6:	19cf      	adds	r7, r1, r7
    64c8:	0014      	movs	r4, r2
    64ca:	e656      	b.n	617a <__aeabi_dsub+0x1de>
    64cc:	2a00      	cmp	r2, #0
    64ce:	d12f      	bne.n	6530 <__aeabi_dsub+0x594>
    64d0:	0002      	movs	r2, r0
    64d2:	430a      	orrs	r2, r1
    64d4:	d100      	bne.n	64d8 <__aeabi_dsub+0x53c>
    64d6:	e084      	b.n	65e2 <__aeabi_dsub+0x646>
    64d8:	0007      	movs	r7, r0
    64da:	000d      	movs	r5, r1
    64dc:	469a      	mov	sl, r3
    64de:	4c57      	ldr	r4, [pc, #348]	; (663c <__aeabi_dsub+0x6a0>)
    64e0:	e588      	b.n	5ff4 <__aeabi_dsub+0x58>
    64e2:	433d      	orrs	r5, r7
    64e4:	1e6f      	subs	r7, r5, #1
    64e6:	41bd      	sbcs	r5, r7
    64e8:	b2ec      	uxtb	r4, r5
    64ea:	2700      	movs	r7, #0
    64ec:	1b0d      	subs	r5, r1, r4
    64ee:	e760      	b.n	63b2 <__aeabi_dsub+0x416>
    64f0:	4c52      	ldr	r4, [pc, #328]	; (663c <__aeabi_dsub+0x6a0>)
    64f2:	42a2      	cmp	r2, r4
    64f4:	d036      	beq.n	6564 <__aeabi_dsub+0x5c8>
    64f6:	4274      	negs	r4, r6
    64f8:	2680      	movs	r6, #128	; 0x80
    64fa:	0436      	lsls	r6, r6, #16
    64fc:	46a1      	mov	r9, r4
    64fe:	4337      	orrs	r7, r6
    6500:	e7be      	b.n	6480 <__aeabi_dsub+0x4e4>
    6502:	0002      	movs	r2, r0
    6504:	430a      	orrs	r2, r1
    6506:	d100      	bne.n	650a <__aeabi_dsub+0x56e>
    6508:	e574      	b.n	5ff4 <__aeabi_dsub+0x58>
    650a:	1a6a      	subs	r2, r5, r1
    650c:	4690      	mov	r8, r2
    650e:	4545      	cmp	r5, r8
    6510:	41b6      	sbcs	r6, r6
    6512:	1a3a      	subs	r2, r7, r0
    6514:	4276      	negs	r6, r6
    6516:	1b92      	subs	r2, r2, r6
    6518:	4694      	mov	ip, r2
    651a:	0212      	lsls	r2, r2, #8
    651c:	d400      	bmi.n	6520 <__aeabi_dsub+0x584>
    651e:	e5f7      	b.n	6110 <__aeabi_dsub+0x174>
    6520:	1b4d      	subs	r5, r1, r5
    6522:	42a9      	cmp	r1, r5
    6524:	4189      	sbcs	r1, r1
    6526:	1bc7      	subs	r7, r0, r7
    6528:	4249      	negs	r1, r1
    652a:	1a7f      	subs	r7, r7, r1
    652c:	469a      	mov	sl, r3
    652e:	e561      	b.n	5ff4 <__aeabi_dsub+0x58>
    6530:	0002      	movs	r2, r0
    6532:	430a      	orrs	r2, r1
    6534:	d03a      	beq.n	65ac <__aeabi_dsub+0x610>
    6536:	08ed      	lsrs	r5, r5, #3
    6538:	077c      	lsls	r4, r7, #29
    653a:	432c      	orrs	r4, r5
    653c:	2580      	movs	r5, #128	; 0x80
    653e:	08fa      	lsrs	r2, r7, #3
    6540:	032d      	lsls	r5, r5, #12
    6542:	422a      	tst	r2, r5
    6544:	d008      	beq.n	6558 <__aeabi_dsub+0x5bc>
    6546:	08c7      	lsrs	r7, r0, #3
    6548:	422f      	tst	r7, r5
    654a:	d105      	bne.n	6558 <__aeabi_dsub+0x5bc>
    654c:	0745      	lsls	r5, r0, #29
    654e:	002c      	movs	r4, r5
    6550:	003a      	movs	r2, r7
    6552:	469a      	mov	sl, r3
    6554:	08c9      	lsrs	r1, r1, #3
    6556:	430c      	orrs	r4, r1
    6558:	0f67      	lsrs	r7, r4, #29
    655a:	00d2      	lsls	r2, r2, #3
    655c:	00e5      	lsls	r5, r4, #3
    655e:	4317      	orrs	r7, r2
    6560:	4c36      	ldr	r4, [pc, #216]	; (663c <__aeabi_dsub+0x6a0>)
    6562:	e547      	b.n	5ff4 <__aeabi_dsub+0x58>
    6564:	0007      	movs	r7, r0
    6566:	000d      	movs	r5, r1
    6568:	0014      	movs	r4, r2
    656a:	e543      	b.n	5ff4 <__aeabi_dsub+0x58>
    656c:	003a      	movs	r2, r7
    656e:	432a      	orrs	r2, r5
    6570:	d043      	beq.n	65fa <__aeabi_dsub+0x65e>
    6572:	0002      	movs	r2, r0
    6574:	430a      	orrs	r2, r1
    6576:	d019      	beq.n	65ac <__aeabi_dsub+0x610>
    6578:	08ed      	lsrs	r5, r5, #3
    657a:	077c      	lsls	r4, r7, #29
    657c:	432c      	orrs	r4, r5
    657e:	2580      	movs	r5, #128	; 0x80
    6580:	08fa      	lsrs	r2, r7, #3
    6582:	032d      	lsls	r5, r5, #12
    6584:	422a      	tst	r2, r5
    6586:	d007      	beq.n	6598 <__aeabi_dsub+0x5fc>
    6588:	08c6      	lsrs	r6, r0, #3
    658a:	422e      	tst	r6, r5
    658c:	d104      	bne.n	6598 <__aeabi_dsub+0x5fc>
    658e:	0747      	lsls	r7, r0, #29
    6590:	003c      	movs	r4, r7
    6592:	0032      	movs	r2, r6
    6594:	08c9      	lsrs	r1, r1, #3
    6596:	430c      	orrs	r4, r1
    6598:	00d7      	lsls	r7, r2, #3
    659a:	0f62      	lsrs	r2, r4, #29
    659c:	00e5      	lsls	r5, r4, #3
    659e:	4317      	orrs	r7, r2
    65a0:	469a      	mov	sl, r3
    65a2:	4c26      	ldr	r4, [pc, #152]	; (663c <__aeabi_dsub+0x6a0>)
    65a4:	e526      	b.n	5ff4 <__aeabi_dsub+0x58>
    65a6:	2200      	movs	r2, #0
    65a8:	2500      	movs	r5, #0
    65aa:	e544      	b.n	6036 <__aeabi_dsub+0x9a>
    65ac:	4c23      	ldr	r4, [pc, #140]	; (663c <__aeabi_dsub+0x6a0>)
    65ae:	e521      	b.n	5ff4 <__aeabi_dsub+0x58>
    65b0:	2000      	movs	r0, #0
    65b2:	e749      	b.n	6448 <__aeabi_dsub+0x4ac>
    65b4:	2300      	movs	r3, #0
    65b6:	2500      	movs	r5, #0
    65b8:	e5bb      	b.n	6132 <__aeabi_dsub+0x196>
    65ba:	464c      	mov	r4, r9
    65bc:	003e      	movs	r6, r7
    65be:	3c20      	subs	r4, #32
    65c0:	40e6      	lsrs	r6, r4
    65c2:	464c      	mov	r4, r9
    65c4:	46b4      	mov	ip, r6
    65c6:	2c20      	cmp	r4, #32
    65c8:	d031      	beq.n	662e <__aeabi_dsub+0x692>
    65ca:	2440      	movs	r4, #64	; 0x40
    65cc:	464e      	mov	r6, r9
    65ce:	1ba6      	subs	r6, r4, r6
    65d0:	40b7      	lsls	r7, r6
    65d2:	433d      	orrs	r5, r7
    65d4:	1e6c      	subs	r4, r5, #1
    65d6:	41a5      	sbcs	r5, r4
    65d8:	4664      	mov	r4, ip
    65da:	432c      	orrs	r4, r5
    65dc:	2700      	movs	r7, #0
    65de:	1b0d      	subs	r5, r1, r4
    65e0:	e6e7      	b.n	63b2 <__aeabi_dsub+0x416>
    65e2:	2280      	movs	r2, #128	; 0x80
    65e4:	2300      	movs	r3, #0
    65e6:	0312      	lsls	r2, r2, #12
    65e8:	4c14      	ldr	r4, [pc, #80]	; (663c <__aeabi_dsub+0x6a0>)
    65ea:	2500      	movs	r5, #0
    65ec:	e5a1      	b.n	6132 <__aeabi_dsub+0x196>
    65ee:	433d      	orrs	r5, r7
    65f0:	1e6f      	subs	r7, r5, #1
    65f2:	41bd      	sbcs	r5, r7
    65f4:	2700      	movs	r7, #0
    65f6:	b2ed      	uxtb	r5, r5
    65f8:	e760      	b.n	64bc <__aeabi_dsub+0x520>
    65fa:	0007      	movs	r7, r0
    65fc:	000d      	movs	r5, r1
    65fe:	4c0f      	ldr	r4, [pc, #60]	; (663c <__aeabi_dsub+0x6a0>)
    6600:	e4f8      	b.n	5ff4 <__aeabi_dsub+0x58>
    6602:	0007      	movs	r7, r0
    6604:	000d      	movs	r5, r1
    6606:	e4f5      	b.n	5ff4 <__aeabi_dsub+0x58>
    6608:	464e      	mov	r6, r9
    660a:	003c      	movs	r4, r7
    660c:	3e20      	subs	r6, #32
    660e:	40f4      	lsrs	r4, r6
    6610:	46a0      	mov	r8, r4
    6612:	464c      	mov	r4, r9
    6614:	2c20      	cmp	r4, #32
    6616:	d00e      	beq.n	6636 <__aeabi_dsub+0x69a>
    6618:	2440      	movs	r4, #64	; 0x40
    661a:	464e      	mov	r6, r9
    661c:	1ba4      	subs	r4, r4, r6
    661e:	40a7      	lsls	r7, r4
    6620:	433d      	orrs	r5, r7
    6622:	1e6f      	subs	r7, r5, #1
    6624:	41bd      	sbcs	r5, r7
    6626:	4644      	mov	r4, r8
    6628:	2700      	movs	r7, #0
    662a:	4325      	orrs	r5, r4
    662c:	e746      	b.n	64bc <__aeabi_dsub+0x520>
    662e:	2700      	movs	r7, #0
    6630:	e7cf      	b.n	65d2 <__aeabi_dsub+0x636>
    6632:	000d      	movs	r5, r1
    6634:	e573      	b.n	611e <__aeabi_dsub+0x182>
    6636:	2700      	movs	r7, #0
    6638:	e7f2      	b.n	6620 <__aeabi_dsub+0x684>
    663a:	46c0      	nop			; (mov r8, r8)
    663c:	000007ff 	.word	0x000007ff
    6640:	ff7fffff 	.word	0xff7fffff

00006644 <__aeabi_dcmpun>:
    6644:	b570      	push	{r4, r5, r6, lr}
    6646:	4e0e      	ldr	r6, [pc, #56]	; (6680 <__aeabi_dcmpun+0x3c>)
    6648:	030c      	lsls	r4, r1, #12
    664a:	031d      	lsls	r5, r3, #12
    664c:	0049      	lsls	r1, r1, #1
    664e:	005b      	lsls	r3, r3, #1
    6650:	0b24      	lsrs	r4, r4, #12
    6652:	0d49      	lsrs	r1, r1, #21
    6654:	0b2d      	lsrs	r5, r5, #12
    6656:	0d5b      	lsrs	r3, r3, #21
    6658:	42b1      	cmp	r1, r6
    665a:	d004      	beq.n	6666 <__aeabi_dcmpun+0x22>
    665c:	4908      	ldr	r1, [pc, #32]	; (6680 <__aeabi_dcmpun+0x3c>)
    665e:	2000      	movs	r0, #0
    6660:	428b      	cmp	r3, r1
    6662:	d008      	beq.n	6676 <__aeabi_dcmpun+0x32>
    6664:	bd70      	pop	{r4, r5, r6, pc}
    6666:	4304      	orrs	r4, r0
    6668:	2001      	movs	r0, #1
    666a:	2c00      	cmp	r4, #0
    666c:	d1fa      	bne.n	6664 <__aeabi_dcmpun+0x20>
    666e:	4904      	ldr	r1, [pc, #16]	; (6680 <__aeabi_dcmpun+0x3c>)
    6670:	2000      	movs	r0, #0
    6672:	428b      	cmp	r3, r1
    6674:	d1f6      	bne.n	6664 <__aeabi_dcmpun+0x20>
    6676:	4315      	orrs	r5, r2
    6678:	0028      	movs	r0, r5
    667a:	1e45      	subs	r5, r0, #1
    667c:	41a8      	sbcs	r0, r5
    667e:	e7f1      	b.n	6664 <__aeabi_dcmpun+0x20>
    6680:	000007ff 	.word	0x000007ff

00006684 <__aeabi_d2iz>:
    6684:	030b      	lsls	r3, r1, #12
    6686:	b530      	push	{r4, r5, lr}
    6688:	4d13      	ldr	r5, [pc, #76]	; (66d8 <__aeabi_d2iz+0x54>)
    668a:	0b1a      	lsrs	r2, r3, #12
    668c:	004b      	lsls	r3, r1, #1
    668e:	0d5b      	lsrs	r3, r3, #21
    6690:	0fc9      	lsrs	r1, r1, #31
    6692:	2400      	movs	r4, #0
    6694:	42ab      	cmp	r3, r5
    6696:	dd11      	ble.n	66bc <__aeabi_d2iz+0x38>
    6698:	4c10      	ldr	r4, [pc, #64]	; (66dc <__aeabi_d2iz+0x58>)
    669a:	42a3      	cmp	r3, r4
    669c:	dc10      	bgt.n	66c0 <__aeabi_d2iz+0x3c>
    669e:	2480      	movs	r4, #128	; 0x80
    66a0:	0364      	lsls	r4, r4, #13
    66a2:	4322      	orrs	r2, r4
    66a4:	4c0e      	ldr	r4, [pc, #56]	; (66e0 <__aeabi_d2iz+0x5c>)
    66a6:	1ae4      	subs	r4, r4, r3
    66a8:	2c1f      	cmp	r4, #31
    66aa:	dd0c      	ble.n	66c6 <__aeabi_d2iz+0x42>
    66ac:	480d      	ldr	r0, [pc, #52]	; (66e4 <__aeabi_d2iz+0x60>)
    66ae:	1ac3      	subs	r3, r0, r3
    66b0:	40da      	lsrs	r2, r3
    66b2:	0013      	movs	r3, r2
    66b4:	425c      	negs	r4, r3
    66b6:	2900      	cmp	r1, #0
    66b8:	d100      	bne.n	66bc <__aeabi_d2iz+0x38>
    66ba:	001c      	movs	r4, r3
    66bc:	0020      	movs	r0, r4
    66be:	bd30      	pop	{r4, r5, pc}
    66c0:	4b09      	ldr	r3, [pc, #36]	; (66e8 <__aeabi_d2iz+0x64>)
    66c2:	18cc      	adds	r4, r1, r3
    66c4:	e7fa      	b.n	66bc <__aeabi_d2iz+0x38>
    66c6:	40e0      	lsrs	r0, r4
    66c8:	4c08      	ldr	r4, [pc, #32]	; (66ec <__aeabi_d2iz+0x68>)
    66ca:	46a4      	mov	ip, r4
    66cc:	4463      	add	r3, ip
    66ce:	409a      	lsls	r2, r3
    66d0:	0013      	movs	r3, r2
    66d2:	4303      	orrs	r3, r0
    66d4:	e7ee      	b.n	66b4 <__aeabi_d2iz+0x30>
    66d6:	46c0      	nop			; (mov r8, r8)
    66d8:	000003fe 	.word	0x000003fe
    66dc:	0000041d 	.word	0x0000041d
    66e0:	00000433 	.word	0x00000433
    66e4:	00000413 	.word	0x00000413
    66e8:	7fffffff 	.word	0x7fffffff
    66ec:	fffffbed 	.word	0xfffffbed

000066f0 <__aeabi_i2d>:
    66f0:	b570      	push	{r4, r5, r6, lr}
    66f2:	2800      	cmp	r0, #0
    66f4:	d030      	beq.n	6758 <__aeabi_i2d+0x68>
    66f6:	17c3      	asrs	r3, r0, #31
    66f8:	18c4      	adds	r4, r0, r3
    66fa:	405c      	eors	r4, r3
    66fc:	0fc5      	lsrs	r5, r0, #31
    66fe:	0020      	movs	r0, r4
    6700:	f000 f918 	bl	6934 <__clzsi2>
    6704:	4b17      	ldr	r3, [pc, #92]	; (6764 <__aeabi_i2d+0x74>)
    6706:	4a18      	ldr	r2, [pc, #96]	; (6768 <__aeabi_i2d+0x78>)
    6708:	1a1b      	subs	r3, r3, r0
    670a:	1ad2      	subs	r2, r2, r3
    670c:	2a1f      	cmp	r2, #31
    670e:	dd18      	ble.n	6742 <__aeabi_i2d+0x52>
    6710:	4a16      	ldr	r2, [pc, #88]	; (676c <__aeabi_i2d+0x7c>)
    6712:	1ad2      	subs	r2, r2, r3
    6714:	4094      	lsls	r4, r2
    6716:	2200      	movs	r2, #0
    6718:	0324      	lsls	r4, r4, #12
    671a:	055b      	lsls	r3, r3, #21
    671c:	0b24      	lsrs	r4, r4, #12
    671e:	0d5b      	lsrs	r3, r3, #21
    6720:	2100      	movs	r1, #0
    6722:	0010      	movs	r0, r2
    6724:	0324      	lsls	r4, r4, #12
    6726:	0d0a      	lsrs	r2, r1, #20
    6728:	0512      	lsls	r2, r2, #20
    672a:	0b24      	lsrs	r4, r4, #12
    672c:	4314      	orrs	r4, r2
    672e:	4a10      	ldr	r2, [pc, #64]	; (6770 <__aeabi_i2d+0x80>)
    6730:	051b      	lsls	r3, r3, #20
    6732:	4014      	ands	r4, r2
    6734:	431c      	orrs	r4, r3
    6736:	0064      	lsls	r4, r4, #1
    6738:	07ed      	lsls	r5, r5, #31
    673a:	0864      	lsrs	r4, r4, #1
    673c:	432c      	orrs	r4, r5
    673e:	0021      	movs	r1, r4
    6740:	bd70      	pop	{r4, r5, r6, pc}
    6742:	0021      	movs	r1, r4
    6744:	4091      	lsls	r1, r2
    6746:	000a      	movs	r2, r1
    6748:	210b      	movs	r1, #11
    674a:	1a08      	subs	r0, r1, r0
    674c:	40c4      	lsrs	r4, r0
    674e:	055b      	lsls	r3, r3, #21
    6750:	0324      	lsls	r4, r4, #12
    6752:	0b24      	lsrs	r4, r4, #12
    6754:	0d5b      	lsrs	r3, r3, #21
    6756:	e7e3      	b.n	6720 <__aeabi_i2d+0x30>
    6758:	2500      	movs	r5, #0
    675a:	2300      	movs	r3, #0
    675c:	2400      	movs	r4, #0
    675e:	2200      	movs	r2, #0
    6760:	e7de      	b.n	6720 <__aeabi_i2d+0x30>
    6762:	46c0      	nop			; (mov r8, r8)
    6764:	0000041e 	.word	0x0000041e
    6768:	00000433 	.word	0x00000433
    676c:	00000413 	.word	0x00000413
    6770:	800fffff 	.word	0x800fffff

00006774 <__aeabi_f2d>:
    6774:	0042      	lsls	r2, r0, #1
    6776:	0e12      	lsrs	r2, r2, #24
    6778:	1c51      	adds	r1, r2, #1
    677a:	0243      	lsls	r3, r0, #9
    677c:	b2c9      	uxtb	r1, r1
    677e:	b570      	push	{r4, r5, r6, lr}
    6780:	0a5d      	lsrs	r5, r3, #9
    6782:	0fc4      	lsrs	r4, r0, #31
    6784:	2901      	cmp	r1, #1
    6786:	dd15      	ble.n	67b4 <__aeabi_f2d+0x40>
    6788:	21e0      	movs	r1, #224	; 0xe0
    678a:	0089      	lsls	r1, r1, #2
    678c:	468c      	mov	ip, r1
    678e:	076d      	lsls	r5, r5, #29
    6790:	0b1b      	lsrs	r3, r3, #12
    6792:	4462      	add	r2, ip
    6794:	2100      	movs	r1, #0
    6796:	0028      	movs	r0, r5
    6798:	0d0d      	lsrs	r5, r1, #20
    679a:	052d      	lsls	r5, r5, #20
    679c:	432b      	orrs	r3, r5
    679e:	4d1c      	ldr	r5, [pc, #112]	; (6810 <__aeabi_f2d+0x9c>)
    67a0:	0552      	lsls	r2, r2, #21
    67a2:	402b      	ands	r3, r5
    67a4:	0852      	lsrs	r2, r2, #1
    67a6:	4313      	orrs	r3, r2
    67a8:	005b      	lsls	r3, r3, #1
    67aa:	07e4      	lsls	r4, r4, #31
    67ac:	085b      	lsrs	r3, r3, #1
    67ae:	4323      	orrs	r3, r4
    67b0:	0019      	movs	r1, r3
    67b2:	bd70      	pop	{r4, r5, r6, pc}
    67b4:	2a00      	cmp	r2, #0
    67b6:	d115      	bne.n	67e4 <__aeabi_f2d+0x70>
    67b8:	2d00      	cmp	r5, #0
    67ba:	d01f      	beq.n	67fc <__aeabi_f2d+0x88>
    67bc:	0028      	movs	r0, r5
    67be:	f000 f8b9 	bl	6934 <__clzsi2>
    67c2:	280a      	cmp	r0, #10
    67c4:	dc1d      	bgt.n	6802 <__aeabi_f2d+0x8e>
    67c6:	230b      	movs	r3, #11
    67c8:	002a      	movs	r2, r5
    67ca:	1a1b      	subs	r3, r3, r0
    67cc:	40da      	lsrs	r2, r3
    67ce:	0013      	movs	r3, r2
    67d0:	0002      	movs	r2, r0
    67d2:	3215      	adds	r2, #21
    67d4:	4095      	lsls	r5, r2
    67d6:	4a0f      	ldr	r2, [pc, #60]	; (6814 <__aeabi_f2d+0xa0>)
    67d8:	031b      	lsls	r3, r3, #12
    67da:	1a12      	subs	r2, r2, r0
    67dc:	0552      	lsls	r2, r2, #21
    67de:	0b1b      	lsrs	r3, r3, #12
    67e0:	0d52      	lsrs	r2, r2, #21
    67e2:	e7d7      	b.n	6794 <__aeabi_f2d+0x20>
    67e4:	2d00      	cmp	r5, #0
    67e6:	d006      	beq.n	67f6 <__aeabi_f2d+0x82>
    67e8:	2280      	movs	r2, #128	; 0x80
    67ea:	0b1b      	lsrs	r3, r3, #12
    67ec:	0312      	lsls	r2, r2, #12
    67ee:	4313      	orrs	r3, r2
    67f0:	076d      	lsls	r5, r5, #29
    67f2:	4a09      	ldr	r2, [pc, #36]	; (6818 <__aeabi_f2d+0xa4>)
    67f4:	e7ce      	b.n	6794 <__aeabi_f2d+0x20>
    67f6:	4a08      	ldr	r2, [pc, #32]	; (6818 <__aeabi_f2d+0xa4>)
    67f8:	2300      	movs	r3, #0
    67fa:	e7cb      	b.n	6794 <__aeabi_f2d+0x20>
    67fc:	2200      	movs	r2, #0
    67fe:	2300      	movs	r3, #0
    6800:	e7c8      	b.n	6794 <__aeabi_f2d+0x20>
    6802:	0003      	movs	r3, r0
    6804:	3b0b      	subs	r3, #11
    6806:	409d      	lsls	r5, r3
    6808:	002b      	movs	r3, r5
    680a:	2500      	movs	r5, #0
    680c:	e7e3      	b.n	67d6 <__aeabi_f2d+0x62>
    680e:	46c0      	nop			; (mov r8, r8)
    6810:	800fffff 	.word	0x800fffff
    6814:	00000389 	.word	0x00000389
    6818:	000007ff 	.word	0x000007ff

0000681c <__aeabi_d2f>:
    681c:	004b      	lsls	r3, r1, #1
    681e:	b570      	push	{r4, r5, r6, lr}
    6820:	0d5e      	lsrs	r6, r3, #21
    6822:	030c      	lsls	r4, r1, #12
    6824:	1c75      	adds	r5, r6, #1
    6826:	0a64      	lsrs	r4, r4, #9
    6828:	0f42      	lsrs	r2, r0, #29
    682a:	056d      	lsls	r5, r5, #21
    682c:	4322      	orrs	r2, r4
    682e:	0fc9      	lsrs	r1, r1, #31
    6830:	00c4      	lsls	r4, r0, #3
    6832:	0d6d      	lsrs	r5, r5, #21
    6834:	2d01      	cmp	r5, #1
    6836:	dd2a      	ble.n	688e <__aeabi_d2f+0x72>
    6838:	4b3b      	ldr	r3, [pc, #236]	; (6928 <__aeabi_d2f+0x10c>)
    683a:	18f3      	adds	r3, r6, r3
    683c:	2bfe      	cmp	r3, #254	; 0xfe
    683e:	dc1a      	bgt.n	6876 <__aeabi_d2f+0x5a>
    6840:	2b00      	cmp	r3, #0
    6842:	dd42      	ble.n	68ca <__aeabi_d2f+0xae>
    6844:	0180      	lsls	r0, r0, #6
    6846:	1e45      	subs	r5, r0, #1
    6848:	41a8      	sbcs	r0, r5
    684a:	00d2      	lsls	r2, r2, #3
    684c:	4310      	orrs	r0, r2
    684e:	0f62      	lsrs	r2, r4, #29
    6850:	4302      	orrs	r2, r0
    6852:	0750      	lsls	r0, r2, #29
    6854:	d004      	beq.n	6860 <__aeabi_d2f+0x44>
    6856:	200f      	movs	r0, #15
    6858:	4010      	ands	r0, r2
    685a:	2804      	cmp	r0, #4
    685c:	d000      	beq.n	6860 <__aeabi_d2f+0x44>
    685e:	3204      	adds	r2, #4
    6860:	2080      	movs	r0, #128	; 0x80
    6862:	04c0      	lsls	r0, r0, #19
    6864:	4010      	ands	r0, r2
    6866:	d021      	beq.n	68ac <__aeabi_d2f+0x90>
    6868:	3301      	adds	r3, #1
    686a:	2bff      	cmp	r3, #255	; 0xff
    686c:	d003      	beq.n	6876 <__aeabi_d2f+0x5a>
    686e:	0192      	lsls	r2, r2, #6
    6870:	0a52      	lsrs	r2, r2, #9
    6872:	b2db      	uxtb	r3, r3
    6874:	e001      	b.n	687a <__aeabi_d2f+0x5e>
    6876:	23ff      	movs	r3, #255	; 0xff
    6878:	2200      	movs	r2, #0
    687a:	0252      	lsls	r2, r2, #9
    687c:	0a52      	lsrs	r2, r2, #9
    687e:	05db      	lsls	r3, r3, #23
    6880:	4313      	orrs	r3, r2
    6882:	005b      	lsls	r3, r3, #1
    6884:	07c9      	lsls	r1, r1, #31
    6886:	085b      	lsrs	r3, r3, #1
    6888:	430b      	orrs	r3, r1
    688a:	0018      	movs	r0, r3
    688c:	bd70      	pop	{r4, r5, r6, pc}
    688e:	2e00      	cmp	r6, #0
    6890:	d007      	beq.n	68a2 <__aeabi_d2f+0x86>
    6892:	4314      	orrs	r4, r2
    6894:	d0ef      	beq.n	6876 <__aeabi_d2f+0x5a>
    6896:	2080      	movs	r0, #128	; 0x80
    6898:	00d2      	lsls	r2, r2, #3
    689a:	0480      	lsls	r0, r0, #18
    689c:	4302      	orrs	r2, r0
    689e:	23ff      	movs	r3, #255	; 0xff
    68a0:	e7d7      	b.n	6852 <__aeabi_d2f+0x36>
    68a2:	4322      	orrs	r2, r4
    68a4:	2300      	movs	r3, #0
    68a6:	2a00      	cmp	r2, #0
    68a8:	d003      	beq.n	68b2 <__aeabi_d2f+0x96>
    68aa:	2205      	movs	r2, #5
    68ac:	08d2      	lsrs	r2, r2, #3
    68ae:	2bff      	cmp	r3, #255	; 0xff
    68b0:	d003      	beq.n	68ba <__aeabi_d2f+0x9e>
    68b2:	0252      	lsls	r2, r2, #9
    68b4:	0a52      	lsrs	r2, r2, #9
    68b6:	b2db      	uxtb	r3, r3
    68b8:	e7df      	b.n	687a <__aeabi_d2f+0x5e>
    68ba:	2a00      	cmp	r2, #0
    68bc:	d032      	beq.n	6924 <__aeabi_d2f+0x108>
    68be:	2080      	movs	r0, #128	; 0x80
    68c0:	03c0      	lsls	r0, r0, #15
    68c2:	4302      	orrs	r2, r0
    68c4:	0252      	lsls	r2, r2, #9
    68c6:	0a52      	lsrs	r2, r2, #9
    68c8:	e7d7      	b.n	687a <__aeabi_d2f+0x5e>
    68ca:	0018      	movs	r0, r3
    68cc:	3017      	adds	r0, #23
    68ce:	db14      	blt.n	68fa <__aeabi_d2f+0xde>
    68d0:	2080      	movs	r0, #128	; 0x80
    68d2:	0400      	lsls	r0, r0, #16
    68d4:	4302      	orrs	r2, r0
    68d6:	201e      	movs	r0, #30
    68d8:	1ac0      	subs	r0, r0, r3
    68da:	281f      	cmp	r0, #31
    68dc:	dc0f      	bgt.n	68fe <__aeabi_d2f+0xe2>
    68de:	0025      	movs	r5, r4
    68e0:	4b12      	ldr	r3, [pc, #72]	; (692c <__aeabi_d2f+0x110>)
    68e2:	18f3      	adds	r3, r6, r3
    68e4:	409d      	lsls	r5, r3
    68e6:	1e6e      	subs	r6, r5, #1
    68e8:	41b5      	sbcs	r5, r6
    68ea:	409a      	lsls	r2, r3
    68ec:	002b      	movs	r3, r5
    68ee:	4313      	orrs	r3, r2
    68f0:	0022      	movs	r2, r4
    68f2:	40c2      	lsrs	r2, r0
    68f4:	431a      	orrs	r2, r3
    68f6:	2300      	movs	r3, #0
    68f8:	e7ab      	b.n	6852 <__aeabi_d2f+0x36>
    68fa:	2300      	movs	r3, #0
    68fc:	e7d5      	b.n	68aa <__aeabi_d2f+0x8e>
    68fe:	2502      	movs	r5, #2
    6900:	426d      	negs	r5, r5
    6902:	1aeb      	subs	r3, r5, r3
    6904:	0015      	movs	r5, r2
    6906:	40dd      	lsrs	r5, r3
    6908:	2820      	cmp	r0, #32
    690a:	d009      	beq.n	6920 <__aeabi_d2f+0x104>
    690c:	4b08      	ldr	r3, [pc, #32]	; (6930 <__aeabi_d2f+0x114>)
    690e:	18f3      	adds	r3, r6, r3
    6910:	409a      	lsls	r2, r3
    6912:	4314      	orrs	r4, r2
    6914:	1e62      	subs	r2, r4, #1
    6916:	4194      	sbcs	r4, r2
    6918:	0022      	movs	r2, r4
    691a:	2300      	movs	r3, #0
    691c:	432a      	orrs	r2, r5
    691e:	e798      	b.n	6852 <__aeabi_d2f+0x36>
    6920:	2200      	movs	r2, #0
    6922:	e7f6      	b.n	6912 <__aeabi_d2f+0xf6>
    6924:	2200      	movs	r2, #0
    6926:	e7a8      	b.n	687a <__aeabi_d2f+0x5e>
    6928:	fffffc80 	.word	0xfffffc80
    692c:	fffffc82 	.word	0xfffffc82
    6930:	fffffca2 	.word	0xfffffca2

00006934 <__clzsi2>:
    6934:	211c      	movs	r1, #28
    6936:	2301      	movs	r3, #1
    6938:	041b      	lsls	r3, r3, #16
    693a:	4298      	cmp	r0, r3
    693c:	d301      	bcc.n	6942 <__clzsi2+0xe>
    693e:	0c00      	lsrs	r0, r0, #16
    6940:	3910      	subs	r1, #16
    6942:	0a1b      	lsrs	r3, r3, #8
    6944:	4298      	cmp	r0, r3
    6946:	d301      	bcc.n	694c <__clzsi2+0x18>
    6948:	0a00      	lsrs	r0, r0, #8
    694a:	3908      	subs	r1, #8
    694c:	091b      	lsrs	r3, r3, #4
    694e:	4298      	cmp	r0, r3
    6950:	d301      	bcc.n	6956 <__clzsi2+0x22>
    6952:	0900      	lsrs	r0, r0, #4
    6954:	3904      	subs	r1, #4
    6956:	a202      	add	r2, pc, #8	; (adr r2, 6960 <__clzsi2+0x2c>)
    6958:	5c10      	ldrb	r0, [r2, r0]
    695a:	1840      	adds	r0, r0, r1
    695c:	4770      	bx	lr
    695e:	46c0      	nop			; (mov r8, r8)
    6960:	02020304 	.word	0x02020304
    6964:	01010101 	.word	0x01010101
	...

00006970 <__errno>:
    6970:	4b01      	ldr	r3, [pc, #4]	; (6978 <__errno+0x8>)
    6972:	6818      	ldr	r0, [r3, #0]
    6974:	4770      	bx	lr
    6976:	46c0      	nop			; (mov r8, r8)
    6978:	20000450 	.word	0x20000450

0000697c <__libc_init_array>:
    697c:	b570      	push	{r4, r5, r6, lr}
    697e:	4e0d      	ldr	r6, [pc, #52]	; (69b4 <__libc_init_array+0x38>)
    6980:	4d0d      	ldr	r5, [pc, #52]	; (69b8 <__libc_init_array+0x3c>)
    6982:	2400      	movs	r4, #0
    6984:	1bad      	subs	r5, r5, r6
    6986:	10ad      	asrs	r5, r5, #2
    6988:	d005      	beq.n	6996 <__libc_init_array+0x1a>
    698a:	00a3      	lsls	r3, r4, #2
    698c:	58f3      	ldr	r3, [r6, r3]
    698e:	3401      	adds	r4, #1
    6990:	4798      	blx	r3
    6992:	42a5      	cmp	r5, r4
    6994:	d1f9      	bne.n	698a <__libc_init_array+0xe>
    6996:	f005 fbbd 	bl	c114 <_init>
    699a:	4e08      	ldr	r6, [pc, #32]	; (69bc <__libc_init_array+0x40>)
    699c:	4d08      	ldr	r5, [pc, #32]	; (69c0 <__libc_init_array+0x44>)
    699e:	2400      	movs	r4, #0
    69a0:	1bad      	subs	r5, r5, r6
    69a2:	10ad      	asrs	r5, r5, #2
    69a4:	d005      	beq.n	69b2 <__libc_init_array+0x36>
    69a6:	00a3      	lsls	r3, r4, #2
    69a8:	58f3      	ldr	r3, [r6, r3]
    69aa:	3401      	adds	r4, #1
    69ac:	4798      	blx	r3
    69ae:	42a5      	cmp	r5, r4
    69b0:	d1f9      	bne.n	69a6 <__libc_init_array+0x2a>
    69b2:	bd70      	pop	{r4, r5, r6, pc}
    69b4:	0000c120 	.word	0x0000c120
    69b8:	0000c120 	.word	0x0000c120
    69bc:	0000c120 	.word	0x0000c120
    69c0:	0000c128 	.word	0x0000c128

000069c4 <memcpy>:
    69c4:	b570      	push	{r4, r5, r6, lr}
    69c6:	2a0f      	cmp	r2, #15
    69c8:	d932      	bls.n	6a30 <memcpy+0x6c>
    69ca:	000c      	movs	r4, r1
    69cc:	4304      	orrs	r4, r0
    69ce:	000b      	movs	r3, r1
    69d0:	07a4      	lsls	r4, r4, #30
    69d2:	d131      	bne.n	6a38 <memcpy+0x74>
    69d4:	0015      	movs	r5, r2
    69d6:	0004      	movs	r4, r0
    69d8:	3d10      	subs	r5, #16
    69da:	092d      	lsrs	r5, r5, #4
    69dc:	3501      	adds	r5, #1
    69de:	012d      	lsls	r5, r5, #4
    69e0:	1949      	adds	r1, r1, r5
    69e2:	681e      	ldr	r6, [r3, #0]
    69e4:	6026      	str	r6, [r4, #0]
    69e6:	685e      	ldr	r6, [r3, #4]
    69e8:	6066      	str	r6, [r4, #4]
    69ea:	689e      	ldr	r6, [r3, #8]
    69ec:	60a6      	str	r6, [r4, #8]
    69ee:	68de      	ldr	r6, [r3, #12]
    69f0:	3310      	adds	r3, #16
    69f2:	60e6      	str	r6, [r4, #12]
    69f4:	3410      	adds	r4, #16
    69f6:	4299      	cmp	r1, r3
    69f8:	d1f3      	bne.n	69e2 <memcpy+0x1e>
    69fa:	230f      	movs	r3, #15
    69fc:	1945      	adds	r5, r0, r5
    69fe:	4013      	ands	r3, r2
    6a00:	2b03      	cmp	r3, #3
    6a02:	d91b      	bls.n	6a3c <memcpy+0x78>
    6a04:	1f1c      	subs	r4, r3, #4
    6a06:	2300      	movs	r3, #0
    6a08:	08a4      	lsrs	r4, r4, #2
    6a0a:	3401      	adds	r4, #1
    6a0c:	00a4      	lsls	r4, r4, #2
    6a0e:	58ce      	ldr	r6, [r1, r3]
    6a10:	50ee      	str	r6, [r5, r3]
    6a12:	3304      	adds	r3, #4
    6a14:	429c      	cmp	r4, r3
    6a16:	d1fa      	bne.n	6a0e <memcpy+0x4a>
    6a18:	2303      	movs	r3, #3
    6a1a:	192d      	adds	r5, r5, r4
    6a1c:	1909      	adds	r1, r1, r4
    6a1e:	401a      	ands	r2, r3
    6a20:	d005      	beq.n	6a2e <memcpy+0x6a>
    6a22:	2300      	movs	r3, #0
    6a24:	5ccc      	ldrb	r4, [r1, r3]
    6a26:	54ec      	strb	r4, [r5, r3]
    6a28:	3301      	adds	r3, #1
    6a2a:	429a      	cmp	r2, r3
    6a2c:	d1fa      	bne.n	6a24 <memcpy+0x60>
    6a2e:	bd70      	pop	{r4, r5, r6, pc}
    6a30:	0005      	movs	r5, r0
    6a32:	2a00      	cmp	r2, #0
    6a34:	d1f5      	bne.n	6a22 <memcpy+0x5e>
    6a36:	e7fa      	b.n	6a2e <memcpy+0x6a>
    6a38:	0005      	movs	r5, r0
    6a3a:	e7f2      	b.n	6a22 <memcpy+0x5e>
    6a3c:	001a      	movs	r2, r3
    6a3e:	e7f8      	b.n	6a32 <memcpy+0x6e>

00006a40 <memset>:
    6a40:	b570      	push	{r4, r5, r6, lr}
    6a42:	0783      	lsls	r3, r0, #30
    6a44:	d03f      	beq.n	6ac6 <memset+0x86>
    6a46:	1e54      	subs	r4, r2, #1
    6a48:	2a00      	cmp	r2, #0
    6a4a:	d03b      	beq.n	6ac4 <memset+0x84>
    6a4c:	b2ce      	uxtb	r6, r1
    6a4e:	0003      	movs	r3, r0
    6a50:	2503      	movs	r5, #3
    6a52:	e003      	b.n	6a5c <memset+0x1c>
    6a54:	1e62      	subs	r2, r4, #1
    6a56:	2c00      	cmp	r4, #0
    6a58:	d034      	beq.n	6ac4 <memset+0x84>
    6a5a:	0014      	movs	r4, r2
    6a5c:	3301      	adds	r3, #1
    6a5e:	1e5a      	subs	r2, r3, #1
    6a60:	7016      	strb	r6, [r2, #0]
    6a62:	422b      	tst	r3, r5
    6a64:	d1f6      	bne.n	6a54 <memset+0x14>
    6a66:	2c03      	cmp	r4, #3
    6a68:	d924      	bls.n	6ab4 <memset+0x74>
    6a6a:	25ff      	movs	r5, #255	; 0xff
    6a6c:	400d      	ands	r5, r1
    6a6e:	022a      	lsls	r2, r5, #8
    6a70:	4315      	orrs	r5, r2
    6a72:	042a      	lsls	r2, r5, #16
    6a74:	4315      	orrs	r5, r2
    6a76:	2c0f      	cmp	r4, #15
    6a78:	d911      	bls.n	6a9e <memset+0x5e>
    6a7a:	0026      	movs	r6, r4
    6a7c:	3e10      	subs	r6, #16
    6a7e:	0936      	lsrs	r6, r6, #4
    6a80:	3601      	adds	r6, #1
    6a82:	0136      	lsls	r6, r6, #4
    6a84:	001a      	movs	r2, r3
    6a86:	199b      	adds	r3, r3, r6
    6a88:	6015      	str	r5, [r2, #0]
    6a8a:	6055      	str	r5, [r2, #4]
    6a8c:	6095      	str	r5, [r2, #8]
    6a8e:	60d5      	str	r5, [r2, #12]
    6a90:	3210      	adds	r2, #16
    6a92:	4293      	cmp	r3, r2
    6a94:	d1f8      	bne.n	6a88 <memset+0x48>
    6a96:	220f      	movs	r2, #15
    6a98:	4014      	ands	r4, r2
    6a9a:	2c03      	cmp	r4, #3
    6a9c:	d90a      	bls.n	6ab4 <memset+0x74>
    6a9e:	1f26      	subs	r6, r4, #4
    6aa0:	08b6      	lsrs	r6, r6, #2
    6aa2:	3601      	adds	r6, #1
    6aa4:	00b6      	lsls	r6, r6, #2
    6aa6:	001a      	movs	r2, r3
    6aa8:	199b      	adds	r3, r3, r6
    6aaa:	c220      	stmia	r2!, {r5}
    6aac:	4293      	cmp	r3, r2
    6aae:	d1fc      	bne.n	6aaa <memset+0x6a>
    6ab0:	2203      	movs	r2, #3
    6ab2:	4014      	ands	r4, r2
    6ab4:	2c00      	cmp	r4, #0
    6ab6:	d005      	beq.n	6ac4 <memset+0x84>
    6ab8:	b2c9      	uxtb	r1, r1
    6aba:	191c      	adds	r4, r3, r4
    6abc:	7019      	strb	r1, [r3, #0]
    6abe:	3301      	adds	r3, #1
    6ac0:	429c      	cmp	r4, r3
    6ac2:	d1fb      	bne.n	6abc <memset+0x7c>
    6ac4:	bd70      	pop	{r4, r5, r6, pc}
    6ac6:	0014      	movs	r4, r2
    6ac8:	0003      	movs	r3, r0
    6aca:	e7cc      	b.n	6a66 <memset+0x26>

00006acc <printf>:
    6acc:	b40f      	push	{r0, r1, r2, r3}
    6ace:	b500      	push	{lr}
    6ad0:	4906      	ldr	r1, [pc, #24]	; (6aec <printf+0x20>)
    6ad2:	b083      	sub	sp, #12
    6ad4:	ab04      	add	r3, sp, #16
    6ad6:	6808      	ldr	r0, [r1, #0]
    6ad8:	cb04      	ldmia	r3!, {r2}
    6ada:	6881      	ldr	r1, [r0, #8]
    6adc:	9301      	str	r3, [sp, #4]
    6ade:	f000 f87d 	bl	6bdc <_vfprintf_r>
    6ae2:	b003      	add	sp, #12
    6ae4:	bc08      	pop	{r3}
    6ae6:	b004      	add	sp, #16
    6ae8:	4718      	bx	r3
    6aea:	46c0      	nop			; (mov r8, r8)
    6aec:	20000450 	.word	0x20000450

00006af0 <_puts_r>:
    6af0:	b530      	push	{r4, r5, lr}
    6af2:	0005      	movs	r5, r0
    6af4:	b089      	sub	sp, #36	; 0x24
    6af6:	0008      	movs	r0, r1
    6af8:	000c      	movs	r4, r1
    6afa:	f000 f83b 	bl	6b74 <strlen>
    6afe:	ab04      	add	r3, sp, #16
    6b00:	4a15      	ldr	r2, [pc, #84]	; (6b58 <_puts_r+0x68>)
    6b02:	9301      	str	r3, [sp, #4]
    6b04:	2302      	movs	r3, #2
    6b06:	9206      	str	r2, [sp, #24]
    6b08:	2201      	movs	r2, #1
    6b0a:	9302      	str	r3, [sp, #8]
    6b0c:	6bab      	ldr	r3, [r5, #56]	; 0x38
    6b0e:	9005      	str	r0, [sp, #20]
    6b10:	3001      	adds	r0, #1
    6b12:	9404      	str	r4, [sp, #16]
    6b14:	9207      	str	r2, [sp, #28]
    6b16:	9003      	str	r0, [sp, #12]
    6b18:	68ac      	ldr	r4, [r5, #8]
    6b1a:	2b00      	cmp	r3, #0
    6b1c:	d017      	beq.n	6b4e <_puts_r+0x5e>
    6b1e:	220c      	movs	r2, #12
    6b20:	5ea3      	ldrsh	r3, [r4, r2]
    6b22:	2280      	movs	r2, #128	; 0x80
    6b24:	0192      	lsls	r2, r2, #6
    6b26:	4213      	tst	r3, r2
    6b28:	d105      	bne.n	6b36 <_puts_r+0x46>
    6b2a:	4313      	orrs	r3, r2
    6b2c:	81a3      	strh	r3, [r4, #12]
    6b2e:	6e62      	ldr	r2, [r4, #100]	; 0x64
    6b30:	4b0a      	ldr	r3, [pc, #40]	; (6b5c <_puts_r+0x6c>)
    6b32:	4013      	ands	r3, r2
    6b34:	6663      	str	r3, [r4, #100]	; 0x64
    6b36:	aa01      	add	r2, sp, #4
    6b38:	0021      	movs	r1, r4
    6b3a:	0028      	movs	r0, r5
    6b3c:	f003 f802 	bl	9b44 <__sfvwrite_r>
    6b40:	1e43      	subs	r3, r0, #1
    6b42:	4198      	sbcs	r0, r3
    6b44:	230a      	movs	r3, #10
    6b46:	4240      	negs	r0, r0
    6b48:	4318      	orrs	r0, r3
    6b4a:	b009      	add	sp, #36	; 0x24
    6b4c:	bd30      	pop	{r4, r5, pc}
    6b4e:	0028      	movs	r0, r5
    6b50:	f002 fea0 	bl	9894 <__sinit>
    6b54:	e7e3      	b.n	6b1e <_puts_r+0x2e>
    6b56:	46c0      	nop			; (mov r8, r8)
    6b58:	0000be30 	.word	0x0000be30
    6b5c:	ffffdfff 	.word	0xffffdfff

00006b60 <puts>:
    6b60:	b510      	push	{r4, lr}
    6b62:	4b03      	ldr	r3, [pc, #12]	; (6b70 <puts+0x10>)
    6b64:	0001      	movs	r1, r0
    6b66:	6818      	ldr	r0, [r3, #0]
    6b68:	f7ff ffc2 	bl	6af0 <_puts_r>
    6b6c:	bd10      	pop	{r4, pc}
    6b6e:	46c0      	nop			; (mov r8, r8)
    6b70:	20000450 	.word	0x20000450

00006b74 <strlen>:
    6b74:	b510      	push	{r4, lr}
    6b76:	0783      	lsls	r3, r0, #30
    6b78:	d027      	beq.n	6bca <strlen+0x56>
    6b7a:	7803      	ldrb	r3, [r0, #0]
    6b7c:	2b00      	cmp	r3, #0
    6b7e:	d026      	beq.n	6bce <strlen+0x5a>
    6b80:	0003      	movs	r3, r0
    6b82:	2103      	movs	r1, #3
    6b84:	e002      	b.n	6b8c <strlen+0x18>
    6b86:	781a      	ldrb	r2, [r3, #0]
    6b88:	2a00      	cmp	r2, #0
    6b8a:	d01c      	beq.n	6bc6 <strlen+0x52>
    6b8c:	3301      	adds	r3, #1
    6b8e:	420b      	tst	r3, r1
    6b90:	d1f9      	bne.n	6b86 <strlen+0x12>
    6b92:	6819      	ldr	r1, [r3, #0]
    6b94:	4a0f      	ldr	r2, [pc, #60]	; (6bd4 <strlen+0x60>)
    6b96:	4c10      	ldr	r4, [pc, #64]	; (6bd8 <strlen+0x64>)
    6b98:	188a      	adds	r2, r1, r2
    6b9a:	438a      	bics	r2, r1
    6b9c:	4222      	tst	r2, r4
    6b9e:	d10f      	bne.n	6bc0 <strlen+0x4c>
    6ba0:	3304      	adds	r3, #4
    6ba2:	6819      	ldr	r1, [r3, #0]
    6ba4:	4a0b      	ldr	r2, [pc, #44]	; (6bd4 <strlen+0x60>)
    6ba6:	188a      	adds	r2, r1, r2
    6ba8:	438a      	bics	r2, r1
    6baa:	4222      	tst	r2, r4
    6bac:	d108      	bne.n	6bc0 <strlen+0x4c>
    6bae:	3304      	adds	r3, #4
    6bb0:	6819      	ldr	r1, [r3, #0]
    6bb2:	4a08      	ldr	r2, [pc, #32]	; (6bd4 <strlen+0x60>)
    6bb4:	188a      	adds	r2, r1, r2
    6bb6:	438a      	bics	r2, r1
    6bb8:	4222      	tst	r2, r4
    6bba:	d0f1      	beq.n	6ba0 <strlen+0x2c>
    6bbc:	e000      	b.n	6bc0 <strlen+0x4c>
    6bbe:	3301      	adds	r3, #1
    6bc0:	781a      	ldrb	r2, [r3, #0]
    6bc2:	2a00      	cmp	r2, #0
    6bc4:	d1fb      	bne.n	6bbe <strlen+0x4a>
    6bc6:	1a18      	subs	r0, r3, r0
    6bc8:	bd10      	pop	{r4, pc}
    6bca:	0003      	movs	r3, r0
    6bcc:	e7e1      	b.n	6b92 <strlen+0x1e>
    6bce:	2000      	movs	r0, #0
    6bd0:	e7fa      	b.n	6bc8 <strlen+0x54>
    6bd2:	46c0      	nop			; (mov r8, r8)
    6bd4:	fefefeff 	.word	0xfefefeff
    6bd8:	80808080 	.word	0x80808080

00006bdc <_vfprintf_r>:
    6bdc:	b5f0      	push	{r4, r5, r6, r7, lr}
    6bde:	4644      	mov	r4, r8
    6be0:	465f      	mov	r7, fp
    6be2:	4656      	mov	r6, sl
    6be4:	464d      	mov	r5, r9
    6be6:	b4f0      	push	{r4, r5, r6, r7}
    6be8:	b0c3      	sub	sp, #268	; 0x10c
    6bea:	001c      	movs	r4, r3
    6bec:	9311      	str	r3, [sp, #68]	; 0x44
    6bee:	4683      	mov	fp, r0
    6bf0:	4688      	mov	r8, r1
    6bf2:	920a      	str	r2, [sp, #40]	; 0x28
    6bf4:	f003 f964 	bl	9ec0 <_localeconv_r>
    6bf8:	6800      	ldr	r0, [r0, #0]
    6bfa:	9019      	str	r0, [sp, #100]	; 0x64
    6bfc:	f7ff ffba 	bl	6b74 <strlen>
    6c00:	465b      	mov	r3, fp
    6c02:	9018      	str	r0, [sp, #96]	; 0x60
    6c04:	2b00      	cmp	r3, #0
    6c06:	d003      	beq.n	6c10 <_vfprintf_r+0x34>
    6c08:	6b9b      	ldr	r3, [r3, #56]	; 0x38
    6c0a:	2b00      	cmp	r3, #0
    6c0c:	d100      	bne.n	6c10 <_vfprintf_r+0x34>
    6c0e:	e0d9      	b.n	6dc4 <_vfprintf_r+0x1e8>
    6c10:	4643      	mov	r3, r8
    6c12:	2180      	movs	r1, #128	; 0x80
    6c14:	220c      	movs	r2, #12
    6c16:	5e9a      	ldrsh	r2, [r3, r2]
    6c18:	0189      	lsls	r1, r1, #6
    6c1a:	b293      	uxth	r3, r2
    6c1c:	420b      	tst	r3, r1
    6c1e:	d109      	bne.n	6c34 <_vfprintf_r+0x58>
    6c20:	430a      	orrs	r2, r1
    6c22:	4643      	mov	r3, r8
    6c24:	4641      	mov	r1, r8
    6c26:	819a      	strh	r2, [r3, #12]
    6c28:	6e49      	ldr	r1, [r1, #100]	; 0x64
    6c2a:	4bbc      	ldr	r3, [pc, #752]	; (6f1c <_vfprintf_r+0x340>)
    6c2c:	400b      	ands	r3, r1
    6c2e:	4641      	mov	r1, r8
    6c30:	664b      	str	r3, [r1, #100]	; 0x64
    6c32:	b293      	uxth	r3, r2
    6c34:	071a      	lsls	r2, r3, #28
    6c36:	d400      	bmi.n	6c3a <_vfprintf_r+0x5e>
    6c38:	e097      	b.n	6d6a <_vfprintf_r+0x18e>
    6c3a:	4642      	mov	r2, r8
    6c3c:	6912      	ldr	r2, [r2, #16]
    6c3e:	2a00      	cmp	r2, #0
    6c40:	d100      	bne.n	6c44 <_vfprintf_r+0x68>
    6c42:	e092      	b.n	6d6a <_vfprintf_r+0x18e>
    6c44:	221a      	movs	r2, #26
    6c46:	4013      	ands	r3, r2
    6c48:	2b0a      	cmp	r3, #10
    6c4a:	d100      	bne.n	6c4e <_vfprintf_r+0x72>
    6c4c:	e09c      	b.n	6d88 <_vfprintf_r+0x1ac>
    6c4e:	ab32      	add	r3, sp, #200	; 0xc8
    6c50:	9325      	str	r3, [sp, #148]	; 0x94
    6c52:	2300      	movs	r3, #0
    6c54:	af25      	add	r7, sp, #148	; 0x94
    6c56:	60bb      	str	r3, [r7, #8]
    6c58:	607b      	str	r3, [r7, #4]
    6c5a:	9314      	str	r3, [sp, #80]	; 0x50
    6c5c:	9316      	str	r3, [sp, #88]	; 0x58
    6c5e:	9317      	str	r3, [sp, #92]	; 0x5c
    6c60:	931a      	str	r3, [sp, #104]	; 0x68
    6c62:	930c      	str	r3, [sp, #48]	; 0x30
    6c64:	465b      	mov	r3, fp
    6c66:	46c3      	mov	fp, r8
    6c68:	ae32      	add	r6, sp, #200	; 0xc8
    6c6a:	9307      	str	r3, [sp, #28]
    6c6c:	9c0a      	ldr	r4, [sp, #40]	; 0x28
    6c6e:	7823      	ldrb	r3, [r4, #0]
    6c70:	2b00      	cmp	r3, #0
    6c72:	d100      	bne.n	6c76 <_vfprintf_r+0x9a>
    6c74:	e0aa      	b.n	6dcc <_vfprintf_r+0x1f0>
    6c76:	2b25      	cmp	r3, #37	; 0x25
    6c78:	d102      	bne.n	6c80 <_vfprintf_r+0xa4>
    6c7a:	e0a7      	b.n	6dcc <_vfprintf_r+0x1f0>
    6c7c:	2b25      	cmp	r3, #37	; 0x25
    6c7e:	d003      	beq.n	6c88 <_vfprintf_r+0xac>
    6c80:	3401      	adds	r4, #1
    6c82:	7823      	ldrb	r3, [r4, #0]
    6c84:	2b00      	cmp	r3, #0
    6c86:	d1f9      	bne.n	6c7c <_vfprintf_r+0xa0>
    6c88:	9b0a      	ldr	r3, [sp, #40]	; 0x28
    6c8a:	1ae5      	subs	r5, r4, r3
    6c8c:	d011      	beq.n	6cb2 <_vfprintf_r+0xd6>
    6c8e:	9b0a      	ldr	r3, [sp, #40]	; 0x28
    6c90:	6075      	str	r5, [r6, #4]
    6c92:	6033      	str	r3, [r6, #0]
    6c94:	68bb      	ldr	r3, [r7, #8]
    6c96:	195b      	adds	r3, r3, r5
    6c98:	60bb      	str	r3, [r7, #8]
    6c9a:	687b      	ldr	r3, [r7, #4]
    6c9c:	3301      	adds	r3, #1
    6c9e:	607b      	str	r3, [r7, #4]
    6ca0:	2b07      	cmp	r3, #7
    6ca2:	dd00      	ble.n	6ca6 <_vfprintf_r+0xca>
    6ca4:	e083      	b.n	6dae <_vfprintf_r+0x1d2>
    6ca6:	3608      	adds	r6, #8
    6ca8:	9b0c      	ldr	r3, [sp, #48]	; 0x30
    6caa:	469c      	mov	ip, r3
    6cac:	44ac      	add	ip, r5
    6cae:	4663      	mov	r3, ip
    6cb0:	930c      	str	r3, [sp, #48]	; 0x30
    6cb2:	7823      	ldrb	r3, [r4, #0]
    6cb4:	2b00      	cmp	r3, #0
    6cb6:	d101      	bne.n	6cbc <_vfprintf_r+0xe0>
    6cb8:	f001 f8da 	bl	7e70 <_vfprintf_r+0x1294>
    6cbc:	2300      	movs	r3, #0
    6cbe:	aa16      	add	r2, sp, #88	; 0x58
    6cc0:	77d3      	strb	r3, [r2, #31]
    6cc2:	2201      	movs	r2, #1
    6cc4:	4252      	negs	r2, r2
    6cc6:	920b      	str	r2, [sp, #44]	; 0x2c
    6cc8:	2200      	movs	r2, #0
    6cca:	920d      	str	r2, [sp, #52]	; 0x34
    6ccc:	9208      	str	r2, [sp, #32]
    6cce:	3240      	adds	r2, #64	; 0x40
    6cd0:	4692      	mov	sl, r2
    6cd2:	3a38      	subs	r2, #56	; 0x38
    6cd4:	4691      	mov	r9, r2
    6cd6:	3278      	adds	r2, #120	; 0x78
    6cd8:	1c61      	adds	r1, r4, #1
    6cda:	7863      	ldrb	r3, [r4, #1]
    6cdc:	2000      	movs	r0, #0
    6cde:	2400      	movs	r4, #0
    6ce0:	4694      	mov	ip, r2
    6ce2:	3101      	adds	r1, #1
    6ce4:	001a      	movs	r2, r3
    6ce6:	3a20      	subs	r2, #32
    6ce8:	2a58      	cmp	r2, #88	; 0x58
    6cea:	d900      	bls.n	6cee <_vfprintf_r+0x112>
    6cec:	e38d      	b.n	740a <_vfprintf_r+0x82e>
    6cee:	4d8c      	ldr	r5, [pc, #560]	; (6f20 <_vfprintf_r+0x344>)
    6cf0:	0092      	lsls	r2, r2, #2
    6cf2:	58aa      	ldr	r2, [r5, r2]
    6cf4:	4697      	mov	pc, r2
    6cf6:	9b0d      	ldr	r3, [sp, #52]	; 0x34
    6cf8:	9211      	str	r2, [sp, #68]	; 0x44
    6cfa:	425b      	negs	r3, r3
    6cfc:	930d      	str	r3, [sp, #52]	; 0x34
    6cfe:	2304      	movs	r3, #4
    6d00:	9a08      	ldr	r2, [sp, #32]
    6d02:	431a      	orrs	r2, r3
    6d04:	9208      	str	r2, [sp, #32]
    6d06:	780b      	ldrb	r3, [r1, #0]
    6d08:	e7eb      	b.n	6ce2 <_vfprintf_r+0x106>
    6d0a:	2430      	movs	r4, #48	; 0x30
    6d0c:	9b11      	ldr	r3, [sp, #68]	; 0x44
    6d0e:	aa1e      	add	r2, sp, #120	; 0x78
    6d10:	7014      	strb	r4, [r2, #0]
    6d12:	1d18      	adds	r0, r3, #4
    6d14:	3448      	adds	r4, #72	; 0x48
    6d16:	681b      	ldr	r3, [r3, #0]
    6d18:	7054      	strb	r4, [r2, #1]
    6d1a:	9d08      	ldr	r5, [sp, #32]
    6d1c:	2200      	movs	r2, #0
    6d1e:	930e      	str	r3, [sp, #56]	; 0x38
    6d20:	2300      	movs	r3, #0
    6d22:	910a      	str	r1, [sp, #40]	; 0x28
    6d24:	0029      	movs	r1, r5
    6d26:	ac16      	add	r4, sp, #88	; 0x58
    6d28:	77e2      	strb	r2, [r4, #31]
    6d2a:	9a0b      	ldr	r2, [sp, #44]	; 0x2c
    6d2c:	930f      	str	r3, [sp, #60]	; 0x3c
    6d2e:	3302      	adds	r3, #2
    6d30:	4319      	orrs	r1, r3
    6d32:	2a00      	cmp	r2, #0
    6d34:	da00      	bge.n	6d38 <_vfprintf_r+0x15c>
    6d36:	e379      	b.n	742c <_vfprintf_r+0x850>
    6d38:	2280      	movs	r2, #128	; 0x80
    6d3a:	4395      	bics	r5, r2
    6d3c:	002a      	movs	r2, r5
    6d3e:	431a      	orrs	r2, r3
    6d40:	9b0e      	ldr	r3, [sp, #56]	; 0x38
    6d42:	9208      	str	r2, [sp, #32]
    6d44:	9011      	str	r0, [sp, #68]	; 0x44
    6d46:	2b00      	cmp	r3, #0
    6d48:	d000      	beq.n	6d4c <_vfprintf_r+0x170>
    6d4a:	e358      	b.n	73fe <_vfprintf_r+0x822>
    6d4c:	3378      	adds	r3, #120	; 0x78
    6d4e:	4975      	ldr	r1, [pc, #468]	; (6f24 <_vfprintf_r+0x348>)
    6d50:	9313      	str	r3, [sp, #76]	; 0x4c
    6d52:	9b0b      	ldr	r3, [sp, #44]	; 0x2c
    6d54:	4698      	mov	r8, r3
    6d56:	2b00      	cmp	r3, #0
    6d58:	d100      	bne.n	6d5c <_vfprintf_r+0x180>
    6d5a:	e31e      	b.n	739a <_vfprintf_r+0x7be>
    6d5c:	2300      	movs	r3, #0
    6d5e:	4698      	mov	r8, r3
    6d60:	2400      	movs	r4, #0
    6d62:	2300      	movs	r3, #0
    6d64:	930e      	str	r3, [sp, #56]	; 0x38
    6d66:	940f      	str	r4, [sp, #60]	; 0x3c
    6d68:	e2c0      	b.n	72ec <_vfprintf_r+0x710>
    6d6a:	4641      	mov	r1, r8
    6d6c:	4658      	mov	r0, fp
    6d6e:	f001 fb83 	bl	8478 <__swsetup_r>
    6d72:	2800      	cmp	r0, #0
    6d74:	d001      	beq.n	6d7a <_vfprintf_r+0x19e>
    6d76:	f001 f873 	bl	7e60 <_vfprintf_r+0x1284>
    6d7a:	4643      	mov	r3, r8
    6d7c:	221a      	movs	r2, #26
    6d7e:	899b      	ldrh	r3, [r3, #12]
    6d80:	4013      	ands	r3, r2
    6d82:	2b0a      	cmp	r3, #10
    6d84:	d000      	beq.n	6d88 <_vfprintf_r+0x1ac>
    6d86:	e762      	b.n	6c4e <_vfprintf_r+0x72>
    6d88:	4643      	mov	r3, r8
    6d8a:	220e      	movs	r2, #14
    6d8c:	5e9b      	ldrsh	r3, [r3, r2]
    6d8e:	2b00      	cmp	r3, #0
    6d90:	da00      	bge.n	6d94 <_vfprintf_r+0x1b8>
    6d92:	e75c      	b.n	6c4e <_vfprintf_r+0x72>
    6d94:	0023      	movs	r3, r4
    6d96:	9a0a      	ldr	r2, [sp, #40]	; 0x28
    6d98:	4641      	mov	r1, r8
    6d9a:	4658      	mov	r0, fp
    6d9c:	f001 fb32 	bl	8404 <__sbprintf>
    6da0:	b043      	add	sp, #268	; 0x10c
    6da2:	bc3c      	pop	{r2, r3, r4, r5}
    6da4:	4690      	mov	r8, r2
    6da6:	4699      	mov	r9, r3
    6da8:	46a2      	mov	sl, r4
    6daa:	46ab      	mov	fp, r5
    6dac:	bdf0      	pop	{r4, r5, r6, r7, pc}
    6dae:	003a      	movs	r2, r7
    6db0:	4659      	mov	r1, fp
    6db2:	9807      	ldr	r0, [sp, #28]
    6db4:	f004 fa0c 	bl	b1d0 <__sprint_r>
    6db8:	2800      	cmp	r0, #0
    6dba:	d001      	beq.n	6dc0 <_vfprintf_r+0x1e4>
    6dbc:	f000 fd27 	bl	780e <_vfprintf_r+0xc32>
    6dc0:	ae32      	add	r6, sp, #200	; 0xc8
    6dc2:	e771      	b.n	6ca8 <_vfprintf_r+0xcc>
    6dc4:	4658      	mov	r0, fp
    6dc6:	f002 fd65 	bl	9894 <__sinit>
    6dca:	e721      	b.n	6c10 <_vfprintf_r+0x34>
    6dcc:	9c0a      	ldr	r4, [sp, #40]	; 0x28
    6dce:	e770      	b.n	6cb2 <_vfprintf_r+0xd6>
    6dd0:	9b11      	ldr	r3, [sp, #68]	; 0x44
    6dd2:	1d1a      	adds	r2, r3, #4
    6dd4:	681b      	ldr	r3, [r3, #0]
    6dd6:	930d      	str	r3, [sp, #52]	; 0x34
    6dd8:	2b00      	cmp	r3, #0
    6dda:	da00      	bge.n	6dde <_vfprintf_r+0x202>
    6ddc:	e78b      	b.n	6cf6 <_vfprintf_r+0x11a>
    6dde:	780b      	ldrb	r3, [r1, #0]
    6de0:	9211      	str	r2, [sp, #68]	; 0x44
    6de2:	e77e      	b.n	6ce2 <_vfprintf_r+0x106>
    6de4:	1c4b      	adds	r3, r1, #1
    6de6:	4698      	mov	r8, r3
    6de8:	780b      	ldrb	r3, [r1, #0]
    6dea:	2b2a      	cmp	r3, #42	; 0x2a
    6dec:	d101      	bne.n	6df2 <_vfprintf_r+0x216>
    6dee:	f001 fabb 	bl	8368 <_vfprintf_r+0x178c>
    6df2:	001a      	movs	r2, r3
    6df4:	3a30      	subs	r2, #48	; 0x30
    6df6:	2100      	movs	r1, #0
    6df8:	2a09      	cmp	r2, #9
    6dfa:	d901      	bls.n	6e00 <_vfprintf_r+0x224>
    6dfc:	f001 fa60 	bl	82c0 <_vfprintf_r+0x16e4>
    6e00:	4643      	mov	r3, r8
    6e02:	4680      	mov	r8, r0
    6e04:	0008      	movs	r0, r1
    6e06:	0081      	lsls	r1, r0, #2
    6e08:	1809      	adds	r1, r1, r0
    6e0a:	0049      	lsls	r1, r1, #1
    6e0c:	3301      	adds	r3, #1
    6e0e:	1888      	adds	r0, r1, r2
    6e10:	1e5a      	subs	r2, r3, #1
    6e12:	7811      	ldrb	r1, [r2, #0]
    6e14:	000a      	movs	r2, r1
    6e16:	3a30      	subs	r2, #48	; 0x30
    6e18:	2a09      	cmp	r2, #9
    6e1a:	d9f4      	bls.n	6e06 <_vfprintf_r+0x22a>
    6e1c:	4642      	mov	r2, r8
    6e1e:	4698      	mov	r8, r3
    6e20:	000b      	movs	r3, r1
    6e22:	0001      	movs	r1, r0
    6e24:	0010      	movs	r0, r2
    6e26:	2900      	cmp	r1, #0
    6e28:	da01      	bge.n	6e2e <_vfprintf_r+0x252>
    6e2a:	f001 f8fd 	bl	8028 <_vfprintf_r+0x144c>
    6e2e:	910b      	str	r1, [sp, #44]	; 0x2c
    6e30:	4641      	mov	r1, r8
    6e32:	e757      	b.n	6ce4 <_vfprintf_r+0x108>
    6e34:	4662      	mov	r2, ip
    6e36:	9b08      	ldr	r3, [sp, #32]
    6e38:	4313      	orrs	r3, r2
    6e3a:	9308      	str	r3, [sp, #32]
    6e3c:	780b      	ldrb	r3, [r1, #0]
    6e3e:	e750      	b.n	6ce2 <_vfprintf_r+0x106>
    6e40:	2200      	movs	r2, #0
    6e42:	0015      	movs	r5, r2
    6e44:	3b30      	subs	r3, #48	; 0x30
    6e46:	4680      	mov	r8, r0
    6e48:	001a      	movs	r2, r3
    6e4a:	0028      	movs	r0, r5
    6e4c:	0083      	lsls	r3, r0, #2
    6e4e:	181b      	adds	r3, r3, r0
    6e50:	005b      	lsls	r3, r3, #1
    6e52:	3101      	adds	r1, #1
    6e54:	18d0      	adds	r0, r2, r3
    6e56:	1e4b      	subs	r3, r1, #1
    6e58:	781b      	ldrb	r3, [r3, #0]
    6e5a:	001a      	movs	r2, r3
    6e5c:	3a30      	subs	r2, #48	; 0x30
    6e5e:	2a09      	cmp	r2, #9
    6e60:	d9f4      	bls.n	6e4c <_vfprintf_r+0x270>
    6e62:	900d      	str	r0, [sp, #52]	; 0x34
    6e64:	4640      	mov	r0, r8
    6e66:	e73d      	b.n	6ce4 <_vfprintf_r+0x108>
    6e68:	9313      	str	r3, [sp, #76]	; 0x4c
    6e6a:	910a      	str	r1, [sp, #40]	; 0x28
    6e6c:	2800      	cmp	r0, #0
    6e6e:	d001      	beq.n	6e74 <_vfprintf_r+0x298>
    6e70:	f001 faa7 	bl	83c2 <_vfprintf_r+0x17e6>
    6e74:	2310      	movs	r3, #16
    6e76:	9a08      	ldr	r2, [sp, #32]
    6e78:	431a      	orrs	r2, r3
    6e7a:	9208      	str	r2, [sp, #32]
    6e7c:	9b08      	ldr	r3, [sp, #32]
    6e7e:	069b      	lsls	r3, r3, #26
    6e80:	d401      	bmi.n	6e86 <_vfprintf_r+0x2aa>
    6e82:	f000 fd9c 	bl	79be <_vfprintf_r+0xde2>
    6e86:	2307      	movs	r3, #7
    6e88:	9a11      	ldr	r2, [sp, #68]	; 0x44
    6e8a:	3207      	adds	r2, #7
    6e8c:	439a      	bics	r2, r3
    6e8e:	3301      	adds	r3, #1
    6e90:	469c      	mov	ip, r3
    6e92:	4494      	add	ip, r2
    6e94:	4663      	mov	r3, ip
    6e96:	9311      	str	r3, [sp, #68]	; 0x44
    6e98:	6853      	ldr	r3, [r2, #4]
    6e9a:	6812      	ldr	r2, [r2, #0]
    6e9c:	930f      	str	r3, [sp, #60]	; 0x3c
    6e9e:	920e      	str	r2, [sp, #56]	; 0x38
    6ea0:	2b00      	cmp	r3, #0
    6ea2:	da01      	bge.n	6ea8 <_vfprintf_r+0x2cc>
    6ea4:	f000 fe8e 	bl	7bc4 <_vfprintf_r+0xfe8>
    6ea8:	ab16      	add	r3, sp, #88	; 0x58
    6eaa:	7fdb      	ldrb	r3, [r3, #31]
    6eac:	4698      	mov	r8, r3
    6eae:	9b0b      	ldr	r3, [sp, #44]	; 0x2c
    6eb0:	2b00      	cmp	r3, #0
    6eb2:	da01      	bge.n	6eb8 <_vfprintf_r+0x2dc>
    6eb4:	f000 fde3 	bl	7a7e <_vfprintf_r+0xea2>
    6eb8:	2380      	movs	r3, #128	; 0x80
    6eba:	9a08      	ldr	r2, [sp, #32]
    6ebc:	439a      	bics	r2, r3
    6ebe:	9208      	str	r2, [sp, #32]
    6ec0:	9a0e      	ldr	r2, [sp, #56]	; 0x38
    6ec2:	9b0f      	ldr	r3, [sp, #60]	; 0x3c
    6ec4:	0011      	movs	r1, r2
    6ec6:	4319      	orrs	r1, r3
    6ec8:	d101      	bne.n	6ece <_vfprintf_r+0x2f2>
    6eca:	f000 fcbd 	bl	7848 <_vfprintf_r+0xc6c>
    6ece:	9b0f      	ldr	r3, [sp, #60]	; 0x3c
    6ed0:	2b00      	cmp	r3, #0
    6ed2:	d101      	bne.n	6ed8 <_vfprintf_r+0x2fc>
    6ed4:	f001 f8a2 	bl	801c <_vfprintf_r+0x1440>
    6ed8:	9c0e      	ldr	r4, [sp, #56]	; 0x38
    6eda:	9d0f      	ldr	r5, [sp, #60]	; 0x3c
    6edc:	ab32      	add	r3, sp, #200	; 0xc8
    6ede:	46b1      	mov	r9, r6
    6ee0:	001e      	movs	r6, r3
    6ee2:	0020      	movs	r0, r4
    6ee4:	0029      	movs	r1, r5
    6ee6:	220a      	movs	r2, #10
    6ee8:	2300      	movs	r3, #0
    6eea:	f004 fbc3 	bl	b674 <__aeabi_uldivmod>
    6eee:	3e01      	subs	r6, #1
    6ef0:	3230      	adds	r2, #48	; 0x30
    6ef2:	7032      	strb	r2, [r6, #0]
    6ef4:	2300      	movs	r3, #0
    6ef6:	0020      	movs	r0, r4
    6ef8:	0029      	movs	r1, r5
    6efa:	220a      	movs	r2, #10
    6efc:	f004 fbba 	bl	b674 <__aeabi_uldivmod>
    6f00:	0003      	movs	r3, r0
    6f02:	0004      	movs	r4, r0
    6f04:	000d      	movs	r5, r1
    6f06:	430b      	orrs	r3, r1
    6f08:	d1eb      	bne.n	6ee2 <_vfprintf_r+0x306>
    6f0a:	0032      	movs	r2, r6
    6f0c:	ab32      	add	r3, sp, #200	; 0xc8
    6f0e:	1a9b      	subs	r3, r3, r2
    6f10:	9612      	str	r6, [sp, #72]	; 0x48
    6f12:	940e      	str	r4, [sp, #56]	; 0x38
    6f14:	950f      	str	r5, [sp, #60]	; 0x3c
    6f16:	464e      	mov	r6, r9
    6f18:	9310      	str	r3, [sp, #64]	; 0x40
    6f1a:	e0b1      	b.n	7080 <_vfprintf_r+0x4a4>
    6f1c:	ffffdfff 	.word	0xffffdfff
    6f20:	0000be34 	.word	0x0000be34
    6f24:	0000bfcc 	.word	0x0000bfcc
    6f28:	9313      	strle	r3, [sp, #76]	; 0x4c
    6f2a:	910a      	str	r1, [sp, #40]	; 0x28
    6f2c:	2800      	cmp	r0, #0
    6f2e:	d001      	beq.n	6f34 <_vfprintf_r+0x358>
    6f30:	f001 fa32 	bl	8398 <_vfprintf_r+0x17bc>
    6f34:	2207      	movs	r2, #7
    6f36:	9b11      	ldr	r3, [sp, #68]	; 0x44
    6f38:	3307      	adds	r3, #7
    6f3a:	4393      	bics	r3, r2
    6f3c:	3201      	adds	r2, #1
    6f3e:	4694      	mov	ip, r2
    6f40:	449c      	add	ip, r3
    6f42:	4662      	mov	r2, ip
    6f44:	9211      	str	r2, [sp, #68]	; 0x44
    6f46:	681a      	ldr	r2, [r3, #0]
    6f48:	9216      	str	r2, [sp, #88]	; 0x58
    6f4a:	2201      	movs	r2, #1
    6f4c:	685b      	ldr	r3, [r3, #4]
    6f4e:	9d16      	ldr	r5, [sp, #88]	; 0x58
    6f50:	9317      	str	r3, [sp, #92]	; 0x5c
    6f52:	9b17      	ldr	r3, [sp, #92]	; 0x5c
    6f54:	4252      	negs	r2, r2
    6f56:	005c      	lsls	r4, r3, #1
    6f58:	0864      	lsrs	r4, r4, #1
    6f5a:	4bc2      	ldr	r3, [pc, #776]	; (7264 <_vfprintf_r+0x688>)
    6f5c:	0028      	movs	r0, r5
    6f5e:	0021      	movs	r1, r4
    6f60:	f7ff fb70 	bl	6644 <__aeabi_dcmpun>
    6f64:	2800      	cmp	r0, #0
    6f66:	d001      	beq.n	6f6c <_vfprintf_r+0x390>
    6f68:	f000 fe6c 	bl	7c44 <_vfprintf_r+0x1068>
    6f6c:	2201      	movs	r2, #1
    6f6e:	4bbd      	ldr	r3, [pc, #756]	; (7264 <_vfprintf_r+0x688>)
    6f70:	4252      	negs	r2, r2
    6f72:	0028      	movs	r0, r5
    6f74:	0021      	movs	r1, r4
    6f76:	f7fd fa25 	bl	43c4 <__aeabi_dcmple>
    6f7a:	2800      	cmp	r0, #0
    6f7c:	d001      	beq.n	6f82 <_vfprintf_r+0x3a6>
    6f7e:	f000 fe61 	bl	7c44 <_vfprintf_r+0x1068>
    6f82:	2200      	movs	r2, #0
    6f84:	2300      	movs	r3, #0
    6f86:	9816      	ldr	r0, [sp, #88]	; 0x58
    6f88:	9917      	ldr	r1, [sp, #92]	; 0x5c
    6f8a:	f7fd fa11 	bl	43b0 <__aeabi_dcmplt>
    6f8e:	2800      	cmp	r0, #0
    6f90:	d001      	beq.n	6f96 <_vfprintf_r+0x3ba>
    6f92:	f001 f91f 	bl	81d4 <_vfprintf_r+0x15f8>
    6f96:	ab16      	add	r3, sp, #88	; 0x58
    6f98:	7fdb      	ldrb	r3, [r3, #31]
    6f9a:	4698      	mov	r8, r3
    6f9c:	9b13      	ldr	r3, [sp, #76]	; 0x4c
    6f9e:	2b47      	cmp	r3, #71	; 0x47
    6fa0:	dc01      	bgt.n	6fa6 <_vfprintf_r+0x3ca>
    6fa2:	f000 ff72 	bl	7e8a <_vfprintf_r+0x12ae>
    6fa6:	4bb0      	ldr	r3, [pc, #704]	; (7268 <_vfprintf_r+0x68c>)
    6fa8:	9312      	str	r3, [sp, #72]	; 0x48
    6faa:	2380      	movs	r3, #128	; 0x80
    6fac:	9a08      	ldr	r2, [sp, #32]
    6fae:	439a      	bics	r2, r3
    6fb0:	9208      	str	r2, [sp, #32]
    6fb2:	3b7d      	subs	r3, #125	; 0x7d
    6fb4:	9309      	str	r3, [sp, #36]	; 0x24
    6fb6:	9310      	str	r3, [sp, #64]	; 0x40
    6fb8:	2300      	movs	r3, #0
    6fba:	930b      	str	r3, [sp, #44]	; 0x2c
    6fbc:	9315      	str	r3, [sp, #84]	; 0x54
    6fbe:	e068      	b.n	7092 <_vfprintf_r+0x4b6>
    6fc0:	464a      	mov	r2, r9
    6fc2:	9b08      	ldr	r3, [sp, #32]
    6fc4:	4313      	orrs	r3, r2
    6fc6:	9308      	str	r3, [sp, #32]
    6fc8:	780b      	ldrb	r3, [r1, #0]
    6fca:	e68a      	b.n	6ce2 <_vfprintf_r+0x106>
    6fcc:	9313      	str	r3, [sp, #76]	; 0x4c
    6fce:	910a      	str	r1, [sp, #40]	; 0x28
    6fd0:	2800      	cmp	r0, #0
    6fd2:	d001      	beq.n	6fd8 <_vfprintf_r+0x3fc>
    6fd4:	f001 f9e4 	bl	83a0 <_vfprintf_r+0x17c4>
    6fd8:	2310      	movs	r3, #16
    6fda:	9a08      	ldr	r2, [sp, #32]
    6fdc:	431a      	orrs	r2, r3
    6fde:	9208      	str	r2, [sp, #32]
    6fe0:	2320      	movs	r3, #32
    6fe2:	9908      	ldr	r1, [sp, #32]
    6fe4:	400b      	ands	r3, r1
    6fe6:	d101      	bne.n	6fec <_vfprintf_r+0x410>
    6fe8:	f000 fcc1 	bl	796e <_vfprintf_r+0xd92>
    6fec:	2207      	movs	r2, #7
    6fee:	9b11      	ldr	r3, [sp, #68]	; 0x44
    6ff0:	3307      	adds	r3, #7
    6ff2:	4393      	bics	r3, r2
    6ff4:	3201      	adds	r2, #1
    6ff6:	4694      	mov	ip, r2
    6ff8:	449c      	add	ip, r3
    6ffa:	4662      	mov	r2, ip
    6ffc:	685c      	ldr	r4, [r3, #4]
    6ffe:	681b      	ldr	r3, [r3, #0]
    7000:	0025      	movs	r5, r4
    7002:	001c      	movs	r4, r3
    7004:	2300      	movs	r3, #0
    7006:	9211      	str	r2, [sp, #68]	; 0x44
    7008:	aa16      	add	r2, sp, #88	; 0x58
    700a:	77d3      	strb	r3, [r2, #31]
    700c:	9b0b      	ldr	r3, [sp, #44]	; 0x2c
    700e:	940e      	str	r4, [sp, #56]	; 0x38
    7010:	950f      	str	r5, [sp, #60]	; 0x3c
    7012:	2b00      	cmp	r3, #0
    7014:	da01      	bge.n	701a <_vfprintf_r+0x43e>
    7016:	f000 fdfd 	bl	7c14 <_vfprintf_r+0x1038>
    701a:	2380      	movs	r3, #128	; 0x80
    701c:	4399      	bics	r1, r3
    701e:	9108      	str	r1, [sp, #32]
    7020:	0021      	movs	r1, r4
    7022:	4329      	orrs	r1, r5
    7024:	d101      	bne.n	702a <_vfprintf_r+0x44e>
    7026:	f000 fcbd 	bl	79a4 <_vfprintf_r+0xdc8>
    702a:	2300      	movs	r3, #0
    702c:	4698      	mov	r8, r3
    702e:	2207      	movs	r2, #7
    7030:	46b4      	mov	ip, r6
    7032:	ab32      	add	r3, sp, #200	; 0xc8
    7034:	4692      	mov	sl, r2
    7036:	001c      	movs	r4, r3
    7038:	9a0e      	ldr	r2, [sp, #56]	; 0x38
    703a:	9b0f      	ldr	r3, [sp, #60]	; 0x3c
    703c:	0758      	lsls	r0, r3, #29
    703e:	08d6      	lsrs	r6, r2, #3
    7040:	4651      	mov	r1, sl
    7042:	08dd      	lsrs	r5, r3, #3
    7044:	4330      	orrs	r0, r6
    7046:	002b      	movs	r3, r5
    7048:	0005      	movs	r5, r0
    704a:	4011      	ands	r1, r2
    704c:	3c01      	subs	r4, #1
    704e:	3130      	adds	r1, #48	; 0x30
    7050:	7021      	strb	r1, [r4, #0]
    7052:	0002      	movs	r2, r0
    7054:	431d      	orrs	r5, r3
    7056:	d1f1      	bne.n	703c <_vfprintf_r+0x460>
    7058:	920e      	str	r2, [sp, #56]	; 0x38
    705a:	930f      	str	r3, [sp, #60]	; 0x3c
    705c:	9a08      	ldr	r2, [sp, #32]
    705e:	9412      	str	r4, [sp, #72]	; 0x48
    7060:	4666      	mov	r6, ip
    7062:	07d2      	lsls	r2, r2, #31
    7064:	d400      	bmi.n	7068 <_vfprintf_r+0x48c>
    7066:	e15b      	b.n	7320 <_vfprintf_r+0x744>
    7068:	2930      	cmp	r1, #48	; 0x30
    706a:	d101      	bne.n	7070 <_vfprintf_r+0x494>
    706c:	f000 ff99 	bl	7fa2 <_vfprintf_r+0x13c6>
    7070:	2330      	movs	r3, #48	; 0x30
    7072:	9d12      	ldr	r5, [sp, #72]	; 0x48
    7074:	3d01      	subs	r5, #1
    7076:	702b      	strb	r3, [r5, #0]
    7078:	ab32      	add	r3, sp, #200	; 0xc8
    707a:	1b5b      	subs	r3, r3, r5
    707c:	9310      	str	r3, [sp, #64]	; 0x40
    707e:	9512      	str	r5, [sp, #72]	; 0x48
    7080:	9a10      	ldr	r2, [sp, #64]	; 0x40
    7082:	1e13      	subs	r3, r2, #0
    7084:	9a0b      	ldr	r2, [sp, #44]	; 0x2c
    7086:	4293      	cmp	r3, r2
    7088:	da00      	bge.n	708c <_vfprintf_r+0x4b0>
    708a:	0013      	movs	r3, r2
    708c:	9309      	str	r3, [sp, #36]	; 0x24
    708e:	2300      	movs	r3, #0
    7090:	9315      	str	r3, [sp, #84]	; 0x54
    7092:	4643      	mov	r3, r8
    7094:	2b00      	cmp	r3, #0
    7096:	d002      	beq.n	709e <_vfprintf_r+0x4c2>
    7098:	9b09      	ldr	r3, [sp, #36]	; 0x24
    709a:	3301      	adds	r3, #1
    709c:	9309      	str	r3, [sp, #36]	; 0x24
    709e:	2302      	movs	r3, #2
    70a0:	9a08      	ldr	r2, [sp, #32]
    70a2:	401a      	ands	r2, r3
    70a4:	4692      	mov	sl, r2
    70a6:	d002      	beq.n	70ae <_vfprintf_r+0x4d2>
    70a8:	9b09      	ldr	r3, [sp, #36]	; 0x24
    70aa:	3302      	adds	r3, #2
    70ac:	9309      	str	r3, [sp, #36]	; 0x24
    70ae:	2384      	movs	r3, #132	; 0x84
    70b0:	9a08      	ldr	r2, [sp, #32]
    70b2:	401a      	ands	r2, r3
    70b4:	4691      	mov	r9, r2
    70b6:	d000      	beq.n	70ba <_vfprintf_r+0x4de>
    70b8:	e1c7      	b.n	744a <_vfprintf_r+0x86e>
    70ba:	9b0d      	ldr	r3, [sp, #52]	; 0x34
    70bc:	9a09      	ldr	r2, [sp, #36]	; 0x24
    70be:	1a9c      	subs	r4, r3, r2
    70c0:	2c00      	cmp	r4, #0
    70c2:	dc00      	bgt.n	70c6 <_vfprintf_r+0x4ea>
    70c4:	e1c1      	b.n	744a <_vfprintf_r+0x86e>
    70c6:	4969      	ldr	r1, [pc, #420]	; (726c <_vfprintf_r+0x690>)
    70c8:	68ba      	ldr	r2, [r7, #8]
    70ca:	687b      	ldr	r3, [r7, #4]
    70cc:	4688      	mov	r8, r1
    70ce:	2c10      	cmp	r4, #16
    70d0:	dd21      	ble.n	7116 <_vfprintf_r+0x53a>
    70d2:	0031      	movs	r1, r6
    70d4:	2510      	movs	r5, #16
    70d6:	465e      	mov	r6, fp
    70d8:	e003      	b.n	70e2 <_vfprintf_r+0x506>
    70da:	3c10      	subs	r4, #16
    70dc:	3108      	adds	r1, #8
    70de:	2c10      	cmp	r4, #16
    70e0:	dd17      	ble.n	7112 <_vfprintf_r+0x536>
    70e2:	4640      	mov	r0, r8
    70e4:	3210      	adds	r2, #16
    70e6:	3301      	adds	r3, #1
    70e8:	6008      	str	r0, [r1, #0]
    70ea:	604d      	str	r5, [r1, #4]
    70ec:	60ba      	str	r2, [r7, #8]
    70ee:	607b      	str	r3, [r7, #4]
    70f0:	2b07      	cmp	r3, #7
    70f2:	ddf2      	ble.n	70da <_vfprintf_r+0x4fe>
    70f4:	003a      	movs	r2, r7
    70f6:	0031      	movs	r1, r6
    70f8:	9807      	ldr	r0, [sp, #28]
    70fa:	f004 f869 	bl	b1d0 <__sprint_r>
    70fe:	2800      	cmp	r0, #0
    7100:	d001      	beq.n	7106 <_vfprintf_r+0x52a>
    7102:	f000 fc32 	bl	796a <_vfprintf_r+0xd8e>
    7106:	3c10      	subs	r4, #16
    7108:	68ba      	ldr	r2, [r7, #8]
    710a:	687b      	ldr	r3, [r7, #4]
    710c:	a932      	add	r1, sp, #200	; 0xc8
    710e:	2c10      	cmp	r4, #16
    7110:	dce7      	bgt.n	70e2 <_vfprintf_r+0x506>
    7112:	46b3      	mov	fp, r6
    7114:	000e      	movs	r6, r1
    7116:	4641      	mov	r1, r8
    7118:	6074      	str	r4, [r6, #4]
    711a:	3301      	adds	r3, #1
    711c:	18a4      	adds	r4, r4, r2
    711e:	6031      	str	r1, [r6, #0]
    7120:	60bc      	str	r4, [r7, #8]
    7122:	607b      	str	r3, [r7, #4]
    7124:	2b07      	cmp	r3, #7
    7126:	dd01      	ble.n	712c <_vfprintf_r+0x550>
    7128:	f000 fc11 	bl	794e <_vfprintf_r+0xd72>
    712c:	ab16      	add	r3, sp, #88	; 0x58
    712e:	7fdb      	ldrb	r3, [r3, #31]
    7130:	3608      	adds	r6, #8
    7132:	4698      	mov	r8, r3
    7134:	e18a      	b.n	744c <_vfprintf_r+0x870>
    7136:	9313      	str	r3, [sp, #76]	; 0x4c
    7138:	910a      	str	r1, [sp, #40]	; 0x28
    713a:	2800      	cmp	r0, #0
    713c:	d001      	beq.n	7142 <_vfprintf_r+0x566>
    713e:	f001 f938 	bl	83b2 <_vfprintf_r+0x17d6>
    7142:	2310      	movs	r3, #16
    7144:	9a08      	ldr	r2, [sp, #32]
    7146:	431a      	orrs	r2, r3
    7148:	9208      	str	r2, [sp, #32]
    714a:	2320      	movs	r3, #32
    714c:	9908      	ldr	r1, [sp, #32]
    714e:	400b      	ands	r3, r1
    7150:	d100      	bne.n	7154 <_vfprintf_r+0x578>
    7152:	e35e      	b.n	7812 <_vfprintf_r+0xc36>
    7154:	2207      	movs	r2, #7
    7156:	9b11      	ldr	r3, [sp, #68]	; 0x44
    7158:	3307      	adds	r3, #7
    715a:	4393      	bics	r3, r2
    715c:	3201      	adds	r2, #1
    715e:	4694      	mov	ip, r2
    7160:	449c      	add	ip, r3
    7162:	4662      	mov	r2, ip
    7164:	685c      	ldr	r4, [r3, #4]
    7166:	681b      	ldr	r3, [r3, #0]
    7168:	0025      	movs	r5, r4
    716a:	001c      	movs	r4, r3
    716c:	2300      	movs	r3, #0
    716e:	9211      	str	r2, [sp, #68]	; 0x44
    7170:	aa16      	add	r2, sp, #88	; 0x58
    7172:	77d3      	strb	r3, [r2, #31]
    7174:	9b0b      	ldr	r3, [sp, #44]	; 0x2c
    7176:	940e      	str	r4, [sp, #56]	; 0x38
    7178:	950f      	str	r5, [sp, #60]	; 0x3c
    717a:	2b00      	cmp	r3, #0
    717c:	da01      	bge.n	7182 <_vfprintf_r+0x5a6>
    717e:	f000 fc7c 	bl	7a7a <_vfprintf_r+0xe9e>
    7182:	2380      	movs	r3, #128	; 0x80
    7184:	4399      	bics	r1, r3
    7186:	9108      	str	r1, [sp, #32]
    7188:	0021      	movs	r1, r4
    718a:	4329      	orrs	r1, r5
    718c:	1e0b      	subs	r3, r1, #0
    718e:	d100      	bne.n	7192 <_vfprintf_r+0x5b6>
    7190:	e359      	b.n	7846 <_vfprintf_r+0xc6a>
    7192:	2300      	movs	r3, #0
    7194:	4698      	mov	r8, r3
    7196:	e69a      	b.n	6ece <_vfprintf_r+0x2f2>
    7198:	9313      	str	r3, [sp, #76]	; 0x4c
    719a:	910a      	str	r1, [sp, #40]	; 0x28
    719c:	2800      	cmp	r0, #0
    719e:	d100      	bne.n	71a2 <_vfprintf_r+0x5c6>
    71a0:	e71e      	b.n	6fe0 <_vfprintf_r+0x404>
    71a2:	ab16      	add	r3, sp, #88	; 0x58
    71a4:	77dc      	strb	r4, [r3, #31]
    71a6:	e71b      	b.n	6fe0 <_vfprintf_r+0x404>
    71a8:	2220      	movs	r2, #32
    71aa:	9b08      	ldr	r3, [sp, #32]
    71ac:	4313      	orrs	r3, r2
    71ae:	9308      	str	r3, [sp, #32]
    71b0:	780b      	ldrb	r3, [r1, #0]
    71b2:	e596      	b.n	6ce2 <_vfprintf_r+0x106>
    71b4:	9313      	str	r3, [sp, #76]	; 0x4c
    71b6:	9b11      	ldr	r3, [sp, #68]	; 0x44
    71b8:	910a      	str	r1, [sp, #40]	; 0x28
    71ba:	1d1c      	adds	r4, r3, #4
    71bc:	681b      	ldr	r3, [r3, #0]
    71be:	a916      	add	r1, sp, #88	; 0x58
    71c0:	001a      	movs	r2, r3
    71c2:	9312      	str	r3, [sp, #72]	; 0x48
    71c4:	2300      	movs	r3, #0
    71c6:	77cb      	strb	r3, [r1, #31]
    71c8:	2a00      	cmp	r2, #0
    71ca:	d101      	bne.n	71d0 <_vfprintf_r+0x5f4>
    71cc:	f000 ffc6 	bl	815c <_vfprintf_r+0x1580>
    71d0:	9b0b      	ldr	r3, [sp, #44]	; 0x2c
    71d2:	2b00      	cmp	r3, #0
    71d4:	da01      	bge.n	71da <_vfprintf_r+0x5fe>
    71d6:	f000 feea 	bl	7fae <_vfprintf_r+0x13d2>
    71da:	001a      	movs	r2, r3
    71dc:	2100      	movs	r1, #0
    71de:	9812      	ldr	r0, [sp, #72]	; 0x48
    71e0:	f003 f990 	bl	a504 <memchr>
    71e4:	2800      	cmp	r0, #0
    71e6:	d101      	bne.n	71ec <_vfprintf_r+0x610>
    71e8:	f001 f840 	bl	826c <_vfprintf_r+0x1690>
    71ec:	9b12      	ldr	r3, [sp, #72]	; 0x48
    71ee:	1ac3      	subs	r3, r0, r3
    71f0:	001a      	movs	r2, r3
    71f2:	9310      	str	r3, [sp, #64]	; 0x40
    71f4:	43db      	mvns	r3, r3
    71f6:	17db      	asrs	r3, r3, #31
    71f8:	401a      	ands	r2, r3
    71fa:	2300      	movs	r3, #0
    71fc:	a916      	add	r1, sp, #88	; 0x58
    71fe:	7fc9      	ldrb	r1, [r1, #31]
    7200:	9209      	str	r2, [sp, #36]	; 0x24
    7202:	4688      	mov	r8, r1
    7204:	9411      	str	r4, [sp, #68]	; 0x44
    7206:	930b      	str	r3, [sp, #44]	; 0x2c
    7208:	9315      	str	r3, [sp, #84]	; 0x54
    720a:	e742      	b.n	7092 <_vfprintf_r+0x4b6>
    720c:	9313      	str	r3, [sp, #76]	; 0x4c
    720e:	910a      	str	r1, [sp, #40]	; 0x28
    7210:	2800      	cmp	r0, #0
    7212:	d100      	bne.n	7216 <_vfprintf_r+0x63a>
    7214:	e632      	b.n	6e7c <_vfprintf_r+0x2a0>
    7216:	ab16      	add	r3, sp, #88	; 0x58
    7218:	77dc      	strb	r4, [r3, #31]
    721a:	e62f      	b.n	6e7c <_vfprintf_r+0x2a0>
    721c:	4652      	mov	r2, sl
    721e:	9b08      	ldr	r3, [sp, #32]
    7220:	4313      	orrs	r3, r2
    7222:	9308      	str	r3, [sp, #32]
    7224:	780b      	ldrb	r3, [r1, #0]
    7226:	e55c      	b.n	6ce2 <_vfprintf_r+0x106>
    7228:	780b      	ldrb	r3, [r1, #0]
    722a:	2b6c      	cmp	r3, #108	; 0x6c
    722c:	d101      	bne.n	7232 <_vfprintf_r+0x656>
    722e:	f000 fea4 	bl	7f7a <_vfprintf_r+0x139e>
    7232:	2510      	movs	r5, #16
    7234:	9a08      	ldr	r2, [sp, #32]
    7236:	432a      	orrs	r2, r5
    7238:	9208      	str	r2, [sp, #32]
    723a:	e552      	b.n	6ce2 <_vfprintf_r+0x106>
    723c:	910a      	str	r1, [sp, #40]	; 0x28
    723e:	2800      	cmp	r0, #0
    7240:	d001      	beq.n	7246 <_vfprintf_r+0x66a>
    7242:	f001 f8cb 	bl	83dc <_vfprintf_r+0x1800>
    7246:	9b08      	ldr	r3, [sp, #32]
    7248:	069b      	lsls	r3, r3, #26
    724a:	d401      	bmi.n	7250 <_vfprintf_r+0x674>
    724c:	f000 fd85 	bl	7d5a <_vfprintf_r+0x117e>
    7250:	9911      	ldr	r1, [sp, #68]	; 0x44
    7252:	9a0c      	ldr	r2, [sp, #48]	; 0x30
    7254:	680b      	ldr	r3, [r1, #0]
    7256:	601a      	str	r2, [r3, #0]
    7258:	17d2      	asrs	r2, r2, #31
    725a:	605a      	str	r2, [r3, #4]
    725c:	000b      	movs	r3, r1
    725e:	3304      	adds	r3, #4
    7260:	9311      	str	r3, [sp, #68]	; 0x44
    7262:	e503      	b.n	6c6c <_vfprintf_r+0x90>
    7264:	7fefffff 	.word	0x7fefffff
    7268:	0000bfac 	.word	0x0000bfac
    726c:	0000bfe8 	.word	0x0000bfe8
    7270:	9313      	str	r3, [sp, #76]	; 0x4c
    7272:	910a      	str	r1, [sp, #40]	; 0x28
    7274:	2800      	cmp	r0, #0
    7276:	d001      	beq.n	727c <_vfprintf_r+0x6a0>
    7278:	f001 f89f 	bl	83ba <_vfprintf_r+0x17de>
    727c:	9b08      	ldr	r3, [sp, #32]
    727e:	49b5      	ldr	r1, [pc, #724]	; (7554 <_vfprintf_r+0x978>)
    7280:	069b      	lsls	r3, r3, #26
    7282:	d563      	bpl.n	734c <_vfprintf_r+0x770>
    7284:	2207      	movs	r2, #7
    7286:	9b11      	ldr	r3, [sp, #68]	; 0x44
    7288:	3307      	adds	r3, #7
    728a:	4393      	bics	r3, r2
    728c:	3201      	adds	r2, #1
    728e:	4694      	mov	ip, r2
    7290:	449c      	add	ip, r3
    7292:	4662      	mov	r2, ip
    7294:	685c      	ldr	r4, [r3, #4]
    7296:	681b      	ldr	r3, [r3, #0]
    7298:	930e      	str	r3, [sp, #56]	; 0x38
    729a:	940f      	str	r4, [sp, #60]	; 0x3c
    729c:	2301      	movs	r3, #1
    729e:	9211      	str	r2, [sp, #68]	; 0x44
    72a0:	9a08      	ldr	r2, [sp, #32]
    72a2:	4013      	ands	r3, r2
    72a4:	d065      	beq.n	7372 <_vfprintf_r+0x796>
    72a6:	9a0e      	ldr	r2, [sp, #56]	; 0x38
    72a8:	9b0f      	ldr	r3, [sp, #60]	; 0x3c
    72aa:	0010      	movs	r0, r2
    72ac:	4318      	orrs	r0, r3
    72ae:	d101      	bne.n	72b4 <_vfprintf_r+0x6d8>
    72b0:	f000 fd6c 	bl	7d8c <_vfprintf_r+0x11b0>
    72b4:	2230      	movs	r2, #48	; 0x30
    72b6:	ab1e      	add	r3, sp, #120	; 0x78
    72b8:	701a      	strb	r2, [r3, #0]
    72ba:	204c      	movs	r0, #76	; 0x4c
    72bc:	466a      	mov	r2, sp
    72be:	1812      	adds	r2, r2, r0
    72c0:	7812      	ldrb	r2, [r2, #0]
    72c2:	9c08      	ldr	r4, [sp, #32]
    72c4:	705a      	strb	r2, [r3, #1]
    72c6:	2200      	movs	r2, #0
    72c8:	2302      	movs	r3, #2
    72ca:	0020      	movs	r0, r4
    72cc:	ad16      	add	r5, sp, #88	; 0x58
    72ce:	77ea      	strb	r2, [r5, #31]
    72d0:	9a0b      	ldr	r2, [sp, #44]	; 0x2c
    72d2:	4318      	orrs	r0, r3
    72d4:	2a00      	cmp	r2, #0
    72d6:	da01      	bge.n	72dc <_vfprintf_r+0x700>
    72d8:	f000 ff82 	bl	81e0 <_vfprintf_r+0x1604>
    72dc:	2280      	movs	r2, #128	; 0x80
    72de:	0020      	movs	r0, r4
    72e0:	4390      	bics	r0, r2
    72e2:	0002      	movs	r2, r0
    72e4:	431a      	orrs	r2, r3
    72e6:	2300      	movs	r3, #0
    72e8:	4698      	mov	r8, r3
    72ea:	9208      	str	r2, [sp, #32]
    72ec:	200f      	movs	r0, #15
    72ee:	468c      	mov	ip, r1
    72f0:	46b1      	mov	r9, r6
    72f2:	ab32      	add	r3, sp, #200	; 0xc8
    72f4:	001c      	movs	r4, r3
    72f6:	9a0e      	ldr	r2, [sp, #56]	; 0x38
    72f8:	9b0f      	ldr	r3, [sp, #60]	; 0x3c
    72fa:	0001      	movs	r1, r0
    72fc:	4665      	mov	r5, ip
    72fe:	4011      	ands	r1, r2
    7300:	5c69      	ldrb	r1, [r5, r1]
    7302:	3c01      	subs	r4, #1
    7304:	071e      	lsls	r6, r3, #28
    7306:	7021      	strb	r1, [r4, #0]
    7308:	0911      	lsrs	r1, r2, #4
    730a:	091d      	lsrs	r5, r3, #4
    730c:	430e      	orrs	r6, r1
    730e:	002b      	movs	r3, r5
    7310:	0035      	movs	r5, r6
    7312:	0032      	movs	r2, r6
    7314:	431d      	orrs	r5, r3
    7316:	d1f0      	bne.n	72fa <_vfprintf_r+0x71e>
    7318:	464e      	mov	r6, r9
    731a:	920e      	str	r2, [sp, #56]	; 0x38
    731c:	930f      	str	r3, [sp, #60]	; 0x3c
    731e:	9412      	str	r4, [sp, #72]	; 0x48
    7320:	ab32      	add	r3, sp, #200	; 0xc8
    7322:	1b1b      	subs	r3, r3, r4
    7324:	9310      	str	r3, [sp, #64]	; 0x40
    7326:	e6ab      	b.n	7080 <_vfprintf_r+0x4a4>
    7328:	9313      	str	r3, [sp, #76]	; 0x4c
    732a:	910a      	str	r1, [sp, #40]	; 0x28
    732c:	2800      	cmp	r0, #0
    732e:	d100      	bne.n	7332 <_vfprintf_r+0x756>
    7330:	e70b      	b.n	714a <_vfprintf_r+0x56e>
    7332:	ab16      	add	r3, sp, #88	; 0x58
    7334:	77dc      	strb	r4, [r3, #31]
    7336:	e708      	b.n	714a <_vfprintf_r+0x56e>
    7338:	9313      	str	r3, [sp, #76]	; 0x4c
    733a:	910a      	str	r1, [sp, #40]	; 0x28
    733c:	2800      	cmp	r0, #0
    733e:	d001      	beq.n	7344 <_vfprintf_r+0x768>
    7340:	f001 f843 	bl	83ca <_vfprintf_r+0x17ee>
    7344:	4984      	ldr	r1, [pc, #528]	; (7558 <_vfprintf_r+0x97c>)
    7346:	9b08      	ldr	r3, [sp, #32]
    7348:	069b      	lsls	r3, r3, #26
    734a:	d49b      	bmi.n	7284 <_vfprintf_r+0x6a8>
    734c:	9b08      	ldr	r3, [sp, #32]
    734e:	06db      	lsls	r3, r3, #27
    7350:	d404      	bmi.n	735c <_vfprintf_r+0x780>
    7352:	9b08      	ldr	r3, [sp, #32]
    7354:	065b      	lsls	r3, r3, #25
    7356:	d501      	bpl.n	735c <_vfprintf_r+0x780>
    7358:	f000 fdcb 	bl	7ef2 <_vfprintf_r+0x1316>
    735c:	9b11      	ldr	r3, [sp, #68]	; 0x44
    735e:	681a      	ldr	r2, [r3, #0]
    7360:	920e      	str	r2, [sp, #56]	; 0x38
    7362:	2200      	movs	r2, #0
    7364:	3304      	adds	r3, #4
    7366:	9311      	str	r3, [sp, #68]	; 0x44
    7368:	2301      	movs	r3, #1
    736a:	920f      	str	r2, [sp, #60]	; 0x3c
    736c:	9a08      	ldr	r2, [sp, #32]
    736e:	4013      	ands	r3, r2
    7370:	d199      	bne.n	72a6 <_vfprintf_r+0x6ca>
    7372:	a816      	add	r0, sp, #88	; 0x58
    7374:	77c3      	strb	r3, [r0, #31]
    7376:	9b0b      	ldr	r3, [sp, #44]	; 0x2c
    7378:	2b00      	cmp	r3, #0
    737a:	da01      	bge.n	7380 <_vfprintf_r+0x7a4>
    737c:	f000 fd6d 	bl	7e5a <_vfprintf_r+0x127e>
    7380:	2380      	movs	r3, #128	; 0x80
    7382:	439a      	bics	r2, r3
    7384:	9208      	str	r2, [sp, #32]
    7386:	9a0e      	ldr	r2, [sp, #56]	; 0x38
    7388:	9b0f      	ldr	r3, [sp, #60]	; 0x3c
    738a:	0010      	movs	r0, r2
    738c:	4318      	orrs	r0, r3
    738e:	d159      	bne.n	7444 <_vfprintf_r+0x868>
    7390:	9b0b      	ldr	r3, [sp, #44]	; 0x2c
    7392:	4698      	mov	r8, r3
    7394:	2b00      	cmp	r3, #0
    7396:	d000      	beq.n	739a <_vfprintf_r+0x7be>
    7398:	e4e0      	b.n	6d5c <_vfprintf_r+0x180>
    739a:	2300      	movs	r3, #0
    739c:	930b      	str	r3, [sp, #44]	; 0x2c
    739e:	9310      	str	r3, [sp, #64]	; 0x40
    73a0:	ab32      	add	r3, sp, #200	; 0xc8
    73a2:	9312      	str	r3, [sp, #72]	; 0x48
    73a4:	e66c      	b.n	7080 <_vfprintf_r+0x4a4>
    73a6:	780b      	ldrb	r3, [r1, #0]
    73a8:	2c00      	cmp	r4, #0
    73aa:	d000      	beq.n	73ae <_vfprintf_r+0x7d2>
    73ac:	e499      	b.n	6ce2 <_vfprintf_r+0x106>
    73ae:	2001      	movs	r0, #1
    73b0:	3420      	adds	r4, #32
    73b2:	e496      	b.n	6ce2 <_vfprintf_r+0x106>
    73b4:	2301      	movs	r3, #1
    73b6:	9a08      	ldr	r2, [sp, #32]
    73b8:	431a      	orrs	r2, r3
    73ba:	9208      	str	r2, [sp, #32]
    73bc:	780b      	ldrb	r3, [r1, #0]
    73be:	e490      	b.n	6ce2 <_vfprintf_r+0x106>
    73c0:	780b      	ldrb	r3, [r1, #0]
    73c2:	2001      	movs	r0, #1
    73c4:	242b      	movs	r4, #43	; 0x2b
    73c6:	e48c      	b.n	6ce2 <_vfprintf_r+0x106>
    73c8:	9a11      	ldr	r2, [sp, #68]	; 0x44
    73ca:	9313      	str	r3, [sp, #76]	; 0x4c
    73cc:	6813      	ldr	r3, [r2, #0]
    73ce:	910a      	str	r1, [sp, #40]	; 0x28
    73d0:	9309      	str	r3, [sp, #36]	; 0x24
    73d2:	2124      	movs	r1, #36	; 0x24
    73d4:	466b      	mov	r3, sp
    73d6:	185b      	adds	r3, r3, r1
    73d8:	781b      	ldrb	r3, [r3, #0]
    73da:	ad28      	add	r5, sp, #160	; 0xa0
    73dc:	702b      	strb	r3, [r5, #0]
    73de:	2300      	movs	r3, #0
    73e0:	a916      	add	r1, sp, #88	; 0x58
    73e2:	77cb      	strb	r3, [r1, #31]
    73e4:	0013      	movs	r3, r2
    73e6:	3304      	adds	r3, #4
    73e8:	9311      	str	r3, [sp, #68]	; 0x44
    73ea:	2300      	movs	r3, #0
    73ec:	4698      	mov	r8, r3
    73ee:	3301      	adds	r3, #1
    73f0:	9309      	str	r3, [sp, #36]	; 0x24
    73f2:	9310      	str	r3, [sp, #64]	; 0x40
    73f4:	2300      	movs	r3, #0
    73f6:	9512      	str	r5, [sp, #72]	; 0x48
    73f8:	930b      	str	r3, [sp, #44]	; 0x2c
    73fa:	9315      	str	r3, [sp, #84]	; 0x54
    73fc:	e64f      	b.n	709e <_vfprintf_r+0x4c2>
    73fe:	2300      	movs	r3, #0
    7400:	4698      	mov	r8, r3
    7402:	3378      	adds	r3, #120	; 0x78
    7404:	4954      	ldr	r1, [pc, #336]	; (7558 <_vfprintf_r+0x97c>)
    7406:	9313      	str	r3, [sp, #76]	; 0x4c
    7408:	e770      	b.n	72ec <_vfprintf_r+0x710>
    740a:	9313      	str	r3, [sp, #76]	; 0x4c
    740c:	910a      	str	r1, [sp, #40]	; 0x28
    740e:	2800      	cmp	r0, #0
    7410:	d001      	beq.n	7416 <_vfprintf_r+0x83a>
    7412:	f000 ffdf 	bl	83d4 <_vfprintf_r+0x17f8>
    7416:	9b13      	ldr	r3, [sp, #76]	; 0x4c
    7418:	2b00      	cmp	r3, #0
    741a:	d101      	bne.n	7420 <_vfprintf_r+0x844>
    741c:	f000 fd28 	bl	7e70 <_vfprintf_r+0x1294>
    7420:	ad28      	add	r5, sp, #160	; 0xa0
    7422:	702b      	strb	r3, [r5, #0]
    7424:	2300      	movs	r3, #0
    7426:	aa16      	add	r2, sp, #88	; 0x58
    7428:	77d3      	strb	r3, [r2, #31]
    742a:	e7df      	b.n	73ec <_vfprintf_r+0x810>
    742c:	2378      	movs	r3, #120	; 0x78
    742e:	9108      	str	r1, [sp, #32]
    7430:	4949      	ldr	r1, [pc, #292]	; (7558 <_vfprintf_r+0x97c>)
    7432:	9313      	str	r3, [sp, #76]	; 0x4c
    7434:	9a0e      	ldr	r2, [sp, #56]	; 0x38
    7436:	9b0f      	ldr	r3, [sp, #60]	; 0x3c
    7438:	0014      	movs	r4, r2
    743a:	431c      	orrs	r4, r3
    743c:	1e23      	subs	r3, r4, #0
    743e:	9011      	str	r0, [sp, #68]	; 0x44
    7440:	d100      	bne.n	7444 <_vfprintf_r+0x868>
    7442:	e48c      	b.n	6d5e <_vfprintf_r+0x182>
    7444:	2300      	movs	r3, #0
    7446:	4698      	mov	r8, r3
    7448:	e750      	b.n	72ec <_vfprintf_r+0x710>
    744a:	68bc      	ldr	r4, [r7, #8]
    744c:	4643      	mov	r3, r8
    744e:	2b00      	cmp	r3, #0
    7450:	d00f      	beq.n	7472 <_vfprintf_r+0x896>
    7452:	aa16      	add	r2, sp, #88	; 0x58
    7454:	231f      	movs	r3, #31
    7456:	4694      	mov	ip, r2
    7458:	4463      	add	r3, ip
    745a:	6033      	str	r3, [r6, #0]
    745c:	2301      	movs	r3, #1
    745e:	6073      	str	r3, [r6, #4]
    7460:	687b      	ldr	r3, [r7, #4]
    7462:	3401      	adds	r4, #1
    7464:	3301      	adds	r3, #1
    7466:	60bc      	str	r4, [r7, #8]
    7468:	607b      	str	r3, [r7, #4]
    746a:	2b07      	cmp	r3, #7
    746c:	dd00      	ble.n	7470 <_vfprintf_r+0x894>
    746e:	e20c      	b.n	788a <_vfprintf_r+0xcae>
    7470:	3608      	adds	r6, #8
    7472:	4653      	mov	r3, sl
    7474:	2b00      	cmp	r3, #0
    7476:	d00c      	beq.n	7492 <_vfprintf_r+0x8b6>
    7478:	ab1e      	add	r3, sp, #120	; 0x78
    747a:	6033      	str	r3, [r6, #0]
    747c:	2302      	movs	r3, #2
    747e:	6073      	str	r3, [r6, #4]
    7480:	687b      	ldr	r3, [r7, #4]
    7482:	3402      	adds	r4, #2
    7484:	3301      	adds	r3, #1
    7486:	60bc      	str	r4, [r7, #8]
    7488:	607b      	str	r3, [r7, #4]
    748a:	2b07      	cmp	r3, #7
    748c:	dd00      	ble.n	7490 <_vfprintf_r+0x8b4>
    748e:	e206      	b.n	789e <_vfprintf_r+0xcc2>
    7490:	3608      	adds	r6, #8
    7492:	464b      	mov	r3, r9
    7494:	2b80      	cmp	r3, #128	; 0x80
    7496:	d100      	bne.n	749a <_vfprintf_r+0x8be>
    7498:	e152      	b.n	7740 <_vfprintf_r+0xb64>
    749a:	9b0b      	ldr	r3, [sp, #44]	; 0x2c
    749c:	9a10      	ldr	r2, [sp, #64]	; 0x40
    749e:	1a9d      	subs	r5, r3, r2
    74a0:	2d00      	cmp	r5, #0
    74a2:	dd32      	ble.n	750a <_vfprintf_r+0x92e>
    74a4:	4a2d      	ldr	r2, [pc, #180]	; (755c <_vfprintf_r+0x980>)
    74a6:	687b      	ldr	r3, [r7, #4]
    74a8:	4691      	mov	r9, r2
    74aa:	2d10      	cmp	r5, #16
    74ac:	dd22      	ble.n	74f4 <_vfprintf_r+0x918>
    74ae:	2210      	movs	r2, #16
    74b0:	4692      	mov	sl, r2
    74b2:	0022      	movs	r2, r4
    74b4:	465c      	mov	r4, fp
    74b6:	e003      	b.n	74c0 <_vfprintf_r+0x8e4>
    74b8:	3d10      	subs	r5, #16
    74ba:	3608      	adds	r6, #8
    74bc:	2d10      	cmp	r5, #16
    74be:	dd17      	ble.n	74f0 <_vfprintf_r+0x914>
    74c0:	4649      	mov	r1, r9
    74c2:	6031      	str	r1, [r6, #0]
    74c4:	4651      	mov	r1, sl
    74c6:	3210      	adds	r2, #16
    74c8:	3301      	adds	r3, #1
    74ca:	6071      	str	r1, [r6, #4]
    74cc:	60ba      	str	r2, [r7, #8]
    74ce:	607b      	str	r3, [r7, #4]
    74d0:	2b07      	cmp	r3, #7
    74d2:	ddf1      	ble.n	74b8 <_vfprintf_r+0x8dc>
    74d4:	003a      	movs	r2, r7
    74d6:	0021      	movs	r1, r4
    74d8:	9807      	ldr	r0, [sp, #28]
    74da:	f003 fe79 	bl	b1d0 <__sprint_r>
    74de:	2800      	cmp	r0, #0
    74e0:	d000      	beq.n	74e4 <_vfprintf_r+0x908>
    74e2:	e166      	b.n	77b2 <_vfprintf_r+0xbd6>
    74e4:	3d10      	subs	r5, #16
    74e6:	68ba      	ldr	r2, [r7, #8]
    74e8:	687b      	ldr	r3, [r7, #4]
    74ea:	ae32      	add	r6, sp, #200	; 0xc8
    74ec:	2d10      	cmp	r5, #16
    74ee:	dce7      	bgt.n	74c0 <_vfprintf_r+0x8e4>
    74f0:	46a3      	mov	fp, r4
    74f2:	0014      	movs	r4, r2
    74f4:	464a      	mov	r2, r9
    74f6:	1964      	adds	r4, r4, r5
    74f8:	3301      	adds	r3, #1
    74fa:	6032      	str	r2, [r6, #0]
    74fc:	6075      	str	r5, [r6, #4]
    74fe:	60bc      	str	r4, [r7, #8]
    7500:	607b      	str	r3, [r7, #4]
    7502:	2b07      	cmp	r3, #7
    7504:	dd00      	ble.n	7508 <_vfprintf_r+0x92c>
    7506:	e1b6      	b.n	7876 <_vfprintf_r+0xc9a>
    7508:	3608      	adds	r6, #8
    750a:	9b08      	ldr	r3, [sp, #32]
    750c:	05db      	lsls	r3, r3, #23
    750e:	d500      	bpl.n	7512 <_vfprintf_r+0x936>
    7510:	e0ba      	b.n	7688 <_vfprintf_r+0xaac>
    7512:	9b12      	ldr	r3, [sp, #72]	; 0x48
    7514:	6033      	str	r3, [r6, #0]
    7516:	9b10      	ldr	r3, [sp, #64]	; 0x40
    7518:	469c      	mov	ip, r3
    751a:	6073      	str	r3, [r6, #4]
    751c:	687b      	ldr	r3, [r7, #4]
    751e:	4464      	add	r4, ip
    7520:	3301      	adds	r3, #1
    7522:	60bc      	str	r4, [r7, #8]
    7524:	607b      	str	r3, [r7, #4]
    7526:	2b07      	cmp	r3, #7
    7528:	dd00      	ble.n	752c <_vfprintf_r+0x950>
    752a:	e0a2      	b.n	7672 <_vfprintf_r+0xa96>
    752c:	3608      	adds	r6, #8
    752e:	9b08      	ldr	r3, [sp, #32]
    7530:	075b      	lsls	r3, r3, #29
    7532:	d546      	bpl.n	75c2 <_vfprintf_r+0x9e6>
    7534:	9b0d      	ldr	r3, [sp, #52]	; 0x34
    7536:	9a09      	ldr	r2, [sp, #36]	; 0x24
    7538:	1a9d      	subs	r5, r3, r2
    753a:	2d00      	cmp	r5, #0
    753c:	dd41      	ble.n	75c2 <_vfprintf_r+0x9e6>
    753e:	4a08      	ldr	r2, [pc, #32]	; (7560 <_vfprintf_r+0x984>)
    7540:	687b      	ldr	r3, [r7, #4]
    7542:	4690      	mov	r8, r2
    7544:	2d10      	cmp	r5, #16
    7546:	dd2b      	ble.n	75a0 <_vfprintf_r+0x9c4>
    7548:	2210      	movs	r2, #16
    754a:	4691      	mov	r9, r2
    754c:	0022      	movs	r2, r4
    754e:	465c      	mov	r4, fp
    7550:	e00c      	b.n	756c <_vfprintf_r+0x990>
    7552:	46c0      	nop			; (mov r8, r8)
    7554:	0000bfb8 	.word	0x0000bfb8
    7558:	0000bfcc 	.word	0x0000bfcc
    755c:	0000bf98 	.word	0x0000bf98
    7560:	0000bfe8 	.word	0x0000bfe8
    7564:	3d10      	subs	r5, #16
    7566:	3608      	adds	r6, #8
    7568:	2d10      	cmp	r5, #16
    756a:	dd17      	ble.n	759c <_vfprintf_r+0x9c0>
    756c:	4641      	mov	r1, r8
    756e:	6031      	str	r1, [r6, #0]
    7570:	4649      	mov	r1, r9
    7572:	3210      	adds	r2, #16
    7574:	3301      	adds	r3, #1
    7576:	6071      	str	r1, [r6, #4]
    7578:	60ba      	str	r2, [r7, #8]
    757a:	607b      	str	r3, [r7, #4]
    757c:	2b07      	cmp	r3, #7
    757e:	ddf1      	ble.n	7564 <_vfprintf_r+0x988>
    7580:	003a      	movs	r2, r7
    7582:	0021      	movs	r1, r4
    7584:	9807      	ldr	r0, [sp, #28]
    7586:	f003 fe23 	bl	b1d0 <__sprint_r>
    758a:	2800      	cmp	r0, #0
    758c:	d000      	beq.n	7590 <_vfprintf_r+0x9b4>
    758e:	e110      	b.n	77b2 <_vfprintf_r+0xbd6>
    7590:	3d10      	subs	r5, #16
    7592:	68ba      	ldr	r2, [r7, #8]
    7594:	687b      	ldr	r3, [r7, #4]
    7596:	ae32      	add	r6, sp, #200	; 0xc8
    7598:	2d10      	cmp	r5, #16
    759a:	dce7      	bgt.n	756c <_vfprintf_r+0x990>
    759c:	46a3      	mov	fp, r4
    759e:	0014      	movs	r4, r2
    75a0:	4642      	mov	r2, r8
    75a2:	1964      	adds	r4, r4, r5
    75a4:	3301      	adds	r3, #1
    75a6:	c624      	stmia	r6!, {r2, r5}
    75a8:	60bc      	str	r4, [r7, #8]
    75aa:	607b      	str	r3, [r7, #4]
    75ac:	2b07      	cmp	r3, #7
    75ae:	dd08      	ble.n	75c2 <_vfprintf_r+0x9e6>
    75b0:	003a      	movs	r2, r7
    75b2:	4659      	mov	r1, fp
    75b4:	9807      	ldr	r0, [sp, #28]
    75b6:	f003 fe0b 	bl	b1d0 <__sprint_r>
    75ba:	2800      	cmp	r0, #0
    75bc:	d000      	beq.n	75c0 <_vfprintf_r+0x9e4>
    75be:	e126      	b.n	780e <_vfprintf_r+0xc32>
    75c0:	68bc      	ldr	r4, [r7, #8]
    75c2:	9b0d      	ldr	r3, [sp, #52]	; 0x34
    75c4:	9a09      	ldr	r2, [sp, #36]	; 0x24
    75c6:	4293      	cmp	r3, r2
    75c8:	da00      	bge.n	75cc <_vfprintf_r+0x9f0>
    75ca:	0013      	movs	r3, r2
    75cc:	9a0c      	ldr	r2, [sp, #48]	; 0x30
    75ce:	4694      	mov	ip, r2
    75d0:	449c      	add	ip, r3
    75d2:	4663      	mov	r3, ip
    75d4:	930c      	str	r3, [sp, #48]	; 0x30
    75d6:	2c00      	cmp	r4, #0
    75d8:	d000      	beq.n	75dc <_vfprintf_r+0xa00>
    75da:	e110      	b.n	77fe <_vfprintf_r+0xc22>
    75dc:	2300      	movs	r3, #0
    75de:	ae32      	add	r6, sp, #200	; 0xc8
    75e0:	607b      	str	r3, [r7, #4]
    75e2:	f7ff fb43 	bl	6c6c <_vfprintf_r+0x90>
    75e6:	9b14      	ldr	r3, [sp, #80]	; 0x50
    75e8:	2b01      	cmp	r3, #1
    75ea:	dc00      	bgt.n	75ee <_vfprintf_r+0xa12>
    75ec:	e0ea      	b.n	77c4 <_vfprintf_r+0xbe8>
    75ee:	9b12      	ldr	r3, [sp, #72]	; 0x48
    75f0:	3401      	adds	r4, #1
    75f2:	6033      	str	r3, [r6, #0]
    75f4:	2301      	movs	r3, #1
    75f6:	6073      	str	r3, [r6, #4]
    75f8:	687b      	ldr	r3, [r7, #4]
    75fa:	60bc      	str	r4, [r7, #8]
    75fc:	3301      	adds	r3, #1
    75fe:	607b      	str	r3, [r7, #4]
    7600:	2b07      	cmp	r3, #7
    7602:	dd00      	ble.n	7606 <_vfprintf_r+0xa2a>
    7604:	e2b2      	b.n	7b6c <_vfprintf_r+0xf90>
    7606:	3608      	adds	r6, #8
    7608:	9a19      	ldr	r2, [sp, #100]	; 0x64
    760a:	3301      	adds	r3, #1
    760c:	6032      	str	r2, [r6, #0]
    760e:	9a18      	ldr	r2, [sp, #96]	; 0x60
    7610:	4698      	mov	r8, r3
    7612:	4694      	mov	ip, r2
    7614:	4464      	add	r4, ip
    7616:	6072      	str	r2, [r6, #4]
    7618:	60bc      	str	r4, [r7, #8]
    761a:	607b      	str	r3, [r7, #4]
    761c:	2b07      	cmp	r3, #7
    761e:	dd00      	ble.n	7622 <_vfprintf_r+0xa46>
    7620:	e2b8      	b.n	7b94 <_vfprintf_r+0xfb8>
    7622:	3608      	adds	r6, #8
    7624:	2200      	movs	r2, #0
    7626:	2300      	movs	r3, #0
    7628:	9816      	ldr	r0, [sp, #88]	; 0x58
    762a:	9917      	ldr	r1, [sp, #92]	; 0x5c
    762c:	f7fc feba 	bl	43a4 <__aeabi_dcmpeq>
    7630:	2800      	cmp	r0, #0
    7632:	d000      	beq.n	7636 <_vfprintf_r+0xa5a>
    7634:	e1d1      	b.n	79da <_vfprintf_r+0xdfe>
    7636:	9d12      	ldr	r5, [sp, #72]	; 0x48
    7638:	9b14      	ldr	r3, [sp, #80]	; 0x50
    763a:	3501      	adds	r5, #1
    763c:	3b01      	subs	r3, #1
    763e:	6035      	str	r5, [r6, #0]
    7640:	6073      	str	r3, [r6, #4]
    7642:	18e4      	adds	r4, r4, r3
    7644:	2301      	movs	r3, #1
    7646:	469c      	mov	ip, r3
    7648:	44e0      	add	r8, ip
    764a:	4643      	mov	r3, r8
    764c:	60bc      	str	r4, [r7, #8]
    764e:	607b      	str	r3, [r7, #4]
    7650:	2b07      	cmp	r3, #7
    7652:	dd00      	ble.n	7656 <_vfprintf_r+0xa7a>
    7654:	e0c7      	b.n	77e6 <_vfprintf_r+0xc0a>
    7656:	3608      	adds	r6, #8
    7658:	ab21      	add	r3, sp, #132	; 0x84
    765a:	6033      	str	r3, [r6, #0]
    765c:	9b1a      	ldr	r3, [sp, #104]	; 0x68
    765e:	469c      	mov	ip, r3
    7660:	6073      	str	r3, [r6, #4]
    7662:	4643      	mov	r3, r8
    7664:	4464      	add	r4, ip
    7666:	3301      	adds	r3, #1
    7668:	60bc      	str	r4, [r7, #8]
    766a:	607b      	str	r3, [r7, #4]
    766c:	2b07      	cmp	r3, #7
    766e:	dc00      	bgt.n	7672 <_vfprintf_r+0xa96>
    7670:	e75c      	b.n	752c <_vfprintf_r+0x950>
    7672:	003a      	movs	r2, r7
    7674:	4659      	mov	r1, fp
    7676:	9807      	ldr	r0, [sp, #28]
    7678:	f003 fdaa 	bl	b1d0 <__sprint_r>
    767c:	2800      	cmp	r0, #0
    767e:	d000      	beq.n	7682 <_vfprintf_r+0xaa6>
    7680:	e0c5      	b.n	780e <_vfprintf_r+0xc32>
    7682:	68bc      	ldr	r4, [r7, #8]
    7684:	ae32      	add	r6, sp, #200	; 0xc8
    7686:	e752      	b.n	752e <_vfprintf_r+0x952>
    7688:	9b13      	ldr	r3, [sp, #76]	; 0x4c
    768a:	2b65      	cmp	r3, #101	; 0x65
    768c:	ddab      	ble.n	75e6 <_vfprintf_r+0xa0a>
    768e:	2200      	movs	r2, #0
    7690:	2300      	movs	r3, #0
    7692:	9816      	ldr	r0, [sp, #88]	; 0x58
    7694:	9917      	ldr	r1, [sp, #92]	; 0x5c
    7696:	f7fc fe85 	bl	43a4 <__aeabi_dcmpeq>
    769a:	2800      	cmp	r0, #0
    769c:	d100      	bne.n	76a0 <_vfprintf_r+0xac4>
    769e:	e108      	b.n	78b2 <_vfprintf_r+0xcd6>
    76a0:	4bd6      	ldr	r3, [pc, #856]	; (79fc <_vfprintf_r+0xe20>)
    76a2:	3401      	adds	r4, #1
    76a4:	6033      	str	r3, [r6, #0]
    76a6:	2301      	movs	r3, #1
    76a8:	6073      	str	r3, [r6, #4]
    76aa:	687b      	ldr	r3, [r7, #4]
    76ac:	60bc      	str	r4, [r7, #8]
    76ae:	3301      	adds	r3, #1
    76b0:	607b      	str	r3, [r7, #4]
    76b2:	2b07      	cmp	r3, #7
    76b4:	dd00      	ble.n	76b8 <_vfprintf_r+0xadc>
    76b6:	e37a      	b.n	7dae <_vfprintf_r+0x11d2>
    76b8:	3608      	adds	r6, #8
    76ba:	9b1f      	ldr	r3, [sp, #124]	; 0x7c
    76bc:	9a14      	ldr	r2, [sp, #80]	; 0x50
    76be:	4293      	cmp	r3, r2
    76c0:	db03      	blt.n	76ca <_vfprintf_r+0xaee>
    76c2:	9b08      	ldr	r3, [sp, #32]
    76c4:	07db      	lsls	r3, r3, #31
    76c6:	d400      	bmi.n	76ca <_vfprintf_r+0xaee>
    76c8:	e731      	b.n	752e <_vfprintf_r+0x952>
    76ca:	9b19      	ldr	r3, [sp, #100]	; 0x64
    76cc:	6033      	str	r3, [r6, #0]
    76ce:	9b18      	ldr	r3, [sp, #96]	; 0x60
    76d0:	469c      	mov	ip, r3
    76d2:	6073      	str	r3, [r6, #4]
    76d4:	687b      	ldr	r3, [r7, #4]
    76d6:	4464      	add	r4, ip
    76d8:	3301      	adds	r3, #1
    76da:	60bc      	str	r4, [r7, #8]
    76dc:	607b      	str	r3, [r7, #4]
    76de:	2b07      	cmp	r3, #7
    76e0:	dd01      	ble.n	76e6 <_vfprintf_r+0xb0a>
    76e2:	f000 fc52 	bl	7f8a <_vfprintf_r+0x13ae>
    76e6:	3608      	adds	r6, #8
    76e8:	9b14      	ldr	r3, [sp, #80]	; 0x50
    76ea:	1e5d      	subs	r5, r3, #1
    76ec:	2d00      	cmp	r5, #0
    76ee:	dc00      	bgt.n	76f2 <_vfprintf_r+0xb16>
    76f0:	e71d      	b.n	752e <_vfprintf_r+0x952>
    76f2:	4ac3      	ldr	r2, [pc, #780]	; (7a00 <_vfprintf_r+0xe24>)
    76f4:	687b      	ldr	r3, [r7, #4]
    76f6:	4691      	mov	r9, r2
    76f8:	2d10      	cmp	r5, #16
    76fa:	dc00      	bgt.n	76fe <_vfprintf_r+0xb22>
    76fc:	e19f      	b.n	7a3e <_vfprintf_r+0xe62>
    76fe:	2210      	movs	r2, #16
    7700:	4690      	mov	r8, r2
    7702:	0022      	movs	r2, r4
    7704:	464c      	mov	r4, r9
    7706:	46d9      	mov	r9, fp
    7708:	e004      	b.n	7714 <_vfprintf_r+0xb38>
    770a:	3608      	adds	r6, #8
    770c:	3d10      	subs	r5, #16
    770e:	2d10      	cmp	r5, #16
    7710:	dc00      	bgt.n	7714 <_vfprintf_r+0xb38>
    7712:	e348      	b.n	7da6 <_vfprintf_r+0x11ca>
    7714:	4641      	mov	r1, r8
    7716:	3210      	adds	r2, #16
    7718:	3301      	adds	r3, #1
    771a:	6034      	str	r4, [r6, #0]
    771c:	6071      	str	r1, [r6, #4]
    771e:	60ba      	str	r2, [r7, #8]
    7720:	607b      	str	r3, [r7, #4]
    7722:	2b07      	cmp	r3, #7
    7724:	ddf1      	ble.n	770a <_vfprintf_r+0xb2e>
    7726:	003a      	movs	r2, r7
    7728:	4649      	mov	r1, r9
    772a:	9807      	ldr	r0, [sp, #28]
    772c:	f003 fd50 	bl	b1d0 <__sprint_r>
    7730:	2800      	cmp	r0, #0
    7732:	d001      	beq.n	7738 <_vfprintf_r+0xb5c>
    7734:	f000 fd0f 	bl	8156 <_vfprintf_r+0x157a>
    7738:	68ba      	ldr	r2, [r7, #8]
    773a:	687b      	ldr	r3, [r7, #4]
    773c:	ae32      	add	r6, sp, #200	; 0xc8
    773e:	e7e5      	b.n	770c <_vfprintf_r+0xb30>
    7740:	9b0d      	ldr	r3, [sp, #52]	; 0x34
    7742:	9a09      	ldr	r2, [sp, #36]	; 0x24
    7744:	1a9d      	subs	r5, r3, r2
    7746:	2d00      	cmp	r5, #0
    7748:	dc00      	bgt.n	774c <_vfprintf_r+0xb70>
    774a:	e6a6      	b.n	749a <_vfprintf_r+0x8be>
    774c:	4aac      	ldr	r2, [pc, #688]	; (7a00 <_vfprintf_r+0xe24>)
    774e:	687b      	ldr	r3, [r7, #4]
    7750:	4691      	mov	r9, r2
    7752:	2d10      	cmp	r5, #16
    7754:	dd21      	ble.n	779a <_vfprintf_r+0xbbe>
    7756:	2210      	movs	r2, #16
    7758:	4692      	mov	sl, r2
    775a:	0022      	movs	r2, r4
    775c:	465c      	mov	r4, fp
    775e:	e003      	b.n	7768 <_vfprintf_r+0xb8c>
    7760:	3d10      	subs	r5, #16
    7762:	3608      	adds	r6, #8
    7764:	2d10      	cmp	r5, #16
    7766:	dd16      	ble.n	7796 <_vfprintf_r+0xbba>
    7768:	4649      	mov	r1, r9
    776a:	6031      	str	r1, [r6, #0]
    776c:	4651      	mov	r1, sl
    776e:	3210      	adds	r2, #16
    7770:	3301      	adds	r3, #1
    7772:	6071      	str	r1, [r6, #4]
    7774:	60ba      	str	r2, [r7, #8]
    7776:	607b      	str	r3, [r7, #4]
    7778:	2b07      	cmp	r3, #7
    777a:	ddf1      	ble.n	7760 <_vfprintf_r+0xb84>
    777c:	003a      	movs	r2, r7
    777e:	0021      	movs	r1, r4
    7780:	9807      	ldr	r0, [sp, #28]
    7782:	f003 fd25 	bl	b1d0 <__sprint_r>
    7786:	2800      	cmp	r0, #0
    7788:	d113      	bne.n	77b2 <_vfprintf_r+0xbd6>
    778a:	3d10      	subs	r5, #16
    778c:	68ba      	ldr	r2, [r7, #8]
    778e:	687b      	ldr	r3, [r7, #4]
    7790:	ae32      	add	r6, sp, #200	; 0xc8
    7792:	2d10      	cmp	r5, #16
    7794:	dce8      	bgt.n	7768 <_vfprintf_r+0xb8c>
    7796:	46a3      	mov	fp, r4
    7798:	0014      	movs	r4, r2
    779a:	464a      	mov	r2, r9
    779c:	1964      	adds	r4, r4, r5
    779e:	3301      	adds	r3, #1
    77a0:	6032      	str	r2, [r6, #0]
    77a2:	6075      	str	r5, [r6, #4]
    77a4:	60bc      	str	r4, [r7, #8]
    77a6:	607b      	str	r3, [r7, #4]
    77a8:	2b07      	cmp	r3, #7
    77aa:	dd00      	ble.n	77ae <_vfprintf_r+0xbd2>
    77ac:	e1ff      	b.n	7bae <_vfprintf_r+0xfd2>
    77ae:	3608      	adds	r6, #8
    77b0:	e673      	b.n	749a <_vfprintf_r+0x8be>
    77b2:	46a0      	mov	r8, r4
    77b4:	4643      	mov	r3, r8
    77b6:	899b      	ldrh	r3, [r3, #12]
    77b8:	065b      	lsls	r3, r3, #25
    77ba:	d500      	bpl.n	77be <_vfprintf_r+0xbe2>
    77bc:	e350      	b.n	7e60 <_vfprintf_r+0x1284>
    77be:	980c      	ldr	r0, [sp, #48]	; 0x30
    77c0:	f7ff faee 	bl	6da0 <_vfprintf_r+0x1c4>
    77c4:	2301      	movs	r3, #1
    77c6:	9a08      	ldr	r2, [sp, #32]
    77c8:	4213      	tst	r3, r2
    77ca:	d000      	beq.n	77ce <_vfprintf_r+0xbf2>
    77cc:	e70f      	b.n	75ee <_vfprintf_r+0xa12>
    77ce:	6073      	str	r3, [r6, #4]
    77d0:	687b      	ldr	r3, [r7, #4]
    77d2:	9a12      	ldr	r2, [sp, #72]	; 0x48
    77d4:	3301      	adds	r3, #1
    77d6:	3401      	adds	r4, #1
    77d8:	6032      	str	r2, [r6, #0]
    77da:	60bc      	str	r4, [r7, #8]
    77dc:	4698      	mov	r8, r3
    77de:	607b      	str	r3, [r7, #4]
    77e0:	2b07      	cmp	r3, #7
    77e2:	dc00      	bgt.n	77e6 <_vfprintf_r+0xc0a>
    77e4:	e737      	b.n	7656 <_vfprintf_r+0xa7a>
    77e6:	003a      	movs	r2, r7
    77e8:	4659      	mov	r1, fp
    77ea:	9807      	ldr	r0, [sp, #28]
    77ec:	f003 fcf0 	bl	b1d0 <__sprint_r>
    77f0:	2800      	cmp	r0, #0
    77f2:	d10c      	bne.n	780e <_vfprintf_r+0xc32>
    77f4:	687b      	ldr	r3, [r7, #4]
    77f6:	68bc      	ldr	r4, [r7, #8]
    77f8:	4698      	mov	r8, r3
    77fa:	ae32      	add	r6, sp, #200	; 0xc8
    77fc:	e72c      	b.n	7658 <_vfprintf_r+0xa7c>
    77fe:	003a      	movs	r2, r7
    7800:	4659      	mov	r1, fp
    7802:	9807      	ldr	r0, [sp, #28]
    7804:	f003 fce4 	bl	b1d0 <__sprint_r>
    7808:	2800      	cmp	r0, #0
    780a:	d100      	bne.n	780e <_vfprintf_r+0xc32>
    780c:	e6e6      	b.n	75dc <_vfprintf_r+0xa00>
    780e:	46d8      	mov	r8, fp
    7810:	e7d0      	b.n	77b4 <_vfprintf_r+0xbd8>
    7812:	2210      	movs	r2, #16
    7814:	9908      	ldr	r1, [sp, #32]
    7816:	400a      	ands	r2, r1
    7818:	d100      	bne.n	781c <_vfprintf_r+0xc40>
    781a:	e11b      	b.n	7a54 <_vfprintf_r+0xe78>
    781c:	9811      	ldr	r0, [sp, #68]	; 0x44
    781e:	0002      	movs	r2, r0
    7820:	6800      	ldr	r0, [r0, #0]
    7822:	3204      	adds	r2, #4
    7824:	900e      	str	r0, [sp, #56]	; 0x38
    7826:	2000      	movs	r0, #0
    7828:	900f      	str	r0, [sp, #60]	; 0x3c
    782a:	a816      	add	r0, sp, #88	; 0x58
    782c:	77c3      	strb	r3, [r0, #31]
    782e:	9b0b      	ldr	r3, [sp, #44]	; 0x2c
    7830:	2b00      	cmp	r3, #0
    7832:	da00      	bge.n	7836 <_vfprintf_r+0xc5a>
    7834:	e120      	b.n	7a78 <_vfprintf_r+0xe9c>
    7836:	2380      	movs	r3, #128	; 0x80
    7838:	4399      	bics	r1, r3
    783a:	9b0e      	ldr	r3, [sp, #56]	; 0x38
    783c:	9108      	str	r1, [sp, #32]
    783e:	9211      	str	r2, [sp, #68]	; 0x44
    7840:	2b00      	cmp	r3, #0
    7842:	d000      	beq.n	7846 <_vfprintf_r+0xc6a>
    7844:	e4a5      	b.n	7192 <_vfprintf_r+0x5b6>
    7846:	4698      	mov	r8, r3
    7848:	9b0b      	ldr	r3, [sp, #44]	; 0x2c
    784a:	2b00      	cmp	r3, #0
    784c:	d100      	bne.n	7850 <_vfprintf_r+0xc74>
    784e:	e5a4      	b.n	739a <_vfprintf_r+0x7be>
    7850:	2300      	movs	r3, #0
    7852:	2400      	movs	r4, #0
    7854:	930e      	str	r3, [sp, #56]	; 0x38
    7856:	940f      	str	r4, [sp, #60]	; 0x3c
    7858:	2227      	movs	r2, #39	; 0x27
    785a:	9b0e      	ldr	r3, [sp, #56]	; 0x38
    785c:	a928      	add	r1, sp, #160	; 0xa0
    785e:	3330      	adds	r3, #48	; 0x30
    7860:	548b      	strb	r3, [r1, r2]
    7862:	ab16      	add	r3, sp, #88	; 0x58
    7864:	469c      	mov	ip, r3
    7866:	256f      	movs	r5, #111	; 0x6f
    7868:	ab32      	add	r3, sp, #200	; 0xc8
    786a:	4465      	add	r5, ip
    786c:	1b5b      	subs	r3, r3, r5
    786e:	9310      	str	r3, [sp, #64]	; 0x40
    7870:	9512      	str	r5, [sp, #72]	; 0x48
    7872:	f7ff fc05 	bl	7080 <_vfprintf_r+0x4a4>
    7876:	003a      	movs	r2, r7
    7878:	4659      	mov	r1, fp
    787a:	9807      	ldr	r0, [sp, #28]
    787c:	f003 fca8 	bl	b1d0 <__sprint_r>
    7880:	2800      	cmp	r0, #0
    7882:	d1c4      	bne.n	780e <_vfprintf_r+0xc32>
    7884:	68bc      	ldr	r4, [r7, #8]
    7886:	ae32      	add	r6, sp, #200	; 0xc8
    7888:	e63f      	b.n	750a <_vfprintf_r+0x92e>
    788a:	003a      	movs	r2, r7
    788c:	4659      	mov	r1, fp
    788e:	9807      	ldr	r0, [sp, #28]
    7890:	f003 fc9e 	bl	b1d0 <__sprint_r>
    7894:	2800      	cmp	r0, #0
    7896:	d1ba      	bne.n	780e <_vfprintf_r+0xc32>
    7898:	68bc      	ldr	r4, [r7, #8]
    789a:	ae32      	add	r6, sp, #200	; 0xc8
    789c:	e5e9      	b.n	7472 <_vfprintf_r+0x896>
    789e:	003a      	movs	r2, r7
    78a0:	4659      	mov	r1, fp
    78a2:	9807      	ldr	r0, [sp, #28]
    78a4:	f003 fc94 	bl	b1d0 <__sprint_r>
    78a8:	2800      	cmp	r0, #0
    78aa:	d1b0      	bne.n	780e <_vfprintf_r+0xc32>
    78ac:	68bc      	ldr	r4, [r7, #8]
    78ae:	ae32      	add	r6, sp, #200	; 0xc8
    78b0:	e5ef      	b.n	7492 <_vfprintf_r+0x8b6>
    78b2:	981f      	ldr	r0, [sp, #124]	; 0x7c
    78b4:	2800      	cmp	r0, #0
    78b6:	dc00      	bgt.n	78ba <_vfprintf_r+0xcde>
    78b8:	e284      	b.n	7dc4 <_vfprintf_r+0x11e8>
    78ba:	9a15      	ldr	r2, [sp, #84]	; 0x54
    78bc:	9914      	ldr	r1, [sp, #80]	; 0x50
    78be:	1e13      	subs	r3, r2, #0
    78c0:	4691      	mov	r9, r2
    78c2:	428b      	cmp	r3, r1
    78c4:	dd00      	ble.n	78c8 <_vfprintf_r+0xcec>
    78c6:	4689      	mov	r9, r1
    78c8:	464b      	mov	r3, r9
    78ca:	2b00      	cmp	r3, #0
    78cc:	dd0c      	ble.n	78e8 <_vfprintf_r+0xd0c>
    78ce:	9b12      	ldr	r3, [sp, #72]	; 0x48
    78d0:	444c      	add	r4, r9
    78d2:	6033      	str	r3, [r6, #0]
    78d4:	464b      	mov	r3, r9
    78d6:	6073      	str	r3, [r6, #4]
    78d8:	687b      	ldr	r3, [r7, #4]
    78da:	60bc      	str	r4, [r7, #8]
    78dc:	3301      	adds	r3, #1
    78de:	607b      	str	r3, [r7, #4]
    78e0:	2b07      	cmp	r3, #7
    78e2:	dd00      	ble.n	78e6 <_vfprintf_r+0xd0a>
    78e4:	e3a4      	b.n	8030 <_vfprintf_r+0x1454>
    78e6:	3608      	adds	r6, #8
    78e8:	464b      	mov	r3, r9
    78ea:	43db      	mvns	r3, r3
    78ec:	464a      	mov	r2, r9
    78ee:	17db      	asrs	r3, r3, #31
    78f0:	4013      	ands	r3, r2
    78f2:	9a15      	ldr	r2, [sp, #84]	; 0x54
    78f4:	1ad3      	subs	r3, r2, r3
    78f6:	4698      	mov	r8, r3
    78f8:	2b00      	cmp	r3, #0
    78fa:	dc00      	bgt.n	78fe <_vfprintf_r+0xd22>
    78fc:	e0d7      	b.n	7aae <_vfprintf_r+0xed2>
    78fe:	2b10      	cmp	r3, #16
    7900:	dc01      	bgt.n	7906 <_vfprintf_r+0xd2a>
    7902:	f000 fd19 	bl	8338 <_vfprintf_r+0x175c>
    7906:	4a3e      	ldr	r2, [pc, #248]	; (7a00 <_vfprintf_r+0xe24>)
    7908:	687b      	ldr	r3, [r7, #4]
    790a:	4691      	mov	r9, r2
    790c:	2210      	movs	r2, #16
    790e:	464d      	mov	r5, r9
    7910:	4692      	mov	sl, r2
    7912:	0022      	movs	r2, r4
    7914:	4644      	mov	r4, r8
    7916:	46d8      	mov	r8, fp
    7918:	e004      	b.n	7924 <_vfprintf_r+0xd48>
    791a:	3608      	adds	r6, #8
    791c:	3c10      	subs	r4, #16
    791e:	2c10      	cmp	r4, #16
    7920:	dc00      	bgt.n	7924 <_vfprintf_r+0xd48>
    7922:	e0b4      	b.n	7a8e <_vfprintf_r+0xeb2>
    7924:	4651      	mov	r1, sl
    7926:	3210      	adds	r2, #16
    7928:	3301      	adds	r3, #1
    792a:	6035      	str	r5, [r6, #0]
    792c:	6071      	str	r1, [r6, #4]
    792e:	60ba      	str	r2, [r7, #8]
    7930:	607b      	str	r3, [r7, #4]
    7932:	2b07      	cmp	r3, #7
    7934:	ddf1      	ble.n	791a <_vfprintf_r+0xd3e>
    7936:	003a      	movs	r2, r7
    7938:	4641      	mov	r1, r8
    793a:	9807      	ldr	r0, [sp, #28]
    793c:	f003 fc48 	bl	b1d0 <__sprint_r>
    7940:	2800      	cmp	r0, #0
    7942:	d000      	beq.n	7946 <_vfprintf_r+0xd6a>
    7944:	e736      	b.n	77b4 <_vfprintf_r+0xbd8>
    7946:	68ba      	ldr	r2, [r7, #8]
    7948:	687b      	ldr	r3, [r7, #4]
    794a:	ae32      	add	r6, sp, #200	; 0xc8
    794c:	e7e6      	b.n	791c <_vfprintf_r+0xd40>
    794e:	003a      	movs	r2, r7
    7950:	4659      	mov	r1, fp
    7952:	9807      	ldr	r0, [sp, #28]
    7954:	f003 fc3c 	bl	b1d0 <__sprint_r>
    7958:	2800      	cmp	r0, #0
    795a:	d000      	beq.n	795e <_vfprintf_r+0xd82>
    795c:	e757      	b.n	780e <_vfprintf_r+0xc32>
    795e:	ab16      	add	r3, sp, #88	; 0x58
    7960:	7fdb      	ldrb	r3, [r3, #31]
    7962:	68bc      	ldr	r4, [r7, #8]
    7964:	4698      	mov	r8, r3
    7966:	ae32      	add	r6, sp, #200	; 0xc8
    7968:	e570      	b.n	744c <_vfprintf_r+0x870>
    796a:	46b0      	mov	r8, r6
    796c:	e722      	b.n	77b4 <_vfprintf_r+0xbd8>
    796e:	2210      	movs	r2, #16
    7970:	9908      	ldr	r1, [sp, #32]
    7972:	400a      	ands	r2, r1
    7974:	d100      	bne.n	7978 <_vfprintf_r+0xd9c>
    7976:	e13b      	b.n	7bf0 <_vfprintf_r+0x1014>
    7978:	9811      	ldr	r0, [sp, #68]	; 0x44
    797a:	0002      	movs	r2, r0
    797c:	6800      	ldr	r0, [r0, #0]
    797e:	3204      	adds	r2, #4
    7980:	900e      	str	r0, [sp, #56]	; 0x38
    7982:	2000      	movs	r0, #0
    7984:	900f      	str	r0, [sp, #60]	; 0x3c
    7986:	a816      	add	r0, sp, #88	; 0x58
    7988:	77c3      	strb	r3, [r0, #31]
    798a:	9b0b      	ldr	r3, [sp, #44]	; 0x2c
    798c:	2b00      	cmp	r3, #0
    798e:	da00      	bge.n	7992 <_vfprintf_r+0xdb6>
    7990:	e13f      	b.n	7c12 <_vfprintf_r+0x1036>
    7992:	2380      	movs	r3, #128	; 0x80
    7994:	4399      	bics	r1, r3
    7996:	9b0e      	ldr	r3, [sp, #56]	; 0x38
    7998:	9108      	str	r1, [sp, #32]
    799a:	9211      	str	r2, [sp, #68]	; 0x44
    799c:	2b00      	cmp	r3, #0
    799e:	d001      	beq.n	79a4 <_vfprintf_r+0xdc8>
    79a0:	f7ff fb43 	bl	702a <_vfprintf_r+0x44e>
    79a4:	9b0b      	ldr	r3, [sp, #44]	; 0x2c
    79a6:	2b00      	cmp	r3, #0
    79a8:	d101      	bne.n	79ae <_vfprintf_r+0xdd2>
    79aa:	f000 fc6b 	bl	8284 <_vfprintf_r+0x16a8>
    79ae:	2300      	movs	r3, #0
    79b0:	4698      	mov	r8, r3
    79b2:	2300      	movs	r3, #0
    79b4:	2400      	movs	r4, #0
    79b6:	930e      	str	r3, [sp, #56]	; 0x38
    79b8:	940f      	str	r4, [sp, #60]	; 0x3c
    79ba:	f7ff fb38 	bl	702e <_vfprintf_r+0x452>
    79be:	9b08      	ldr	r3, [sp, #32]
    79c0:	06db      	lsls	r3, r3, #27
    79c2:	d400      	bmi.n	79c6 <_vfprintf_r+0xdea>
    79c4:	e130      	b.n	7c28 <_vfprintf_r+0x104c>
    79c6:	9a11      	ldr	r2, [sp, #68]	; 0x44
    79c8:	6813      	ldr	r3, [r2, #0]
    79ca:	9309      	str	r3, [sp, #36]	; 0x24
    79cc:	930e      	str	r3, [sp, #56]	; 0x38
    79ce:	3204      	adds	r2, #4
    79d0:	17db      	asrs	r3, r3, #31
    79d2:	930f      	str	r3, [sp, #60]	; 0x3c
    79d4:	9211      	str	r2, [sp, #68]	; 0x44
    79d6:	f7ff fa63 	bl	6ea0 <_vfprintf_r+0x2c4>
    79da:	9b14      	ldr	r3, [sp, #80]	; 0x50
    79dc:	1e5d      	subs	r5, r3, #1
    79de:	2d00      	cmp	r5, #0
    79e0:	dc00      	bgt.n	79e4 <_vfprintf_r+0xe08>
    79e2:	e639      	b.n	7658 <_vfprintf_r+0xa7c>
    79e4:	4b06      	ldr	r3, [pc, #24]	; (7a00 <_vfprintf_r+0xe24>)
    79e6:	4699      	mov	r9, r3
    79e8:	2d10      	cmp	r5, #16
    79ea:	dc00      	bgt.n	79ee <_vfprintf_r+0xe12>
    79ec:	e0cd      	b.n	7b8a <_vfprintf_r+0xfae>
    79ee:	2310      	movs	r3, #16
    79f0:	0022      	movs	r2, r4
    79f2:	469a      	mov	sl, r3
    79f4:	465c      	mov	r4, fp
    79f6:	4643      	mov	r3, r8
    79f8:	e009      	b.n	7a0e <_vfprintf_r+0xe32>
    79fa:	46c0      	nop			; (mov r8, r8)
    79fc:	0000bd8c 	.word	0x0000bd8c
    7a00:	0000bf98 	.word	0x0000bf98
    7a04:	3608      	adds	r6, #8
    7a06:	3d10      	subs	r5, #16
    7a08:	2d10      	cmp	r5, #16
    7a0a:	dc00      	bgt.n	7a0e <_vfprintf_r+0xe32>
    7a0c:	e0ba      	b.n	7b84 <_vfprintf_r+0xfa8>
    7a0e:	4649      	mov	r1, r9
    7a10:	6031      	str	r1, [r6, #0]
    7a12:	4651      	mov	r1, sl
    7a14:	3210      	adds	r2, #16
    7a16:	3301      	adds	r3, #1
    7a18:	6071      	str	r1, [r6, #4]
    7a1a:	60ba      	str	r2, [r7, #8]
    7a1c:	607b      	str	r3, [r7, #4]
    7a1e:	2b07      	cmp	r3, #7
    7a20:	ddf0      	ble.n	7a04 <_vfprintf_r+0xe28>
    7a22:	003a      	movs	r2, r7
    7a24:	0021      	movs	r1, r4
    7a26:	9807      	ldr	r0, [sp, #28]
    7a28:	f003 fbd2 	bl	b1d0 <__sprint_r>
    7a2c:	2800      	cmp	r0, #0
    7a2e:	d000      	beq.n	7a32 <_vfprintf_r+0xe56>
    7a30:	e6bf      	b.n	77b2 <_vfprintf_r+0xbd6>
    7a32:	68ba      	ldr	r2, [r7, #8]
    7a34:	687b      	ldr	r3, [r7, #4]
    7a36:	ae32      	add	r6, sp, #200	; 0xc8
    7a38:	e7e5      	b.n	7a06 <_vfprintf_r+0xe2a>
    7a3a:	46a3      	mov	fp, r4
    7a3c:	0014      	movs	r4, r2
    7a3e:	464a      	mov	r2, r9
    7a40:	1964      	adds	r4, r4, r5
    7a42:	3301      	adds	r3, #1
    7a44:	6032      	str	r2, [r6, #0]
    7a46:	6075      	str	r5, [r6, #4]
    7a48:	60bc      	str	r4, [r7, #8]
    7a4a:	607b      	str	r3, [r7, #4]
    7a4c:	2b07      	cmp	r3, #7
    7a4e:	dc00      	bgt.n	7a52 <_vfprintf_r+0xe76>
    7a50:	e56c      	b.n	752c <_vfprintf_r+0x950>
    7a52:	e60e      	b.n	7672 <_vfprintf_r+0xa96>
    7a54:	2340      	movs	r3, #64	; 0x40
    7a56:	9908      	ldr	r1, [sp, #32]
    7a58:	400b      	ands	r3, r1
    7a5a:	d000      	beq.n	7a5e <_vfprintf_r+0xe82>
    7a5c:	e230      	b.n	7ec0 <_vfprintf_r+0x12e4>
    7a5e:	9911      	ldr	r1, [sp, #68]	; 0x44
    7a60:	000a      	movs	r2, r1
    7a62:	6809      	ldr	r1, [r1, #0]
    7a64:	3204      	adds	r2, #4
    7a66:	910e      	str	r1, [sp, #56]	; 0x38
    7a68:	2100      	movs	r1, #0
    7a6a:	910f      	str	r1, [sp, #60]	; 0x3c
    7a6c:	a916      	add	r1, sp, #88	; 0x58
    7a6e:	77cb      	strb	r3, [r1, #31]
    7a70:	9b0b      	ldr	r3, [sp, #44]	; 0x2c
    7a72:	2b00      	cmp	r3, #0
    7a74:	db00      	blt.n	7a78 <_vfprintf_r+0xe9c>
    7a76:	e0df      	b.n	7c38 <_vfprintf_r+0x105c>
    7a78:	9211      	str	r2, [sp, #68]	; 0x44
    7a7a:	2300      	movs	r3, #0
    7a7c:	4698      	mov	r8, r3
    7a7e:	9a0e      	ldr	r2, [sp, #56]	; 0x38
    7a80:	9b0f      	ldr	r3, [sp, #60]	; 0x3c
    7a82:	0011      	movs	r1, r2
    7a84:	4319      	orrs	r1, r3
    7a86:	d001      	beq.n	7a8c <_vfprintf_r+0xeb0>
    7a88:	f7ff fa21 	bl	6ece <_vfprintf_r+0x2f2>
    7a8c:	e6e0      	b.n	7850 <_vfprintf_r+0xc74>
    7a8e:	46c3      	mov	fp, r8
    7a90:	46a9      	mov	r9, r5
    7a92:	46a0      	mov	r8, r4
    7a94:	0014      	movs	r4, r2
    7a96:	464a      	mov	r2, r9
    7a98:	6032      	str	r2, [r6, #0]
    7a9a:	4642      	mov	r2, r8
    7a9c:	4444      	add	r4, r8
    7a9e:	3301      	adds	r3, #1
    7aa0:	6072      	str	r2, [r6, #4]
    7aa2:	60bc      	str	r4, [r7, #8]
    7aa4:	607b      	str	r3, [r7, #4]
    7aa6:	2b07      	cmp	r3, #7
    7aa8:	dd00      	ble.n	7aac <_vfprintf_r+0xed0>
    7aaa:	e36a      	b.n	8182 <_vfprintf_r+0x15a6>
    7aac:	3608      	adds	r6, #8
    7aae:	9a12      	ldr	r2, [sp, #72]	; 0x48
    7ab0:	9b15      	ldr	r3, [sp, #84]	; 0x54
    7ab2:	4694      	mov	ip, r2
    7ab4:	4463      	add	r3, ip
    7ab6:	4698      	mov	r8, r3
    7ab8:	9a14      	ldr	r2, [sp, #80]	; 0x50
    7aba:	9b1f      	ldr	r3, [sp, #124]	; 0x7c
    7abc:	4293      	cmp	r3, r2
    7abe:	db46      	blt.n	7b4e <_vfprintf_r+0xf72>
    7ac0:	9a08      	ldr	r2, [sp, #32]
    7ac2:	07d2      	lsls	r2, r2, #31
    7ac4:	d443      	bmi.n	7b4e <_vfprintf_r+0xf72>
    7ac6:	9a12      	ldr	r2, [sp, #72]	; 0x48
    7ac8:	9914      	ldr	r1, [sp, #80]	; 0x50
    7aca:	0015      	movs	r5, r2
    7acc:	468c      	mov	ip, r1
    7ace:	4642      	mov	r2, r8
    7ad0:	4465      	add	r5, ip
    7ad2:	1acb      	subs	r3, r1, r3
    7ad4:	1aad      	subs	r5, r5, r2
    7ad6:	429d      	cmp	r5, r3
    7ad8:	dd00      	ble.n	7adc <_vfprintf_r+0xf00>
    7ada:	001d      	movs	r5, r3
    7adc:	2d00      	cmp	r5, #0
    7ade:	dd0b      	ble.n	7af8 <_vfprintf_r+0xf1c>
    7ae0:	4642      	mov	r2, r8
    7ae2:	6032      	str	r2, [r6, #0]
    7ae4:	687a      	ldr	r2, [r7, #4]
    7ae6:	1964      	adds	r4, r4, r5
    7ae8:	3201      	adds	r2, #1
    7aea:	6075      	str	r5, [r6, #4]
    7aec:	60bc      	str	r4, [r7, #8]
    7aee:	607a      	str	r2, [r7, #4]
    7af0:	2a07      	cmp	r2, #7
    7af2:	dd00      	ble.n	7af6 <_vfprintf_r+0xf1a>
    7af4:	e31c      	b.n	8130 <_vfprintf_r+0x1554>
    7af6:	3608      	adds	r6, #8
    7af8:	43ea      	mvns	r2, r5
    7afa:	17d2      	asrs	r2, r2, #31
    7afc:	4015      	ands	r5, r2
    7afe:	1b5d      	subs	r5, r3, r5
    7b00:	2d00      	cmp	r5, #0
    7b02:	dc00      	bgt.n	7b06 <_vfprintf_r+0xf2a>
    7b04:	e513      	b.n	752e <_vfprintf_r+0x952>
    7b06:	4ad8      	ldr	r2, [pc, #864]	; (7e68 <_vfprintf_r+0x128c>)
    7b08:	687b      	ldr	r3, [r7, #4]
    7b0a:	4691      	mov	r9, r2
    7b0c:	2d10      	cmp	r5, #16
    7b0e:	dd96      	ble.n	7a3e <_vfprintf_r+0xe62>
    7b10:	2210      	movs	r2, #16
    7b12:	4690      	mov	r8, r2
    7b14:	0022      	movs	r2, r4
    7b16:	465c      	mov	r4, fp
    7b18:	e003      	b.n	7b22 <_vfprintf_r+0xf46>
    7b1a:	3608      	adds	r6, #8
    7b1c:	3d10      	subs	r5, #16
    7b1e:	2d10      	cmp	r5, #16
    7b20:	dd8b      	ble.n	7a3a <_vfprintf_r+0xe5e>
    7b22:	4649      	mov	r1, r9
    7b24:	6031      	str	r1, [r6, #0]
    7b26:	4641      	mov	r1, r8
    7b28:	3210      	adds	r2, #16
    7b2a:	3301      	adds	r3, #1
    7b2c:	6071      	str	r1, [r6, #4]
    7b2e:	60ba      	str	r2, [r7, #8]
    7b30:	607b      	str	r3, [r7, #4]
    7b32:	2b07      	cmp	r3, #7
    7b34:	ddf1      	ble.n	7b1a <_vfprintf_r+0xf3e>
    7b36:	003a      	movs	r2, r7
    7b38:	0021      	movs	r1, r4
    7b3a:	9807      	ldr	r0, [sp, #28]
    7b3c:	f003 fb48 	bl	b1d0 <__sprint_r>
    7b40:	2800      	cmp	r0, #0
    7b42:	d000      	beq.n	7b46 <_vfprintf_r+0xf6a>
    7b44:	e635      	b.n	77b2 <_vfprintf_r+0xbd6>
    7b46:	68ba      	ldr	r2, [r7, #8]
    7b48:	687b      	ldr	r3, [r7, #4]
    7b4a:	ae32      	add	r6, sp, #200	; 0xc8
    7b4c:	e7e6      	b.n	7b1c <_vfprintf_r+0xf40>
    7b4e:	9a19      	ldr	r2, [sp, #100]	; 0x64
    7b50:	6032      	str	r2, [r6, #0]
    7b52:	9a18      	ldr	r2, [sp, #96]	; 0x60
    7b54:	4694      	mov	ip, r2
    7b56:	6072      	str	r2, [r6, #4]
    7b58:	687a      	ldr	r2, [r7, #4]
    7b5a:	4464      	add	r4, ip
    7b5c:	3201      	adds	r2, #1
    7b5e:	60bc      	str	r4, [r7, #8]
    7b60:	607a      	str	r2, [r7, #4]
    7b62:	2a07      	cmp	r2, #7
    7b64:	dd00      	ble.n	7b68 <_vfprintf_r+0xf8c>
    7b66:	e26f      	b.n	8048 <_vfprintf_r+0x146c>
    7b68:	3608      	adds	r6, #8
    7b6a:	e7ac      	b.n	7ac6 <_vfprintf_r+0xeea>
    7b6c:	003a      	movs	r2, r7
    7b6e:	4659      	mov	r1, fp
    7b70:	9807      	ldr	r0, [sp, #28]
    7b72:	f003 fb2d 	bl	b1d0 <__sprint_r>
    7b76:	2800      	cmp	r0, #0
    7b78:	d000      	beq.n	7b7c <_vfprintf_r+0xfa0>
    7b7a:	e648      	b.n	780e <_vfprintf_r+0xc32>
    7b7c:	68bc      	ldr	r4, [r7, #8]
    7b7e:	687b      	ldr	r3, [r7, #4]
    7b80:	ae32      	add	r6, sp, #200	; 0xc8
    7b82:	e541      	b.n	7608 <_vfprintf_r+0xa2c>
    7b84:	46a3      	mov	fp, r4
    7b86:	4698      	mov	r8, r3
    7b88:	0014      	movs	r4, r2
    7b8a:	464b      	mov	r3, r9
    7b8c:	6075      	str	r5, [r6, #4]
    7b8e:	6033      	str	r3, [r6, #0]
    7b90:	1964      	adds	r4, r4, r5
    7b92:	e557      	b.n	7644 <_vfprintf_r+0xa68>
    7b94:	003a      	movs	r2, r7
    7b96:	4659      	mov	r1, fp
    7b98:	9807      	ldr	r0, [sp, #28]
    7b9a:	f003 fb19 	bl	b1d0 <__sprint_r>
    7b9e:	2800      	cmp	r0, #0
    7ba0:	d000      	beq.n	7ba4 <_vfprintf_r+0xfc8>
    7ba2:	e634      	b.n	780e <_vfprintf_r+0xc32>
    7ba4:	687b      	ldr	r3, [r7, #4]
    7ba6:	68bc      	ldr	r4, [r7, #8]
    7ba8:	4698      	mov	r8, r3
    7baa:	ae32      	add	r6, sp, #200	; 0xc8
    7bac:	e53a      	b.n	7624 <_vfprintf_r+0xa48>
    7bae:	003a      	movs	r2, r7
    7bb0:	4659      	mov	r1, fp
    7bb2:	9807      	ldr	r0, [sp, #28]
    7bb4:	f003 fb0c 	bl	b1d0 <__sprint_r>
    7bb8:	2800      	cmp	r0, #0
    7bba:	d000      	beq.n	7bbe <_vfprintf_r+0xfe2>
    7bbc:	e627      	b.n	780e <_vfprintf_r+0xc32>
    7bbe:	68bc      	ldr	r4, [r7, #8]
    7bc0:	ae32      	add	r6, sp, #200	; 0xc8
    7bc2:	e46a      	b.n	749a <_vfprintf_r+0x8be>
    7bc4:	990e      	ldr	r1, [sp, #56]	; 0x38
    7bc6:	9a0f      	ldr	r2, [sp, #60]	; 0x3c
    7bc8:	2400      	movs	r4, #0
    7bca:	424b      	negs	r3, r1
    7bcc:	4194      	sbcs	r4, r2
    7bce:	930e      	str	r3, [sp, #56]	; 0x38
    7bd0:	940f      	str	r4, [sp, #60]	; 0x3c
    7bd2:	232d      	movs	r3, #45	; 0x2d
    7bd4:	aa16      	add	r2, sp, #88	; 0x58
    7bd6:	77d3      	strb	r3, [r2, #31]
    7bd8:	9b0b      	ldr	r3, [sp, #44]	; 0x2c
    7bda:	2b00      	cmp	r3, #0
    7bdc:	da00      	bge.n	7be0 <_vfprintf_r+0x1004>
    7bde:	e2b6      	b.n	814e <_vfprintf_r+0x1572>
    7be0:	2380      	movs	r3, #128	; 0x80
    7be2:	9a08      	ldr	r2, [sp, #32]
    7be4:	439a      	bics	r2, r3
    7be6:	3b53      	subs	r3, #83	; 0x53
    7be8:	9208      	str	r2, [sp, #32]
    7bea:	4698      	mov	r8, r3
    7bec:	f7ff f96f 	bl	6ece <_vfprintf_r+0x2f2>
    7bf0:	2340      	movs	r3, #64	; 0x40
    7bf2:	9908      	ldr	r1, [sp, #32]
    7bf4:	400b      	ands	r3, r1
    7bf6:	d000      	beq.n	7bfa <_vfprintf_r+0x101e>
    7bf8:	e14b      	b.n	7e92 <_vfprintf_r+0x12b6>
    7bfa:	9911      	ldr	r1, [sp, #68]	; 0x44
    7bfc:	000a      	movs	r2, r1
    7bfe:	6809      	ldr	r1, [r1, #0]
    7c00:	3204      	adds	r2, #4
    7c02:	910e      	str	r1, [sp, #56]	; 0x38
    7c04:	2100      	movs	r1, #0
    7c06:	910f      	str	r1, [sp, #60]	; 0x3c
    7c08:	a916      	add	r1, sp, #88	; 0x58
    7c0a:	77cb      	strb	r3, [r1, #31]
    7c0c:	9b0b      	ldr	r3, [sp, #44]	; 0x2c
    7c0e:	2b00      	cmp	r3, #0
    7c10:	da15      	bge.n	7c3e <_vfprintf_r+0x1062>
    7c12:	9211      	str	r2, [sp, #68]	; 0x44
    7c14:	2300      	movs	r3, #0
    7c16:	4698      	mov	r8, r3
    7c18:	9a0e      	ldr	r2, [sp, #56]	; 0x38
    7c1a:	9b0f      	ldr	r3, [sp, #60]	; 0x3c
    7c1c:	0011      	movs	r1, r2
    7c1e:	4319      	orrs	r1, r3
    7c20:	d001      	beq.n	7c26 <_vfprintf_r+0x104a>
    7c22:	f7ff fa04 	bl	702e <_vfprintf_r+0x452>
    7c26:	e6c4      	b.n	79b2 <_vfprintf_r+0xdd6>
    7c28:	9b08      	ldr	r3, [sp, #32]
    7c2a:	9a11      	ldr	r2, [sp, #68]	; 0x44
    7c2c:	065b      	lsls	r3, r3, #25
    7c2e:	d400      	bmi.n	7c32 <_vfprintf_r+0x1056>
    7c30:	e6ca      	b.n	79c8 <_vfprintf_r+0xdec>
    7c32:	2100      	movs	r1, #0
    7c34:	5e53      	ldrsh	r3, [r2, r1]
    7c36:	e6c9      	b.n	79cc <_vfprintf_r+0xdf0>
    7c38:	2380      	movs	r3, #128	; 0x80
    7c3a:	9908      	ldr	r1, [sp, #32]
    7c3c:	e5fc      	b.n	7838 <_vfprintf_r+0xc5c>
    7c3e:	2380      	movs	r3, #128	; 0x80
    7c40:	9908      	ldr	r1, [sp, #32]
    7c42:	e6a7      	b.n	7994 <_vfprintf_r+0xdb8>
    7c44:	9d16      	ldr	r5, [sp, #88]	; 0x58
    7c46:	9c17      	ldr	r4, [sp, #92]	; 0x5c
    7c48:	002a      	movs	r2, r5
    7c4a:	0023      	movs	r3, r4
    7c4c:	0028      	movs	r0, r5
    7c4e:	0021      	movs	r1, r4
    7c50:	f7fe fcf8 	bl	6644 <__aeabi_dcmpun>
    7c54:	2800      	cmp	r0, #0
    7c56:	d000      	beq.n	7c5a <_vfprintf_r+0x107e>
    7c58:	e35f      	b.n	831a <_vfprintf_r+0x173e>
    7c5a:	9b0b      	ldr	r3, [sp, #44]	; 0x2c
    7c5c:	3301      	adds	r3, #1
    7c5e:	d100      	bne.n	7c62 <_vfprintf_r+0x1086>
    7c60:	e29b      	b.n	819a <_vfprintf_r+0x15be>
    7c62:	2320      	movs	r3, #32
    7c64:	9d13      	ldr	r5, [sp, #76]	; 0x4c
    7c66:	439d      	bics	r5, r3
    7c68:	2d47      	cmp	r5, #71	; 0x47
    7c6a:	d100      	bne.n	7c6e <_vfprintf_r+0x1092>
    7c6c:	e170      	b.n	7f50 <_vfprintf_r+0x1374>
    7c6e:	2380      	movs	r3, #128	; 0x80
    7c70:	9a08      	ldr	r2, [sp, #32]
    7c72:	005b      	lsls	r3, r3, #1
    7c74:	431a      	orrs	r2, r3
    7c76:	9b17      	ldr	r3, [sp, #92]	; 0x5c
    7c78:	921b      	str	r2, [sp, #108]	; 0x6c
    7c7a:	2b00      	cmp	r3, #0
    7c7c:	da00      	bge.n	7c80 <_vfprintf_r+0x10a4>
    7c7e:	e2c9      	b.n	8214 <_vfprintf_r+0x1638>
    7c80:	9a16      	ldr	r2, [sp, #88]	; 0x58
    7c82:	4698      	mov	r8, r3
    7c84:	2300      	movs	r3, #0
    7c86:	4691      	mov	r9, r2
    7c88:	9309      	str	r3, [sp, #36]	; 0x24
    7c8a:	9c13      	ldr	r4, [sp, #76]	; 0x4c
    7c8c:	2c66      	cmp	r4, #102	; 0x66
    7c8e:	d100      	bne.n	7c92 <_vfprintf_r+0x10b6>
    7c90:	e289      	b.n	81a6 <_vfprintf_r+0x15ca>
    7c92:	2c46      	cmp	r4, #70	; 0x46
    7c94:	d100      	bne.n	7c98 <_vfprintf_r+0x10bc>
    7c96:	e130      	b.n	7efa <_vfprintf_r+0x131e>
    7c98:	002b      	movs	r3, r5
    7c9a:	3b45      	subs	r3, #69	; 0x45
    7c9c:	4259      	negs	r1, r3
    7c9e:	4159      	adcs	r1, r3
    7ca0:	9b0b      	ldr	r3, [sp, #44]	; 0x2c
    7ca2:	464a      	mov	r2, r9
    7ca4:	469a      	mov	sl, r3
    7ca6:	ab23      	add	r3, sp, #140	; 0x8c
    7ca8:	9304      	str	r3, [sp, #16]
    7caa:	ab20      	add	r3, sp, #128	; 0x80
    7cac:	448a      	add	sl, r1
    7cae:	9303      	str	r3, [sp, #12]
    7cb0:	ab1f      	add	r3, sp, #124	; 0x7c
    7cb2:	9302      	str	r3, [sp, #8]
    7cb4:	4653      	mov	r3, sl
    7cb6:	9301      	str	r3, [sp, #4]
    7cb8:	2302      	movs	r3, #2
    7cba:	9807      	ldr	r0, [sp, #28]
    7cbc:	9300      	str	r3, [sp, #0]
    7cbe:	4643      	mov	r3, r8
    7cc0:	f000 fd00 	bl	86c4 <_dtoa_r>
    7cc4:	9012      	str	r0, [sp, #72]	; 0x48
    7cc6:	2c67      	cmp	r4, #103	; 0x67
    7cc8:	d000      	beq.n	7ccc <_vfprintf_r+0x10f0>
    7cca:	e2bb      	b.n	8244 <_vfprintf_r+0x1668>
    7ccc:	9b12      	ldr	r3, [sp, #72]	; 0x48
    7cce:	4453      	add	r3, sl
    7cd0:	001c      	movs	r4, r3
    7cd2:	9b08      	ldr	r3, [sp, #32]
    7cd4:	07db      	lsls	r3, r3, #31
    7cd6:	d400      	bmi.n	7cda <_vfprintf_r+0x10fe>
    7cd8:	e306      	b.n	82e8 <_vfprintf_r+0x170c>
    7cda:	2300      	movs	r3, #0
    7cdc:	2200      	movs	r2, #0
    7cde:	4648      	mov	r0, r9
    7ce0:	4641      	mov	r1, r8
    7ce2:	f7fc fb5f 	bl	43a4 <__aeabi_dcmpeq>
    7ce6:	0023      	movs	r3, r4
    7ce8:	2800      	cmp	r0, #0
    7cea:	d109      	bne.n	7d00 <_vfprintf_r+0x1124>
    7cec:	9b23      	ldr	r3, [sp, #140]	; 0x8c
    7cee:	429c      	cmp	r4, r3
    7cf0:	d906      	bls.n	7d00 <_vfprintf_r+0x1124>
    7cf2:	2130      	movs	r1, #48	; 0x30
    7cf4:	1c5a      	adds	r2, r3, #1
    7cf6:	9223      	str	r2, [sp, #140]	; 0x8c
    7cf8:	7019      	strb	r1, [r3, #0]
    7cfa:	9b23      	ldr	r3, [sp, #140]	; 0x8c
    7cfc:	429c      	cmp	r4, r3
    7cfe:	d8f9      	bhi.n	7cf4 <_vfprintf_r+0x1118>
    7d00:	9a12      	ldr	r2, [sp, #72]	; 0x48
    7d02:	1a9b      	subs	r3, r3, r2
    7d04:	9314      	str	r3, [sp, #80]	; 0x50
    7d06:	2d47      	cmp	r5, #71	; 0x47
    7d08:	d100      	bne.n	7d0c <_vfprintf_r+0x1130>
    7d0a:	e17f      	b.n	800c <_vfprintf_r+0x1430>
    7d0c:	9b13      	ldr	r3, [sp, #76]	; 0x4c
    7d0e:	2b65      	cmp	r3, #101	; 0x65
    7d10:	dc00      	bgt.n	7d14 <_vfprintf_r+0x1138>
    7d12:	e2a9      	b.n	8268 <_vfprintf_r+0x168c>
    7d14:	9b13      	ldr	r3, [sp, #76]	; 0x4c
    7d16:	2b66      	cmp	r3, #102	; 0x66
    7d18:	d100      	bne.n	7d1c <_vfprintf_r+0x1140>
    7d1a:	e286      	b.n	822a <_vfprintf_r+0x164e>
    7d1c:	9b1f      	ldr	r3, [sp, #124]	; 0x7c
    7d1e:	9315      	str	r3, [sp, #84]	; 0x54
    7d20:	9a15      	ldr	r2, [sp, #84]	; 0x54
    7d22:	9914      	ldr	r1, [sp, #80]	; 0x50
    7d24:	428a      	cmp	r2, r1
    7d26:	da00      	bge.n	7d2a <_vfprintf_r+0x114e>
    7d28:	e25f      	b.n	81ea <_vfprintf_r+0x160e>
    7d2a:	9b08      	ldr	r3, [sp, #32]
    7d2c:	07db      	lsls	r3, r3, #31
    7d2e:	d500      	bpl.n	7d32 <_vfprintf_r+0x1156>
    7d30:	e2cb      	b.n	82ca <_vfprintf_r+0x16ee>
    7d32:	43d3      	mvns	r3, r2
    7d34:	17db      	asrs	r3, r3, #31
    7d36:	4013      	ands	r3, r2
    7d38:	9210      	str	r2, [sp, #64]	; 0x40
    7d3a:	2267      	movs	r2, #103	; 0x67
    7d3c:	9213      	str	r2, [sp, #76]	; 0x4c
    7d3e:	9a09      	ldr	r2, [sp, #36]	; 0x24
    7d40:	2a00      	cmp	r2, #0
    7d42:	d000      	beq.n	7d46 <_vfprintf_r+0x116a>
    7d44:	e156      	b.n	7ff4 <_vfprintf_r+0x1418>
    7d46:	9309      	str	r3, [sp, #36]	; 0x24
    7d48:	9b1b      	ldr	r3, [sp, #108]	; 0x6c
    7d4a:	aa16      	add	r2, sp, #88	; 0x58
    7d4c:	9308      	str	r3, [sp, #32]
    7d4e:	2300      	movs	r3, #0
    7d50:	7fd2      	ldrb	r2, [r2, #31]
    7d52:	930b      	str	r3, [sp, #44]	; 0x2c
    7d54:	4690      	mov	r8, r2
    7d56:	f7ff f99c 	bl	7092 <_vfprintf_r+0x4b6>
    7d5a:	9b08      	ldr	r3, [sp, #32]
    7d5c:	06db      	lsls	r3, r3, #27
    7d5e:	d40c      	bmi.n	7d7a <_vfprintf_r+0x119e>
    7d60:	9b08      	ldr	r3, [sp, #32]
    7d62:	065b      	lsls	r3, r3, #25
    7d64:	d509      	bpl.n	7d7a <_vfprintf_r+0x119e>
    7d66:	4669      	mov	r1, sp
    7d68:	9b11      	ldr	r3, [sp, #68]	; 0x44
    7d6a:	8e09      	ldrh	r1, [r1, #48]	; 0x30
    7d6c:	681a      	ldr	r2, [r3, #0]
    7d6e:	3304      	adds	r3, #4
    7d70:	9208      	str	r2, [sp, #32]
    7d72:	8011      	strh	r1, [r2, #0]
    7d74:	9311      	str	r3, [sp, #68]	; 0x44
    7d76:	f7fe ff79 	bl	6c6c <_vfprintf_r+0x90>
    7d7a:	9a11      	ldr	r2, [sp, #68]	; 0x44
    7d7c:	990c      	ldr	r1, [sp, #48]	; 0x30
    7d7e:	6813      	ldr	r3, [r2, #0]
    7d80:	6019      	str	r1, [r3, #0]
    7d82:	0013      	movs	r3, r2
    7d84:	3304      	adds	r3, #4
    7d86:	9311      	str	r3, [sp, #68]	; 0x44
    7d88:	f7fe ff70 	bl	6c6c <_vfprintf_r+0x90>
    7d8c:	9b0b      	ldr	r3, [sp, #44]	; 0x2c
    7d8e:	aa16      	add	r2, sp, #88	; 0x58
    7d90:	77d0      	strb	r0, [r2, #31]
    7d92:	2b00      	cmp	r3, #0
    7d94:	da01      	bge.n	7d9a <_vfprintf_r+0x11be>
    7d96:	f7fe ffe1 	bl	6d5c <_vfprintf_r+0x180>
    7d9a:	2380      	movs	r3, #128	; 0x80
    7d9c:	9a08      	ldr	r2, [sp, #32]
    7d9e:	439a      	bics	r2, r3
    7da0:	9208      	str	r2, [sp, #32]
    7da2:	f7fe ffd6 	bl	6d52 <_vfprintf_r+0x176>
    7da6:	46cb      	mov	fp, r9
    7da8:	46a1      	mov	r9, r4
    7daa:	0014      	movs	r4, r2
    7dac:	e647      	b.n	7a3e <_vfprintf_r+0xe62>
    7dae:	003a      	movs	r2, r7
    7db0:	4659      	mov	r1, fp
    7db2:	9807      	ldr	r0, [sp, #28]
    7db4:	f003 fa0c 	bl	b1d0 <__sprint_r>
    7db8:	2800      	cmp	r0, #0
    7dba:	d000      	beq.n	7dbe <_vfprintf_r+0x11e2>
    7dbc:	e527      	b.n	780e <_vfprintf_r+0xc32>
    7dbe:	68bc      	ldr	r4, [r7, #8]
    7dc0:	ae32      	add	r6, sp, #200	; 0xc8
    7dc2:	e47a      	b.n	76ba <_vfprintf_r+0xade>
    7dc4:	4b29      	ldr	r3, [pc, #164]	; (7e6c <_vfprintf_r+0x1290>)
    7dc6:	3401      	adds	r4, #1
    7dc8:	6033      	str	r3, [r6, #0]
    7dca:	2301      	movs	r3, #1
    7dcc:	6073      	str	r3, [r6, #4]
    7dce:	687b      	ldr	r3, [r7, #4]
    7dd0:	60bc      	str	r4, [r7, #8]
    7dd2:	3301      	adds	r3, #1
    7dd4:	607b      	str	r3, [r7, #4]
    7dd6:	2b07      	cmp	r3, #7
    7dd8:	dd00      	ble.n	7ddc <_vfprintf_r+0x1200>
    7dda:	e0ad      	b.n	7f38 <_vfprintf_r+0x135c>
    7ddc:	3608      	adds	r6, #8
    7dde:	2800      	cmp	r0, #0
    7de0:	d107      	bne.n	7df2 <_vfprintf_r+0x1216>
    7de2:	9b14      	ldr	r3, [sp, #80]	; 0x50
    7de4:	2b00      	cmp	r3, #0
    7de6:	d104      	bne.n	7df2 <_vfprintf_r+0x1216>
    7de8:	9b08      	ldr	r3, [sp, #32]
    7dea:	07db      	lsls	r3, r3, #31
    7dec:	d401      	bmi.n	7df2 <_vfprintf_r+0x1216>
    7dee:	f7ff fb9e 	bl	752e <_vfprintf_r+0x952>
    7df2:	9b19      	ldr	r3, [sp, #100]	; 0x64
    7df4:	6033      	str	r3, [r6, #0]
    7df6:	9b18      	ldr	r3, [sp, #96]	; 0x60
    7df8:	1919      	adds	r1, r3, r4
    7dfa:	6073      	str	r3, [r6, #4]
    7dfc:	687b      	ldr	r3, [r7, #4]
    7dfe:	60b9      	str	r1, [r7, #8]
    7e00:	3301      	adds	r3, #1
    7e02:	607b      	str	r3, [r7, #4]
    7e04:	2b07      	cmp	r3, #7
    7e06:	dd00      	ble.n	7e0a <_vfprintf_r+0x122e>
    7e08:	e24c      	b.n	82a4 <_vfprintf_r+0x16c8>
    7e0a:	0032      	movs	r2, r6
    7e0c:	3208      	adds	r2, #8
    7e0e:	4244      	negs	r4, r0
    7e10:	2c00      	cmp	r4, #0
    7e12:	dc00      	bgt.n	7e16 <_vfprintf_r+0x123a>
    7e14:	e0de      	b.n	7fd4 <_vfprintf_r+0x13f8>
    7e16:	4814      	ldr	r0, [pc, #80]	; (7e68 <_vfprintf_r+0x128c>)
    7e18:	4681      	mov	r9, r0
    7e1a:	2c10      	cmp	r4, #16
    7e1c:	dc00      	bgt.n	7e20 <_vfprintf_r+0x1244>
    7e1e:	e121      	b.n	8064 <_vfprintf_r+0x1488>
    7e20:	2610      	movs	r6, #16
    7e22:	465d      	mov	r5, fp
    7e24:	e004      	b.n	7e30 <_vfprintf_r+0x1254>
    7e26:	3208      	adds	r2, #8
    7e28:	3c10      	subs	r4, #16
    7e2a:	2c10      	cmp	r4, #16
    7e2c:	dc00      	bgt.n	7e30 <_vfprintf_r+0x1254>
    7e2e:	e118      	b.n	8062 <_vfprintf_r+0x1486>
    7e30:	4648      	mov	r0, r9
    7e32:	3110      	adds	r1, #16
    7e34:	3301      	adds	r3, #1
    7e36:	6010      	str	r0, [r2, #0]
    7e38:	6056      	str	r6, [r2, #4]
    7e3a:	60b9      	str	r1, [r7, #8]
    7e3c:	607b      	str	r3, [r7, #4]
    7e3e:	2b07      	cmp	r3, #7
    7e40:	ddf1      	ble.n	7e26 <_vfprintf_r+0x124a>
    7e42:	003a      	movs	r2, r7
    7e44:	0029      	movs	r1, r5
    7e46:	9807      	ldr	r0, [sp, #28]
    7e48:	f003 f9c2 	bl	b1d0 <__sprint_r>
    7e4c:	2800      	cmp	r0, #0
    7e4e:	d000      	beq.n	7e52 <_vfprintf_r+0x1276>
    7e50:	e260      	b.n	8314 <_vfprintf_r+0x1738>
    7e52:	68b9      	ldr	r1, [r7, #8]
    7e54:	687b      	ldr	r3, [r7, #4]
    7e56:	aa32      	add	r2, sp, #200	; 0xc8
    7e58:	e7e6      	b.n	7e28 <_vfprintf_r+0x124c>
    7e5a:	9811      	ldr	r0, [sp, #68]	; 0x44
    7e5c:	f7ff faea 	bl	7434 <_vfprintf_r+0x858>
    7e60:	2001      	movs	r0, #1
    7e62:	4240      	negs	r0, r0
    7e64:	f7fe ff9c 	bl	6da0 <_vfprintf_r+0x1c4>
    7e68:	0000bf98 	.word	0x0000bf98
    7e6c:	0000bd8c 	.word	0x0000bd8c
    7e70:	9b07      	ldr	r3, [sp, #28]
    7e72:	46d8      	mov	r8, fp
    7e74:	469b      	mov	fp, r3
    7e76:	68bb      	ldr	r3, [r7, #8]
    7e78:	2b00      	cmp	r3, #0
    7e7a:	d100      	bne.n	7e7e <_vfprintf_r+0x12a2>
    7e7c:	e49a      	b.n	77b4 <_vfprintf_r+0xbd8>
    7e7e:	003a      	movs	r2, r7
    7e80:	4641      	mov	r1, r8
    7e82:	4658      	mov	r0, fp
    7e84:	f003 f9a4 	bl	b1d0 <__sprint_r>
    7e88:	e494      	b.n	77b4 <_vfprintf_r+0xbd8>
    7e8a:	4be0      	ldr	r3, [pc, #896]	; (820c <_vfprintf_r+0x1630>)
    7e8c:	9312      	str	r3, [sp, #72]	; 0x48
    7e8e:	f7ff f88c 	bl	6faa <_vfprintf_r+0x3ce>
    7e92:	9811      	ldr	r0, [sp, #68]	; 0x44
    7e94:	0003      	movs	r3, r0
    7e96:	8800      	ldrh	r0, [r0, #0]
    7e98:	3304      	adds	r3, #4
    7e9a:	900e      	str	r0, [sp, #56]	; 0x38
    7e9c:	2000      	movs	r0, #0
    7e9e:	900f      	str	r0, [sp, #60]	; 0x3c
    7ea0:	a816      	add	r0, sp, #88	; 0x58
    7ea2:	77c2      	strb	r2, [r0, #31]
    7ea4:	9a0b      	ldr	r2, [sp, #44]	; 0x2c
    7ea6:	2a00      	cmp	r2, #0
    7ea8:	da00      	bge.n	7eac <_vfprintf_r+0x12d0>
    7eaa:	e215      	b.n	82d8 <_vfprintf_r+0x16fc>
    7eac:	2280      	movs	r2, #128	; 0x80
    7eae:	4391      	bics	r1, r2
    7eb0:	9a0e      	ldr	r2, [sp, #56]	; 0x38
    7eb2:	9108      	str	r1, [sp, #32]
    7eb4:	9311      	str	r3, [sp, #68]	; 0x44
    7eb6:	2a00      	cmp	r2, #0
    7eb8:	d001      	beq.n	7ebe <_vfprintf_r+0x12e2>
    7eba:	f7ff f8b6 	bl	702a <_vfprintf_r+0x44e>
    7ebe:	e571      	b.n	79a4 <_vfprintf_r+0xdc8>
    7ec0:	9811      	ldr	r0, [sp, #68]	; 0x44
    7ec2:	0003      	movs	r3, r0
    7ec4:	8800      	ldrh	r0, [r0, #0]
    7ec6:	3304      	adds	r3, #4
    7ec8:	900e      	str	r0, [sp, #56]	; 0x38
    7eca:	2000      	movs	r0, #0
    7ecc:	900f      	str	r0, [sp, #60]	; 0x3c
    7ece:	a816      	add	r0, sp, #88	; 0x58
    7ed0:	77c2      	strb	r2, [r0, #31]
    7ed2:	9a0b      	ldr	r2, [sp, #44]	; 0x2c
    7ed4:	2a00      	cmp	r2, #0
    7ed6:	da00      	bge.n	7eda <_vfprintf_r+0x12fe>
    7ed8:	e208      	b.n	82ec <_vfprintf_r+0x1710>
    7eda:	2280      	movs	r2, #128	; 0x80
    7edc:	9311      	str	r3, [sp, #68]	; 0x44
    7ede:	2300      	movs	r3, #0
    7ee0:	4391      	bics	r1, r2
    7ee2:	9a0e      	ldr	r2, [sp, #56]	; 0x38
    7ee4:	9108      	str	r1, [sp, #32]
    7ee6:	4698      	mov	r8, r3
    7ee8:	2a00      	cmp	r2, #0
    7eea:	d001      	beq.n	7ef0 <_vfprintf_r+0x1314>
    7eec:	f7fe ffef 	bl	6ece <_vfprintf_r+0x2f2>
    7ef0:	e4aa      	b.n	7848 <_vfprintf_r+0xc6c>
    7ef2:	9b11      	ldr	r3, [sp, #68]	; 0x44
    7ef4:	881a      	ldrh	r2, [r3, #0]
    7ef6:	f7ff fa33 	bl	7360 <_vfprintf_r+0x784>
    7efa:	ab23      	add	r3, sp, #140	; 0x8c
    7efc:	9304      	str	r3, [sp, #16]
    7efe:	ab20      	add	r3, sp, #128	; 0x80
    7f00:	9303      	str	r3, [sp, #12]
    7f02:	ab1f      	add	r3, sp, #124	; 0x7c
    7f04:	9302      	str	r3, [sp, #8]
    7f06:	2303      	movs	r3, #3
    7f08:	9c0b      	ldr	r4, [sp, #44]	; 0x2c
    7f0a:	9300      	str	r3, [sp, #0]
    7f0c:	9401      	str	r4, [sp, #4]
    7f0e:	464a      	mov	r2, r9
    7f10:	4643      	mov	r3, r8
    7f12:	9807      	ldr	r0, [sp, #28]
    7f14:	f000 fbd6 	bl	86c4 <_dtoa_r>
    7f18:	46a2      	mov	sl, r4
    7f1a:	9012      	str	r0, [sp, #72]	; 0x48
    7f1c:	9b12      	ldr	r3, [sp, #72]	; 0x48
    7f1e:	4453      	add	r3, sl
    7f20:	001c      	movs	r4, r3
    7f22:	9b13      	ldr	r3, [sp, #76]	; 0x4c
    7f24:	2b46      	cmp	r3, #70	; 0x46
    7f26:	d000      	beq.n	7f2a <_vfprintf_r+0x134e>
    7f28:	e6d7      	b.n	7cda <_vfprintf_r+0x10fe>
    7f2a:	9b12      	ldr	r3, [sp, #72]	; 0x48
    7f2c:	781b      	ldrb	r3, [r3, #0]
    7f2e:	2b30      	cmp	r3, #48	; 0x30
    7f30:	d015      	beq.n	7f5e <_vfprintf_r+0x1382>
    7f32:	9b1f      	ldr	r3, [sp, #124]	; 0x7c
    7f34:	18e4      	adds	r4, r4, r3
    7f36:	e6d0      	b.n	7cda <_vfprintf_r+0x10fe>
    7f38:	003a      	movs	r2, r7
    7f3a:	4659      	mov	r1, fp
    7f3c:	9807      	ldr	r0, [sp, #28]
    7f3e:	f003 f947 	bl	b1d0 <__sprint_r>
    7f42:	2800      	cmp	r0, #0
    7f44:	d000      	beq.n	7f48 <_vfprintf_r+0x136c>
    7f46:	e462      	b.n	780e <_vfprintf_r+0xc32>
    7f48:	981f      	ldr	r0, [sp, #124]	; 0x7c
    7f4a:	68bc      	ldr	r4, [r7, #8]
    7f4c:	ae32      	add	r6, sp, #200	; 0xc8
    7f4e:	e746      	b.n	7dde <_vfprintf_r+0x1202>
    7f50:	9b0b      	ldr	r3, [sp, #44]	; 0x2c
    7f52:	2b00      	cmp	r3, #0
    7f54:	d000      	beq.n	7f58 <_vfprintf_r+0x137c>
    7f56:	e68a      	b.n	7c6e <_vfprintf_r+0x1092>
    7f58:	3301      	adds	r3, #1
    7f5a:	930b      	str	r3, [sp, #44]	; 0x2c
    7f5c:	e687      	b.n	7c6e <_vfprintf_r+0x1092>
    7f5e:	2200      	movs	r2, #0
    7f60:	2300      	movs	r3, #0
    7f62:	4648      	mov	r0, r9
    7f64:	4641      	mov	r1, r8
    7f66:	f7fc fa1d 	bl	43a4 <__aeabi_dcmpeq>
    7f6a:	2800      	cmp	r0, #0
    7f6c:	d1e1      	bne.n	7f32 <_vfprintf_r+0x1356>
    7f6e:	2301      	movs	r3, #1
    7f70:	4652      	mov	r2, sl
    7f72:	1a9b      	subs	r3, r3, r2
    7f74:	931f      	str	r3, [sp, #124]	; 0x7c
    7f76:	18e4      	adds	r4, r4, r3
    7f78:	e6af      	b.n	7cda <_vfprintf_r+0x10fe>
    7f7a:	2220      	movs	r2, #32
    7f7c:	9b08      	ldr	r3, [sp, #32]
    7f7e:	3101      	adds	r1, #1
    7f80:	4313      	orrs	r3, r2
    7f82:	9308      	str	r3, [sp, #32]
    7f84:	780b      	ldrb	r3, [r1, #0]
    7f86:	f7fe feac 	bl	6ce2 <_vfprintf_r+0x106>
    7f8a:	003a      	movs	r2, r7
    7f8c:	4659      	mov	r1, fp
    7f8e:	9807      	ldr	r0, [sp, #28]
    7f90:	f003 f91e 	bl	b1d0 <__sprint_r>
    7f94:	2800      	cmp	r0, #0
    7f96:	d000      	beq.n	7f9a <_vfprintf_r+0x13be>
    7f98:	e439      	b.n	780e <_vfprintf_r+0xc32>
    7f9a:	68bc      	ldr	r4, [r7, #8]
    7f9c:	ae32      	add	r6, sp, #200	; 0xc8
    7f9e:	f7ff fba3 	bl	76e8 <_vfprintf_r+0xb0c>
    7fa2:	9a12      	ldr	r2, [sp, #72]	; 0x48
    7fa4:	ab32      	add	r3, sp, #200	; 0xc8
    7fa6:	1a9b      	subs	r3, r3, r2
    7fa8:	9310      	str	r3, [sp, #64]	; 0x40
    7faa:	f7ff f869 	bl	7080 <_vfprintf_r+0x4a4>
    7fae:	9812      	ldr	r0, [sp, #72]	; 0x48
    7fb0:	f7fe fde0 	bl	6b74 <strlen>
    7fb4:	0002      	movs	r2, r0
    7fb6:	9010      	str	r0, [sp, #64]	; 0x40
    7fb8:	0003      	movs	r3, r0
    7fba:	f7ff f91b 	bl	71f4 <_vfprintf_r+0x618>
    7fbe:	003a      	movs	r2, r7
    7fc0:	4659      	mov	r1, fp
    7fc2:	9807      	ldr	r0, [sp, #28]
    7fc4:	f003 f904 	bl	b1d0 <__sprint_r>
    7fc8:	2800      	cmp	r0, #0
    7fca:	d000      	beq.n	7fce <_vfprintf_r+0x13f2>
    7fcc:	e41f      	b.n	780e <_vfprintf_r+0xc32>
    7fce:	68b9      	ldr	r1, [r7, #8]
    7fd0:	687b      	ldr	r3, [r7, #4]
    7fd2:	aa32      	add	r2, sp, #200	; 0xc8
    7fd4:	9812      	ldr	r0, [sp, #72]	; 0x48
    7fd6:	3301      	adds	r3, #1
    7fd8:	6010      	str	r0, [r2, #0]
    7fda:	9814      	ldr	r0, [sp, #80]	; 0x50
    7fdc:	607b      	str	r3, [r7, #4]
    7fde:	1844      	adds	r4, r0, r1
    7fe0:	6050      	str	r0, [r2, #4]
    7fe2:	60bc      	str	r4, [r7, #8]
    7fe4:	2b07      	cmp	r3, #7
    7fe6:	dd01      	ble.n	7fec <_vfprintf_r+0x1410>
    7fe8:	f7ff fb43 	bl	7672 <_vfprintf_r+0xa96>
    7fec:	3208      	adds	r2, #8
    7fee:	0016      	movs	r6, r2
    7ff0:	f7ff fa9d 	bl	752e <_vfprintf_r+0x952>
    7ff4:	9309      	str	r3, [sp, #36]	; 0x24
    7ff6:	9b1b      	ldr	r3, [sp, #108]	; 0x6c
    7ff8:	222d      	movs	r2, #45	; 0x2d
    7ffa:	9308      	str	r3, [sp, #32]
    7ffc:	232d      	movs	r3, #45	; 0x2d
    7ffe:	4698      	mov	r8, r3
    8000:	2300      	movs	r3, #0
    8002:	a916      	add	r1, sp, #88	; 0x58
    8004:	77ca      	strb	r2, [r1, #31]
    8006:	930b      	str	r3, [sp, #44]	; 0x2c
    8008:	f7ff f846 	bl	7098 <_vfprintf_r+0x4bc>
    800c:	9c1f      	ldr	r4, [sp, #124]	; 0x7c
    800e:	1ce3      	adds	r3, r4, #3
    8010:	db33      	blt.n	807a <_vfprintf_r+0x149e>
    8012:	9b0b      	ldr	r3, [sp, #44]	; 0x2c
    8014:	42a3      	cmp	r3, r4
    8016:	db30      	blt.n	807a <_vfprintf_r+0x149e>
    8018:	9415      	str	r4, [sp, #84]	; 0x54
    801a:	e681      	b.n	7d20 <_vfprintf_r+0x1144>
    801c:	9b0e      	ldr	r3, [sp, #56]	; 0x38
    801e:	2b09      	cmp	r3, #9
    8020:	d901      	bls.n	8026 <_vfprintf_r+0x144a>
    8022:	f7fe ff59 	bl	6ed8 <_vfprintf_r+0x2fc>
    8026:	e417      	b.n	7858 <_vfprintf_r+0xc7c>
    8028:	2101      	movs	r1, #1
    802a:	4249      	negs	r1, r1
    802c:	f7fe feff 	bl	6e2e <_vfprintf_r+0x252>
    8030:	003a      	movs	r2, r7
    8032:	4659      	mov	r1, fp
    8034:	9807      	ldr	r0, [sp, #28]
    8036:	f003 f8cb 	bl	b1d0 <__sprint_r>
    803a:	2800      	cmp	r0, #0
    803c:	d001      	beq.n	8042 <_vfprintf_r+0x1466>
    803e:	f7ff fbe6 	bl	780e <_vfprintf_r+0xc32>
    8042:	68bc      	ldr	r4, [r7, #8]
    8044:	ae32      	add	r6, sp, #200	; 0xc8
    8046:	e44f      	b.n	78e8 <_vfprintf_r+0xd0c>
    8048:	003a      	movs	r2, r7
    804a:	4659      	mov	r1, fp
    804c:	9807      	ldr	r0, [sp, #28]
    804e:	f003 f8bf 	bl	b1d0 <__sprint_r>
    8052:	2800      	cmp	r0, #0
    8054:	d001      	beq.n	805a <_vfprintf_r+0x147e>
    8056:	f7ff fbda 	bl	780e <_vfprintf_r+0xc32>
    805a:	9b1f      	ldr	r3, [sp, #124]	; 0x7c
    805c:	68bc      	ldr	r4, [r7, #8]
    805e:	ae32      	add	r6, sp, #200	; 0xc8
    8060:	e531      	b.n	7ac6 <_vfprintf_r+0xeea>
    8062:	46ab      	mov	fp, r5
    8064:	4648      	mov	r0, r9
    8066:	1909      	adds	r1, r1, r4
    8068:	3301      	adds	r3, #1
    806a:	6010      	str	r0, [r2, #0]
    806c:	6054      	str	r4, [r2, #4]
    806e:	60b9      	str	r1, [r7, #8]
    8070:	607b      	str	r3, [r7, #4]
    8072:	2b07      	cmp	r3, #7
    8074:	dca3      	bgt.n	7fbe <_vfprintf_r+0x13e2>
    8076:	3208      	adds	r2, #8
    8078:	e7ac      	b.n	7fd4 <_vfprintf_r+0x13f8>
    807a:	9b13      	ldr	r3, [sp, #76]	; 0x4c
    807c:	3b02      	subs	r3, #2
    807e:	9313      	str	r3, [sp, #76]	; 0x4c
    8080:	466b      	mov	r3, sp
    8082:	224c      	movs	r2, #76	; 0x4c
    8084:	189b      	adds	r3, r3, r2
    8086:	781b      	ldrb	r3, [r3, #0]
    8088:	3c01      	subs	r4, #1
    808a:	ad21      	add	r5, sp, #132	; 0x84
    808c:	941f      	str	r4, [sp, #124]	; 0x7c
    808e:	702b      	strb	r3, [r5, #0]
    8090:	2c00      	cmp	r4, #0
    8092:	da00      	bge.n	8096 <_vfprintf_r+0x14ba>
    8094:	e155      	b.n	8342 <_vfprintf_r+0x1766>
    8096:	232b      	movs	r3, #43	; 0x2b
    8098:	706b      	strb	r3, [r5, #1]
    809a:	2c09      	cmp	r4, #9
    809c:	dc00      	bgt.n	80a0 <_vfprintf_r+0x14c4>
    809e:	e11d      	b.n	82dc <_vfprintf_r+0x1700>
    80a0:	aa16      	add	r2, sp, #88	; 0x58
    80a2:	233b      	movs	r3, #59	; 0x3b
    80a4:	4694      	mov	ip, r2
    80a6:	4463      	add	r3, ip
    80a8:	46b0      	mov	r8, r6
    80aa:	469a      	mov	sl, r3
    80ac:	001e      	movs	r6, r3
    80ae:	0020      	movs	r0, r4
    80b0:	210a      	movs	r1, #10
    80b2:	f7fc f961 	bl	4378 <__aeabi_idivmod>
    80b6:	3e01      	subs	r6, #1
    80b8:	3130      	adds	r1, #48	; 0x30
    80ba:	7031      	strb	r1, [r6, #0]
    80bc:	0020      	movs	r0, r4
    80be:	210a      	movs	r1, #10
    80c0:	f7fc f874 	bl	41ac <__aeabi_idiv>
    80c4:	1e04      	subs	r4, r0, #0
    80c6:	2c09      	cmp	r4, #9
    80c8:	dcf1      	bgt.n	80ae <_vfprintf_r+0x14d2>
    80ca:	0033      	movs	r3, r6
    80cc:	3430      	adds	r4, #48	; 0x30
    80ce:	1e5a      	subs	r2, r3, #1
    80d0:	b2e4      	uxtb	r4, r4
    80d2:	4646      	mov	r6, r8
    80d4:	7014      	strb	r4, [r2, #0]
    80d6:	4698      	mov	r8, r3
    80d8:	4552      	cmp	r2, sl
    80da:	d300      	bcc.n	80de <_vfprintf_r+0x1502>
    80dc:	e164      	b.n	83a8 <_vfprintf_r+0x17cc>
    80de:	4641      	mov	r1, r8
    80e0:	1a79      	subs	r1, r7, r1
    80e2:	002b      	movs	r3, r5
    80e4:	1869      	adds	r1, r5, r1
    80e6:	e000      	b.n	80ea <_vfprintf_r+0x150e>
    80e8:	7814      	ldrb	r4, [r2, #0]
    80ea:	709c      	strb	r4, [r3, #2]
    80ec:	3301      	adds	r3, #1
    80ee:	3201      	adds	r2, #1
    80f0:	428b      	cmp	r3, r1
    80f2:	d1f9      	bne.n	80e8 <_vfprintf_r+0x150c>
    80f4:	a916      	add	r1, sp, #88	; 0x58
    80f6:	468c      	mov	ip, r1
    80f8:	222e      	movs	r2, #46	; 0x2e
    80fa:	4643      	mov	r3, r8
    80fc:	4462      	add	r2, ip
    80fe:	4694      	mov	ip, r2
    8100:	1afb      	subs	r3, r7, r3
    8102:	4463      	add	r3, ip
    8104:	9914      	ldr	r1, [sp, #80]	; 0x50
    8106:	1b5b      	subs	r3, r3, r5
    8108:	000a      	movs	r2, r1
    810a:	469c      	mov	ip, r3
    810c:	4462      	add	r2, ip
    810e:	931a      	str	r3, [sp, #104]	; 0x68
    8110:	9210      	str	r2, [sp, #64]	; 0x40
    8112:	2901      	cmp	r1, #1
    8114:	dc00      	bgt.n	8118 <_vfprintf_r+0x153c>
    8116:	e11d      	b.n	8354 <_vfprintf_r+0x1778>
    8118:	9a18      	ldr	r2, [sp, #96]	; 0x60
    811a:	9b10      	ldr	r3, [sp, #64]	; 0x40
    811c:	4694      	mov	ip, r2
    811e:	4463      	add	r3, ip
    8120:	001a      	movs	r2, r3
    8122:	9310      	str	r3, [sp, #64]	; 0x40
    8124:	43db      	mvns	r3, r3
    8126:	17db      	asrs	r3, r3, #31
    8128:	4013      	ands	r3, r2
    812a:	2200      	movs	r2, #0
    812c:	9215      	str	r2, [sp, #84]	; 0x54
    812e:	e606      	b.n	7d3e <_vfprintf_r+0x1162>
    8130:	003a      	movs	r2, r7
    8132:	4659      	mov	r1, fp
    8134:	9807      	ldr	r0, [sp, #28]
    8136:	f003 f84b 	bl	b1d0 <__sprint_r>
    813a:	2800      	cmp	r0, #0
    813c:	d001      	beq.n	8142 <_vfprintf_r+0x1566>
    813e:	f7ff fb66 	bl	780e <_vfprintf_r+0xc32>
    8142:	9b14      	ldr	r3, [sp, #80]	; 0x50
    8144:	9a1f      	ldr	r2, [sp, #124]	; 0x7c
    8146:	68bc      	ldr	r4, [r7, #8]
    8148:	1a9b      	subs	r3, r3, r2
    814a:	ae32      	add	r6, sp, #200	; 0xc8
    814c:	e4d4      	b.n	7af8 <_vfprintf_r+0xf1c>
    814e:	232d      	movs	r3, #45	; 0x2d
    8150:	4698      	mov	r8, r3
    8152:	f7fe febc 	bl	6ece <_vfprintf_r+0x2f2>
    8156:	46c8      	mov	r8, r9
    8158:	f7ff fb2c 	bl	77b4 <_vfprintf_r+0xbd8>
    815c:	9b0b      	ldr	r3, [sp, #44]	; 0x2c
    815e:	2b06      	cmp	r3, #6
    8160:	d900      	bls.n	8164 <_vfprintf_r+0x1588>
    8162:	2306      	movs	r3, #6
    8164:	001a      	movs	r2, r3
    8166:	9310      	str	r3, [sp, #64]	; 0x40
    8168:	43db      	mvns	r3, r3
    816a:	17db      	asrs	r3, r3, #31
    816c:	401a      	ands	r2, r3
    816e:	2300      	movs	r3, #0
    8170:	4698      	mov	r8, r3
    8172:	930b      	str	r3, [sp, #44]	; 0x2c
    8174:	9315      	str	r3, [sp, #84]	; 0x54
    8176:	4b26      	ldr	r3, [pc, #152]	; (8210 <_vfprintf_r+0x1634>)
    8178:	9209      	str	r2, [sp, #36]	; 0x24
    817a:	9411      	str	r4, [sp, #68]	; 0x44
    817c:	9312      	str	r3, [sp, #72]	; 0x48
    817e:	f7fe ff8e 	bl	709e <_vfprintf_r+0x4c2>
    8182:	003a      	movs	r2, r7
    8184:	4659      	mov	r1, fp
    8186:	9807      	ldr	r0, [sp, #28]
    8188:	f003 f822 	bl	b1d0 <__sprint_r>
    818c:	2800      	cmp	r0, #0
    818e:	d001      	beq.n	8194 <_vfprintf_r+0x15b8>
    8190:	f7ff fb3d 	bl	780e <_vfprintf_r+0xc32>
    8194:	68bc      	ldr	r4, [r7, #8]
    8196:	ae32      	add	r6, sp, #200	; 0xc8
    8198:	e489      	b.n	7aae <_vfprintf_r+0xed2>
    819a:	2320      	movs	r3, #32
    819c:	9d13      	ldr	r5, [sp, #76]	; 0x4c
    819e:	439d      	bics	r5, r3
    81a0:	3b1a      	subs	r3, #26
    81a2:	930b      	str	r3, [sp, #44]	; 0x2c
    81a4:	e563      	b.n	7c6e <_vfprintf_r+0x1092>
    81a6:	ab23      	add	r3, sp, #140	; 0x8c
    81a8:	9304      	str	r3, [sp, #16]
    81aa:	ab20      	add	r3, sp, #128	; 0x80
    81ac:	9303      	str	r3, [sp, #12]
    81ae:	ab1f      	add	r3, sp, #124	; 0x7c
    81b0:	9302      	str	r3, [sp, #8]
    81b2:	2303      	movs	r3, #3
    81b4:	9c0b      	ldr	r4, [sp, #44]	; 0x2c
    81b6:	9300      	str	r3, [sp, #0]
    81b8:	9401      	str	r4, [sp, #4]
    81ba:	464a      	mov	r2, r9
    81bc:	4643      	mov	r3, r8
    81be:	9807      	ldr	r0, [sp, #28]
    81c0:	f000 fa80 	bl	86c4 <_dtoa_r>
    81c4:	46a4      	mov	ip, r4
    81c6:	0001      	movs	r1, r0
    81c8:	0022      	movs	r2, r4
    81ca:	4461      	add	r1, ip
    81cc:	9012      	str	r0, [sp, #72]	; 0x48
    81ce:	000c      	movs	r4, r1
    81d0:	4692      	mov	sl, r2
    81d2:	e6aa      	b.n	7f2a <_vfprintf_r+0x134e>
    81d4:	232d      	movs	r3, #45	; 0x2d
    81d6:	aa16      	add	r2, sp, #88	; 0x58
    81d8:	77d3      	strb	r3, [r2, #31]
    81da:	4698      	mov	r8, r3
    81dc:	f7fe fede 	bl	6f9c <_vfprintf_r+0x3c0>
    81e0:	2300      	movs	r3, #0
    81e2:	9008      	str	r0, [sp, #32]
    81e4:	4698      	mov	r8, r3
    81e6:	f7ff f881 	bl	72ec <_vfprintf_r+0x710>
    81ea:	9a18      	ldr	r2, [sp, #96]	; 0x60
    81ec:	9b14      	ldr	r3, [sp, #80]	; 0x50
    81ee:	4694      	mov	ip, r2
    81f0:	9a15      	ldr	r2, [sp, #84]	; 0x54
    81f2:	4463      	add	r3, ip
    81f4:	9310      	str	r3, [sp, #64]	; 0x40
    81f6:	2a00      	cmp	r2, #0
    81f8:	dc00      	bgt.n	81fc <_vfprintf_r+0x1620>
    81fa:	e0a6      	b.n	834a <_vfprintf_r+0x176e>
    81fc:	001a      	movs	r2, r3
    81fe:	43db      	mvns	r3, r3
    8200:	17db      	asrs	r3, r3, #31
    8202:	4013      	ands	r3, r2
    8204:	2267      	movs	r2, #103	; 0x67
    8206:	9213      	str	r2, [sp, #76]	; 0x4c
    8208:	e599      	b.n	7d3e <_vfprintf_r+0x1162>
    820a:	46c0      	nop			; (mov r8, r8)
    820c:	0000bfa8 	.word	0x0000bfa8
    8210:	0000bfe0 	.word	0x0000bfe0
    8214:	2280      	movs	r2, #128	; 0x80
    8216:	0612      	lsls	r2, r2, #24
    8218:	4694      	mov	ip, r2
    821a:	9b16      	ldr	r3, [sp, #88]	; 0x58
    821c:	4699      	mov	r9, r3
    821e:	9b17      	ldr	r3, [sp, #92]	; 0x5c
    8220:	4463      	add	r3, ip
    8222:	4698      	mov	r8, r3
    8224:	232d      	movs	r3, #45	; 0x2d
    8226:	9309      	str	r3, [sp, #36]	; 0x24
    8228:	e52f      	b.n	7c8a <_vfprintf_r+0x10ae>
    822a:	9b1f      	ldr	r3, [sp, #124]	; 0x7c
    822c:	9315      	str	r3, [sp, #84]	; 0x54
    822e:	2b00      	cmp	r3, #0
    8230:	dc00      	bgt.n	8234 <_vfprintf_r+0x1658>
    8232:	e0a4      	b.n	837e <_vfprintf_r+0x17a2>
    8234:	9a0b      	ldr	r2, [sp, #44]	; 0x2c
    8236:	2a00      	cmp	r2, #0
    8238:	d15d      	bne.n	82f6 <_vfprintf_r+0x171a>
    823a:	9a08      	ldr	r2, [sp, #32]
    823c:	07d2      	lsls	r2, r2, #31
    823e:	d45a      	bmi.n	82f6 <_vfprintf_r+0x171a>
    8240:	9310      	str	r3, [sp, #64]	; 0x40
    8242:	e57c      	b.n	7d3e <_vfprintf_r+0x1162>
    8244:	9b12      	ldr	r3, [sp, #72]	; 0x48
    8246:	4453      	add	r3, sl
    8248:	001c      	movs	r4, r3
    824a:	9b13      	ldr	r3, [sp, #76]	; 0x4c
    824c:	2b47      	cmp	r3, #71	; 0x47
    824e:	d000      	beq.n	8252 <_vfprintf_r+0x1676>
    8250:	e543      	b.n	7cda <_vfprintf_r+0x10fe>
    8252:	9b08      	ldr	r3, [sp, #32]
    8254:	07db      	lsls	r3, r3, #31
    8256:	d500      	bpl.n	825a <_vfprintf_r+0x167e>
    8258:	e660      	b.n	7f1c <_vfprintf_r+0x1340>
    825a:	9b23      	ldr	r3, [sp, #140]	; 0x8c
    825c:	9a12      	ldr	r2, [sp, #72]	; 0x48
    825e:	1a9b      	subs	r3, r3, r2
    8260:	9314      	str	r3, [sp, #80]	; 0x50
    8262:	2d47      	cmp	r5, #71	; 0x47
    8264:	d100      	bne.n	8268 <_vfprintf_r+0x168c>
    8266:	e6d1      	b.n	800c <_vfprintf_r+0x1430>
    8268:	9c1f      	ldr	r4, [sp, #124]	; 0x7c
    826a:	e709      	b.n	8080 <_vfprintf_r+0x14a4>
    826c:	ab16      	add	r3, sp, #88	; 0x58
    826e:	7fdb      	ldrb	r3, [r3, #31]
    8270:	9411      	str	r4, [sp, #68]	; 0x44
    8272:	4698      	mov	r8, r3
    8274:	9b0b      	ldr	r3, [sp, #44]	; 0x2c
    8276:	9309      	str	r3, [sp, #36]	; 0x24
    8278:	9310      	str	r3, [sp, #64]	; 0x40
    827a:	2300      	movs	r3, #0
    827c:	930b      	str	r3, [sp, #44]	; 0x2c
    827e:	9315      	str	r3, [sp, #84]	; 0x54
    8280:	f7fe ff07 	bl	7092 <_vfprintf_r+0x4b6>
    8284:	4698      	mov	r8, r3
    8286:	9b08      	ldr	r3, [sp, #32]
    8288:	07db      	lsls	r3, r3, #31
    828a:	d505      	bpl.n	8298 <_vfprintf_r+0x16bc>
    828c:	2130      	movs	r1, #48	; 0x30
    828e:	2327      	movs	r3, #39	; 0x27
    8290:	aa28      	add	r2, sp, #160	; 0xa0
    8292:	54d1      	strb	r1, [r2, r3]
    8294:	f7ff fae5 	bl	7862 <_vfprintf_r+0xc86>
    8298:	2300      	movs	r3, #0
    829a:	9310      	str	r3, [sp, #64]	; 0x40
    829c:	ab32      	add	r3, sp, #200	; 0xc8
    829e:	9312      	str	r3, [sp, #72]	; 0x48
    82a0:	f7fe feee 	bl	7080 <_vfprintf_r+0x4a4>
    82a4:	003a      	movs	r2, r7
    82a6:	4659      	mov	r1, fp
    82a8:	9807      	ldr	r0, [sp, #28]
    82aa:	f002 ff91 	bl	b1d0 <__sprint_r>
    82ae:	2800      	cmp	r0, #0
    82b0:	d001      	beq.n	82b6 <_vfprintf_r+0x16da>
    82b2:	f7ff faac 	bl	780e <_vfprintf_r+0xc32>
    82b6:	981f      	ldr	r0, [sp, #124]	; 0x7c
    82b8:	68b9      	ldr	r1, [r7, #8]
    82ba:	687b      	ldr	r3, [r7, #4]
    82bc:	aa32      	add	r2, sp, #200	; 0xc8
    82be:	e5a6      	b.n	7e0e <_vfprintf_r+0x1232>
    82c0:	2200      	movs	r2, #0
    82c2:	4641      	mov	r1, r8
    82c4:	920b      	str	r2, [sp, #44]	; 0x2c
    82c6:	f7fe fd0d 	bl	6ce4 <_vfprintf_r+0x108>
    82ca:	9a18      	ldr	r2, [sp, #96]	; 0x60
    82cc:	9b15      	ldr	r3, [sp, #84]	; 0x54
    82ce:	4694      	mov	ip, r2
    82d0:	4463      	add	r3, ip
    82d2:	001a      	movs	r2, r3
    82d4:	9310      	str	r3, [sp, #64]	; 0x40
    82d6:	e792      	b.n	81fe <_vfprintf_r+0x1622>
    82d8:	9311      	str	r3, [sp, #68]	; 0x44
    82da:	e49b      	b.n	7c14 <_vfprintf_r+0x1038>
    82dc:	2330      	movs	r3, #48	; 0x30
    82de:	3430      	adds	r4, #48	; 0x30
    82e0:	70ab      	strb	r3, [r5, #2]
    82e2:	70ec      	strb	r4, [r5, #3]
    82e4:	ab22      	add	r3, sp, #136	; 0x88
    82e6:	e70d      	b.n	8104 <_vfprintf_r+0x1528>
    82e8:	9b23      	ldr	r3, [sp, #140]	; 0x8c
    82ea:	e509      	b.n	7d00 <_vfprintf_r+0x1124>
    82ec:	9311      	str	r3, [sp, #68]	; 0x44
    82ee:	2300      	movs	r3, #0
    82f0:	4698      	mov	r8, r3
    82f2:	f7ff fbc4 	bl	7a7e <_vfprintf_r+0xea2>
    82f6:	9a18      	ldr	r2, [sp, #96]	; 0x60
    82f8:	9b15      	ldr	r3, [sp, #84]	; 0x54
    82fa:	4694      	mov	ip, r2
    82fc:	4463      	add	r3, ip
    82fe:	0018      	movs	r0, r3
    8300:	9b0b      	ldr	r3, [sp, #44]	; 0x2c
    8302:	469c      	mov	ip, r3
    8304:	4484      	add	ip, r0
    8306:	4663      	mov	r3, ip
    8308:	9310      	str	r3, [sp, #64]	; 0x40
    830a:	43db      	mvns	r3, r3
    830c:	4662      	mov	r2, ip
    830e:	17db      	asrs	r3, r3, #31
    8310:	4013      	ands	r3, r2
    8312:	e514      	b.n	7d3e <_vfprintf_r+0x1162>
    8314:	46a8      	mov	r8, r5
    8316:	f7ff fa4d 	bl	77b4 <_vfprintf_r+0xbd8>
    831a:	9b13      	ldr	r3, [sp, #76]	; 0x4c
    831c:	2b47      	cmp	r3, #71	; 0x47
    831e:	dc20      	bgt.n	8362 <_vfprintf_r+0x1786>
    8320:	4b34      	ldr	r3, [pc, #208]	; (83f4 <_vfprintf_r+0x1818>)
    8322:	9312      	str	r3, [sp, #72]	; 0x48
    8324:	2380      	movs	r3, #128	; 0x80
    8326:	9a08      	ldr	r2, [sp, #32]
    8328:	439a      	bics	r2, r3
    832a:	ab16      	add	r3, sp, #88	; 0x58
    832c:	7fdb      	ldrb	r3, [r3, #31]
    832e:	9208      	str	r2, [sp, #32]
    8330:	4698      	mov	r8, r3
    8332:	2303      	movs	r3, #3
    8334:	f7fe fe3e 	bl	6fb4 <_vfprintf_r+0x3d8>
    8338:	4a2f      	ldr	r2, [pc, #188]	; (83f8 <_vfprintf_r+0x181c>)
    833a:	687b      	ldr	r3, [r7, #4]
    833c:	4691      	mov	r9, r2
    833e:	f7ff fbaa 	bl	7a96 <_vfprintf_r+0xeba>
    8342:	232d      	movs	r3, #45	; 0x2d
    8344:	4264      	negs	r4, r4
    8346:	706b      	strb	r3, [r5, #1]
    8348:	e6a7      	b.n	809a <_vfprintf_r+0x14be>
    834a:	9b10      	ldr	r3, [sp, #64]	; 0x40
    834c:	9a15      	ldr	r2, [sp, #84]	; 0x54
    834e:	1a98      	subs	r0, r3, r2
    8350:	1c43      	adds	r3, r0, #1
    8352:	e7be      	b.n	82d2 <_vfprintf_r+0x16f6>
    8354:	9b08      	ldr	r3, [sp, #32]
    8356:	07db      	lsls	r3, r3, #31
    8358:	d500      	bpl.n	835c <_vfprintf_r+0x1780>
    835a:	e6dd      	b.n	8118 <_vfprintf_r+0x153c>
    835c:	9a10      	ldr	r2, [sp, #64]	; 0x40
    835e:	0013      	movs	r3, r2
    8360:	e6e0      	b.n	8124 <_vfprintf_r+0x1548>
    8362:	4b26      	ldr	r3, [pc, #152]	; (83fc <_vfprintf_r+0x1820>)
    8364:	9312      	str	r3, [sp, #72]	; 0x48
    8366:	e7dd      	b.n	8324 <_vfprintf_r+0x1748>
    8368:	9b11      	ldr	r3, [sp, #68]	; 0x44
    836a:	1d1a      	adds	r2, r3, #4
    836c:	681b      	ldr	r3, [r3, #0]
    836e:	930b      	str	r3, [sp, #44]	; 0x2c
    8370:	2b00      	cmp	r3, #0
    8372:	db37      	blt.n	83e4 <_vfprintf_r+0x1808>
    8374:	784b      	ldrb	r3, [r1, #1]
    8376:	9211      	str	r2, [sp, #68]	; 0x44
    8378:	4641      	mov	r1, r8
    837a:	f7fe fcb2 	bl	6ce2 <_vfprintf_r+0x106>
    837e:	9b0b      	ldr	r3, [sp, #44]	; 0x2c
    8380:	2b00      	cmp	r3, #0
    8382:	d102      	bne.n	838a <_vfprintf_r+0x17ae>
    8384:	9b08      	ldr	r3, [sp, #32]
    8386:	07db      	lsls	r3, r3, #31
    8388:	d502      	bpl.n	8390 <_vfprintf_r+0x17b4>
    838a:	9b18      	ldr	r3, [sp, #96]	; 0x60
    838c:	1c58      	adds	r0, r3, #1
    838e:	e7b7      	b.n	8300 <_vfprintf_r+0x1724>
    8390:	2201      	movs	r2, #1
    8392:	2301      	movs	r3, #1
    8394:	9210      	str	r2, [sp, #64]	; 0x40
    8396:	e4d2      	b.n	7d3e <_vfprintf_r+0x1162>
    8398:	ab16      	add	r3, sp, #88	; 0x58
    839a:	77dc      	strb	r4, [r3, #31]
    839c:	f7fe fdca 	bl	6f34 <_vfprintf_r+0x358>
    83a0:	ab16      	add	r3, sp, #88	; 0x58
    83a2:	77dc      	strb	r4, [r3, #31]
    83a4:	f7fe fe18 	bl	6fd8 <_vfprintf_r+0x3fc>
    83a8:	aa16      	add	r2, sp, #88	; 0x58
    83aa:	232e      	movs	r3, #46	; 0x2e
    83ac:	4694      	mov	ip, r2
    83ae:	4463      	add	r3, ip
    83b0:	e6a8      	b.n	8104 <_vfprintf_r+0x1528>
    83b2:	ab16      	add	r3, sp, #88	; 0x58
    83b4:	77dc      	strb	r4, [r3, #31]
    83b6:	f7fe fec4 	bl	7142 <_vfprintf_r+0x566>
    83ba:	ab16      	add	r3, sp, #88	; 0x58
    83bc:	77dc      	strb	r4, [r3, #31]
    83be:	f7fe ff5d 	bl	727c <_vfprintf_r+0x6a0>
    83c2:	ab16      	add	r3, sp, #88	; 0x58
    83c4:	77dc      	strb	r4, [r3, #31]
    83c6:	f7fe fd55 	bl	6e74 <_vfprintf_r+0x298>
    83ca:	ab16      	add	r3, sp, #88	; 0x58
    83cc:	77dc      	strb	r4, [r3, #31]
    83ce:	490c      	ldr	r1, [pc, #48]	; (8400 <_vfprintf_r+0x1824>)
    83d0:	f7fe ffb9 	bl	7346 <_vfprintf_r+0x76a>
    83d4:	ab16      	add	r3, sp, #88	; 0x58
    83d6:	77dc      	strb	r4, [r3, #31]
    83d8:	f7ff f81d 	bl	7416 <_vfprintf_r+0x83a>
    83dc:	ab16      	add	r3, sp, #88	; 0x58
    83de:	77dc      	strb	r4, [r3, #31]
    83e0:	f7fe ff31 	bl	7246 <_vfprintf_r+0x66a>
    83e4:	9211      	str	r2, [sp, #68]	; 0x44
    83e6:	2201      	movs	r2, #1
    83e8:	4252      	negs	r2, r2
    83ea:	784b      	ldrb	r3, [r1, #1]
    83ec:	920b      	str	r2, [sp, #44]	; 0x2c
    83ee:	4641      	mov	r1, r8
    83f0:	f7fe fc77 	bl	6ce2 <_vfprintf_r+0x106>
    83f4:	0000bfb0 	.word	0x0000bfb0
    83f8:	0000bf98 	.word	0x0000bf98
    83fc:	0000bfb4 	.word	0x0000bfb4
    8400:	0000bfcc 	.word	0x0000bfcc

00008404 <__sbprintf>:
    8404:	b570      	push	{r4, r5, r6, lr}
    8406:	0006      	movs	r6, r0
    8408:	2002      	movs	r0, #2
    840a:	4c1a      	ldr	r4, [pc, #104]	; (8474 <__sbprintf+0x70>)
    840c:	44a5      	add	sp, r4
    840e:	000c      	movs	r4, r1
    8410:	8989      	ldrh	r1, [r1, #12]
    8412:	4381      	bics	r1, r0
    8414:	4668      	mov	r0, sp
    8416:	8181      	strh	r1, [r0, #12]
    8418:	6e61      	ldr	r1, [r4, #100]	; 0x64
    841a:	9119      	str	r1, [sp, #100]	; 0x64
    841c:	89e1      	ldrh	r1, [r4, #14]
    841e:	81c1      	strh	r1, [r0, #14]
    8420:	69e1      	ldr	r1, [r4, #28]
    8422:	0030      	movs	r0, r6
    8424:	9107      	str	r1, [sp, #28]
    8426:	6a61      	ldr	r1, [r4, #36]	; 0x24
    8428:	9109      	str	r1, [sp, #36]	; 0x24
    842a:	a91a      	add	r1, sp, #104	; 0x68
    842c:	9100      	str	r1, [sp, #0]
    842e:	9104      	str	r1, [sp, #16]
    8430:	2180      	movs	r1, #128	; 0x80
    8432:	00c9      	lsls	r1, r1, #3
    8434:	9102      	str	r1, [sp, #8]
    8436:	9105      	str	r1, [sp, #20]
    8438:	2100      	movs	r1, #0
    843a:	9106      	str	r1, [sp, #24]
    843c:	4669      	mov	r1, sp
    843e:	f7fe fbcd 	bl	6bdc <_vfprintf_r>
    8442:	1e05      	subs	r5, r0, #0
    8444:	db05      	blt.n	8452 <__sbprintf+0x4e>
    8446:	4669      	mov	r1, sp
    8448:	0030      	movs	r0, r6
    844a:	f001 f98d 	bl	9768 <_fflush_r>
    844e:	2800      	cmp	r0, #0
    8450:	d10c      	bne.n	846c <__sbprintf+0x68>
    8452:	466b      	mov	r3, sp
    8454:	899b      	ldrh	r3, [r3, #12]
    8456:	065b      	lsls	r3, r3, #25
    8458:	d503      	bpl.n	8462 <__sbprintf+0x5e>
    845a:	2340      	movs	r3, #64	; 0x40
    845c:	89a2      	ldrh	r2, [r4, #12]
    845e:	4313      	orrs	r3, r2
    8460:	81a3      	strh	r3, [r4, #12]
    8462:	0028      	movs	r0, r5
    8464:	238d      	movs	r3, #141	; 0x8d
    8466:	00db      	lsls	r3, r3, #3
    8468:	449d      	add	sp, r3
    846a:	bd70      	pop	{r4, r5, r6, pc}
    846c:	2501      	movs	r5, #1
    846e:	426d      	negs	r5, r5
    8470:	e7ef      	b.n	8452 <__sbprintf+0x4e>
    8472:	46c0      	nop			; (mov r8, r8)
    8474:	fffffb98 	.word	0xfffffb98

00008478 <__swsetup_r>:
    8478:	4b33      	ldr	r3, [pc, #204]	; (8548 <__swsetup_r+0xd0>)
    847a:	b570      	push	{r4, r5, r6, lr}
    847c:	0005      	movs	r5, r0
    847e:	6818      	ldr	r0, [r3, #0]
    8480:	000c      	movs	r4, r1
    8482:	2800      	cmp	r0, #0
    8484:	d002      	beq.n	848c <__swsetup_r+0x14>
    8486:	6b83      	ldr	r3, [r0, #56]	; 0x38
    8488:	2b00      	cmp	r3, #0
    848a:	d03d      	beq.n	8508 <__swsetup_r+0x90>
    848c:	230c      	movs	r3, #12
    848e:	5ee0      	ldrsh	r0, [r4, r3]
    8490:	b283      	uxth	r3, r0
    8492:	071a      	lsls	r2, r3, #28
    8494:	d50d      	bpl.n	84b2 <__swsetup_r+0x3a>
    8496:	6921      	ldr	r1, [r4, #16]
    8498:	2900      	cmp	r1, #0
    849a:	d016      	beq.n	84ca <__swsetup_r+0x52>
    849c:	07da      	lsls	r2, r3, #31
    849e:	d522      	bpl.n	84e6 <__swsetup_r+0x6e>
    84a0:	2300      	movs	r3, #0
    84a2:	60a3      	str	r3, [r4, #8]
    84a4:	6963      	ldr	r3, [r4, #20]
    84a6:	2000      	movs	r0, #0
    84a8:	425b      	negs	r3, r3
    84aa:	61a3      	str	r3, [r4, #24]
    84ac:	2900      	cmp	r1, #0
    84ae:	d022      	beq.n	84f6 <__swsetup_r+0x7e>
    84b0:	bd70      	pop	{r4, r5, r6, pc}
    84b2:	06da      	lsls	r2, r3, #27
    84b4:	d540      	bpl.n	8538 <__swsetup_r+0xc0>
    84b6:	075b      	lsls	r3, r3, #29
    84b8:	d429      	bmi.n	850e <__swsetup_r+0x96>
    84ba:	6921      	ldr	r1, [r4, #16]
    84bc:	2208      	movs	r2, #8
    84be:	0003      	movs	r3, r0
    84c0:	4313      	orrs	r3, r2
    84c2:	81a3      	strh	r3, [r4, #12]
    84c4:	b29b      	uxth	r3, r3
    84c6:	2900      	cmp	r1, #0
    84c8:	d1e8      	bne.n	849c <__swsetup_r+0x24>
    84ca:	22a0      	movs	r2, #160	; 0xa0
    84cc:	2080      	movs	r0, #128	; 0x80
    84ce:	0092      	lsls	r2, r2, #2
    84d0:	401a      	ands	r2, r3
    84d2:	0080      	lsls	r0, r0, #2
    84d4:	4282      	cmp	r2, r0
    84d6:	d0e1      	beq.n	849c <__swsetup_r+0x24>
    84d8:	0021      	movs	r1, r4
    84da:	0028      	movs	r0, r5
    84dc:	f001 fd24 	bl	9f28 <__smakebuf_r>
    84e0:	89a3      	ldrh	r3, [r4, #12]
    84e2:	6921      	ldr	r1, [r4, #16]
    84e4:	e7da      	b.n	849c <__swsetup_r+0x24>
    84e6:	2200      	movs	r2, #0
    84e8:	079b      	lsls	r3, r3, #30
    84ea:	d400      	bmi.n	84ee <__swsetup_r+0x76>
    84ec:	6962      	ldr	r2, [r4, #20]
    84ee:	60a2      	str	r2, [r4, #8]
    84f0:	2000      	movs	r0, #0
    84f2:	2900      	cmp	r1, #0
    84f4:	d1dc      	bne.n	84b0 <__swsetup_r+0x38>
    84f6:	220c      	movs	r2, #12
    84f8:	5ea3      	ldrsh	r3, [r4, r2]
    84fa:	061a      	lsls	r2, r3, #24
    84fc:	d5d8      	bpl.n	84b0 <__swsetup_r+0x38>
    84fe:	2240      	movs	r2, #64	; 0x40
    8500:	4313      	orrs	r3, r2
    8502:	81a3      	strh	r3, [r4, #12]
    8504:	3801      	subs	r0, #1
    8506:	e7d3      	b.n	84b0 <__swsetup_r+0x38>
    8508:	f001 f9c4 	bl	9894 <__sinit>
    850c:	e7be      	b.n	848c <__swsetup_r+0x14>
    850e:	6b21      	ldr	r1, [r4, #48]	; 0x30
    8510:	2900      	cmp	r1, #0
    8512:	d00a      	beq.n	852a <__swsetup_r+0xb2>
    8514:	0023      	movs	r3, r4
    8516:	3340      	adds	r3, #64	; 0x40
    8518:	4299      	cmp	r1, r3
    851a:	d004      	beq.n	8526 <__swsetup_r+0xae>
    851c:	0028      	movs	r0, r5
    851e:	f001 fa2f 	bl	9980 <_free_r>
    8522:	230c      	movs	r3, #12
    8524:	5ee0      	ldrsh	r0, [r4, r3]
    8526:	2300      	movs	r3, #0
    8528:	6323      	str	r3, [r4, #48]	; 0x30
    852a:	2324      	movs	r3, #36	; 0x24
    852c:	4398      	bics	r0, r3
    852e:	2300      	movs	r3, #0
    8530:	6921      	ldr	r1, [r4, #16]
    8532:	6063      	str	r3, [r4, #4]
    8534:	6021      	str	r1, [r4, #0]
    8536:	e7c1      	b.n	84bc <__swsetup_r+0x44>
    8538:	2309      	movs	r3, #9
    853a:	602b      	str	r3, [r5, #0]
    853c:	2340      	movs	r3, #64	; 0x40
    853e:	4303      	orrs	r3, r0
    8540:	2001      	movs	r0, #1
    8542:	81a3      	strh	r3, [r4, #12]
    8544:	4240      	negs	r0, r0
    8546:	e7b3      	b.n	84b0 <__swsetup_r+0x38>
    8548:	20000450 	.word	0x20000450

0000854c <register_fini>:
    854c:	4b03      	ldr	r3, [pc, #12]	; (855c <register_fini+0x10>)
    854e:	b510      	push	{r4, lr}
    8550:	2b00      	cmp	r3, #0
    8552:	d002      	beq.n	855a <register_fini+0xe>
    8554:	4802      	ldr	r0, [pc, #8]	; (8560 <register_fini+0x14>)
    8556:	f000 f805 	bl	8564 <atexit>
    855a:	bd10      	pop	{r4, pc}
    855c:	00000000 	.word	0x00000000
    8560:	000098ad 	.word	0x000098ad

00008564 <atexit>:
    8564:	b510      	push	{r4, lr}
    8566:	0001      	movs	r1, r0
    8568:	2300      	movs	r3, #0
    856a:	2200      	movs	r2, #0
    856c:	2000      	movs	r0, #0
    856e:	f002 fe4d 	bl	b20c <__register_exitproc>
    8572:	bd10      	pop	{r4, pc}

00008574 <quorem>:
    8574:	b5f0      	push	{r4, r5, r6, r7, lr}
    8576:	4644      	mov	r4, r8
    8578:	4680      	mov	r8, r0
    857a:	465f      	mov	r7, fp
    857c:	4656      	mov	r6, sl
    857e:	464d      	mov	r5, r9
    8580:	4642      	mov	r2, r8
    8582:	b4f0      	push	{r4, r5, r6, r7}
    8584:	6912      	ldr	r2, [r2, #16]
    8586:	690c      	ldr	r4, [r1, #16]
    8588:	b085      	sub	sp, #20
    858a:	000b      	movs	r3, r1
    858c:	9103      	str	r1, [sp, #12]
    858e:	2000      	movs	r0, #0
    8590:	4294      	cmp	r4, r2
    8592:	dd00      	ble.n	8596 <quorem+0x22>
    8594:	e08e      	b.n	86b4 <quorem+0x140>
    8596:	2214      	movs	r2, #20
    8598:	4694      	mov	ip, r2
    859a:	4463      	add	r3, ip
    859c:	4699      	mov	r9, r3
    859e:	464a      	mov	r2, r9
    85a0:	3c01      	subs	r4, #1
    85a2:	00a3      	lsls	r3, r4, #2
    85a4:	18d6      	adds	r6, r2, r3
    85a6:	2214      	movs	r2, #20
    85a8:	4442      	add	r2, r8
    85aa:	4693      	mov	fp, r2
    85ac:	449b      	add	fp, r3
    85ae:	6833      	ldr	r3, [r6, #0]
    85b0:	0015      	movs	r5, r2
    85b2:	1c59      	adds	r1, r3, #1
    85b4:	465b      	mov	r3, fp
    85b6:	6818      	ldr	r0, [r3, #0]
    85b8:	9202      	str	r2, [sp, #8]
    85ba:	f7fb fd6d 	bl	4098 <__aeabi_uidiv>
    85be:	1e03      	subs	r3, r0, #0
    85c0:	9001      	str	r0, [sp, #4]
    85c2:	d040      	beq.n	8646 <quorem+0xd2>
    85c4:	2700      	movs	r7, #0
    85c6:	0029      	movs	r1, r5
    85c8:	46b4      	mov	ip, r6
    85ca:	001e      	movs	r6, r3
    85cc:	0023      	movs	r3, r4
    85ce:	46ca      	mov	sl, r9
    85d0:	003c      	movs	r4, r7
    85d2:	2000      	movs	r0, #0
    85d4:	464f      	mov	r7, r9
    85d6:	000d      	movs	r5, r1
    85d8:	4699      	mov	r9, r3
    85da:	cf02      	ldmia	r7!, {r1}
    85dc:	040a      	lsls	r2, r1, #16
    85de:	0c12      	lsrs	r2, r2, #16
    85e0:	4372      	muls	r2, r6
    85e2:	0c09      	lsrs	r1, r1, #16
    85e4:	4371      	muls	r1, r6
    85e6:	1912      	adds	r2, r2, r4
    85e8:	0c13      	lsrs	r3, r2, #16
    85ea:	18c9      	adds	r1, r1, r3
    85ec:	682b      	ldr	r3, [r5, #0]
    85ee:	0412      	lsls	r2, r2, #16
    85f0:	041b      	lsls	r3, r3, #16
    85f2:	0c1b      	lsrs	r3, r3, #16
    85f4:	181b      	adds	r3, r3, r0
    85f6:	0c12      	lsrs	r2, r2, #16
    85f8:	1a9b      	subs	r3, r3, r2
    85fa:	682a      	ldr	r2, [r5, #0]
    85fc:	0c0c      	lsrs	r4, r1, #16
    85fe:	0409      	lsls	r1, r1, #16
    8600:	0c12      	lsrs	r2, r2, #16
    8602:	0c09      	lsrs	r1, r1, #16
    8604:	1418      	asrs	r0, r3, #16
    8606:	1a51      	subs	r1, r2, r1
    8608:	1809      	adds	r1, r1, r0
    860a:	041b      	lsls	r3, r3, #16
    860c:	1408      	asrs	r0, r1, #16
    860e:	0c1b      	lsrs	r3, r3, #16
    8610:	0409      	lsls	r1, r1, #16
    8612:	430b      	orrs	r3, r1
    8614:	c508      	stmia	r5!, {r3}
    8616:	45bc      	cmp	ip, r7
    8618:	d2df      	bcs.n	85da <quorem+0x66>
    861a:	465b      	mov	r3, fp
    861c:	681b      	ldr	r3, [r3, #0]
    861e:	464c      	mov	r4, r9
    8620:	4666      	mov	r6, ip
    8622:	46d1      	mov	r9, sl
    8624:	2b00      	cmp	r3, #0
    8626:	d10e      	bne.n	8646 <quorem+0xd2>
    8628:	465b      	mov	r3, fp
    862a:	9a02      	ldr	r2, [sp, #8]
    862c:	3b04      	subs	r3, #4
    862e:	429a      	cmp	r2, r3
    8630:	d304      	bcc.n	863c <quorem+0xc8>
    8632:	e006      	b.n	8642 <quorem+0xce>
    8634:	3b04      	subs	r3, #4
    8636:	3c01      	subs	r4, #1
    8638:	429a      	cmp	r2, r3
    863a:	d202      	bcs.n	8642 <quorem+0xce>
    863c:	6819      	ldr	r1, [r3, #0]
    863e:	2900      	cmp	r1, #0
    8640:	d0f8      	beq.n	8634 <quorem+0xc0>
    8642:	4643      	mov	r3, r8
    8644:	611c      	str	r4, [r3, #16]
    8646:	9903      	ldr	r1, [sp, #12]
    8648:	4640      	mov	r0, r8
    864a:	f002 fa2d 	bl	aaa8 <__mcmp>
    864e:	2800      	cmp	r0, #0
    8650:	db2f      	blt.n	86b2 <quorem+0x13e>
    8652:	464f      	mov	r7, r9
    8654:	2000      	movs	r0, #0
    8656:	9b01      	ldr	r3, [sp, #4]
    8658:	9d02      	ldr	r5, [sp, #8]
    865a:	3301      	adds	r3, #1
    865c:	9301      	str	r3, [sp, #4]
    865e:	6829      	ldr	r1, [r5, #0]
    8660:	cf04      	ldmia	r7!, {r2}
    8662:	040b      	lsls	r3, r1, #16
    8664:	0c1b      	lsrs	r3, r3, #16
    8666:	1818      	adds	r0, r3, r0
    8668:	0413      	lsls	r3, r2, #16
    866a:	0c1b      	lsrs	r3, r3, #16
    866c:	1ac3      	subs	r3, r0, r3
    866e:	0c09      	lsrs	r1, r1, #16
    8670:	0c12      	lsrs	r2, r2, #16
    8672:	1a8a      	subs	r2, r1, r2
    8674:	1419      	asrs	r1, r3, #16
    8676:	1852      	adds	r2, r2, r1
    8678:	041b      	lsls	r3, r3, #16
    867a:	1410      	asrs	r0, r2, #16
    867c:	0c1b      	lsrs	r3, r3, #16
    867e:	0412      	lsls	r2, r2, #16
    8680:	431a      	orrs	r2, r3
    8682:	c504      	stmia	r5!, {r2}
    8684:	42be      	cmp	r6, r7
    8686:	d2ea      	bcs.n	865e <quorem+0xea>
    8688:	9902      	ldr	r1, [sp, #8]
    868a:	00a3      	lsls	r3, r4, #2
    868c:	468c      	mov	ip, r1
    868e:	4463      	add	r3, ip
    8690:	681a      	ldr	r2, [r3, #0]
    8692:	2a00      	cmp	r2, #0
    8694:	d10d      	bne.n	86b2 <quorem+0x13e>
    8696:	3b04      	subs	r3, #4
    8698:	1e0a      	subs	r2, r1, #0
    869a:	429a      	cmp	r2, r3
    869c:	d304      	bcc.n	86a8 <quorem+0x134>
    869e:	e006      	b.n	86ae <quorem+0x13a>
    86a0:	3b04      	subs	r3, #4
    86a2:	3c01      	subs	r4, #1
    86a4:	429a      	cmp	r2, r3
    86a6:	d202      	bcs.n	86ae <quorem+0x13a>
    86a8:	6819      	ldr	r1, [r3, #0]
    86aa:	2900      	cmp	r1, #0
    86ac:	d0f8      	beq.n	86a0 <quorem+0x12c>
    86ae:	4643      	mov	r3, r8
    86b0:	611c      	str	r4, [r3, #16]
    86b2:	9801      	ldr	r0, [sp, #4]
    86b4:	b005      	add	sp, #20
    86b6:	bc3c      	pop	{r2, r3, r4, r5}
    86b8:	4690      	mov	r8, r2
    86ba:	4699      	mov	r9, r3
    86bc:	46a2      	mov	sl, r4
    86be:	46ab      	mov	fp, r5
    86c0:	bdf0      	pop	{r4, r5, r6, r7, pc}
    86c2:	46c0      	nop			; (mov r8, r8)

000086c4 <_dtoa_r>:
    86c4:	b5f0      	push	{r4, r5, r6, r7, lr}
    86c6:	465f      	mov	r7, fp
    86c8:	4656      	mov	r6, sl
    86ca:	464d      	mov	r5, r9
    86cc:	4644      	mov	r4, r8
    86ce:	b4f0      	push	{r4, r5, r6, r7}
    86d0:	0014      	movs	r4, r2
    86d2:	001d      	movs	r5, r3
    86d4:	6c01      	ldr	r1, [r0, #64]	; 0x40
    86d6:	b099      	sub	sp, #100	; 0x64
    86d8:	4683      	mov	fp, r0
    86da:	9e25      	ldr	r6, [sp, #148]	; 0x94
    86dc:	9402      	str	r4, [sp, #8]
    86de:	9503      	str	r5, [sp, #12]
    86e0:	2900      	cmp	r1, #0
    86e2:	d009      	beq.n	86f8 <_dtoa_r+0x34>
    86e4:	2301      	movs	r3, #1
    86e6:	6c42      	ldr	r2, [r0, #68]	; 0x44
    86e8:	4093      	lsls	r3, r2
    86ea:	604a      	str	r2, [r1, #4]
    86ec:	608b      	str	r3, [r1, #8]
    86ee:	f001 ffc9 	bl	a684 <_Bfree>
    86f2:	2300      	movs	r3, #0
    86f4:	465a      	mov	r2, fp
    86f6:	6413      	str	r3, [r2, #64]	; 0x40
    86f8:	9f03      	ldr	r7, [sp, #12]
    86fa:	2f00      	cmp	r7, #0
    86fc:	db34      	blt.n	8768 <_dtoa_r+0xa4>
    86fe:	2300      	movs	r3, #0
    8700:	6033      	str	r3, [r6, #0]
    8702:	003a      	movs	r2, r7
    8704:	4bd3      	ldr	r3, [pc, #844]	; (8a54 <_dtoa_r+0x390>)
    8706:	401a      	ands	r2, r3
    8708:	429a      	cmp	r2, r3
    870a:	d01a      	beq.n	8742 <_dtoa_r+0x7e>
    870c:	9c02      	ldr	r4, [sp, #8]
    870e:	9d03      	ldr	r5, [sp, #12]
    8710:	2200      	movs	r2, #0
    8712:	2300      	movs	r3, #0
    8714:	0020      	movs	r0, r4
    8716:	0029      	movs	r1, r5
    8718:	f7fb fe44 	bl	43a4 <__aeabi_dcmpeq>
    871c:	2800      	cmp	r0, #0
    871e:	d029      	beq.n	8774 <_dtoa_r+0xb0>
    8720:	2301      	movs	r3, #1
    8722:	9a24      	ldr	r2, [sp, #144]	; 0x90
    8724:	6013      	str	r3, [r2, #0]
    8726:	9b26      	ldr	r3, [sp, #152]	; 0x98
    8728:	2b00      	cmp	r3, #0
    872a:	d100      	bne.n	872e <_dtoa_r+0x6a>
    872c:	e22e      	b.n	8b8c <_dtoa_r+0x4c8>
    872e:	48ca      	ldr	r0, [pc, #808]	; (8a58 <_dtoa_r+0x394>)
    8730:	6018      	str	r0, [r3, #0]
    8732:	3801      	subs	r0, #1
    8734:	b019      	add	sp, #100	; 0x64
    8736:	bc3c      	pop	{r2, r3, r4, r5}
    8738:	4690      	mov	r8, r2
    873a:	4699      	mov	r9, r3
    873c:	46a2      	mov	sl, r4
    873e:	46ab      	mov	fp, r5
    8740:	bdf0      	pop	{r4, r5, r6, r7, pc}
    8742:	4bc6      	ldr	r3, [pc, #792]	; (8a5c <_dtoa_r+0x398>)
    8744:	9a24      	ldr	r2, [sp, #144]	; 0x90
    8746:	6013      	str	r3, [r2, #0]
    8748:	9b02      	ldr	r3, [sp, #8]
    874a:	2b00      	cmp	r3, #0
    874c:	d100      	bne.n	8750 <_dtoa_r+0x8c>
    874e:	e1fd      	b.n	8b4c <_dtoa_r+0x488>
    8750:	48c3      	ldr	r0, [pc, #780]	; (8a60 <_dtoa_r+0x39c>)
    8752:	9b26      	ldr	r3, [sp, #152]	; 0x98
    8754:	2b00      	cmp	r3, #0
    8756:	d0ed      	beq.n	8734 <_dtoa_r+0x70>
    8758:	78c2      	ldrb	r2, [r0, #3]
    875a:	1cc3      	adds	r3, r0, #3
    875c:	2a00      	cmp	r2, #0
    875e:	d000      	beq.n	8762 <_dtoa_r+0x9e>
    8760:	3305      	adds	r3, #5
    8762:	9a26      	ldr	r2, [sp, #152]	; 0x98
    8764:	6013      	str	r3, [r2, #0]
    8766:	e7e5      	b.n	8734 <_dtoa_r+0x70>
    8768:	2301      	movs	r3, #1
    876a:	0068      	lsls	r0, r5, #1
    876c:	0847      	lsrs	r7, r0, #1
    876e:	6033      	str	r3, [r6, #0]
    8770:	9703      	str	r7, [sp, #12]
    8772:	e7c6      	b.n	8702 <_dtoa_r+0x3e>
    8774:	ab16      	add	r3, sp, #88	; 0x58
    8776:	9301      	str	r3, [sp, #4]
    8778:	ab17      	add	r3, sp, #92	; 0x5c
    877a:	9300      	str	r3, [sp, #0]
    877c:	0022      	movs	r2, r4
    877e:	002b      	movs	r3, r5
    8780:	4658      	mov	r0, fp
    8782:	f002 fa3d 	bl	ac00 <__d2b>
    8786:	0d3e      	lsrs	r6, r7, #20
    8788:	900a      	str	r0, [sp, #40]	; 0x28
    878a:	d100      	bne.n	878e <_dtoa_r+0xca>
    878c:	e1e3      	b.n	8b56 <_dtoa_r+0x492>
    878e:	032b      	lsls	r3, r5, #12
    8790:	4ab4      	ldr	r2, [pc, #720]	; (8a64 <_dtoa_r+0x3a0>)
    8792:	0b1b      	lsrs	r3, r3, #12
    8794:	431a      	orrs	r2, r3
    8796:	4bb4      	ldr	r3, [pc, #720]	; (8a68 <_dtoa_r+0x3a4>)
    8798:	0020      	movs	r0, r4
    879a:	469c      	mov	ip, r3
    879c:	9b16      	ldr	r3, [sp, #88]	; 0x58
    879e:	0011      	movs	r1, r2
    87a0:	4698      	mov	r8, r3
    87a2:	2300      	movs	r3, #0
    87a4:	4466      	add	r6, ip
    87a6:	9312      	str	r3, [sp, #72]	; 0x48
    87a8:	2200      	movs	r2, #0
    87aa:	4bb0      	ldr	r3, [pc, #704]	; (8a6c <_dtoa_r+0x3a8>)
    87ac:	f7fd fbf6 	bl	5f9c <__aeabi_dsub>
    87b0:	4aaf      	ldr	r2, [pc, #700]	; (8a70 <_dtoa_r+0x3ac>)
    87b2:	4bb0      	ldr	r3, [pc, #704]	; (8a74 <_dtoa_r+0x3b0>)
    87b4:	f7fd f978 	bl	5aa8 <__aeabi_dmul>
    87b8:	4aaf      	ldr	r2, [pc, #700]	; (8a78 <_dtoa_r+0x3b4>)
    87ba:	4bb0      	ldr	r3, [pc, #704]	; (8a7c <_dtoa_r+0x3b8>)
    87bc:	f7fc fa24 	bl	4c08 <__aeabi_dadd>
    87c0:	0004      	movs	r4, r0
    87c2:	0030      	movs	r0, r6
    87c4:	000d      	movs	r5, r1
    87c6:	f7fd ff93 	bl	66f0 <__aeabi_i2d>
    87ca:	4aad      	ldr	r2, [pc, #692]	; (8a80 <_dtoa_r+0x3bc>)
    87cc:	4bad      	ldr	r3, [pc, #692]	; (8a84 <_dtoa_r+0x3c0>)
    87ce:	f7fd f96b 	bl	5aa8 <__aeabi_dmul>
    87d2:	0002      	movs	r2, r0
    87d4:	000b      	movs	r3, r1
    87d6:	0020      	movs	r0, r4
    87d8:	0029      	movs	r1, r5
    87da:	f7fc fa15 	bl	4c08 <__aeabi_dadd>
    87de:	0004      	movs	r4, r0
    87e0:	000d      	movs	r5, r1
    87e2:	f7fd ff4f 	bl	6684 <__aeabi_d2iz>
    87e6:	2200      	movs	r2, #0
    87e8:	9005      	str	r0, [sp, #20]
    87ea:	2300      	movs	r3, #0
    87ec:	0020      	movs	r0, r4
    87ee:	0029      	movs	r1, r5
    87f0:	f7fb fdde 	bl	43b0 <__aeabi_dcmplt>
    87f4:	2800      	cmp	r0, #0
    87f6:	d000      	beq.n	87fa <_dtoa_r+0x136>
    87f8:	e2b6      	b.n	8d68 <_dtoa_r+0x6a4>
    87fa:	2301      	movs	r3, #1
    87fc:	9c05      	ldr	r4, [sp, #20]
    87fe:	930d      	str	r3, [sp, #52]	; 0x34
    8800:	2c16      	cmp	r4, #22
    8802:	d810      	bhi.n	8826 <_dtoa_r+0x162>
    8804:	49a0      	ldr	r1, [pc, #640]	; (8a88 <_dtoa_r+0x3c4>)
    8806:	00e3      	lsls	r3, r4, #3
    8808:	18c9      	adds	r1, r1, r3
    880a:	6808      	ldr	r0, [r1, #0]
    880c:	6849      	ldr	r1, [r1, #4]
    880e:	9a02      	ldr	r2, [sp, #8]
    8810:	9b03      	ldr	r3, [sp, #12]
    8812:	f7fb fde1 	bl	43d8 <__aeabi_dcmpgt>
    8816:	2800      	cmp	r0, #0
    8818:	d100      	bne.n	881c <_dtoa_r+0x158>
    881a:	e3aa      	b.n	8f72 <_dtoa_r+0x8ae>
    881c:	0023      	movs	r3, r4
    881e:	3b01      	subs	r3, #1
    8820:	9305      	str	r3, [sp, #20]
    8822:	2300      	movs	r3, #0
    8824:	930d      	str	r3, [sp, #52]	; 0x34
    8826:	4643      	mov	r3, r8
    8828:	1b9e      	subs	r6, r3, r6
    882a:	2300      	movs	r3, #0
    882c:	9306      	str	r3, [sp, #24]
    882e:	3e01      	subs	r6, #1
    8830:	46b2      	mov	sl, r6
    8832:	d500      	bpl.n	8836 <_dtoa_r+0x172>
    8834:	e2a7      	b.n	8d86 <_dtoa_r+0x6c2>
    8836:	9b05      	ldr	r3, [sp, #20]
    8838:	2b00      	cmp	r3, #0
    883a:	da00      	bge.n	883e <_dtoa_r+0x17a>
    883c:	e28b      	b.n	8d56 <_dtoa_r+0x692>
    883e:	469c      	mov	ip, r3
    8840:	930e      	str	r3, [sp, #56]	; 0x38
    8842:	2300      	movs	r3, #0
    8844:	44e2      	add	sl, ip
    8846:	930b      	str	r3, [sp, #44]	; 0x2c
    8848:	9b22      	ldr	r3, [sp, #136]	; 0x88
    884a:	2b09      	cmp	r3, #9
    884c:	d900      	bls.n	8850 <_dtoa_r+0x18c>
    884e:	e19f      	b.n	8b90 <_dtoa_r+0x4cc>
    8850:	2401      	movs	r4, #1
    8852:	2b05      	cmp	r3, #5
    8854:	dd02      	ble.n	885c <_dtoa_r+0x198>
    8856:	2400      	movs	r4, #0
    8858:	3b04      	subs	r3, #4
    885a:	9322      	str	r3, [sp, #136]	; 0x88
    885c:	9b22      	ldr	r3, [sp, #136]	; 0x88
    885e:	2b03      	cmp	r3, #3
    8860:	d101      	bne.n	8866 <_dtoa_r+0x1a2>
    8862:	f000 fcd8 	bl	9216 <_dtoa_r+0xb52>
    8866:	dc01      	bgt.n	886c <_dtoa_r+0x1a8>
    8868:	f000 fc9d 	bl	91a6 <_dtoa_r+0xae2>
    886c:	9b22      	ldr	r3, [sp, #136]	; 0x88
    886e:	2b04      	cmp	r3, #4
    8870:	d100      	bne.n	8874 <_dtoa_r+0x1b0>
    8872:	e3a4      	b.n	8fbe <_dtoa_r+0x8fa>
    8874:	2301      	movs	r3, #1
    8876:	930c      	str	r3, [sp, #48]	; 0x30
    8878:	9b22      	ldr	r3, [sp, #136]	; 0x88
    887a:	2b05      	cmp	r3, #5
    887c:	d001      	beq.n	8882 <_dtoa_r+0x1be>
    887e:	f000 fc98 	bl	91b2 <_dtoa_r+0xaee>
    8882:	9a23      	ldr	r2, [sp, #140]	; 0x8c
    8884:	9b05      	ldr	r3, [sp, #20]
    8886:	4694      	mov	ip, r2
    8888:	4463      	add	r3, ip
    888a:	930f      	str	r3, [sp, #60]	; 0x3c
    888c:	3301      	adds	r3, #1
    888e:	9308      	str	r3, [sp, #32]
    8890:	1e1d      	subs	r5, r3, #0
    8892:	dc01      	bgt.n	8898 <_dtoa_r+0x1d4>
    8894:	f000 fc66 	bl	9164 <_dtoa_r+0xaa0>
    8898:	9d08      	ldr	r5, [sp, #32]
    889a:	002e      	movs	r6, r5
    889c:	2300      	movs	r3, #0
    889e:	465a      	mov	r2, fp
    88a0:	2100      	movs	r1, #0
    88a2:	6453      	str	r3, [r2, #68]	; 0x44
    88a4:	2e17      	cmp	r6, #23
    88a6:	d90a      	bls.n	88be <_dtoa_r+0x1fa>
    88a8:	2201      	movs	r2, #1
    88aa:	3304      	adds	r3, #4
    88ac:	005b      	lsls	r3, r3, #1
    88ae:	0018      	movs	r0, r3
    88b0:	3014      	adds	r0, #20
    88b2:	0011      	movs	r1, r2
    88b4:	3201      	adds	r2, #1
    88b6:	4286      	cmp	r6, r0
    88b8:	d2f8      	bcs.n	88ac <_dtoa_r+0x1e8>
    88ba:	465b      	mov	r3, fp
    88bc:	6459      	str	r1, [r3, #68]	; 0x44
    88be:	4658      	mov	r0, fp
    88c0:	f001 feb8 	bl	a634 <_Balloc>
    88c4:	465b      	mov	r3, fp
    88c6:	9009      	str	r0, [sp, #36]	; 0x24
    88c8:	6418      	str	r0, [r3, #64]	; 0x40
    88ca:	2d0e      	cmp	r5, #14
    88cc:	d900      	bls.n	88d0 <_dtoa_r+0x20c>
    88ce:	e172      	b.n	8bb6 <_dtoa_r+0x4f2>
    88d0:	2c00      	cmp	r4, #0
    88d2:	d100      	bne.n	88d6 <_dtoa_r+0x212>
    88d4:	e16f      	b.n	8bb6 <_dtoa_r+0x4f2>
    88d6:	9b02      	ldr	r3, [sp, #8]
    88d8:	9c03      	ldr	r4, [sp, #12]
    88da:	9e05      	ldr	r6, [sp, #20]
    88dc:	9310      	str	r3, [sp, #64]	; 0x40
    88de:	9411      	str	r4, [sp, #68]	; 0x44
    88e0:	2e00      	cmp	r6, #0
    88e2:	dc01      	bgt.n	88e8 <_dtoa_r+0x224>
    88e4:	f000 fd31 	bl	934a <_dtoa_r+0xc86>
    88e8:	0031      	movs	r1, r6
    88ea:	220f      	movs	r2, #15
    88ec:	4011      	ands	r1, r2
    88ee:	00cb      	lsls	r3, r1, #3
    88f0:	4965      	ldr	r1, [pc, #404]	; (8a88 <_dtoa_r+0x3c4>)
    88f2:	1136      	asrs	r6, r6, #4
    88f4:	18cb      	adds	r3, r1, r3
    88f6:	681c      	ldr	r4, [r3, #0]
    88f8:	685d      	ldr	r5, [r3, #4]
    88fa:	06f1      	lsls	r1, r6, #27
    88fc:	d401      	bmi.n	8902 <_dtoa_r+0x23e>
    88fe:	f000 fcda 	bl	92b6 <_dtoa_r+0xbf2>
    8902:	9810      	ldr	r0, [sp, #64]	; 0x40
    8904:	9911      	ldr	r1, [sp, #68]	; 0x44
    8906:	4b61      	ldr	r3, [pc, #388]	; (8a8c <_dtoa_r+0x3c8>)
    8908:	4016      	ands	r6, r2
    890a:	6a1a      	ldr	r2, [r3, #32]
    890c:	6a5b      	ldr	r3, [r3, #36]	; 0x24
    890e:	f7fc fca7 	bl	5260 <__aeabi_ddiv>
    8912:	2303      	movs	r3, #3
    8914:	4698      	mov	r8, r3
    8916:	9002      	str	r0, [sp, #8]
    8918:	9103      	str	r1, [sp, #12]
    891a:	2e00      	cmp	r6, #0
    891c:	d014      	beq.n	8948 <_dtoa_r+0x284>
    891e:	2301      	movs	r3, #1
    8920:	4699      	mov	r9, r3
    8922:	4f5a      	ldr	r7, [pc, #360]	; (8a8c <_dtoa_r+0x3c8>)
    8924:	464b      	mov	r3, r9
    8926:	4233      	tst	r3, r6
    8928:	d00a      	beq.n	8940 <_dtoa_r+0x27c>
    892a:	2301      	movs	r3, #1
    892c:	469c      	mov	ip, r3
    892e:	683a      	ldr	r2, [r7, #0]
    8930:	687b      	ldr	r3, [r7, #4]
    8932:	0020      	movs	r0, r4
    8934:	0029      	movs	r1, r5
    8936:	44e0      	add	r8, ip
    8938:	f7fd f8b6 	bl	5aa8 <__aeabi_dmul>
    893c:	0004      	movs	r4, r0
    893e:	000d      	movs	r5, r1
    8940:	1076      	asrs	r6, r6, #1
    8942:	3708      	adds	r7, #8
    8944:	2e00      	cmp	r6, #0
    8946:	d1ed      	bne.n	8924 <_dtoa_r+0x260>
    8948:	0022      	movs	r2, r4
    894a:	9802      	ldr	r0, [sp, #8]
    894c:	9903      	ldr	r1, [sp, #12]
    894e:	002b      	movs	r3, r5
    8950:	f7fc fc86 	bl	5260 <__aeabi_ddiv>
    8954:	0006      	movs	r6, r0
    8956:	000f      	movs	r7, r1
    8958:	9b0d      	ldr	r3, [sp, #52]	; 0x34
    895a:	2b00      	cmp	r3, #0
    895c:	d009      	beq.n	8972 <_dtoa_r+0x2ae>
    895e:	2200      	movs	r2, #0
    8960:	4b40      	ldr	r3, [pc, #256]	; (8a64 <_dtoa_r+0x3a0>)
    8962:	0030      	movs	r0, r6
    8964:	0039      	movs	r1, r7
    8966:	f7fb fd23 	bl	43b0 <__aeabi_dcmplt>
    896a:	2800      	cmp	r0, #0
    896c:	d001      	beq.n	8972 <_dtoa_r+0x2ae>
    896e:	f000 fdc7 	bl	9500 <_dtoa_r+0xe3c>
    8972:	4640      	mov	r0, r8
    8974:	f7fd febc 	bl	66f0 <__aeabi_i2d>
    8978:	0032      	movs	r2, r6
    897a:	003b      	movs	r3, r7
    897c:	f7fd f894 	bl	5aa8 <__aeabi_dmul>
    8980:	2200      	movs	r2, #0
    8982:	4b43      	ldr	r3, [pc, #268]	; (8a90 <_dtoa_r+0x3cc>)
    8984:	f7fc f940 	bl	4c08 <__aeabi_dadd>
    8988:	4a42      	ldr	r2, [pc, #264]	; (8a94 <_dtoa_r+0x3d0>)
    898a:	000b      	movs	r3, r1
    898c:	4694      	mov	ip, r2
    898e:	4463      	add	r3, ip
    8990:	9002      	str	r0, [sp, #8]
    8992:	9103      	str	r1, [sp, #12]
    8994:	9303      	str	r3, [sp, #12]
    8996:	9b08      	ldr	r3, [sp, #32]
    8998:	2b00      	cmp	r3, #0
    899a:	d101      	bne.n	89a0 <_dtoa_r+0x2dc>
    899c:	f000 fc5c 	bl	9258 <_dtoa_r+0xb94>
    89a0:	9b05      	ldr	r3, [sp, #20]
    89a2:	9314      	str	r3, [sp, #80]	; 0x50
    89a4:	9b08      	ldr	r3, [sp, #32]
    89a6:	9313      	str	r3, [sp, #76]	; 0x4c
    89a8:	9b0c      	ldr	r3, [sp, #48]	; 0x30
    89aa:	2b00      	cmp	r3, #0
    89ac:	d101      	bne.n	89b2 <_dtoa_r+0x2ee>
    89ae:	f000 fd1a 	bl	93e6 <_dtoa_r+0xd22>
    89b2:	9b13      	ldr	r3, [sp, #76]	; 0x4c
    89b4:	4a34      	ldr	r2, [pc, #208]	; (8a88 <_dtoa_r+0x3c4>)
    89b6:	3b01      	subs	r3, #1
    89b8:	00db      	lsls	r3, r3, #3
    89ba:	18d3      	adds	r3, r2, r3
    89bc:	681a      	ldr	r2, [r3, #0]
    89be:	685b      	ldr	r3, [r3, #4]
    89c0:	2000      	movs	r0, #0
    89c2:	4935      	ldr	r1, [pc, #212]	; (8a98 <_dtoa_r+0x3d4>)
    89c4:	f7fc fc4c 	bl	5260 <__aeabi_ddiv>
    89c8:	9a02      	ldr	r2, [sp, #8]
    89ca:	9b03      	ldr	r3, [sp, #12]
    89cc:	f7fd fae6 	bl	5f9c <__aeabi_dsub>
    89d0:	9002      	str	r0, [sp, #8]
    89d2:	9103      	str	r1, [sp, #12]
    89d4:	0039      	movs	r1, r7
    89d6:	0030      	movs	r0, r6
    89d8:	f7fd fe54 	bl	6684 <__aeabi_d2iz>
    89dc:	0005      	movs	r5, r0
    89de:	f7fd fe87 	bl	66f0 <__aeabi_i2d>
    89e2:	0002      	movs	r2, r0
    89e4:	000b      	movs	r3, r1
    89e6:	0030      	movs	r0, r6
    89e8:	0039      	movs	r1, r7
    89ea:	f7fd fad7 	bl	5f9c <__aeabi_dsub>
    89ee:	0006      	movs	r6, r0
    89f0:	000f      	movs	r7, r1
    89f2:	9a09      	ldr	r2, [sp, #36]	; 0x24
    89f4:	3530      	adds	r5, #48	; 0x30
    89f6:	b2e9      	uxtb	r1, r5
    89f8:	7011      	strb	r1, [r2, #0]
    89fa:	1c54      	adds	r4, r2, #1
    89fc:	4688      	mov	r8, r1
    89fe:	9802      	ldr	r0, [sp, #8]
    8a00:	9903      	ldr	r1, [sp, #12]
    8a02:	0032      	movs	r2, r6
    8a04:	003b      	movs	r3, r7
    8a06:	f7fb fce7 	bl	43d8 <__aeabi_dcmpgt>
    8a0a:	2800      	cmp	r0, #0
    8a0c:	d000      	beq.n	8a10 <_dtoa_r+0x34c>
    8a0e:	e08a      	b.n	8b26 <_dtoa_r+0x462>
    8a10:	0032      	movs	r2, r6
    8a12:	003b      	movs	r3, r7
    8a14:	2000      	movs	r0, #0
    8a16:	4913      	ldr	r1, [pc, #76]	; (8a64 <_dtoa_r+0x3a0>)
    8a18:	f7fd fac0 	bl	5f9c <__aeabi_dsub>
    8a1c:	0002      	movs	r2, r0
    8a1e:	000b      	movs	r3, r1
    8a20:	9802      	ldr	r0, [sp, #8]
    8a22:	9903      	ldr	r1, [sp, #12]
    8a24:	f7fb fcd8 	bl	43d8 <__aeabi_dcmpgt>
    8a28:	2800      	cmp	r0, #0
    8a2a:	d001      	beq.n	8a30 <_dtoa_r+0x36c>
    8a2c:	f000 fdd8 	bl	95e0 <_dtoa_r+0xf1c>
    8a30:	9b13      	ldr	r3, [sp, #76]	; 0x4c
    8a32:	2b01      	cmp	r3, #1
    8a34:	dc01      	bgt.n	8a3a <_dtoa_r+0x376>
    8a36:	f000 fc83 	bl	9340 <_dtoa_r+0xc7c>
    8a3a:	9a09      	ldr	r2, [sp, #36]	; 0x24
    8a3c:	9b13      	ldr	r3, [sp, #76]	; 0x4c
    8a3e:	4694      	mov	ip, r2
    8a40:	4463      	add	r3, ip
    8a42:	4699      	mov	r9, r3
    8a44:	4653      	mov	r3, sl
    8a46:	9313      	str	r3, [sp, #76]	; 0x4c
    8a48:	465b      	mov	r3, fp
    8a4a:	46a2      	mov	sl, r4
    8a4c:	9c02      	ldr	r4, [sp, #8]
    8a4e:	9d03      	ldr	r5, [sp, #12]
    8a50:	9302      	str	r3, [sp, #8]
    8a52:	e035      	b.n	8ac0 <_dtoa_r+0x3fc>
    8a54:	7ff00000 	.word	0x7ff00000
    8a58:	0000bd8d 	.word	0x0000bd8d
    8a5c:	0000270f 	.word	0x0000270f
    8a60:	0000c004 	.word	0x0000c004
    8a64:	3ff00000 	.word	0x3ff00000
    8a68:	fffffc01 	.word	0xfffffc01
    8a6c:	3ff80000 	.word	0x3ff80000
    8a70:	636f4361 	.word	0x636f4361
    8a74:	3fd287a7 	.word	0x3fd287a7
    8a78:	8b60c8b3 	.word	0x8b60c8b3
    8a7c:	3fc68a28 	.word	0x3fc68a28
    8a80:	509f79fb 	.word	0x509f79fb
    8a84:	3fd34413 	.word	0x3fd34413
    8a88:	0000c018 	.word	0x0000c018
    8a8c:	0000c0e0 	.word	0x0000c0e0
    8a90:	401c0000 	.word	0x401c0000
    8a94:	fcc00000 	.word	0xfcc00000
    8a98:	3fe00000 	.word	0x3fe00000
    8a9c:	0032      	movs	r2, r6
    8a9e:	003b      	movs	r3, r7
    8aa0:	2000      	movs	r0, #0
    8aa2:	49bc      	ldr	r1, [pc, #752]	; (8d94 <_dtoa_r+0x6d0>)
    8aa4:	f7fd fa7a 	bl	5f9c <__aeabi_dsub>
    8aa8:	0022      	movs	r2, r4
    8aaa:	002b      	movs	r3, r5
    8aac:	f7fb fc80 	bl	43b0 <__aeabi_dcmplt>
    8ab0:	2800      	cmp	r0, #0
    8ab2:	d001      	beq.n	8ab8 <_dtoa_r+0x3f4>
    8ab4:	f000 fd6c 	bl	9590 <_dtoa_r+0xecc>
    8ab8:	45ca      	cmp	sl, r9
    8aba:	d101      	bne.n	8ac0 <_dtoa_r+0x3fc>
    8abc:	f000 fc3c 	bl	9338 <_dtoa_r+0xc74>
    8ac0:	2200      	movs	r2, #0
    8ac2:	4bb5      	ldr	r3, [pc, #724]	; (8d98 <_dtoa_r+0x6d4>)
    8ac4:	0020      	movs	r0, r4
    8ac6:	0029      	movs	r1, r5
    8ac8:	f7fc ffee 	bl	5aa8 <__aeabi_dmul>
    8acc:	2200      	movs	r2, #0
    8ace:	4bb2      	ldr	r3, [pc, #712]	; (8d98 <_dtoa_r+0x6d4>)
    8ad0:	0004      	movs	r4, r0
    8ad2:	000d      	movs	r5, r1
    8ad4:	0030      	movs	r0, r6
    8ad6:	0039      	movs	r1, r7
    8ad8:	f7fc ffe6 	bl	5aa8 <__aeabi_dmul>
    8adc:	000f      	movs	r7, r1
    8ade:	0006      	movs	r6, r0
    8ae0:	f7fd fdd0 	bl	6684 <__aeabi_d2iz>
    8ae4:	4680      	mov	r8, r0
    8ae6:	f7fd fe03 	bl	66f0 <__aeabi_i2d>
    8aea:	0002      	movs	r2, r0
    8aec:	000b      	movs	r3, r1
    8aee:	0030      	movs	r0, r6
    8af0:	0039      	movs	r1, r7
    8af2:	f7fd fa53 	bl	5f9c <__aeabi_dsub>
    8af6:	2301      	movs	r3, #1
    8af8:	469c      	mov	ip, r3
    8afa:	4643      	mov	r3, r8
    8afc:	3330      	adds	r3, #48	; 0x30
    8afe:	b2db      	uxtb	r3, r3
    8b00:	4698      	mov	r8, r3
    8b02:	2301      	movs	r3, #1
    8b04:	4642      	mov	r2, r8
    8b06:	44e2      	add	sl, ip
    8b08:	425b      	negs	r3, r3
    8b0a:	4453      	add	r3, sl
    8b0c:	701a      	strb	r2, [r3, #0]
    8b0e:	469b      	mov	fp, r3
    8b10:	0022      	movs	r2, r4
    8b12:	002b      	movs	r3, r5
    8b14:	0006      	movs	r6, r0
    8b16:	000f      	movs	r7, r1
    8b18:	f7fb fc4a 	bl	43b0 <__aeabi_dcmplt>
    8b1c:	2800      	cmp	r0, #0
    8b1e:	d0bd      	beq.n	8a9c <_dtoa_r+0x3d8>
    8b20:	9b02      	ldr	r3, [sp, #8]
    8b22:	4654      	mov	r4, sl
    8b24:	469b      	mov	fp, r3
    8b26:	9b14      	ldr	r3, [sp, #80]	; 0x50
    8b28:	9305      	str	r3, [sp, #20]
    8b2a:	990a      	ldr	r1, [sp, #40]	; 0x28
    8b2c:	4658      	mov	r0, fp
    8b2e:	f001 fda9 	bl	a684 <_Bfree>
    8b32:	2300      	movs	r3, #0
    8b34:	7023      	strb	r3, [r4, #0]
    8b36:	9b05      	ldr	r3, [sp, #20]
    8b38:	9a24      	ldr	r2, [sp, #144]	; 0x90
    8b3a:	3301      	adds	r3, #1
    8b3c:	6013      	str	r3, [r2, #0]
    8b3e:	9b26      	ldr	r3, [sp, #152]	; 0x98
    8b40:	2b00      	cmp	r3, #0
    8b42:	d100      	bne.n	8b46 <_dtoa_r+0x482>
    8b44:	e3aa      	b.n	929c <_dtoa_r+0xbd8>
    8b46:	601c      	str	r4, [r3, #0]
    8b48:	9809      	ldr	r0, [sp, #36]	; 0x24
    8b4a:	e5f3      	b.n	8734 <_dtoa_r+0x70>
    8b4c:	0338      	lsls	r0, r7, #12
    8b4e:	d000      	beq.n	8b52 <_dtoa_r+0x48e>
    8b50:	e5fe      	b.n	8750 <_dtoa_r+0x8c>
    8b52:	4892      	ldr	r0, [pc, #584]	; (8d9c <_dtoa_r+0x6d8>)
    8b54:	e5fd      	b.n	8752 <_dtoa_r+0x8e>
    8b56:	9b16      	ldr	r3, [sp, #88]	; 0x58
    8b58:	4698      	mov	r8, r3
    8b5a:	9b17      	ldr	r3, [sp, #92]	; 0x5c
    8b5c:	4443      	add	r3, r8
    8b5e:	001e      	movs	r6, r3
    8b60:	4b8f      	ldr	r3, [pc, #572]	; (8da0 <_dtoa_r+0x6dc>)
    8b62:	18f3      	adds	r3, r6, r3
    8b64:	2b20      	cmp	r3, #32
    8b66:	dc00      	bgt.n	8b6a <_dtoa_r+0x4a6>
    8b68:	e1fe      	b.n	8f68 <_dtoa_r+0x8a4>
    8b6a:	4a8e      	ldr	r2, [pc, #568]	; (8da4 <_dtoa_r+0x6e0>)
    8b6c:	9902      	ldr	r1, [sp, #8]
    8b6e:	18b2      	adds	r2, r6, r2
    8b70:	40d1      	lsrs	r1, r2
    8b72:	2240      	movs	r2, #64	; 0x40
    8b74:	0038      	movs	r0, r7
    8b76:	1ad3      	subs	r3, r2, r3
    8b78:	4098      	lsls	r0, r3
    8b7a:	4308      	orrs	r0, r1
    8b7c:	f002 fe5a 	bl	b834 <__aeabi_ui2d>
    8b80:	2301      	movs	r3, #1
    8b82:	4c89      	ldr	r4, [pc, #548]	; (8da8 <_dtoa_r+0x6e4>)
    8b84:	3e01      	subs	r6, #1
    8b86:	1909      	adds	r1, r1, r4
    8b88:	9312      	str	r3, [sp, #72]	; 0x48
    8b8a:	e60d      	b.n	87a8 <_dtoa_r+0xe4>
    8b8c:	4887      	ldr	r0, [pc, #540]	; (8dac <_dtoa_r+0x6e8>)
    8b8e:	e5d1      	b.n	8734 <_dtoa_r+0x70>
    8b90:	2300      	movs	r3, #0
    8b92:	465a      	mov	r2, fp
    8b94:	2100      	movs	r1, #0
    8b96:	6453      	str	r3, [r2, #68]	; 0x44
    8b98:	4658      	mov	r0, fp
    8b9a:	f001 fd4b 	bl	a634 <_Balloc>
    8b9e:	465b      	mov	r3, fp
    8ba0:	6418      	str	r0, [r3, #64]	; 0x40
    8ba2:	2301      	movs	r3, #1
    8ba4:	425b      	negs	r3, r3
    8ba6:	9308      	str	r3, [sp, #32]
    8ba8:	930f      	str	r3, [sp, #60]	; 0x3c
    8baa:	2300      	movs	r3, #0
    8bac:	9323      	str	r3, [sp, #140]	; 0x8c
    8bae:	9322      	str	r3, [sp, #136]	; 0x88
    8bb0:	3301      	adds	r3, #1
    8bb2:	9009      	str	r0, [sp, #36]	; 0x24
    8bb4:	930c      	str	r3, [sp, #48]	; 0x30
    8bb6:	9b17      	ldr	r3, [sp, #92]	; 0x5c
    8bb8:	2b00      	cmp	r3, #0
    8bba:	da00      	bge.n	8bbe <_dtoa_r+0x4fa>
    8bbc:	e0ab      	b.n	8d16 <_dtoa_r+0x652>
    8bbe:	9a05      	ldr	r2, [sp, #20]
    8bc0:	2a0e      	cmp	r2, #14
    8bc2:	dd00      	ble.n	8bc6 <_dtoa_r+0x502>
    8bc4:	e0a7      	b.n	8d16 <_dtoa_r+0x652>
    8bc6:	00d3      	lsls	r3, r2, #3
    8bc8:	4a79      	ldr	r2, [pc, #484]	; (8db0 <_dtoa_r+0x6ec>)
    8bca:	18d3      	adds	r3, r2, r3
    8bcc:	685c      	ldr	r4, [r3, #4]
    8bce:	681b      	ldr	r3, [r3, #0]
    8bd0:	9306      	str	r3, [sp, #24]
    8bd2:	9407      	str	r4, [sp, #28]
    8bd4:	9b23      	ldr	r3, [sp, #140]	; 0x8c
    8bd6:	2b00      	cmp	r3, #0
    8bd8:	da00      	bge.n	8bdc <_dtoa_r+0x518>
    8bda:	e1fb      	b.n	8fd4 <_dtoa_r+0x910>
    8bdc:	9e06      	ldr	r6, [sp, #24]
    8bde:	9f07      	ldr	r7, [sp, #28]
    8be0:	9c02      	ldr	r4, [sp, #8]
    8be2:	9d03      	ldr	r5, [sp, #12]
    8be4:	0032      	movs	r2, r6
    8be6:	003b      	movs	r3, r7
    8be8:	0020      	movs	r0, r4
    8bea:	0029      	movs	r1, r5
    8bec:	f7fc fb38 	bl	5260 <__aeabi_ddiv>
    8bf0:	f7fd fd48 	bl	6684 <__aeabi_d2iz>
    8bf4:	4680      	mov	r8, r0
    8bf6:	f7fd fd7b 	bl	66f0 <__aeabi_i2d>
    8bfa:	0032      	movs	r2, r6
    8bfc:	003b      	movs	r3, r7
    8bfe:	f7fc ff53 	bl	5aa8 <__aeabi_dmul>
    8c02:	0002      	movs	r2, r0
    8c04:	000b      	movs	r3, r1
    8c06:	0020      	movs	r0, r4
    8c08:	0029      	movs	r1, r5
    8c0a:	f7fd f9c7 	bl	5f9c <__aeabi_dsub>
    8c0e:	4643      	mov	r3, r8
    8c10:	9a09      	ldr	r2, [sp, #36]	; 0x24
    8c12:	3330      	adds	r3, #48	; 0x30
    8c14:	7013      	strb	r3, [r2, #0]
    8c16:	9b08      	ldr	r3, [sp, #32]
    8c18:	0006      	movs	r6, r0
    8c1a:	000f      	movs	r7, r1
    8c1c:	1c54      	adds	r4, r2, #1
    8c1e:	2b01      	cmp	r3, #1
    8c20:	d04a      	beq.n	8cb8 <_dtoa_r+0x5f4>
    8c22:	2200      	movs	r2, #0
    8c24:	4b5c      	ldr	r3, [pc, #368]	; (8d98 <_dtoa_r+0x6d4>)
    8c26:	f7fc ff3f 	bl	5aa8 <__aeabi_dmul>
    8c2a:	2200      	movs	r2, #0
    8c2c:	2300      	movs	r3, #0
    8c2e:	0006      	movs	r6, r0
    8c30:	000f      	movs	r7, r1
    8c32:	f7fb fbb7 	bl	43a4 <__aeabi_dcmpeq>
    8c36:	2800      	cmp	r0, #0
    8c38:	d000      	beq.n	8c3c <_dtoa_r+0x578>
    8c3a:	e776      	b.n	8b2a <_dtoa_r+0x466>
    8c3c:	9b09      	ldr	r3, [sp, #36]	; 0x24
    8c3e:	9a08      	ldr	r2, [sp, #32]
    8c40:	469c      	mov	ip, r3
    8c42:	1c9d      	adds	r5, r3, #2
    8c44:	465b      	mov	r3, fp
    8c46:	4462      	add	r2, ip
    8c48:	46aa      	mov	sl, r5
    8c4a:	9c06      	ldr	r4, [sp, #24]
    8c4c:	9d07      	ldr	r5, [sp, #28]
    8c4e:	4691      	mov	r9, r2
    8c50:	9302      	str	r3, [sp, #8]
    8c52:	e00f      	b.n	8c74 <_dtoa_r+0x5b0>
    8c54:	2200      	movs	r2, #0
    8c56:	4b50      	ldr	r3, [pc, #320]	; (8d98 <_dtoa_r+0x6d4>)
    8c58:	f7fc ff26 	bl	5aa8 <__aeabi_dmul>
    8c5c:	2301      	movs	r3, #1
    8c5e:	469c      	mov	ip, r3
    8c60:	2200      	movs	r2, #0
    8c62:	2300      	movs	r3, #0
    8c64:	0006      	movs	r6, r0
    8c66:	000f      	movs	r7, r1
    8c68:	44e2      	add	sl, ip
    8c6a:	f7fb fb9b 	bl	43a4 <__aeabi_dcmpeq>
    8c6e:	2800      	cmp	r0, #0
    8c70:	d000      	beq.n	8c74 <_dtoa_r+0x5b0>
    8c72:	e2db      	b.n	922c <_dtoa_r+0xb68>
    8c74:	0022      	movs	r2, r4
    8c76:	002b      	movs	r3, r5
    8c78:	0030      	movs	r0, r6
    8c7a:	0039      	movs	r1, r7
    8c7c:	f7fc faf0 	bl	5260 <__aeabi_ddiv>
    8c80:	f7fd fd00 	bl	6684 <__aeabi_d2iz>
    8c84:	4680      	mov	r8, r0
    8c86:	f7fd fd33 	bl	66f0 <__aeabi_i2d>
    8c8a:	0022      	movs	r2, r4
    8c8c:	002b      	movs	r3, r5
    8c8e:	f7fc ff0b 	bl	5aa8 <__aeabi_dmul>
    8c92:	0002      	movs	r2, r0
    8c94:	000b      	movs	r3, r1
    8c96:	0030      	movs	r0, r6
    8c98:	0039      	movs	r1, r7
    8c9a:	f7fd f97f 	bl	5f9c <__aeabi_dsub>
    8c9e:	4653      	mov	r3, sl
    8ca0:	4642      	mov	r2, r8
    8ca2:	3b01      	subs	r3, #1
    8ca4:	3230      	adds	r2, #48	; 0x30
    8ca6:	0006      	movs	r6, r0
    8ca8:	000f      	movs	r7, r1
    8caa:	46d3      	mov	fp, sl
    8cac:	701a      	strb	r2, [r3, #0]
    8cae:	45d1      	cmp	r9, sl
    8cb0:	d1d0      	bne.n	8c54 <_dtoa_r+0x590>
    8cb2:	9b02      	ldr	r3, [sp, #8]
    8cb4:	4654      	mov	r4, sl
    8cb6:	469b      	mov	fp, r3
    8cb8:	0032      	movs	r2, r6
    8cba:	003b      	movs	r3, r7
    8cbc:	0030      	movs	r0, r6
    8cbe:	0039      	movs	r1, r7
    8cc0:	f7fb ffa2 	bl	4c08 <__aeabi_dadd>
    8cc4:	0006      	movs	r6, r0
    8cc6:	000f      	movs	r7, r1
    8cc8:	0002      	movs	r2, r0
    8cca:	000b      	movs	r3, r1
    8ccc:	9806      	ldr	r0, [sp, #24]
    8cce:	9907      	ldr	r1, [sp, #28]
    8cd0:	f7fb fb6e 	bl	43b0 <__aeabi_dcmplt>
    8cd4:	2800      	cmp	r0, #0
    8cd6:	d10c      	bne.n	8cf2 <_dtoa_r+0x62e>
    8cd8:	9806      	ldr	r0, [sp, #24]
    8cda:	9907      	ldr	r1, [sp, #28]
    8cdc:	0032      	movs	r2, r6
    8cde:	003b      	movs	r3, r7
    8ce0:	f7fb fb60 	bl	43a4 <__aeabi_dcmpeq>
    8ce4:	2800      	cmp	r0, #0
    8ce6:	d100      	bne.n	8cea <_dtoa_r+0x626>
    8ce8:	e71f      	b.n	8b2a <_dtoa_r+0x466>
    8cea:	4643      	mov	r3, r8
    8cec:	07db      	lsls	r3, r3, #31
    8cee:	d400      	bmi.n	8cf2 <_dtoa_r+0x62e>
    8cf0:	e71b      	b.n	8b2a <_dtoa_r+0x466>
    8cf2:	1e65      	subs	r5, r4, #1
    8cf4:	782b      	ldrb	r3, [r5, #0]
    8cf6:	9a09      	ldr	r2, [sp, #36]	; 0x24
    8cf8:	e006      	b.n	8d08 <_dtoa_r+0x644>
    8cfa:	4295      	cmp	r5, r2
    8cfc:	d100      	bne.n	8d00 <_dtoa_r+0x63c>
    8cfe:	e353      	b.n	93a8 <_dtoa_r+0xce4>
    8d00:	3c02      	subs	r4, #2
    8d02:	7823      	ldrb	r3, [r4, #0]
    8d04:	002c      	movs	r4, r5
    8d06:	3d01      	subs	r5, #1
    8d08:	2b39      	cmp	r3, #57	; 0x39
    8d0a:	d0f6      	beq.n	8cfa <_dtoa_r+0x636>
    8d0c:	4698      	mov	r8, r3
    8d0e:	4643      	mov	r3, r8
    8d10:	3301      	adds	r3, #1
    8d12:	702b      	strb	r3, [r5, #0]
    8d14:	e709      	b.n	8b2a <_dtoa_r+0x466>
    8d16:	9a0c      	ldr	r2, [sp, #48]	; 0x30
    8d18:	2a00      	cmp	r2, #0
    8d1a:	d04b      	beq.n	8db4 <_dtoa_r+0x6f0>
    8d1c:	9a22      	ldr	r2, [sp, #136]	; 0x88
    8d1e:	2a01      	cmp	r2, #1
    8d20:	dc00      	bgt.n	8d24 <_dtoa_r+0x660>
    8d22:	e179      	b.n	9018 <_dtoa_r+0x954>
    8d24:	9b08      	ldr	r3, [sp, #32]
    8d26:	9a0b      	ldr	r2, [sp, #44]	; 0x2c
    8d28:	1e5d      	subs	r5, r3, #1
    8d2a:	42aa      	cmp	r2, r5
    8d2c:	da00      	bge.n	8d30 <_dtoa_r+0x66c>
    8d2e:	e2b8      	b.n	92a2 <_dtoa_r+0xbde>
    8d30:	1b55      	subs	r5, r2, r5
    8d32:	9b08      	ldr	r3, [sp, #32]
    8d34:	2b00      	cmp	r3, #0
    8d36:	da00      	bge.n	8d3a <_dtoa_r+0x676>
    8d38:	e3c5      	b.n	94c6 <_dtoa_r+0xe02>
    8d3a:	9c06      	ldr	r4, [sp, #24]
    8d3c:	9b08      	ldr	r3, [sp, #32]
    8d3e:	9a06      	ldr	r2, [sp, #24]
    8d40:	2101      	movs	r1, #1
    8d42:	4694      	mov	ip, r2
    8d44:	449c      	add	ip, r3
    8d46:	4662      	mov	r2, ip
    8d48:	4658      	mov	r0, fp
    8d4a:	9206      	str	r2, [sp, #24]
    8d4c:	449a      	add	sl, r3
    8d4e:	f001 fd35 	bl	a7bc <__i2b>
    8d52:	0007      	movs	r7, r0
    8d54:	e031      	b.n	8dba <_dtoa_r+0x6f6>
    8d56:	9a06      	ldr	r2, [sp, #24]
    8d58:	9b05      	ldr	r3, [sp, #20]
    8d5a:	1ad2      	subs	r2, r2, r3
    8d5c:	425b      	negs	r3, r3
    8d5e:	930b      	str	r3, [sp, #44]	; 0x2c
    8d60:	2300      	movs	r3, #0
    8d62:	9206      	str	r2, [sp, #24]
    8d64:	930e      	str	r3, [sp, #56]	; 0x38
    8d66:	e56f      	b.n	8848 <_dtoa_r+0x184>
    8d68:	9f05      	ldr	r7, [sp, #20]
    8d6a:	0038      	movs	r0, r7
    8d6c:	f7fd fcc0 	bl	66f0 <__aeabi_i2d>
    8d70:	000b      	movs	r3, r1
    8d72:	0002      	movs	r2, r0
    8d74:	0029      	movs	r1, r5
    8d76:	0020      	movs	r0, r4
    8d78:	f7fb fb14 	bl	43a4 <__aeabi_dcmpeq>
    8d7c:	4243      	negs	r3, r0
    8d7e:	4143      	adcs	r3, r0
    8d80:	1afb      	subs	r3, r7, r3
    8d82:	9305      	str	r3, [sp, #20]
    8d84:	e539      	b.n	87fa <_dtoa_r+0x136>
    8d86:	4653      	mov	r3, sl
    8d88:	425b      	negs	r3, r3
    8d8a:	9306      	str	r3, [sp, #24]
    8d8c:	2300      	movs	r3, #0
    8d8e:	469a      	mov	sl, r3
    8d90:	e551      	b.n	8836 <_dtoa_r+0x172>
    8d92:	46c0      	nop			; (mov r8, r8)
    8d94:	3ff00000 	.word	0x3ff00000
    8d98:	40240000 	.word	0x40240000
    8d9c:	0000bff8 	.word	0x0000bff8
    8da0:	00000432 	.word	0x00000432
    8da4:	00000412 	.word	0x00000412
    8da8:	fe100000 	.word	0xfe100000
    8dac:	0000bd8c 	.word	0x0000bd8c
    8db0:	0000c018 	.word	0x0000c018
    8db4:	2700      	movs	r7, #0
    8db6:	9d0b      	ldr	r5, [sp, #44]	; 0x2c
    8db8:	9c06      	ldr	r4, [sp, #24]
    8dba:	2c00      	cmp	r4, #0
    8dbc:	d00d      	beq.n	8dda <_dtoa_r+0x716>
    8dbe:	4653      	mov	r3, sl
    8dc0:	2b00      	cmp	r3, #0
    8dc2:	dd0a      	ble.n	8dda <_dtoa_r+0x716>
    8dc4:	1e23      	subs	r3, r4, #0
    8dc6:	4553      	cmp	r3, sl
    8dc8:	dd00      	ble.n	8dcc <_dtoa_r+0x708>
    8dca:	e0d5      	b.n	8f78 <_dtoa_r+0x8b4>
    8dcc:	9a06      	ldr	r2, [sp, #24]
    8dce:	1ae4      	subs	r4, r4, r3
    8dd0:	1ad2      	subs	r2, r2, r3
    8dd2:	9206      	str	r2, [sp, #24]
    8dd4:	4652      	mov	r2, sl
    8dd6:	1ad3      	subs	r3, r2, r3
    8dd8:	469a      	mov	sl, r3
    8dda:	9b0b      	ldr	r3, [sp, #44]	; 0x2c
    8ddc:	2b00      	cmp	r3, #0
    8dde:	dc00      	bgt.n	8de2 <_dtoa_r+0x71e>
    8de0:	e1f9      	b.n	91d6 <_dtoa_r+0xb12>
    8de2:	9a0c      	ldr	r2, [sp, #48]	; 0x30
    8de4:	2a00      	cmp	r2, #0
    8de6:	d100      	bne.n	8dea <_dtoa_r+0x726>
    8de8:	e0c9      	b.n	8f7e <_dtoa_r+0x8ba>
    8dea:	2d00      	cmp	r5, #0
    8dec:	d100      	bne.n	8df0 <_dtoa_r+0x72c>
    8dee:	e0c6      	b.n	8f7e <_dtoa_r+0x8ba>
    8df0:	0039      	movs	r1, r7
    8df2:	002a      	movs	r2, r5
    8df4:	4658      	mov	r0, fp
    8df6:	f001 fd99 	bl	a92c <__pow5mult>
    8dfa:	9b0a      	ldr	r3, [sp, #40]	; 0x28
    8dfc:	0001      	movs	r1, r0
    8dfe:	001a      	movs	r2, r3
    8e00:	0007      	movs	r7, r0
    8e02:	4658      	mov	r0, fp
    8e04:	4698      	mov	r8, r3
    8e06:	f001 fce3 	bl	a7d0 <__multiply>
    8e0a:	4641      	mov	r1, r8
    8e0c:	0006      	movs	r6, r0
    8e0e:	4658      	mov	r0, fp
    8e10:	f001 fc38 	bl	a684 <_Bfree>
    8e14:	9b0b      	ldr	r3, [sp, #44]	; 0x2c
    8e16:	1b5b      	subs	r3, r3, r5
    8e18:	930b      	str	r3, [sp, #44]	; 0x2c
    8e1a:	d000      	beq.n	8e1e <_dtoa_r+0x75a>
    8e1c:	e0ae      	b.n	8f7c <_dtoa_r+0x8b8>
    8e1e:	2101      	movs	r1, #1
    8e20:	4658      	mov	r0, fp
    8e22:	f001 fccb 	bl	a7bc <__i2b>
    8e26:	9b0e      	ldr	r3, [sp, #56]	; 0x38
    8e28:	4681      	mov	r9, r0
    8e2a:	2b00      	cmp	r3, #0
    8e2c:	d100      	bne.n	8e30 <_dtoa_r+0x76c>
    8e2e:	e0ff      	b.n	9030 <_dtoa_r+0x96c>
    8e30:	001a      	movs	r2, r3
    8e32:	0001      	movs	r1, r0
    8e34:	4658      	mov	r0, fp
    8e36:	f001 fd79 	bl	a92c <__pow5mult>
    8e3a:	9b22      	ldr	r3, [sp, #136]	; 0x88
    8e3c:	4681      	mov	r9, r0
    8e3e:	2b01      	cmp	r3, #1
    8e40:	dc00      	bgt.n	8e44 <_dtoa_r+0x780>
    8e42:	e0a3      	b.n	8f8c <_dtoa_r+0x8c8>
    8e44:	2500      	movs	r5, #0
    8e46:	464b      	mov	r3, r9
    8e48:	691b      	ldr	r3, [r3, #16]
    8e4a:	3303      	adds	r3, #3
    8e4c:	009b      	lsls	r3, r3, #2
    8e4e:	444b      	add	r3, r9
    8e50:	6858      	ldr	r0, [r3, #4]
    8e52:	f001 fc67 	bl	a724 <__hi0bits>
    8e56:	2320      	movs	r3, #32
    8e58:	1a18      	subs	r0, r3, r0
    8e5a:	231f      	movs	r3, #31
    8e5c:	4450      	add	r0, sl
    8e5e:	4018      	ands	r0, r3
    8e60:	d100      	bne.n	8e64 <_dtoa_r+0x7a0>
    8e62:	e0e3      	b.n	902c <_dtoa_r+0x968>
    8e64:	3301      	adds	r3, #1
    8e66:	1a1b      	subs	r3, r3, r0
    8e68:	2b04      	cmp	r3, #4
    8e6a:	dc00      	bgt.n	8e6e <_dtoa_r+0x7aa>
    8e6c:	e3bf      	b.n	95ee <_dtoa_r+0xf2a>
    8e6e:	231c      	movs	r3, #28
    8e70:	1a18      	subs	r0, r3, r0
    8e72:	9b06      	ldr	r3, [sp, #24]
    8e74:	1824      	adds	r4, r4, r0
    8e76:	469c      	mov	ip, r3
    8e78:	4484      	add	ip, r0
    8e7a:	4663      	mov	r3, ip
    8e7c:	4482      	add	sl, r0
    8e7e:	9306      	str	r3, [sp, #24]
    8e80:	9b06      	ldr	r3, [sp, #24]
    8e82:	2b00      	cmp	r3, #0
    8e84:	dd05      	ble.n	8e92 <_dtoa_r+0x7ce>
    8e86:	0031      	movs	r1, r6
    8e88:	001a      	movs	r2, r3
    8e8a:	4658      	mov	r0, fp
    8e8c:	f001 fdac 	bl	a9e8 <__lshift>
    8e90:	0006      	movs	r6, r0
    8e92:	4653      	mov	r3, sl
    8e94:	2b00      	cmp	r3, #0
    8e96:	dd05      	ble.n	8ea4 <_dtoa_r+0x7e0>
    8e98:	4649      	mov	r1, r9
    8e9a:	4652      	mov	r2, sl
    8e9c:	4658      	mov	r0, fp
    8e9e:	f001 fda3 	bl	a9e8 <__lshift>
    8ea2:	4681      	mov	r9, r0
    8ea4:	9b0d      	ldr	r3, [sp, #52]	; 0x34
    8ea6:	2b00      	cmp	r3, #0
    8ea8:	d000      	beq.n	8eac <_dtoa_r+0x7e8>
    8eaa:	e161      	b.n	9170 <_dtoa_r+0xaac>
    8eac:	9b08      	ldr	r3, [sp, #32]
    8eae:	2b00      	cmp	r3, #0
    8eb0:	dc00      	bgt.n	8eb4 <_dtoa_r+0x7f0>
    8eb2:	e192      	b.n	91da <_dtoa_r+0xb16>
    8eb4:	9b0c      	ldr	r3, [sp, #48]	; 0x30
    8eb6:	2b00      	cmp	r3, #0
    8eb8:	d000      	beq.n	8ebc <_dtoa_r+0x7f8>
    8eba:	e0d0      	b.n	905e <_dtoa_r+0x99a>
    8ebc:	464b      	mov	r3, r9
    8ebe:	9a09      	ldr	r2, [sp, #36]	; 0x24
    8ec0:	46b9      	mov	r9, r7
    8ec2:	2400      	movs	r4, #0
    8ec4:	9d08      	ldr	r5, [sp, #32]
    8ec6:	4690      	mov	r8, r2
    8ec8:	001f      	movs	r7, r3
    8eca:	e006      	b.n	8eda <_dtoa_r+0x816>
    8ecc:	0031      	movs	r1, r6
    8ece:	2300      	movs	r3, #0
    8ed0:	220a      	movs	r2, #10
    8ed2:	4658      	mov	r0, fp
    8ed4:	f001 fbe0 	bl	a698 <__multadd>
    8ed8:	0006      	movs	r6, r0
    8eda:	0039      	movs	r1, r7
    8edc:	0030      	movs	r0, r6
    8ede:	f7ff fb49 	bl	8574 <quorem>
    8ee2:	4643      	mov	r3, r8
    8ee4:	3030      	adds	r0, #48	; 0x30
    8ee6:	5518      	strb	r0, [r3, r4]
    8ee8:	3401      	adds	r4, #1
    8eea:	42ac      	cmp	r4, r5
    8eec:	dbee      	blt.n	8ecc <_dtoa_r+0x808>
    8eee:	003b      	movs	r3, r7
    8ef0:	464f      	mov	r7, r9
    8ef2:	4699      	mov	r9, r3
    8ef4:	9002      	str	r0, [sp, #8]
    8ef6:	9c08      	ldr	r4, [sp, #32]
    8ef8:	2c00      	cmp	r4, #0
    8efa:	dc00      	bgt.n	8efe <_dtoa_r+0x83a>
    8efc:	e2e8      	b.n	94d0 <_dtoa_r+0xe0c>
    8efe:	9b09      	ldr	r3, [sp, #36]	; 0x24
    8f00:	469c      	mov	ip, r3
    8f02:	2300      	movs	r3, #0
    8f04:	4698      	mov	r8, r3
    8f06:	4464      	add	r4, ip
    8f08:	0031      	movs	r1, r6
    8f0a:	2201      	movs	r2, #1
    8f0c:	4658      	mov	r0, fp
    8f0e:	f001 fd6b 	bl	a9e8 <__lshift>
    8f12:	4649      	mov	r1, r9
    8f14:	900a      	str	r0, [sp, #40]	; 0x28
    8f16:	f001 fdc7 	bl	aaa8 <__mcmp>
    8f1a:	2800      	cmp	r0, #0
    8f1c:	dc00      	bgt.n	8f20 <_dtoa_r+0x85c>
    8f1e:	e1ff      	b.n	9320 <_dtoa_r+0xc5c>
    8f20:	1e65      	subs	r5, r4, #1
    8f22:	782b      	ldrb	r3, [r5, #0]
    8f24:	9a09      	ldr	r2, [sp, #36]	; 0x24
    8f26:	e006      	b.n	8f36 <_dtoa_r+0x872>
    8f28:	4295      	cmp	r5, r2
    8f2a:	d100      	bne.n	8f2e <_dtoa_r+0x86a>
    8f2c:	e177      	b.n	921e <_dtoa_r+0xb5a>
    8f2e:	3c02      	subs	r4, #2
    8f30:	7823      	ldrb	r3, [r4, #0]
    8f32:	002c      	movs	r4, r5
    8f34:	3d01      	subs	r5, #1
    8f36:	2b39      	cmp	r3, #57	; 0x39
    8f38:	d0f6      	beq.n	8f28 <_dtoa_r+0x864>
    8f3a:	3301      	adds	r3, #1
    8f3c:	702b      	strb	r3, [r5, #0]
    8f3e:	4649      	mov	r1, r9
    8f40:	4658      	mov	r0, fp
    8f42:	f001 fb9f 	bl	a684 <_Bfree>
    8f46:	2f00      	cmp	r7, #0
    8f48:	d100      	bne.n	8f4c <_dtoa_r+0x888>
    8f4a:	e5ee      	b.n	8b2a <_dtoa_r+0x466>
    8f4c:	4643      	mov	r3, r8
    8f4e:	2b00      	cmp	r3, #0
    8f50:	d005      	beq.n	8f5e <_dtoa_r+0x89a>
    8f52:	45b8      	cmp	r8, r7
    8f54:	d003      	beq.n	8f5e <_dtoa_r+0x89a>
    8f56:	4641      	mov	r1, r8
    8f58:	4658      	mov	r0, fp
    8f5a:	f001 fb93 	bl	a684 <_Bfree>
    8f5e:	0039      	movs	r1, r7
    8f60:	4658      	mov	r0, fp
    8f62:	f001 fb8f 	bl	a684 <_Bfree>
    8f66:	e5e0      	b.n	8b2a <_dtoa_r+0x466>
    8f68:	2220      	movs	r2, #32
    8f6a:	9802      	ldr	r0, [sp, #8]
    8f6c:	1ad3      	subs	r3, r2, r3
    8f6e:	4098      	lsls	r0, r3
    8f70:	e604      	b.n	8b7c <_dtoa_r+0x4b8>
    8f72:	2300      	movs	r3, #0
    8f74:	930d      	str	r3, [sp, #52]	; 0x34
    8f76:	e456      	b.n	8826 <_dtoa_r+0x162>
    8f78:	4653      	mov	r3, sl
    8f7a:	e727      	b.n	8dcc <_dtoa_r+0x708>
    8f7c:	960a      	str	r6, [sp, #40]	; 0x28
    8f7e:	9a0b      	ldr	r2, [sp, #44]	; 0x2c
    8f80:	990a      	ldr	r1, [sp, #40]	; 0x28
    8f82:	4658      	mov	r0, fp
    8f84:	f001 fcd2 	bl	a92c <__pow5mult>
    8f88:	0006      	movs	r6, r0
    8f8a:	e748      	b.n	8e1e <_dtoa_r+0x75a>
    8f8c:	9b02      	ldr	r3, [sp, #8]
    8f8e:	2b00      	cmp	r3, #0
    8f90:	d000      	beq.n	8f94 <_dtoa_r+0x8d0>
    8f92:	e757      	b.n	8e44 <_dtoa_r+0x780>
    8f94:	9902      	ldr	r1, [sp, #8]
    8f96:	9a03      	ldr	r2, [sp, #12]
    8f98:	2500      	movs	r5, #0
    8f9a:	0313      	lsls	r3, r2, #12
    8f9c:	d109      	bne.n	8fb2 <_dtoa_r+0x8ee>
    8f9e:	4bdb      	ldr	r3, [pc, #876]	; (930c <_dtoa_r+0xc48>)
    8fa0:	4213      	tst	r3, r2
    8fa2:	d006      	beq.n	8fb2 <_dtoa_r+0x8ee>
    8fa4:	9b06      	ldr	r3, [sp, #24]
    8fa6:	3501      	adds	r5, #1
    8fa8:	3301      	adds	r3, #1
    8faa:	9306      	str	r3, [sp, #24]
    8fac:	2301      	movs	r3, #1
    8fae:	469c      	mov	ip, r3
    8fb0:	44e2      	add	sl, ip
    8fb2:	9b0e      	ldr	r3, [sp, #56]	; 0x38
    8fb4:	2001      	movs	r0, #1
    8fb6:	2b00      	cmp	r3, #0
    8fb8:	d100      	bne.n	8fbc <_dtoa_r+0x8f8>
    8fba:	e74e      	b.n	8e5a <_dtoa_r+0x796>
    8fbc:	e743      	b.n	8e46 <_dtoa_r+0x782>
    8fbe:	2301      	movs	r3, #1
    8fc0:	930c      	str	r3, [sp, #48]	; 0x30
    8fc2:	9b23      	ldr	r3, [sp, #140]	; 0x8c
    8fc4:	2b00      	cmp	r3, #0
    8fc6:	dc00      	bgt.n	8fca <_dtoa_r+0x906>
    8fc8:	e0c7      	b.n	915a <_dtoa_r+0xa96>
    8fca:	001e      	movs	r6, r3
    8fcc:	001d      	movs	r5, r3
    8fce:	930f      	str	r3, [sp, #60]	; 0x3c
    8fd0:	9308      	str	r3, [sp, #32]
    8fd2:	e463      	b.n	889c <_dtoa_r+0x1d8>
    8fd4:	9b08      	ldr	r3, [sp, #32]
    8fd6:	2b00      	cmp	r3, #0
    8fd8:	dd00      	ble.n	8fdc <_dtoa_r+0x918>
    8fda:	e5ff      	b.n	8bdc <_dtoa_r+0x518>
    8fdc:	d000      	beq.n	8fe0 <_dtoa_r+0x91c>
    8fde:	e159      	b.n	9294 <_dtoa_r+0xbd0>
    8fe0:	9806      	ldr	r0, [sp, #24]
    8fe2:	9907      	ldr	r1, [sp, #28]
    8fe4:	2200      	movs	r2, #0
    8fe6:	4bca      	ldr	r3, [pc, #808]	; (9310 <_dtoa_r+0xc4c>)
    8fe8:	f7fc fd5e 	bl	5aa8 <__aeabi_dmul>
    8fec:	9a02      	ldr	r2, [sp, #8]
    8fee:	9b03      	ldr	r3, [sp, #12]
    8ff0:	f7fb f9fc 	bl	43ec <__aeabi_dcmpge>
    8ff4:	2300      	movs	r3, #0
    8ff6:	2700      	movs	r7, #0
    8ff8:	4699      	mov	r9, r3
    8ffa:	2800      	cmp	r0, #0
    8ffc:	d100      	bne.n	9000 <_dtoa_r+0x93c>
    8ffe:	e102      	b.n	9206 <_dtoa_r+0xb42>
    9000:	9b23      	ldr	r3, [sp, #140]	; 0x8c
    9002:	9c09      	ldr	r4, [sp, #36]	; 0x24
    9004:	43db      	mvns	r3, r3
    9006:	9305      	str	r3, [sp, #20]
    9008:	4649      	mov	r1, r9
    900a:	4658      	mov	r0, fp
    900c:	f001 fb3a 	bl	a684 <_Bfree>
    9010:	2f00      	cmp	r7, #0
    9012:	d100      	bne.n	9016 <_dtoa_r+0x952>
    9014:	e589      	b.n	8b2a <_dtoa_r+0x466>
    9016:	e7a2      	b.n	8f5e <_dtoa_r+0x89a>
    9018:	9a12      	ldr	r2, [sp, #72]	; 0x48
    901a:	2a00      	cmp	r2, #0
    901c:	d100      	bne.n	9020 <_dtoa_r+0x95c>
    901e:	e259      	b.n	94d4 <_dtoa_r+0xe10>
    9020:	4abc      	ldr	r2, [pc, #752]	; (9314 <_dtoa_r+0xc50>)
    9022:	9d0b      	ldr	r5, [sp, #44]	; 0x2c
    9024:	4694      	mov	ip, r2
    9026:	9c06      	ldr	r4, [sp, #24]
    9028:	4463      	add	r3, ip
    902a:	e688      	b.n	8d3e <_dtoa_r+0x67a>
    902c:	201c      	movs	r0, #28
    902e:	e720      	b.n	8e72 <_dtoa_r+0x7ae>
    9030:	9b22      	ldr	r3, [sp, #136]	; 0x88
    9032:	2b01      	cmp	r3, #1
    9034:	dc00      	bgt.n	9038 <_dtoa_r+0x974>
    9036:	e2b5      	b.n	95a4 <_dtoa_r+0xee0>
    9038:	2500      	movs	r5, #0
    903a:	2001      	movs	r0, #1
    903c:	e70d      	b.n	8e5a <_dtoa_r+0x796>
    903e:	2300      	movs	r3, #0
    9040:	0039      	movs	r1, r7
    9042:	220a      	movs	r2, #10
    9044:	4658      	mov	r0, fp
    9046:	f001 fb27 	bl	a698 <__multadd>
    904a:	9b0f      	ldr	r3, [sp, #60]	; 0x3c
    904c:	0007      	movs	r7, r0
    904e:	2b00      	cmp	r3, #0
    9050:	dc04      	bgt.n	905c <_dtoa_r+0x998>
    9052:	9b22      	ldr	r3, [sp, #136]	; 0x88
    9054:	2b02      	cmp	r3, #2
    9056:	dd00      	ble.n	905a <_dtoa_r+0x996>
    9058:	e2cf      	b.n	95fa <_dtoa_r+0xf36>
    905a:	9b0f      	ldr	r3, [sp, #60]	; 0x3c
    905c:	9308      	str	r3, [sp, #32]
    905e:	2c00      	cmp	r4, #0
    9060:	dd05      	ble.n	906e <_dtoa_r+0x9aa>
    9062:	0039      	movs	r1, r7
    9064:	0022      	movs	r2, r4
    9066:	4658      	mov	r0, fp
    9068:	f001 fcbe 	bl	a9e8 <__lshift>
    906c:	0007      	movs	r7, r0
    906e:	46ba      	mov	sl, r7
    9070:	2d00      	cmp	r5, #0
    9072:	d000      	beq.n	9076 <_dtoa_r+0x9b2>
    9074:	e19f      	b.n	93b6 <_dtoa_r+0xcf2>
    9076:	9c08      	ldr	r4, [sp, #32]
    9078:	9a09      	ldr	r2, [sp, #36]	; 0x24
    907a:	3c01      	subs	r4, #1
    907c:	4694      	mov	ip, r2
    907e:	0023      	movs	r3, r4
    9080:	4463      	add	r3, ip
    9082:	930a      	str	r3, [sp, #40]	; 0x28
    9084:	2301      	movs	r3, #1
    9086:	0015      	movs	r5, r2
    9088:	9a02      	ldr	r2, [sp, #8]
    908a:	46d8      	mov	r8, fp
    908c:	401a      	ands	r2, r3
    908e:	464b      	mov	r3, r9
    9090:	46a9      	mov	r9, r5
    9092:	9208      	str	r2, [sp, #32]
    9094:	9306      	str	r3, [sp, #24]
    9096:	9d06      	ldr	r5, [sp, #24]
    9098:	0030      	movs	r0, r6
    909a:	0029      	movs	r1, r5
    909c:	f7ff fa6a 	bl	8574 <quorem>
    90a0:	0003      	movs	r3, r0
    90a2:	900b      	str	r0, [sp, #44]	; 0x2c
    90a4:	3330      	adds	r3, #48	; 0x30
    90a6:	0039      	movs	r1, r7
    90a8:	0030      	movs	r0, r6
    90aa:	9302      	str	r3, [sp, #8]
    90ac:	f001 fcfc 	bl	aaa8 <__mcmp>
    90b0:	0029      	movs	r1, r5
    90b2:	0004      	movs	r4, r0
    90b4:	4652      	mov	r2, sl
    90b6:	4640      	mov	r0, r8
    90b8:	f001 fd14 	bl	aae4 <__mdiff>
    90bc:	68c3      	ldr	r3, [r0, #12]
    90be:	0005      	movs	r5, r0
    90c0:	2b00      	cmp	r3, #0
    90c2:	d147      	bne.n	9154 <_dtoa_r+0xa90>
    90c4:	0001      	movs	r1, r0
    90c6:	0030      	movs	r0, r6
    90c8:	f001 fcee 	bl	aaa8 <__mcmp>
    90cc:	4683      	mov	fp, r0
    90ce:	0029      	movs	r1, r5
    90d0:	4640      	mov	r0, r8
    90d2:	f001 fad7 	bl	a684 <_Bfree>
    90d6:	465b      	mov	r3, fp
    90d8:	9a22      	ldr	r2, [sp, #136]	; 0x88
    90da:	4313      	orrs	r3, r2
    90dc:	d103      	bne.n	90e6 <_dtoa_r+0xa22>
    90de:	9b08      	ldr	r3, [sp, #32]
    90e0:	2b00      	cmp	r3, #0
    90e2:	d100      	bne.n	90e6 <_dtoa_r+0xa22>
    90e4:	e249      	b.n	957a <_dtoa_r+0xeb6>
    90e6:	2c00      	cmp	r4, #0
    90e8:	da00      	bge.n	90ec <_dtoa_r+0xa28>
    90ea:	e0ec      	b.n	92c6 <_dtoa_r+0xc02>
    90ec:	9b22      	ldr	r3, [sp, #136]	; 0x88
    90ee:	431c      	orrs	r4, r3
    90f0:	d103      	bne.n	90fa <_dtoa_r+0xa36>
    90f2:	9b08      	ldr	r3, [sp, #32]
    90f4:	2b00      	cmp	r3, #0
    90f6:	d100      	bne.n	90fa <_dtoa_r+0xa36>
    90f8:	e0e5      	b.n	92c6 <_dtoa_r+0xc02>
    90fa:	465b      	mov	r3, fp
    90fc:	2b00      	cmp	r3, #0
    90fe:	dd00      	ble.n	9102 <_dtoa_r+0xa3e>
    9100:	e1cc      	b.n	949c <_dtoa_r+0xdd8>
    9102:	466a      	mov	r2, sp
    9104:	464b      	mov	r3, r9
    9106:	7a12      	ldrb	r2, [r2, #8]
    9108:	1c5d      	adds	r5, r3, #1
    910a:	701a      	strb	r2, [r3, #0]
    910c:	9b0a      	ldr	r3, [sp, #40]	; 0x28
    910e:	002c      	movs	r4, r5
    9110:	4599      	cmp	r9, r3
    9112:	d100      	bne.n	9116 <_dtoa_r+0xa52>
    9114:	e1d1      	b.n	94ba <_dtoa_r+0xdf6>
    9116:	0031      	movs	r1, r6
    9118:	2300      	movs	r3, #0
    911a:	220a      	movs	r2, #10
    911c:	4640      	mov	r0, r8
    911e:	f001 fabb 	bl	a698 <__multadd>
    9122:	2300      	movs	r3, #0
    9124:	0006      	movs	r6, r0
    9126:	220a      	movs	r2, #10
    9128:	1e39      	subs	r1, r7, #0
    912a:	4640      	mov	r0, r8
    912c:	4551      	cmp	r1, sl
    912e:	d00b      	beq.n	9148 <_dtoa_r+0xa84>
    9130:	f001 fab2 	bl	a698 <__multadd>
    9134:	4651      	mov	r1, sl
    9136:	0007      	movs	r7, r0
    9138:	2300      	movs	r3, #0
    913a:	220a      	movs	r2, #10
    913c:	4640      	mov	r0, r8
    913e:	f001 faab 	bl	a698 <__multadd>
    9142:	46a9      	mov	r9, r5
    9144:	4682      	mov	sl, r0
    9146:	e7a6      	b.n	9096 <_dtoa_r+0x9d2>
    9148:	f001 faa6 	bl	a698 <__multadd>
    914c:	46a9      	mov	r9, r5
    914e:	0007      	movs	r7, r0
    9150:	4682      	mov	sl, r0
    9152:	e7a0      	b.n	9096 <_dtoa_r+0x9d2>
    9154:	2301      	movs	r3, #1
    9156:	469b      	mov	fp, r3
    9158:	e7b9      	b.n	90ce <_dtoa_r+0xa0a>
    915a:	2301      	movs	r3, #1
    915c:	2501      	movs	r5, #1
    915e:	930f      	str	r3, [sp, #60]	; 0x3c
    9160:	9308      	str	r3, [sp, #32]
    9162:	9323      	str	r3, [sp, #140]	; 0x8c
    9164:	2300      	movs	r3, #0
    9166:	465a      	mov	r2, fp
    9168:	2100      	movs	r1, #0
    916a:	6453      	str	r3, [r2, #68]	; 0x44
    916c:	f7ff fba7 	bl	88be <_dtoa_r+0x1fa>
    9170:	4649      	mov	r1, r9
    9172:	0030      	movs	r0, r6
    9174:	f001 fc98 	bl	aaa8 <__mcmp>
    9178:	2800      	cmp	r0, #0
    917a:	db00      	blt.n	917e <_dtoa_r+0xaba>
    917c:	e696      	b.n	8eac <_dtoa_r+0x7e8>
    917e:	9b05      	ldr	r3, [sp, #20]
    9180:	0031      	movs	r1, r6
    9182:	3b01      	subs	r3, #1
    9184:	9305      	str	r3, [sp, #20]
    9186:	220a      	movs	r2, #10
    9188:	2300      	movs	r3, #0
    918a:	4658      	mov	r0, fp
    918c:	f001 fa84 	bl	a698 <__multadd>
    9190:	9b0c      	ldr	r3, [sp, #48]	; 0x30
    9192:	0006      	movs	r6, r0
    9194:	2b00      	cmp	r3, #0
    9196:	d000      	beq.n	919a <_dtoa_r+0xad6>
    9198:	e751      	b.n	903e <_dtoa_r+0x97a>
    919a:	9b0f      	ldr	r3, [sp, #60]	; 0x3c
    919c:	2b00      	cmp	r3, #0
    919e:	dc00      	bgt.n	91a2 <_dtoa_r+0xade>
    91a0:	e20d      	b.n	95be <_dtoa_r+0xefa>
    91a2:	9308      	str	r3, [sp, #32]
    91a4:	e68a      	b.n	8ebc <_dtoa_r+0x7f8>
    91a6:	2300      	movs	r3, #0
    91a8:	930c      	str	r3, [sp, #48]	; 0x30
    91aa:	9b22      	ldr	r3, [sp, #136]	; 0x88
    91ac:	2b02      	cmp	r3, #2
    91ae:	d100      	bne.n	91b2 <_dtoa_r+0xaee>
    91b0:	e707      	b.n	8fc2 <_dtoa_r+0x8fe>
    91b2:	2400      	movs	r4, #0
    91b4:	465b      	mov	r3, fp
    91b6:	0021      	movs	r1, r4
    91b8:	645c      	str	r4, [r3, #68]	; 0x44
    91ba:	4658      	mov	r0, fp
    91bc:	f001 fa3a 	bl	a634 <_Balloc>
    91c0:	465b      	mov	r3, fp
    91c2:	6418      	str	r0, [r3, #64]	; 0x40
    91c4:	2301      	movs	r3, #1
    91c6:	425b      	negs	r3, r3
    91c8:	9308      	str	r3, [sp, #32]
    91ca:	930f      	str	r3, [sp, #60]	; 0x3c
    91cc:	3302      	adds	r3, #2
    91ce:	9009      	str	r0, [sp, #36]	; 0x24
    91d0:	9423      	str	r4, [sp, #140]	; 0x8c
    91d2:	930c      	str	r3, [sp, #48]	; 0x30
    91d4:	e4ef      	b.n	8bb6 <_dtoa_r+0x4f2>
    91d6:	9e0a      	ldr	r6, [sp, #40]	; 0x28
    91d8:	e621      	b.n	8e1e <_dtoa_r+0x75a>
    91da:	9b22      	ldr	r3, [sp, #136]	; 0x88
    91dc:	2b02      	cmp	r3, #2
    91de:	dc00      	bgt.n	91e2 <_dtoa_r+0xb1e>
    91e0:	e668      	b.n	8eb4 <_dtoa_r+0x7f0>
    91e2:	9b08      	ldr	r3, [sp, #32]
    91e4:	2b00      	cmp	r3, #0
    91e6:	d000      	beq.n	91ea <_dtoa_r+0xb26>
    91e8:	e188      	b.n	94fc <_dtoa_r+0xe38>
    91ea:	4649      	mov	r1, r9
    91ec:	2205      	movs	r2, #5
    91ee:	4658      	mov	r0, fp
    91f0:	f001 fa52 	bl	a698 <__multadd>
    91f4:	0001      	movs	r1, r0
    91f6:	4681      	mov	r9, r0
    91f8:	0030      	movs	r0, r6
    91fa:	f001 fc55 	bl	aaa8 <__mcmp>
    91fe:	960a      	str	r6, [sp, #40]	; 0x28
    9200:	2800      	cmp	r0, #0
    9202:	dc00      	bgt.n	9206 <_dtoa_r+0xb42>
    9204:	e6fc      	b.n	9000 <_dtoa_r+0x93c>
    9206:	2331      	movs	r3, #49	; 0x31
    9208:	9a09      	ldr	r2, [sp, #36]	; 0x24
    920a:	7013      	strb	r3, [r2, #0]
    920c:	9b05      	ldr	r3, [sp, #20]
    920e:	1c54      	adds	r4, r2, #1
    9210:	3301      	adds	r3, #1
    9212:	9305      	str	r3, [sp, #20]
    9214:	e6f8      	b.n	9008 <_dtoa_r+0x944>
    9216:	2300      	movs	r3, #0
    9218:	930c      	str	r3, [sp, #48]	; 0x30
    921a:	f7ff fb32 	bl	8882 <_dtoa_r+0x1be>
    921e:	9b05      	ldr	r3, [sp, #20]
    9220:	9a09      	ldr	r2, [sp, #36]	; 0x24
    9222:	3301      	adds	r3, #1
    9224:	9305      	str	r3, [sp, #20]
    9226:	2331      	movs	r3, #49	; 0x31
    9228:	7013      	strb	r3, [r2, #0]
    922a:	e688      	b.n	8f3e <_dtoa_r+0x87a>
    922c:	9b02      	ldr	r3, [sp, #8]
    922e:	465c      	mov	r4, fp
    9230:	469b      	mov	fp, r3
    9232:	e47a      	b.n	8b2a <_dtoa_r+0x466>
    9234:	4640      	mov	r0, r8
    9236:	f7fd fa5b 	bl	66f0 <__aeabi_i2d>
    923a:	0032      	movs	r2, r6
    923c:	003b      	movs	r3, r7
    923e:	f7fc fc33 	bl	5aa8 <__aeabi_dmul>
    9242:	2200      	movs	r2, #0
    9244:	4b34      	ldr	r3, [pc, #208]	; (9318 <_dtoa_r+0xc54>)
    9246:	f7fb fcdf 	bl	4c08 <__aeabi_dadd>
    924a:	4a34      	ldr	r2, [pc, #208]	; (931c <_dtoa_r+0xc58>)
    924c:	000b      	movs	r3, r1
    924e:	4694      	mov	ip, r2
    9250:	4463      	add	r3, ip
    9252:	9002      	str	r0, [sp, #8]
    9254:	9103      	str	r1, [sp, #12]
    9256:	9303      	str	r3, [sp, #12]
    9258:	2200      	movs	r2, #0
    925a:	4b2d      	ldr	r3, [pc, #180]	; (9310 <_dtoa_r+0xc4c>)
    925c:	0030      	movs	r0, r6
    925e:	0039      	movs	r1, r7
    9260:	f7fc fe9c 	bl	5f9c <__aeabi_dsub>
    9264:	9e02      	ldr	r6, [sp, #8]
    9266:	9f03      	ldr	r7, [sp, #12]
    9268:	0032      	movs	r2, r6
    926a:	003b      	movs	r3, r7
    926c:	0004      	movs	r4, r0
    926e:	000d      	movs	r5, r1
    9270:	f7fb f8b2 	bl	43d8 <__aeabi_dcmpgt>
    9274:	2800      	cmp	r0, #0
    9276:	d000      	beq.n	927a <_dtoa_r+0xbb6>
    9278:	e0b1      	b.n	93de <_dtoa_r+0xd1a>
    927a:	2080      	movs	r0, #128	; 0x80
    927c:	0600      	lsls	r0, r0, #24
    927e:	4684      	mov	ip, r0
    9280:	0039      	movs	r1, r7
    9282:	4461      	add	r1, ip
    9284:	000b      	movs	r3, r1
    9286:	0032      	movs	r2, r6
    9288:	0020      	movs	r0, r4
    928a:	0029      	movs	r1, r5
    928c:	f7fb f890 	bl	43b0 <__aeabi_dcmplt>
    9290:	2800      	cmp	r0, #0
    9292:	d055      	beq.n	9340 <_dtoa_r+0xc7c>
    9294:	2300      	movs	r3, #0
    9296:	2700      	movs	r7, #0
    9298:	4699      	mov	r9, r3
    929a:	e6b1      	b.n	9000 <_dtoa_r+0x93c>
    929c:	9809      	ldr	r0, [sp, #36]	; 0x24
    929e:	f7ff fa49 	bl	8734 <_dtoa_r+0x70>
    92a2:	9a0e      	ldr	r2, [sp, #56]	; 0x38
    92a4:	9b0b      	ldr	r3, [sp, #44]	; 0x2c
    92a6:	4694      	mov	ip, r2
    92a8:	1aeb      	subs	r3, r5, r3
    92aa:	449c      	add	ip, r3
    92ac:	4663      	mov	r3, ip
    92ae:	950b      	str	r5, [sp, #44]	; 0x2c
    92b0:	930e      	str	r3, [sp, #56]	; 0x38
    92b2:	2500      	movs	r5, #0
    92b4:	e53d      	b.n	8d32 <_dtoa_r+0x66e>
    92b6:	9a10      	ldr	r2, [sp, #64]	; 0x40
    92b8:	9b11      	ldr	r3, [sp, #68]	; 0x44
    92ba:	9202      	str	r2, [sp, #8]
    92bc:	9303      	str	r3, [sp, #12]
    92be:	2302      	movs	r3, #2
    92c0:	4698      	mov	r8, r3
    92c2:	f7ff fb2a 	bl	891a <_dtoa_r+0x256>
    92c6:	465b      	mov	r3, fp
    92c8:	9a06      	ldr	r2, [sp, #24]
    92ca:	464d      	mov	r5, r9
    92cc:	46c3      	mov	fp, r8
    92ce:	4691      	mov	r9, r2
    92d0:	2b00      	cmp	r3, #0
    92d2:	dd12      	ble.n	92fa <_dtoa_r+0xc36>
    92d4:	0031      	movs	r1, r6
    92d6:	2201      	movs	r2, #1
    92d8:	4640      	mov	r0, r8
    92da:	f001 fb85 	bl	a9e8 <__lshift>
    92de:	4649      	mov	r1, r9
    92e0:	0006      	movs	r6, r0
    92e2:	f001 fbe1 	bl	aaa8 <__mcmp>
    92e6:	2800      	cmp	r0, #0
    92e8:	dc00      	bgt.n	92ec <_dtoa_r+0xc28>
    92ea:	e160      	b.n	95ae <_dtoa_r+0xeea>
    92ec:	9b02      	ldr	r3, [sp, #8]
    92ee:	2b39      	cmp	r3, #57	; 0x39
    92f0:	d100      	bne.n	92f4 <_dtoa_r+0xc30>
    92f2:	e0fb      	b.n	94ec <_dtoa_r+0xe28>
    92f4:	9b0b      	ldr	r3, [sp, #44]	; 0x2c
    92f6:	3331      	adds	r3, #49	; 0x31
    92f8:	9302      	str	r3, [sp, #8]
    92fa:	466b      	mov	r3, sp
    92fc:	7a1b      	ldrb	r3, [r3, #8]
    92fe:	46b8      	mov	r8, r7
    9300:	1c6c      	adds	r4, r5, #1
    9302:	702b      	strb	r3, [r5, #0]
    9304:	4657      	mov	r7, sl
    9306:	960a      	str	r6, [sp, #40]	; 0x28
    9308:	e619      	b.n	8f3e <_dtoa_r+0x87a>
    930a:	46c0      	nop			; (mov r8, r8)
    930c:	7ff00000 	.word	0x7ff00000
    9310:	40140000 	.word	0x40140000
    9314:	00000433 	.word	0x00000433
    9318:	401c0000 	.word	0x401c0000
    931c:	fcc00000 	.word	0xfcc00000
    9320:	2800      	cmp	r0, #0
    9322:	d104      	bne.n	932e <_dtoa_r+0xc6a>
    9324:	9b02      	ldr	r3, [sp, #8]
    9326:	07db      	lsls	r3, r3, #31
    9328:	d501      	bpl.n	932e <_dtoa_r+0xc6a>
    932a:	e5f9      	b.n	8f20 <_dtoa_r+0x85c>
    932c:	001c      	movs	r4, r3
    932e:	1e63      	subs	r3, r4, #1
    9330:	781a      	ldrb	r2, [r3, #0]
    9332:	2a30      	cmp	r2, #48	; 0x30
    9334:	d0fa      	beq.n	932c <_dtoa_r+0xc68>
    9336:	e602      	b.n	8f3e <_dtoa_r+0x87a>
    9338:	9b13      	ldr	r3, [sp, #76]	; 0x4c
    933a:	469a      	mov	sl, r3
    933c:	9b02      	ldr	r3, [sp, #8]
    933e:	469b      	mov	fp, r3
    9340:	9b10      	ldr	r3, [sp, #64]	; 0x40
    9342:	9c11      	ldr	r4, [sp, #68]	; 0x44
    9344:	9302      	str	r3, [sp, #8]
    9346:	9403      	str	r4, [sp, #12]
    9348:	e435      	b.n	8bb6 <_dtoa_r+0x4f2>
    934a:	9b05      	ldr	r3, [sp, #20]
    934c:	425c      	negs	r4, r3
    934e:	2c00      	cmp	r4, #0
    9350:	d100      	bne.n	9354 <_dtoa_r+0xc90>
    9352:	e0c5      	b.n	94e0 <_dtoa_r+0xe1c>
    9354:	9810      	ldr	r0, [sp, #64]	; 0x40
    9356:	9911      	ldr	r1, [sp, #68]	; 0x44
    9358:	230f      	movs	r3, #15
    935a:	4aa9      	ldr	r2, [pc, #676]	; (9600 <_dtoa_r+0xf3c>)
    935c:	4023      	ands	r3, r4
    935e:	00db      	lsls	r3, r3, #3
    9360:	18d3      	adds	r3, r2, r3
    9362:	681a      	ldr	r2, [r3, #0]
    9364:	685b      	ldr	r3, [r3, #4]
    9366:	f7fc fb9f 	bl	5aa8 <__aeabi_dmul>
    936a:	1124      	asrs	r4, r4, #4
    936c:	0006      	movs	r6, r0
    936e:	000f      	movs	r7, r1
    9370:	2c00      	cmp	r4, #0
    9372:	d100      	bne.n	9376 <_dtoa_r+0xcb2>
    9374:	e130      	b.n	95d8 <_dtoa_r+0xf14>
    9376:	2302      	movs	r3, #2
    9378:	4698      	mov	r8, r3
    937a:	3b01      	subs	r3, #1
    937c:	4699      	mov	r9, r3
    937e:	4da1      	ldr	r5, [pc, #644]	; (9604 <_dtoa_r+0xf40>)
    9380:	464b      	mov	r3, r9
    9382:	4223      	tst	r3, r4
    9384:	d00a      	beq.n	939c <_dtoa_r+0xcd8>
    9386:	2301      	movs	r3, #1
    9388:	469c      	mov	ip, r3
    938a:	682a      	ldr	r2, [r5, #0]
    938c:	686b      	ldr	r3, [r5, #4]
    938e:	0030      	movs	r0, r6
    9390:	0039      	movs	r1, r7
    9392:	44e0      	add	r8, ip
    9394:	f7fc fb88 	bl	5aa8 <__aeabi_dmul>
    9398:	0006      	movs	r6, r0
    939a:	000f      	movs	r7, r1
    939c:	1064      	asrs	r4, r4, #1
    939e:	3508      	adds	r5, #8
    93a0:	2c00      	cmp	r4, #0
    93a2:	d1ed      	bne.n	9380 <_dtoa_r+0xcbc>
    93a4:	f7ff fad8 	bl	8958 <_dtoa_r+0x294>
    93a8:	9b05      	ldr	r3, [sp, #20]
    93aa:	3301      	adds	r3, #1
    93ac:	9305      	str	r3, [sp, #20]
    93ae:	2330      	movs	r3, #48	; 0x30
    93b0:	702b      	strb	r3, [r5, #0]
    93b2:	4698      	mov	r8, r3
    93b4:	e4ab      	b.n	8d0e <_dtoa_r+0x64a>
    93b6:	6879      	ldr	r1, [r7, #4]
    93b8:	4658      	mov	r0, fp
    93ba:	f001 f93b 	bl	a634 <_Balloc>
    93be:	0039      	movs	r1, r7
    93c0:	0004      	movs	r4, r0
    93c2:	693b      	ldr	r3, [r7, #16]
    93c4:	310c      	adds	r1, #12
    93c6:	1c9a      	adds	r2, r3, #2
    93c8:	0092      	lsls	r2, r2, #2
    93ca:	300c      	adds	r0, #12
    93cc:	f7fd fafa 	bl	69c4 <memcpy>
    93d0:	2201      	movs	r2, #1
    93d2:	0021      	movs	r1, r4
    93d4:	4658      	mov	r0, fp
    93d6:	f001 fb07 	bl	a9e8 <__lshift>
    93da:	4682      	mov	sl, r0
    93dc:	e64b      	b.n	9076 <_dtoa_r+0x9b2>
    93de:	2300      	movs	r3, #0
    93e0:	2700      	movs	r7, #0
    93e2:	4699      	mov	r9, r3
    93e4:	e70f      	b.n	9206 <_dtoa_r+0xb42>
    93e6:	9b13      	ldr	r3, [sp, #76]	; 0x4c
    93e8:	1e59      	subs	r1, r3, #1
    93ea:	00cb      	lsls	r3, r1, #3
    93ec:	9115      	str	r1, [sp, #84]	; 0x54
    93ee:	4984      	ldr	r1, [pc, #528]	; (9600 <_dtoa_r+0xf3c>)
    93f0:	18c9      	adds	r1, r1, r3
    93f2:	6808      	ldr	r0, [r1, #0]
    93f4:	6849      	ldr	r1, [r1, #4]
    93f6:	9a02      	ldr	r2, [sp, #8]
    93f8:	9b03      	ldr	r3, [sp, #12]
    93fa:	f7fc fb55 	bl	5aa8 <__aeabi_dmul>
    93fe:	9002      	str	r0, [sp, #8]
    9400:	9103      	str	r1, [sp, #12]
    9402:	0039      	movs	r1, r7
    9404:	0030      	movs	r0, r6
    9406:	f7fd f93d 	bl	6684 <__aeabi_d2iz>
    940a:	0005      	movs	r5, r0
    940c:	f7fd f970 	bl	66f0 <__aeabi_i2d>
    9410:	0002      	movs	r2, r0
    9412:	000b      	movs	r3, r1
    9414:	0030      	movs	r0, r6
    9416:	0039      	movs	r1, r7
    9418:	f7fc fdc0 	bl	5f9c <__aeabi_dsub>
    941c:	9b13      	ldr	r3, [sp, #76]	; 0x4c
    941e:	000f      	movs	r7, r1
    9420:	9909      	ldr	r1, [sp, #36]	; 0x24
    9422:	001a      	movs	r2, r3
    9424:	468c      	mov	ip, r1
    9426:	3530      	adds	r5, #48	; 0x30
    9428:	4462      	add	r2, ip
    942a:	0006      	movs	r6, r0
    942c:	1c4c      	adds	r4, r1, #1
    942e:	700d      	strb	r5, [r1, #0]
    9430:	4691      	mov	r9, r2
    9432:	2b01      	cmp	r3, #1
    9434:	d01e      	beq.n	9474 <_dtoa_r+0xdb0>
    9436:	46a0      	mov	r8, r4
    9438:	2200      	movs	r2, #0
    943a:	4b73      	ldr	r3, [pc, #460]	; (9608 <_dtoa_r+0xf44>)
    943c:	0030      	movs	r0, r6
    943e:	0039      	movs	r1, r7
    9440:	f7fc fb32 	bl	5aa8 <__aeabi_dmul>
    9444:	000f      	movs	r7, r1
    9446:	0006      	movs	r6, r0
    9448:	f7fd f91c 	bl	6684 <__aeabi_d2iz>
    944c:	0005      	movs	r5, r0
    944e:	f7fd f94f 	bl	66f0 <__aeabi_i2d>
    9452:	0002      	movs	r2, r0
    9454:	000b      	movs	r3, r1
    9456:	0030      	movs	r0, r6
    9458:	0039      	movs	r1, r7
    945a:	f7fc fd9f 	bl	5f9c <__aeabi_dsub>
    945e:	3530      	adds	r5, #48	; 0x30
    9460:	7025      	strb	r5, [r4, #0]
    9462:	3401      	adds	r4, #1
    9464:	0006      	movs	r6, r0
    9466:	000f      	movs	r7, r1
    9468:	454c      	cmp	r4, r9
    946a:	d1e5      	bne.n	9438 <_dtoa_r+0xd74>
    946c:	9b15      	ldr	r3, [sp, #84]	; 0x54
    946e:	4644      	mov	r4, r8
    9470:	469c      	mov	ip, r3
    9472:	4464      	add	r4, ip
    9474:	2200      	movs	r2, #0
    9476:	9802      	ldr	r0, [sp, #8]
    9478:	9903      	ldr	r1, [sp, #12]
    947a:	4b64      	ldr	r3, [pc, #400]	; (960c <_dtoa_r+0xf48>)
    947c:	f7fb fbc4 	bl	4c08 <__aeabi_dadd>
    9480:	0032      	movs	r2, r6
    9482:	003b      	movs	r3, r7
    9484:	f7fa ff94 	bl	43b0 <__aeabi_dcmplt>
    9488:	2800      	cmp	r0, #0
    948a:	d062      	beq.n	9552 <_dtoa_r+0xe8e>
    948c:	1e65      	subs	r5, r4, #1
    948e:	782b      	ldrb	r3, [r5, #0]
    9490:	9a09      	ldr	r2, [sp, #36]	; 0x24
    9492:	4698      	mov	r8, r3
    9494:	9b14      	ldr	r3, [sp, #80]	; 0x50
    9496:	9305      	str	r3, [sp, #20]
    9498:	4643      	mov	r3, r8
    949a:	e435      	b.n	8d08 <_dtoa_r+0x644>
    949c:	9b06      	ldr	r3, [sp, #24]
    949e:	464d      	mov	r5, r9
    94a0:	4699      	mov	r9, r3
    94a2:	9b02      	ldr	r3, [sp, #8]
    94a4:	46c3      	mov	fp, r8
    94a6:	2b39      	cmp	r3, #57	; 0x39
    94a8:	d020      	beq.n	94ec <_dtoa_r+0xe28>
    94aa:	9b02      	ldr	r3, [sp, #8]
    94ac:	46b8      	mov	r8, r7
    94ae:	3301      	adds	r3, #1
    94b0:	1c6c      	adds	r4, r5, #1
    94b2:	702b      	strb	r3, [r5, #0]
    94b4:	4657      	mov	r7, sl
    94b6:	960a      	str	r6, [sp, #40]	; 0x28
    94b8:	e541      	b.n	8f3e <_dtoa_r+0x87a>
    94ba:	9b06      	ldr	r3, [sp, #24]
    94bc:	46c3      	mov	fp, r8
    94be:	4699      	mov	r9, r3
    94c0:	46b8      	mov	r8, r7
    94c2:	4657      	mov	r7, sl
    94c4:	e520      	b.n	8f08 <_dtoa_r+0x844>
    94c6:	9b06      	ldr	r3, [sp, #24]
    94c8:	9a08      	ldr	r2, [sp, #32]
    94ca:	1a9c      	subs	r4, r3, r2
    94cc:	2300      	movs	r3, #0
    94ce:	e436      	b.n	8d3e <_dtoa_r+0x67a>
    94d0:	2401      	movs	r4, #1
    94d2:	e514      	b.n	8efe <_dtoa_r+0x83a>
    94d4:	2336      	movs	r3, #54	; 0x36
    94d6:	9a16      	ldr	r2, [sp, #88]	; 0x58
    94d8:	9d0b      	ldr	r5, [sp, #44]	; 0x2c
    94da:	1a9b      	subs	r3, r3, r2
    94dc:	9c06      	ldr	r4, [sp, #24]
    94de:	e42e      	b.n	8d3e <_dtoa_r+0x67a>
    94e0:	2302      	movs	r3, #2
    94e2:	9e10      	ldr	r6, [sp, #64]	; 0x40
    94e4:	9f11      	ldr	r7, [sp, #68]	; 0x44
    94e6:	4698      	mov	r8, r3
    94e8:	f7ff fa36 	bl	8958 <_dtoa_r+0x294>
    94ec:	2339      	movs	r3, #57	; 0x39
    94ee:	46b8      	mov	r8, r7
    94f0:	1c6c      	adds	r4, r5, #1
    94f2:	702b      	strb	r3, [r5, #0]
    94f4:	4657      	mov	r7, sl
    94f6:	960a      	str	r6, [sp, #40]	; 0x28
    94f8:	9a09      	ldr	r2, [sp, #36]	; 0x24
    94fa:	e51c      	b.n	8f36 <_dtoa_r+0x872>
    94fc:	960a      	str	r6, [sp, #40]	; 0x28
    94fe:	e57f      	b.n	9000 <_dtoa_r+0x93c>
    9500:	9b08      	ldr	r3, [sp, #32]
    9502:	2b00      	cmp	r3, #0
    9504:	d100      	bne.n	9508 <_dtoa_r+0xe44>
    9506:	e695      	b.n	9234 <_dtoa_r+0xb70>
    9508:	9c0f      	ldr	r4, [sp, #60]	; 0x3c
    950a:	2c00      	cmp	r4, #0
    950c:	dc00      	bgt.n	9510 <_dtoa_r+0xe4c>
    950e:	e717      	b.n	9340 <_dtoa_r+0xc7c>
    9510:	9b05      	ldr	r3, [sp, #20]
    9512:	2200      	movs	r2, #0
    9514:	3b01      	subs	r3, #1
    9516:	9314      	str	r3, [sp, #80]	; 0x50
    9518:	0030      	movs	r0, r6
    951a:	4b3b      	ldr	r3, [pc, #236]	; (9608 <_dtoa_r+0xf44>)
    951c:	0039      	movs	r1, r7
    951e:	f7fc fac3 	bl	5aa8 <__aeabi_dmul>
    9522:	0006      	movs	r6, r0
    9524:	4640      	mov	r0, r8
    9526:	000f      	movs	r7, r1
    9528:	3001      	adds	r0, #1
    952a:	f7fd f8e1 	bl	66f0 <__aeabi_i2d>
    952e:	0032      	movs	r2, r6
    9530:	003b      	movs	r3, r7
    9532:	f7fc fab9 	bl	5aa8 <__aeabi_dmul>
    9536:	2200      	movs	r2, #0
    9538:	4b35      	ldr	r3, [pc, #212]	; (9610 <_dtoa_r+0xf4c>)
    953a:	f7fb fb65 	bl	4c08 <__aeabi_dadd>
    953e:	4a35      	ldr	r2, [pc, #212]	; (9614 <_dtoa_r+0xf50>)
    9540:	000b      	movs	r3, r1
    9542:	4694      	mov	ip, r2
    9544:	4463      	add	r3, ip
    9546:	9002      	str	r0, [sp, #8]
    9548:	9103      	str	r1, [sp, #12]
    954a:	9413      	str	r4, [sp, #76]	; 0x4c
    954c:	9303      	str	r3, [sp, #12]
    954e:	f7ff fa2b 	bl	89a8 <_dtoa_r+0x2e4>
    9552:	9a02      	ldr	r2, [sp, #8]
    9554:	9b03      	ldr	r3, [sp, #12]
    9556:	2000      	movs	r0, #0
    9558:	492c      	ldr	r1, [pc, #176]	; (960c <_dtoa_r+0xf48>)
    955a:	f7fc fd1f 	bl	5f9c <__aeabi_dsub>
    955e:	0032      	movs	r2, r6
    9560:	003b      	movs	r3, r7
    9562:	f7fa ff39 	bl	43d8 <__aeabi_dcmpgt>
    9566:	2800      	cmp	r0, #0
    9568:	d101      	bne.n	956e <_dtoa_r+0xeaa>
    956a:	e6e9      	b.n	9340 <_dtoa_r+0xc7c>
    956c:	001c      	movs	r4, r3
    956e:	1e63      	subs	r3, r4, #1
    9570:	781a      	ldrb	r2, [r3, #0]
    9572:	2a30      	cmp	r2, #48	; 0x30
    9574:	d0fa      	beq.n	956c <_dtoa_r+0xea8>
    9576:	f7ff fad6 	bl	8b26 <_dtoa_r+0x462>
    957a:	9b06      	ldr	r3, [sp, #24]
    957c:	464d      	mov	r5, r9
    957e:	4699      	mov	r9, r3
    9580:	9b02      	ldr	r3, [sp, #8]
    9582:	46c3      	mov	fp, r8
    9584:	2b39      	cmp	r3, #57	; 0x39
    9586:	d0b1      	beq.n	94ec <_dtoa_r+0xe28>
    9588:	2c00      	cmp	r4, #0
    958a:	dd00      	ble.n	958e <_dtoa_r+0xeca>
    958c:	e6b2      	b.n	92f4 <_dtoa_r+0xc30>
    958e:	e6b4      	b.n	92fa <_dtoa_r+0xc36>
    9590:	9b02      	ldr	r3, [sp, #8]
    9592:	465d      	mov	r5, fp
    9594:	469b      	mov	fp, r3
    9596:	9b14      	ldr	r3, [sp, #80]	; 0x50
    9598:	4654      	mov	r4, sl
    959a:	9305      	str	r3, [sp, #20]
    959c:	9a09      	ldr	r2, [sp, #36]	; 0x24
    959e:	4643      	mov	r3, r8
    95a0:	f7ff fbb2 	bl	8d08 <_dtoa_r+0x644>
    95a4:	9b02      	ldr	r3, [sp, #8]
    95a6:	2b00      	cmp	r3, #0
    95a8:	d000      	beq.n	95ac <_dtoa_r+0xee8>
    95aa:	e545      	b.n	9038 <_dtoa_r+0x974>
    95ac:	e4f2      	b.n	8f94 <_dtoa_r+0x8d0>
    95ae:	2800      	cmp	r0, #0
    95b0:	d000      	beq.n	95b4 <_dtoa_r+0xef0>
    95b2:	e6a2      	b.n	92fa <_dtoa_r+0xc36>
    95b4:	9b02      	ldr	r3, [sp, #8]
    95b6:	07db      	lsls	r3, r3, #31
    95b8:	d400      	bmi.n	95bc <_dtoa_r+0xef8>
    95ba:	e69e      	b.n	92fa <_dtoa_r+0xc36>
    95bc:	e696      	b.n	92ec <_dtoa_r+0xc28>
    95be:	9b22      	ldr	r3, [sp, #136]	; 0x88
    95c0:	2b02      	cmp	r3, #2
    95c2:	dc1a      	bgt.n	95fa <_dtoa_r+0xf36>
    95c4:	4649      	mov	r1, r9
    95c6:	f7fe ffd5 	bl	8574 <quorem>
    95ca:	9b09      	ldr	r3, [sp, #36]	; 0x24
    95cc:	3030      	adds	r0, #48	; 0x30
    95ce:	7018      	strb	r0, [r3, #0]
    95d0:	9b0f      	ldr	r3, [sp, #60]	; 0x3c
    95d2:	9002      	str	r0, [sp, #8]
    95d4:	9308      	str	r3, [sp, #32]
    95d6:	e48e      	b.n	8ef6 <_dtoa_r+0x832>
    95d8:	2302      	movs	r3, #2
    95da:	4698      	mov	r8, r3
    95dc:	f7ff f9bc 	bl	8958 <_dtoa_r+0x294>
    95e0:	9b14      	ldr	r3, [sp, #80]	; 0x50
    95e2:	9a09      	ldr	r2, [sp, #36]	; 0x24
    95e4:	9305      	str	r3, [sp, #20]
    95e6:	0015      	movs	r5, r2
    95e8:	4643      	mov	r3, r8
    95ea:	f7ff fb8d 	bl	8d08 <_dtoa_r+0x644>
    95ee:	2b04      	cmp	r3, #4
    95f0:	d100      	bne.n	95f4 <_dtoa_r+0xf30>
    95f2:	e445      	b.n	8e80 <_dtoa_r+0x7bc>
    95f4:	233c      	movs	r3, #60	; 0x3c
    95f6:	1a18      	subs	r0, r3, r0
    95f8:	e43b      	b.n	8e72 <_dtoa_r+0x7ae>
    95fa:	9b0f      	ldr	r3, [sp, #60]	; 0x3c
    95fc:	9308      	str	r3, [sp, #32]
    95fe:	e5f0      	b.n	91e2 <_dtoa_r+0xb1e>
    9600:	0000c018 	.word	0x0000c018
    9604:	0000c0e0 	.word	0x0000c0e0
    9608:	40240000 	.word	0x40240000
    960c:	3fe00000 	.word	0x3fe00000
    9610:	401c0000 	.word	0x401c0000
    9614:	fcc00000 	.word	0xfcc00000

00009618 <__sflush_r>:
    9618:	b5f0      	push	{r4, r5, r6, r7, lr}
    961a:	4647      	mov	r7, r8
    961c:	b480      	push	{r7}
    961e:	220c      	movs	r2, #12
    9620:	5e8b      	ldrsh	r3, [r1, r2]
    9622:	4680      	mov	r8, r0
    9624:	b29a      	uxth	r2, r3
    9626:	000c      	movs	r4, r1
    9628:	0711      	lsls	r1, r2, #28
    962a:	d440      	bmi.n	96ae <__sflush_r+0x96>
    962c:	2280      	movs	r2, #128	; 0x80
    962e:	0112      	lsls	r2, r2, #4
    9630:	4313      	orrs	r3, r2
    9632:	6862      	ldr	r2, [r4, #4]
    9634:	81a3      	strh	r3, [r4, #12]
    9636:	2a00      	cmp	r2, #0
    9638:	dc00      	bgt.n	963c <__sflush_r+0x24>
    963a:	e070      	b.n	971e <__sflush_r+0x106>
    963c:	6aa6      	ldr	r6, [r4, #40]	; 0x28
    963e:	2e00      	cmp	r6, #0
    9640:	d031      	beq.n	96a6 <__sflush_r+0x8e>
    9642:	4642      	mov	r2, r8
    9644:	4641      	mov	r1, r8
    9646:	6815      	ldr	r5, [r2, #0]
    9648:	2200      	movs	r2, #0
    964a:	b29b      	uxth	r3, r3
    964c:	600a      	str	r2, [r1, #0]
    964e:	04da      	lsls	r2, r3, #19
    9650:	d400      	bmi.n	9654 <__sflush_r+0x3c>
    9652:	e069      	b.n	9728 <__sflush_r+0x110>
    9654:	6d22      	ldr	r2, [r4, #80]	; 0x50
    9656:	075b      	lsls	r3, r3, #29
    9658:	d506      	bpl.n	9668 <__sflush_r+0x50>
    965a:	6863      	ldr	r3, [r4, #4]
    965c:	1ad2      	subs	r2, r2, r3
    965e:	6b23      	ldr	r3, [r4, #48]	; 0x30
    9660:	2b00      	cmp	r3, #0
    9662:	d001      	beq.n	9668 <__sflush_r+0x50>
    9664:	6be3      	ldr	r3, [r4, #60]	; 0x3c
    9666:	1ad2      	subs	r2, r2, r3
    9668:	2300      	movs	r3, #0
    966a:	69e1      	ldr	r1, [r4, #28]
    966c:	4640      	mov	r0, r8
    966e:	47b0      	blx	r6
    9670:	1c43      	adds	r3, r0, #1
    9672:	d03d      	beq.n	96f0 <__sflush_r+0xd8>
    9674:	89a2      	ldrh	r2, [r4, #12]
    9676:	4b3a      	ldr	r3, [pc, #232]	; (9760 <__sflush_r+0x148>)
    9678:	4013      	ands	r3, r2
    967a:	2200      	movs	r2, #0
    967c:	6062      	str	r2, [r4, #4]
    967e:	6922      	ldr	r2, [r4, #16]
    9680:	b21b      	sxth	r3, r3
    9682:	81a3      	strh	r3, [r4, #12]
    9684:	6022      	str	r2, [r4, #0]
    9686:	04db      	lsls	r3, r3, #19
    9688:	d447      	bmi.n	971a <__sflush_r+0x102>
    968a:	4643      	mov	r3, r8
    968c:	6b21      	ldr	r1, [r4, #48]	; 0x30
    968e:	601d      	str	r5, [r3, #0]
    9690:	2900      	cmp	r1, #0
    9692:	d008      	beq.n	96a6 <__sflush_r+0x8e>
    9694:	0023      	movs	r3, r4
    9696:	3340      	adds	r3, #64	; 0x40
    9698:	4299      	cmp	r1, r3
    969a:	d002      	beq.n	96a2 <__sflush_r+0x8a>
    969c:	4640      	mov	r0, r8
    969e:	f000 f96f 	bl	9980 <_free_r>
    96a2:	2300      	movs	r3, #0
    96a4:	6323      	str	r3, [r4, #48]	; 0x30
    96a6:	2000      	movs	r0, #0
    96a8:	bc04      	pop	{r2}
    96aa:	4690      	mov	r8, r2
    96ac:	bdf0      	pop	{r4, r5, r6, r7, pc}
    96ae:	6926      	ldr	r6, [r4, #16]
    96b0:	2e00      	cmp	r6, #0
    96b2:	d0f8      	beq.n	96a6 <__sflush_r+0x8e>
    96b4:	6823      	ldr	r3, [r4, #0]
    96b6:	6026      	str	r6, [r4, #0]
    96b8:	1b9d      	subs	r5, r3, r6
    96ba:	2300      	movs	r3, #0
    96bc:	0792      	lsls	r2, r2, #30
    96be:	d100      	bne.n	96c2 <__sflush_r+0xaa>
    96c0:	6963      	ldr	r3, [r4, #20]
    96c2:	60a3      	str	r3, [r4, #8]
    96c4:	2d00      	cmp	r5, #0
    96c6:	dc04      	bgt.n	96d2 <__sflush_r+0xba>
    96c8:	e7ed      	b.n	96a6 <__sflush_r+0x8e>
    96ca:	1836      	adds	r6, r6, r0
    96cc:	1a2d      	subs	r5, r5, r0
    96ce:	2d00      	cmp	r5, #0
    96d0:	dde9      	ble.n	96a6 <__sflush_r+0x8e>
    96d2:	002b      	movs	r3, r5
    96d4:	0032      	movs	r2, r6
    96d6:	69e1      	ldr	r1, [r4, #28]
    96d8:	4640      	mov	r0, r8
    96da:	6a67      	ldr	r7, [r4, #36]	; 0x24
    96dc:	47b8      	blx	r7
    96de:	2800      	cmp	r0, #0
    96e0:	dcf3      	bgt.n	96ca <__sflush_r+0xb2>
    96e2:	2340      	movs	r3, #64	; 0x40
    96e4:	2001      	movs	r0, #1
    96e6:	89a2      	ldrh	r2, [r4, #12]
    96e8:	4240      	negs	r0, r0
    96ea:	4313      	orrs	r3, r2
    96ec:	81a3      	strh	r3, [r4, #12]
    96ee:	e7db      	b.n	96a8 <__sflush_r+0x90>
    96f0:	4643      	mov	r3, r8
    96f2:	6819      	ldr	r1, [r3, #0]
    96f4:	291d      	cmp	r1, #29
    96f6:	d8f4      	bhi.n	96e2 <__sflush_r+0xca>
    96f8:	4b1a      	ldr	r3, [pc, #104]	; (9764 <__sflush_r+0x14c>)
    96fa:	2201      	movs	r2, #1
    96fc:	40cb      	lsrs	r3, r1
    96fe:	439a      	bics	r2, r3
    9700:	d1ef      	bne.n	96e2 <__sflush_r+0xca>
    9702:	89a6      	ldrh	r6, [r4, #12]
    9704:	4b16      	ldr	r3, [pc, #88]	; (9760 <__sflush_r+0x148>)
    9706:	6062      	str	r2, [r4, #4]
    9708:	4033      	ands	r3, r6
    970a:	6922      	ldr	r2, [r4, #16]
    970c:	b21b      	sxth	r3, r3
    970e:	81a3      	strh	r3, [r4, #12]
    9710:	6022      	str	r2, [r4, #0]
    9712:	04db      	lsls	r3, r3, #19
    9714:	d5b9      	bpl.n	968a <__sflush_r+0x72>
    9716:	2900      	cmp	r1, #0
    9718:	d1b7      	bne.n	968a <__sflush_r+0x72>
    971a:	6520      	str	r0, [r4, #80]	; 0x50
    971c:	e7b5      	b.n	968a <__sflush_r+0x72>
    971e:	6be2      	ldr	r2, [r4, #60]	; 0x3c
    9720:	2a00      	cmp	r2, #0
    9722:	dd00      	ble.n	9726 <__sflush_r+0x10e>
    9724:	e78a      	b.n	963c <__sflush_r+0x24>
    9726:	e7be      	b.n	96a6 <__sflush_r+0x8e>
    9728:	2200      	movs	r2, #0
    972a:	2301      	movs	r3, #1
    972c:	69e1      	ldr	r1, [r4, #28]
    972e:	4640      	mov	r0, r8
    9730:	47b0      	blx	r6
    9732:	0002      	movs	r2, r0
    9734:	1c43      	adds	r3, r0, #1
    9736:	d002      	beq.n	973e <__sflush_r+0x126>
    9738:	89a3      	ldrh	r3, [r4, #12]
    973a:	6aa6      	ldr	r6, [r4, #40]	; 0x28
    973c:	e78b      	b.n	9656 <__sflush_r+0x3e>
    973e:	4643      	mov	r3, r8
    9740:	681b      	ldr	r3, [r3, #0]
    9742:	2b00      	cmp	r3, #0
    9744:	d0f8      	beq.n	9738 <__sflush_r+0x120>
    9746:	2b1d      	cmp	r3, #29
    9748:	d001      	beq.n	974e <__sflush_r+0x136>
    974a:	2b16      	cmp	r3, #22
    974c:	d103      	bne.n	9756 <__sflush_r+0x13e>
    974e:	4643      	mov	r3, r8
    9750:	2000      	movs	r0, #0
    9752:	601d      	str	r5, [r3, #0]
    9754:	e7a8      	b.n	96a8 <__sflush_r+0x90>
    9756:	2340      	movs	r3, #64	; 0x40
    9758:	89a1      	ldrh	r1, [r4, #12]
    975a:	430b      	orrs	r3, r1
    975c:	81a3      	strh	r3, [r4, #12]
    975e:	e7a3      	b.n	96a8 <__sflush_r+0x90>
    9760:	fffff7ff 	.word	0xfffff7ff
    9764:	20400001 	.word	0x20400001

00009768 <_fflush_r>:
    9768:	b570      	push	{r4, r5, r6, lr}
    976a:	0004      	movs	r4, r0
    976c:	000d      	movs	r5, r1
    976e:	2800      	cmp	r0, #0
    9770:	d002      	beq.n	9778 <_fflush_r+0x10>
    9772:	6b83      	ldr	r3, [r0, #56]	; 0x38
    9774:	2b00      	cmp	r3, #0
    9776:	d009      	beq.n	978c <_fflush_r+0x24>
    9778:	220c      	movs	r2, #12
    977a:	5eab      	ldrsh	r3, [r5, r2]
    977c:	2000      	movs	r0, #0
    977e:	2b00      	cmp	r3, #0
    9780:	d003      	beq.n	978a <_fflush_r+0x22>
    9782:	0029      	movs	r1, r5
    9784:	0020      	movs	r0, r4
    9786:	f7ff ff47 	bl	9618 <__sflush_r>
    978a:	bd70      	pop	{r4, r5, r6, pc}
    978c:	f000 f882 	bl	9894 <__sinit>
    9790:	e7f2      	b.n	9778 <_fflush_r+0x10>
    9792:	46c0      	nop			; (mov r8, r8)

00009794 <_cleanup_r>:
    9794:	b510      	push	{r4, lr}
    9796:	4902      	ldr	r1, [pc, #8]	; (97a0 <_cleanup_r+0xc>)
    9798:	f000 fb62 	bl	9e60 <_fwalk_reent>
    979c:	bd10      	pop	{r4, pc}
    979e:	46c0      	nop			; (mov r8, r8)
    97a0:	0000b365 	.word	0x0000b365

000097a4 <__sinit.part.1>:
    97a4:	b5f8      	push	{r3, r4, r5, r6, r7, lr}
    97a6:	465f      	mov	r7, fp
    97a8:	4656      	mov	r6, sl
    97aa:	464d      	mov	r5, r9
    97ac:	4644      	mov	r4, r8
    97ae:	4b34      	ldr	r3, [pc, #208]	; (9880 <__sinit.part.1+0xdc>)
    97b0:	b4f0      	push	{r4, r5, r6, r7}
    97b2:	63c3      	str	r3, [r0, #60]	; 0x3c
    97b4:	23b8      	movs	r3, #184	; 0xb8
    97b6:	2400      	movs	r4, #0
    97b8:	2203      	movs	r2, #3
    97ba:	009b      	lsls	r3, r3, #2
    97bc:	50c4      	str	r4, [r0, r3]
    97be:	3304      	adds	r3, #4
    97c0:	6845      	ldr	r5, [r0, #4]
    97c2:	50c2      	str	r2, [r0, r3]
    97c4:	3308      	adds	r3, #8
    97c6:	18c2      	adds	r2, r0, r3
    97c8:	3b04      	subs	r3, #4
    97ca:	50c2      	str	r2, [r0, r3]
    97cc:	0006      	movs	r6, r0
    97ce:	2304      	movs	r3, #4
    97d0:	0028      	movs	r0, r5
    97d2:	602c      	str	r4, [r5, #0]
    97d4:	606c      	str	r4, [r5, #4]
    97d6:	60ac      	str	r4, [r5, #8]
    97d8:	81ab      	strh	r3, [r5, #12]
    97da:	666c      	str	r4, [r5, #100]	; 0x64
    97dc:	81ec      	strh	r4, [r5, #14]
    97de:	612c      	str	r4, [r5, #16]
    97e0:	616c      	str	r4, [r5, #20]
    97e2:	61ac      	str	r4, [r5, #24]
    97e4:	2208      	movs	r2, #8
    97e6:	2100      	movs	r1, #0
    97e8:	305c      	adds	r0, #92	; 0x5c
    97ea:	f7fd f929 	bl	6a40 <memset>
    97ee:	4b25      	ldr	r3, [pc, #148]	; (9884 <__sinit.part.1+0xe0>)
    97f0:	4f25      	ldr	r7, [pc, #148]	; (9888 <__sinit.part.1+0xe4>)
    97f2:	469a      	mov	sl, r3
    97f4:	622b      	str	r3, [r5, #32]
    97f6:	4b25      	ldr	r3, [pc, #148]	; (988c <__sinit.part.1+0xe8>)
    97f8:	62ef      	str	r7, [r5, #44]	; 0x2c
    97fa:	4699      	mov	r9, r3
    97fc:	626b      	str	r3, [r5, #36]	; 0x24
    97fe:	4b24      	ldr	r3, [pc, #144]	; (9890 <__sinit.part.1+0xec>)
    9800:	61ed      	str	r5, [r5, #28]
    9802:	62ab      	str	r3, [r5, #40]	; 0x28
    9804:	68b5      	ldr	r5, [r6, #8]
    9806:	4698      	mov	r8, r3
    9808:	2309      	movs	r3, #9
    980a:	0028      	movs	r0, r5
    980c:	81ab      	strh	r3, [r5, #12]
    980e:	3b08      	subs	r3, #8
    9810:	602c      	str	r4, [r5, #0]
    9812:	606c      	str	r4, [r5, #4]
    9814:	60ac      	str	r4, [r5, #8]
    9816:	666c      	str	r4, [r5, #100]	; 0x64
    9818:	81eb      	strh	r3, [r5, #14]
    981a:	612c      	str	r4, [r5, #16]
    981c:	616c      	str	r4, [r5, #20]
    981e:	61ac      	str	r4, [r5, #24]
    9820:	2208      	movs	r2, #8
    9822:	2100      	movs	r1, #0
    9824:	305c      	adds	r0, #92	; 0x5c
    9826:	469b      	mov	fp, r3
    9828:	f7fd f90a 	bl	6a40 <memset>
    982c:	4653      	mov	r3, sl
    982e:	622b      	str	r3, [r5, #32]
    9830:	464b      	mov	r3, r9
    9832:	626b      	str	r3, [r5, #36]	; 0x24
    9834:	4643      	mov	r3, r8
    9836:	62ef      	str	r7, [r5, #44]	; 0x2c
    9838:	62ab      	str	r3, [r5, #40]	; 0x28
    983a:	61ed      	str	r5, [r5, #28]
    983c:	68f5      	ldr	r5, [r6, #12]
    983e:	2312      	movs	r3, #18
    9840:	0028      	movs	r0, r5
    9842:	81ab      	strh	r3, [r5, #12]
    9844:	3b10      	subs	r3, #16
    9846:	81eb      	strh	r3, [r5, #14]
    9848:	602c      	str	r4, [r5, #0]
    984a:	606c      	str	r4, [r5, #4]
    984c:	60ac      	str	r4, [r5, #8]
    984e:	666c      	str	r4, [r5, #100]	; 0x64
    9850:	612c      	str	r4, [r5, #16]
    9852:	616c      	str	r4, [r5, #20]
    9854:	61ac      	str	r4, [r5, #24]
    9856:	2208      	movs	r2, #8
    9858:	2100      	movs	r1, #0
    985a:	305c      	adds	r0, #92	; 0x5c
    985c:	f7fd f8f0 	bl	6a40 <memset>
    9860:	4653      	mov	r3, sl
    9862:	622b      	str	r3, [r5, #32]
    9864:	464b      	mov	r3, r9
    9866:	626b      	str	r3, [r5, #36]	; 0x24
    9868:	4643      	mov	r3, r8
    986a:	62ab      	str	r3, [r5, #40]	; 0x28
    986c:	465b      	mov	r3, fp
    986e:	62ef      	str	r7, [r5, #44]	; 0x2c
    9870:	61ed      	str	r5, [r5, #28]
    9872:	63b3      	str	r3, [r6, #56]	; 0x38
    9874:	bc3c      	pop	{r2, r3, r4, r5}
    9876:	4690      	mov	r8, r2
    9878:	4699      	mov	r9, r3
    987a:	46a2      	mov	sl, r4
    987c:	46ab      	mov	fp, r5
    987e:	bdf8      	pop	{r3, r4, r5, r6, r7, pc}
    9880:	00009795 	.word	0x00009795
    9884:	0000b0bd 	.word	0x0000b0bd
    9888:	0000b14d 	.word	0x0000b14d
    988c:	0000b0e5 	.word	0x0000b0e5
    9890:	0000b121 	.word	0x0000b121

00009894 <__sinit>:
    9894:	6b83      	ldr	r3, [r0, #56]	; 0x38
    9896:	b510      	push	{r4, lr}
    9898:	2b00      	cmp	r3, #0
    989a:	d101      	bne.n	98a0 <__sinit+0xc>
    989c:	f7ff ff82 	bl	97a4 <__sinit.part.1>
    98a0:	bd10      	pop	{r4, pc}
    98a2:	46c0      	nop			; (mov r8, r8)

000098a4 <__sfp_lock_acquire>:
    98a4:	4770      	bx	lr
    98a6:	46c0      	nop			; (mov r8, r8)

000098a8 <__sfp_lock_release>:
    98a8:	4770      	bx	lr
    98aa:	46c0      	nop			; (mov r8, r8)

000098ac <__libc_fini_array>:
    98ac:	b570      	push	{r4, r5, r6, lr}
    98ae:	4b09      	ldr	r3, [pc, #36]	; (98d4 <__libc_fini_array+0x28>)
    98b0:	4c09      	ldr	r4, [pc, #36]	; (98d8 <__libc_fini_array+0x2c>)
    98b2:	1ae4      	subs	r4, r4, r3
    98b4:	10a4      	asrs	r4, r4, #2
    98b6:	d009      	beq.n	98cc <__libc_fini_array+0x20>
    98b8:	4a08      	ldr	r2, [pc, #32]	; (98dc <__libc_fini_array+0x30>)
    98ba:	18a5      	adds	r5, r4, r2
    98bc:	00ad      	lsls	r5, r5, #2
    98be:	18ed      	adds	r5, r5, r3
    98c0:	682b      	ldr	r3, [r5, #0]
    98c2:	3c01      	subs	r4, #1
    98c4:	4798      	blx	r3
    98c6:	3d04      	subs	r5, #4
    98c8:	2c00      	cmp	r4, #0
    98ca:	d1f9      	bne.n	98c0 <__libc_fini_array+0x14>
    98cc:	f002 fc2c 	bl	c128 <_fini>
    98d0:	bd70      	pop	{r4, r5, r6, pc}
    98d2:	46c0      	nop			; (mov r8, r8)
    98d4:	0000c134 	.word	0x0000c134
    98d8:	0000c138 	.word	0x0000c138
    98dc:	3fffffff 	.word	0x3fffffff

000098e0 <_malloc_trim_r>:
    98e0:	b5f8      	push	{r3, r4, r5, r6, r7, lr}
    98e2:	000c      	movs	r4, r1
    98e4:	0006      	movs	r6, r0
    98e6:	f000 fea1 	bl	a62c <__malloc_lock>
    98ea:	4f20      	ldr	r7, [pc, #128]	; (996c <_malloc_trim_r+0x8c>)
    98ec:	68bb      	ldr	r3, [r7, #8]
    98ee:	685d      	ldr	r5, [r3, #4]
    98f0:	2303      	movs	r3, #3
    98f2:	439d      	bics	r5, r3
    98f4:	4b1e      	ldr	r3, [pc, #120]	; (9970 <_malloc_trim_r+0x90>)
    98f6:	1b2c      	subs	r4, r5, r4
    98f8:	469c      	mov	ip, r3
    98fa:	4464      	add	r4, ip
    98fc:	0b24      	lsrs	r4, r4, #12
    98fe:	4b1d      	ldr	r3, [pc, #116]	; (9974 <_malloc_trim_r+0x94>)
    9900:	3c01      	subs	r4, #1
    9902:	0324      	lsls	r4, r4, #12
    9904:	429c      	cmp	r4, r3
    9906:	dd07      	ble.n	9918 <_malloc_trim_r+0x38>
    9908:	2100      	movs	r1, #0
    990a:	0030      	movs	r0, r6
    990c:	f001 fbc4 	bl	b098 <_sbrk_r>
    9910:	68bb      	ldr	r3, [r7, #8]
    9912:	195b      	adds	r3, r3, r5
    9914:	4298      	cmp	r0, r3
    9916:	d004      	beq.n	9922 <_malloc_trim_r+0x42>
    9918:	0030      	movs	r0, r6
    991a:	f000 fe89 	bl	a630 <__malloc_unlock>
    991e:	2000      	movs	r0, #0
    9920:	bdf8      	pop	{r3, r4, r5, r6, r7, pc}
    9922:	4261      	negs	r1, r4
    9924:	0030      	movs	r0, r6
    9926:	f001 fbb7 	bl	b098 <_sbrk_r>
    992a:	1c43      	adds	r3, r0, #1
    992c:	d00d      	beq.n	994a <_malloc_trim_r+0x6a>
    992e:	2301      	movs	r3, #1
    9930:	1b2d      	subs	r5, r5, r4
    9932:	68ba      	ldr	r2, [r7, #8]
    9934:	431d      	orrs	r5, r3
    9936:	4b10      	ldr	r3, [pc, #64]	; (9978 <_malloc_trim_r+0x98>)
    9938:	6055      	str	r5, [r2, #4]
    993a:	681a      	ldr	r2, [r3, #0]
    993c:	0030      	movs	r0, r6
    993e:	1b14      	subs	r4, r2, r4
    9940:	601c      	str	r4, [r3, #0]
    9942:	f000 fe75 	bl	a630 <__malloc_unlock>
    9946:	2001      	movs	r0, #1
    9948:	e7ea      	b.n	9920 <_malloc_trim_r+0x40>
    994a:	2100      	movs	r1, #0
    994c:	0030      	movs	r0, r6
    994e:	f001 fba3 	bl	b098 <_sbrk_r>
    9952:	68bb      	ldr	r3, [r7, #8]
    9954:	1ac2      	subs	r2, r0, r3
    9956:	2a0f      	cmp	r2, #15
    9958:	ddde      	ble.n	9918 <_malloc_trim_r+0x38>
    995a:	4908      	ldr	r1, [pc, #32]	; (997c <_malloc_trim_r+0x9c>)
    995c:	6809      	ldr	r1, [r1, #0]
    995e:	1a40      	subs	r0, r0, r1
    9960:	4905      	ldr	r1, [pc, #20]	; (9978 <_malloc_trim_r+0x98>)
    9962:	6008      	str	r0, [r1, #0]
    9964:	2101      	movs	r1, #1
    9966:	430a      	orrs	r2, r1
    9968:	605a      	str	r2, [r3, #4]
    996a:	e7d5      	b.n	9918 <_malloc_trim_r+0x38>
    996c:	200004b0 	.word	0x200004b0
    9970:	00000fef 	.word	0x00000fef
    9974:	00000fff 	.word	0x00000fff
    9978:	20000af8 	.word	0x20000af8
    997c:	200008bc 	.word	0x200008bc

00009980 <_free_r>:
    9980:	b5f0      	push	{r4, r5, r6, r7, lr}
    9982:	4647      	mov	r7, r8
    9984:	0005      	movs	r5, r0
    9986:	b480      	push	{r7}
    9988:	1e0c      	subs	r4, r1, #0
    998a:	d03e      	beq.n	9a0a <_free_r+0x8a>
    998c:	f000 fe4e 	bl	a62c <__malloc_lock>
    9990:	2301      	movs	r3, #1
    9992:	0021      	movs	r1, r4
    9994:	4698      	mov	r8, r3
    9996:	3908      	subs	r1, #8
    9998:	684e      	ldr	r6, [r1, #4]
    999a:	4642      	mov	r2, r8
    999c:	0033      	movs	r3, r6
    999e:	2003      	movs	r0, #3
    99a0:	4393      	bics	r3, r2
    99a2:	18cc      	adds	r4, r1, r3
    99a4:	6862      	ldr	r2, [r4, #4]
    99a6:	4382      	bics	r2, r0
    99a8:	4860      	ldr	r0, [pc, #384]	; (9b2c <_free_r+0x1ac>)
    99aa:	6887      	ldr	r7, [r0, #8]
    99ac:	42bc      	cmp	r4, r7
    99ae:	d05a      	beq.n	9a66 <_free_r+0xe6>
    99b0:	4647      	mov	r7, r8
    99b2:	6062      	str	r2, [r4, #4]
    99b4:	4237      	tst	r7, r6
    99b6:	d10b      	bne.n	99d0 <_free_r+0x50>
    99b8:	2708      	movs	r7, #8
    99ba:	46bc      	mov	ip, r7
    99bc:	680e      	ldr	r6, [r1, #0]
    99be:	4484      	add	ip, r0
    99c0:	1b89      	subs	r1, r1, r6
    99c2:	199b      	adds	r3, r3, r6
    99c4:	688e      	ldr	r6, [r1, #8]
    99c6:	4566      	cmp	r6, ip
    99c8:	d066      	beq.n	9a98 <_free_r+0x118>
    99ca:	68cf      	ldr	r7, [r1, #12]
    99cc:	60f7      	str	r7, [r6, #12]
    99ce:	60be      	str	r6, [r7, #8]
    99d0:	2601      	movs	r6, #1
    99d2:	18a7      	adds	r7, r4, r2
    99d4:	687f      	ldr	r7, [r7, #4]
    99d6:	4237      	tst	r7, r6
    99d8:	d036      	beq.n	9a48 <_free_r+0xc8>
    99da:	4a55      	ldr	r2, [pc, #340]	; (9b30 <_free_r+0x1b0>)
    99dc:	431e      	orrs	r6, r3
    99de:	604e      	str	r6, [r1, #4]
    99e0:	50cb      	str	r3, [r1, r3]
    99e2:	4293      	cmp	r3, r2
    99e4:	d814      	bhi.n	9a10 <_free_r+0x90>
    99e6:	08db      	lsrs	r3, r3, #3
    99e8:	3aff      	subs	r2, #255	; 0xff
    99ea:	109c      	asrs	r4, r3, #2
    99ec:	3aff      	subs	r2, #255	; 0xff
    99ee:	40a2      	lsls	r2, r4
    99f0:	6844      	ldr	r4, [r0, #4]
    99f2:	00db      	lsls	r3, r3, #3
    99f4:	4322      	orrs	r2, r4
    99f6:	6042      	str	r2, [r0, #4]
    99f8:	1818      	adds	r0, r3, r0
    99fa:	6883      	ldr	r3, [r0, #8]
    99fc:	60c8      	str	r0, [r1, #12]
    99fe:	608b      	str	r3, [r1, #8]
    9a00:	6081      	str	r1, [r0, #8]
    9a02:	60d9      	str	r1, [r3, #12]
    9a04:	0028      	movs	r0, r5
    9a06:	f000 fe13 	bl	a630 <__malloc_unlock>
    9a0a:	bc04      	pop	{r2}
    9a0c:	4690      	mov	r8, r2
    9a0e:	bdf0      	pop	{r4, r5, r6, r7, pc}
    9a10:	0a5a      	lsrs	r2, r3, #9
    9a12:	2a04      	cmp	r2, #4
    9a14:	d84f      	bhi.n	9ab6 <_free_r+0x136>
    9a16:	099c      	lsrs	r4, r3, #6
    9a18:	0026      	movs	r6, r4
    9a1a:	3439      	adds	r4, #57	; 0x39
    9a1c:	3638      	adds	r6, #56	; 0x38
    9a1e:	0064      	lsls	r4, r4, #1
    9a20:	00a4      	lsls	r4, r4, #2
    9a22:	1904      	adds	r4, r0, r4
    9a24:	3c08      	subs	r4, #8
    9a26:	68a2      	ldr	r2, [r4, #8]
    9a28:	2703      	movs	r7, #3
    9a2a:	4294      	cmp	r4, r2
    9a2c:	d04a      	beq.n	9ac4 <_free_r+0x144>
    9a2e:	6850      	ldr	r0, [r2, #4]
    9a30:	43b8      	bics	r0, r7
    9a32:	4283      	cmp	r3, r0
    9a34:	d202      	bcs.n	9a3c <_free_r+0xbc>
    9a36:	6892      	ldr	r2, [r2, #8]
    9a38:	4294      	cmp	r4, r2
    9a3a:	d1f8      	bne.n	9a2e <_free_r+0xae>
    9a3c:	68d4      	ldr	r4, [r2, #12]
    9a3e:	60cc      	str	r4, [r1, #12]
    9a40:	608a      	str	r2, [r1, #8]
    9a42:	60a1      	str	r1, [r4, #8]
    9a44:	60d1      	str	r1, [r2, #12]
    9a46:	e7dd      	b.n	9a04 <_free_r+0x84>
    9a48:	189b      	adds	r3, r3, r2
    9a4a:	4f3a      	ldr	r7, [pc, #232]	; (9b34 <_free_r+0x1b4>)
    9a4c:	68a2      	ldr	r2, [r4, #8]
    9a4e:	42ba      	cmp	r2, r7
    9a50:	d040      	beq.n	9ad4 <_free_r+0x154>
    9a52:	68e4      	ldr	r4, [r4, #12]
    9a54:	431e      	orrs	r6, r3
    9a56:	60d4      	str	r4, [r2, #12]
    9a58:	60a2      	str	r2, [r4, #8]
    9a5a:	4a35      	ldr	r2, [pc, #212]	; (9b30 <_free_r+0x1b0>)
    9a5c:	604e      	str	r6, [r1, #4]
    9a5e:	50cb      	str	r3, [r1, r3]
    9a60:	4293      	cmp	r3, r2
    9a62:	d8d5      	bhi.n	9a10 <_free_r+0x90>
    9a64:	e7bf      	b.n	99e6 <_free_r+0x66>
    9a66:	189b      	adds	r3, r3, r2
    9a68:	4642      	mov	r2, r8
    9a6a:	4232      	tst	r2, r6
    9a6c:	d106      	bne.n	9a7c <_free_r+0xfc>
    9a6e:	680a      	ldr	r2, [r1, #0]
    9a70:	1a89      	subs	r1, r1, r2
    9a72:	688c      	ldr	r4, [r1, #8]
    9a74:	189b      	adds	r3, r3, r2
    9a76:	68ca      	ldr	r2, [r1, #12]
    9a78:	60e2      	str	r2, [r4, #12]
    9a7a:	6094      	str	r4, [r2, #8]
    9a7c:	2401      	movs	r4, #1
    9a7e:	4a2e      	ldr	r2, [pc, #184]	; (9b38 <_free_r+0x1b8>)
    9a80:	431c      	orrs	r4, r3
    9a82:	6812      	ldr	r2, [r2, #0]
    9a84:	604c      	str	r4, [r1, #4]
    9a86:	6081      	str	r1, [r0, #8]
    9a88:	4293      	cmp	r3, r2
    9a8a:	d3bb      	bcc.n	9a04 <_free_r+0x84>
    9a8c:	4b2b      	ldr	r3, [pc, #172]	; (9b3c <_free_r+0x1bc>)
    9a8e:	0028      	movs	r0, r5
    9a90:	6819      	ldr	r1, [r3, #0]
    9a92:	f7ff ff25 	bl	98e0 <_malloc_trim_r>
    9a96:	e7b5      	b.n	9a04 <_free_r+0x84>
    9a98:	4646      	mov	r6, r8
    9a9a:	18a0      	adds	r0, r4, r2
    9a9c:	6840      	ldr	r0, [r0, #4]
    9a9e:	4230      	tst	r0, r6
    9aa0:	d13e      	bne.n	9b20 <_free_r+0x1a0>
    9aa2:	68a0      	ldr	r0, [r4, #8]
    9aa4:	18d3      	adds	r3, r2, r3
    9aa6:	68e2      	ldr	r2, [r4, #12]
    9aa8:	60c2      	str	r2, [r0, #12]
    9aaa:	6090      	str	r0, [r2, #8]
    9aac:	4642      	mov	r2, r8
    9aae:	431a      	orrs	r2, r3
    9ab0:	604a      	str	r2, [r1, #4]
    9ab2:	50cb      	str	r3, [r1, r3]
    9ab4:	e7a6      	b.n	9a04 <_free_r+0x84>
    9ab6:	2a14      	cmp	r2, #20
    9ab8:	d814      	bhi.n	9ae4 <_free_r+0x164>
    9aba:	0016      	movs	r6, r2
    9abc:	325c      	adds	r2, #92	; 0x5c
    9abe:	365b      	adds	r6, #91	; 0x5b
    9ac0:	0054      	lsls	r4, r2, #1
    9ac2:	e7ad      	b.n	9a20 <_free_r+0xa0>
    9ac4:	2301      	movs	r3, #1
    9ac6:	10b6      	asrs	r6, r6, #2
    9ac8:	40b3      	lsls	r3, r6
    9aca:	6842      	ldr	r2, [r0, #4]
    9acc:	4313      	orrs	r3, r2
    9ace:	6043      	str	r3, [r0, #4]
    9ad0:	0022      	movs	r2, r4
    9ad2:	e7b4      	b.n	9a3e <_free_r+0xbe>
    9ad4:	431e      	orrs	r6, r3
    9ad6:	60d1      	str	r1, [r2, #12]
    9ad8:	6091      	str	r1, [r2, #8]
    9ada:	60ca      	str	r2, [r1, #12]
    9adc:	608a      	str	r2, [r1, #8]
    9ade:	604e      	str	r6, [r1, #4]
    9ae0:	50cb      	str	r3, [r1, r3]
    9ae2:	e78f      	b.n	9a04 <_free_r+0x84>
    9ae4:	2a54      	cmp	r2, #84	; 0x54
    9ae6:	d805      	bhi.n	9af4 <_free_r+0x174>
    9ae8:	0b1c      	lsrs	r4, r3, #12
    9aea:	0026      	movs	r6, r4
    9aec:	346f      	adds	r4, #111	; 0x6f
    9aee:	366e      	adds	r6, #110	; 0x6e
    9af0:	0064      	lsls	r4, r4, #1
    9af2:	e795      	b.n	9a20 <_free_r+0xa0>
    9af4:	24aa      	movs	r4, #170	; 0xaa
    9af6:	0064      	lsls	r4, r4, #1
    9af8:	42a2      	cmp	r2, r4
    9afa:	d805      	bhi.n	9b08 <_free_r+0x188>
    9afc:	0bdc      	lsrs	r4, r3, #15
    9afe:	0026      	movs	r6, r4
    9b00:	3478      	adds	r4, #120	; 0x78
    9b02:	3677      	adds	r6, #119	; 0x77
    9b04:	0064      	lsls	r4, r4, #1
    9b06:	e78b      	b.n	9a20 <_free_r+0xa0>
    9b08:	4c0d      	ldr	r4, [pc, #52]	; (9b40 <_free_r+0x1c0>)
    9b0a:	42a2      	cmp	r2, r4
    9b0c:	d805      	bhi.n	9b1a <_free_r+0x19a>
    9b0e:	0c9c      	lsrs	r4, r3, #18
    9b10:	0026      	movs	r6, r4
    9b12:	347d      	adds	r4, #125	; 0x7d
    9b14:	367c      	adds	r6, #124	; 0x7c
    9b16:	0064      	lsls	r4, r4, #1
    9b18:	e782      	b.n	9a20 <_free_r+0xa0>
    9b1a:	24fe      	movs	r4, #254	; 0xfe
    9b1c:	267e      	movs	r6, #126	; 0x7e
    9b1e:	e77f      	b.n	9a20 <_free_r+0xa0>
    9b20:	4642      	mov	r2, r8
    9b22:	431a      	orrs	r2, r3
    9b24:	604a      	str	r2, [r1, #4]
    9b26:	50cb      	str	r3, [r1, r3]
    9b28:	e76c      	b.n	9a04 <_free_r+0x84>
    9b2a:	46c0      	nop			; (mov r8, r8)
    9b2c:	200004b0 	.word	0x200004b0
    9b30:	000001ff 	.word	0x000001ff
    9b34:	200004b8 	.word	0x200004b8
    9b38:	200008b8 	.word	0x200008b8
    9b3c:	20000af4 	.word	0x20000af4
    9b40:	00000554 	.word	0x00000554

00009b44 <__sfvwrite_r>:
    9b44:	b5f0      	push	{r4, r5, r6, r7, lr}
    9b46:	4656      	mov	r6, sl
    9b48:	4644      	mov	r4, r8
    9b4a:	465f      	mov	r7, fp
    9b4c:	464d      	mov	r5, r9
    9b4e:	b4f0      	push	{r4, r5, r6, r7}
    9b50:	6893      	ldr	r3, [r2, #8]
    9b52:	b085      	sub	sp, #20
    9b54:	9001      	str	r0, [sp, #4]
    9b56:	000c      	movs	r4, r1
    9b58:	4692      	mov	sl, r2
    9b5a:	2b00      	cmp	r3, #0
    9b5c:	d025      	beq.n	9baa <__sfvwrite_r+0x66>
    9b5e:	898b      	ldrh	r3, [r1, #12]
    9b60:	071a      	lsls	r2, r3, #28
    9b62:	d52a      	bpl.n	9bba <__sfvwrite_r+0x76>
    9b64:	690a      	ldr	r2, [r1, #16]
    9b66:	2a00      	cmp	r2, #0
    9b68:	d027      	beq.n	9bba <__sfvwrite_r+0x76>
    9b6a:	4652      	mov	r2, sl
    9b6c:	6812      	ldr	r2, [r2, #0]
    9b6e:	4693      	mov	fp, r2
    9b70:	079a      	lsls	r2, r3, #30
    9b72:	d52f      	bpl.n	9bd4 <__sfvwrite_r+0x90>
    9b74:	4bb7      	ldr	r3, [pc, #732]	; (9e54 <__sfvwrite_r+0x310>)
    9b76:	2600      	movs	r6, #0
    9b78:	2500      	movs	r5, #0
    9b7a:	4698      	mov	r8, r3
    9b7c:	2d00      	cmp	r5, #0
    9b7e:	d100      	bne.n	9b82 <__sfvwrite_r+0x3e>
    9b80:	e06d      	b.n	9c5e <__sfvwrite_r+0x11a>
    9b82:	1e2b      	subs	r3, r5, #0
    9b84:	4543      	cmp	r3, r8
    9b86:	d900      	bls.n	9b8a <__sfvwrite_r+0x46>
    9b88:	4bb2      	ldr	r3, [pc, #712]	; (9e54 <__sfvwrite_r+0x310>)
    9b8a:	0032      	movs	r2, r6
    9b8c:	69e1      	ldr	r1, [r4, #28]
    9b8e:	9801      	ldr	r0, [sp, #4]
    9b90:	6a67      	ldr	r7, [r4, #36]	; 0x24
    9b92:	47b8      	blx	r7
    9b94:	2800      	cmp	r0, #0
    9b96:	dc00      	bgt.n	9b9a <__sfvwrite_r+0x56>
    9b98:	e079      	b.n	9c8e <__sfvwrite_r+0x14a>
    9b9a:	4653      	mov	r3, sl
    9b9c:	689b      	ldr	r3, [r3, #8]
    9b9e:	1836      	adds	r6, r6, r0
    9ba0:	1a2d      	subs	r5, r5, r0
    9ba2:	1a18      	subs	r0, r3, r0
    9ba4:	4653      	mov	r3, sl
    9ba6:	6098      	str	r0, [r3, #8]
    9ba8:	d1e8      	bne.n	9b7c <__sfvwrite_r+0x38>
    9baa:	2000      	movs	r0, #0
    9bac:	b005      	add	sp, #20
    9bae:	bc3c      	pop	{r2, r3, r4, r5}
    9bb0:	4690      	mov	r8, r2
    9bb2:	4699      	mov	r9, r3
    9bb4:	46a2      	mov	sl, r4
    9bb6:	46ab      	mov	fp, r5
    9bb8:	bdf0      	pop	{r4, r5, r6, r7, pc}
    9bba:	0021      	movs	r1, r4
    9bbc:	9801      	ldr	r0, [sp, #4]
    9bbe:	f7fe fc5b 	bl	8478 <__swsetup_r>
    9bc2:	2800      	cmp	r0, #0
    9bc4:	d000      	beq.n	9bc8 <__sfvwrite_r+0x84>
    9bc6:	e13b      	b.n	9e40 <__sfvwrite_r+0x2fc>
    9bc8:	4652      	mov	r2, sl
    9bca:	89a3      	ldrh	r3, [r4, #12]
    9bcc:	6812      	ldr	r2, [r2, #0]
    9bce:	4693      	mov	fp, r2
    9bd0:	079a      	lsls	r2, r3, #30
    9bd2:	d4cf      	bmi.n	9b74 <__sfvwrite_r+0x30>
    9bd4:	07da      	lsls	r2, r3, #31
    9bd6:	d562      	bpl.n	9c9e <__sfvwrite_r+0x15a>
    9bd8:	2300      	movs	r3, #0
    9bda:	2700      	movs	r7, #0
    9bdc:	4699      	mov	r9, r3
    9bde:	001d      	movs	r5, r3
    9be0:	9302      	str	r3, [sp, #8]
    9be2:	2f00      	cmp	r7, #0
    9be4:	d030      	beq.n	9c48 <__sfvwrite_r+0x104>
    9be6:	9b02      	ldr	r3, [sp, #8]
    9be8:	2b00      	cmp	r3, #0
    9bea:	d100      	bne.n	9bee <__sfvwrite_r+0xaa>
    9bec:	e0c3      	b.n	9d76 <__sfvwrite_r+0x232>
    9bee:	1e2e      	subs	r6, r5, #0
    9bf0:	42be      	cmp	r6, r7
    9bf2:	d900      	bls.n	9bf6 <__sfvwrite_r+0xb2>
    9bf4:	003e      	movs	r6, r7
    9bf6:	6820      	ldr	r0, [r4, #0]
    9bf8:	6922      	ldr	r2, [r4, #16]
    9bfa:	46b0      	mov	r8, r6
    9bfc:	6963      	ldr	r3, [r4, #20]
    9bfe:	4290      	cmp	r0, r2
    9c00:	d907      	bls.n	9c12 <__sfvwrite_r+0xce>
    9c02:	68a2      	ldr	r2, [r4, #8]
    9c04:	4694      	mov	ip, r2
    9c06:	449c      	add	ip, r3
    9c08:	4662      	mov	r2, ip
    9c0a:	9203      	str	r2, [sp, #12]
    9c0c:	4566      	cmp	r6, ip
    9c0e:	dd00      	ble.n	9c12 <__sfvwrite_r+0xce>
    9c10:	e0ef      	b.n	9df2 <__sfvwrite_r+0x2ae>
    9c12:	429e      	cmp	r6, r3
    9c14:	da00      	bge.n	9c18 <__sfvwrite_r+0xd4>
    9c16:	e092      	b.n	9d3e <__sfvwrite_r+0x1fa>
    9c18:	464a      	mov	r2, r9
    9c1a:	69e1      	ldr	r1, [r4, #28]
    9c1c:	9801      	ldr	r0, [sp, #4]
    9c1e:	6a66      	ldr	r6, [r4, #36]	; 0x24
    9c20:	47b0      	blx	r6
    9c22:	4680      	mov	r8, r0
    9c24:	2800      	cmp	r0, #0
    9c26:	dd32      	ble.n	9c8e <__sfvwrite_r+0x14a>
    9c28:	4643      	mov	r3, r8
    9c2a:	1aed      	subs	r5, r5, r3
    9c2c:	d100      	bne.n	9c30 <__sfvwrite_r+0xec>
    9c2e:	e095      	b.n	9d5c <__sfvwrite_r+0x218>
    9c30:	4643      	mov	r3, r8
    9c32:	1aff      	subs	r7, r7, r3
    9c34:	4653      	mov	r3, sl
    9c36:	4642      	mov	r2, r8
    9c38:	689b      	ldr	r3, [r3, #8]
    9c3a:	44c1      	add	r9, r8
    9c3c:	1a9b      	subs	r3, r3, r2
    9c3e:	4652      	mov	r2, sl
    9c40:	6093      	str	r3, [r2, #8]
    9c42:	d0b2      	beq.n	9baa <__sfvwrite_r+0x66>
    9c44:	2f00      	cmp	r7, #0
    9c46:	d1ce      	bne.n	9be6 <__sfvwrite_r+0xa2>
    9c48:	465b      	mov	r3, fp
    9c4a:	681b      	ldr	r3, [r3, #0]
    9c4c:	4699      	mov	r9, r3
    9c4e:	465b      	mov	r3, fp
    9c50:	685f      	ldr	r7, [r3, #4]
    9c52:	2308      	movs	r3, #8
    9c54:	469c      	mov	ip, r3
    9c56:	2300      	movs	r3, #0
    9c58:	44e3      	add	fp, ip
    9c5a:	9302      	str	r3, [sp, #8]
    9c5c:	e7c1      	b.n	9be2 <__sfvwrite_r+0x9e>
    9c5e:	465b      	mov	r3, fp
    9c60:	681e      	ldr	r6, [r3, #0]
    9c62:	685d      	ldr	r5, [r3, #4]
    9c64:	2308      	movs	r3, #8
    9c66:	469c      	mov	ip, r3
    9c68:	44e3      	add	fp, ip
    9c6a:	e787      	b.n	9b7c <__sfvwrite_r+0x38>
    9c6c:	4b7a      	ldr	r3, [pc, #488]	; (9e58 <__sfvwrite_r+0x314>)
    9c6e:	1e30      	subs	r0, r6, #0
    9c70:	4298      	cmp	r0, r3
    9c72:	d900      	bls.n	9c76 <__sfvwrite_r+0x132>
    9c74:	0018      	movs	r0, r3
    9c76:	4641      	mov	r1, r8
    9c78:	f7fa fa98 	bl	41ac <__aeabi_idiv>
    9c7c:	4643      	mov	r3, r8
    9c7e:	003a      	movs	r2, r7
    9c80:	4343      	muls	r3, r0
    9c82:	69e1      	ldr	r1, [r4, #28]
    9c84:	9801      	ldr	r0, [sp, #4]
    9c86:	6a65      	ldr	r5, [r4, #36]	; 0x24
    9c88:	47a8      	blx	r5
    9c8a:	2800      	cmp	r0, #0
    9c8c:	dc23      	bgt.n	9cd6 <__sfvwrite_r+0x192>
    9c8e:	230c      	movs	r3, #12
    9c90:	5ee2      	ldrsh	r2, [r4, r3]
    9c92:	2340      	movs	r3, #64	; 0x40
    9c94:	2001      	movs	r0, #1
    9c96:	4313      	orrs	r3, r2
    9c98:	81a3      	strh	r3, [r4, #12]
    9c9a:	4240      	negs	r0, r0
    9c9c:	e786      	b.n	9bac <__sfvwrite_r+0x68>
    9c9e:	2700      	movs	r7, #0
    9ca0:	2600      	movs	r6, #0
    9ca2:	2e00      	cmp	r6, #0
    9ca4:	d023      	beq.n	9cee <__sfvwrite_r+0x1aa>
    9ca6:	2280      	movs	r2, #128	; 0x80
    9ca8:	0092      	lsls	r2, r2, #2
    9caa:	68a5      	ldr	r5, [r4, #8]
    9cac:	4213      	tst	r3, r2
    9cae:	d025      	beq.n	9cfc <__sfvwrite_r+0x1b8>
    9cb0:	46a8      	mov	r8, r5
    9cb2:	42ae      	cmp	r6, r5
    9cb4:	d35b      	bcc.n	9d6e <__sfvwrite_r+0x22a>
    9cb6:	2290      	movs	r2, #144	; 0x90
    9cb8:	00d2      	lsls	r2, r2, #3
    9cba:	4213      	tst	r3, r2
    9cbc:	d168      	bne.n	9d90 <__sfvwrite_r+0x24c>
    9cbe:	6820      	ldr	r0, [r4, #0]
    9cc0:	4642      	mov	r2, r8
    9cc2:	0039      	movs	r1, r7
    9cc4:	f000 fc66 	bl	a594 <memmove>
    9cc8:	0030      	movs	r0, r6
    9cca:	68a3      	ldr	r3, [r4, #8]
    9ccc:	1b5d      	subs	r5, r3, r5
    9cce:	6823      	ldr	r3, [r4, #0]
    9cd0:	60a5      	str	r5, [r4, #8]
    9cd2:	4443      	add	r3, r8
    9cd4:	6023      	str	r3, [r4, #0]
    9cd6:	4653      	mov	r3, sl
    9cd8:	689b      	ldr	r3, [r3, #8]
    9cda:	183f      	adds	r7, r7, r0
    9cdc:	1a36      	subs	r6, r6, r0
    9cde:	1a18      	subs	r0, r3, r0
    9ce0:	4653      	mov	r3, sl
    9ce2:	6098      	str	r0, [r3, #8]
    9ce4:	d100      	bne.n	9ce8 <__sfvwrite_r+0x1a4>
    9ce6:	e760      	b.n	9baa <__sfvwrite_r+0x66>
    9ce8:	89a3      	ldrh	r3, [r4, #12]
    9cea:	2e00      	cmp	r6, #0
    9cec:	d1db      	bne.n	9ca6 <__sfvwrite_r+0x162>
    9cee:	465a      	mov	r2, fp
    9cf0:	6817      	ldr	r7, [r2, #0]
    9cf2:	6856      	ldr	r6, [r2, #4]
    9cf4:	2208      	movs	r2, #8
    9cf6:	4694      	mov	ip, r2
    9cf8:	44e3      	add	fp, ip
    9cfa:	e7d2      	b.n	9ca2 <__sfvwrite_r+0x15e>
    9cfc:	6820      	ldr	r0, [r4, #0]
    9cfe:	6923      	ldr	r3, [r4, #16]
    9d00:	4298      	cmp	r0, r3
    9d02:	d803      	bhi.n	9d0c <__sfvwrite_r+0x1c8>
    9d04:	6963      	ldr	r3, [r4, #20]
    9d06:	4698      	mov	r8, r3
    9d08:	429e      	cmp	r6, r3
    9d0a:	d2af      	bcs.n	9c6c <__sfvwrite_r+0x128>
    9d0c:	42b5      	cmp	r5, r6
    9d0e:	d900      	bls.n	9d12 <__sfvwrite_r+0x1ce>
    9d10:	0035      	movs	r5, r6
    9d12:	002a      	movs	r2, r5
    9d14:	0039      	movs	r1, r7
    9d16:	f000 fc3d 	bl	a594 <memmove>
    9d1a:	68a3      	ldr	r3, [r4, #8]
    9d1c:	6822      	ldr	r2, [r4, #0]
    9d1e:	1b5b      	subs	r3, r3, r5
    9d20:	1952      	adds	r2, r2, r5
    9d22:	60a3      	str	r3, [r4, #8]
    9d24:	6022      	str	r2, [r4, #0]
    9d26:	2b00      	cmp	r3, #0
    9d28:	d001      	beq.n	9d2e <__sfvwrite_r+0x1ea>
    9d2a:	0028      	movs	r0, r5
    9d2c:	e7d3      	b.n	9cd6 <__sfvwrite_r+0x192>
    9d2e:	0021      	movs	r1, r4
    9d30:	9801      	ldr	r0, [sp, #4]
    9d32:	f7ff fd19 	bl	9768 <_fflush_r>
    9d36:	2800      	cmp	r0, #0
    9d38:	d1a9      	bne.n	9c8e <__sfvwrite_r+0x14a>
    9d3a:	0028      	movs	r0, r5
    9d3c:	e7cb      	b.n	9cd6 <__sfvwrite_r+0x192>
    9d3e:	0032      	movs	r2, r6
    9d40:	4649      	mov	r1, r9
    9d42:	f000 fc27 	bl	a594 <memmove>
    9d46:	68a3      	ldr	r3, [r4, #8]
    9d48:	1b9b      	subs	r3, r3, r6
    9d4a:	60a3      	str	r3, [r4, #8]
    9d4c:	6823      	ldr	r3, [r4, #0]
    9d4e:	469c      	mov	ip, r3
    9d50:	4643      	mov	r3, r8
    9d52:	4466      	add	r6, ip
    9d54:	6026      	str	r6, [r4, #0]
    9d56:	1aed      	subs	r5, r5, r3
    9d58:	d000      	beq.n	9d5c <__sfvwrite_r+0x218>
    9d5a:	e769      	b.n	9c30 <__sfvwrite_r+0xec>
    9d5c:	0021      	movs	r1, r4
    9d5e:	9801      	ldr	r0, [sp, #4]
    9d60:	f7ff fd02 	bl	9768 <_fflush_r>
    9d64:	2800      	cmp	r0, #0
    9d66:	d192      	bne.n	9c8e <__sfvwrite_r+0x14a>
    9d68:	2300      	movs	r3, #0
    9d6a:	9302      	str	r3, [sp, #8]
    9d6c:	e760      	b.n	9c30 <__sfvwrite_r+0xec>
    9d6e:	0035      	movs	r5, r6
    9d70:	6820      	ldr	r0, [r4, #0]
    9d72:	46b0      	mov	r8, r6
    9d74:	e7a4      	b.n	9cc0 <__sfvwrite_r+0x17c>
    9d76:	003a      	movs	r2, r7
    9d78:	210a      	movs	r1, #10
    9d7a:	4648      	mov	r0, r9
    9d7c:	f000 fbc2 	bl	a504 <memchr>
    9d80:	2800      	cmp	r0, #0
    9d82:	d059      	beq.n	9e38 <__sfvwrite_r+0x2f4>
    9d84:	464b      	mov	r3, r9
    9d86:	3001      	adds	r0, #1
    9d88:	1ac5      	subs	r5, r0, r3
    9d8a:	2301      	movs	r3, #1
    9d8c:	9302      	str	r3, [sp, #8]
    9d8e:	e72e      	b.n	9bee <__sfvwrite_r+0xaa>
    9d90:	6921      	ldr	r1, [r4, #16]
    9d92:	6822      	ldr	r2, [r4, #0]
    9d94:	1a52      	subs	r2, r2, r1
    9d96:	4691      	mov	r9, r2
    9d98:	6962      	ldr	r2, [r4, #20]
    9d9a:	0050      	lsls	r0, r2, #1
    9d9c:	1882      	adds	r2, r0, r2
    9d9e:	0fd0      	lsrs	r0, r2, #31
    9da0:	1882      	adds	r2, r0, r2
    9da2:	1052      	asrs	r2, r2, #1
    9da4:	4690      	mov	r8, r2
    9da6:	464a      	mov	r2, r9
    9da8:	1c50      	adds	r0, r2, #1
    9daa:	1980      	adds	r0, r0, r6
    9dac:	4642      	mov	r2, r8
    9dae:	4540      	cmp	r0, r8
    9db0:	d901      	bls.n	9db6 <__sfvwrite_r+0x272>
    9db2:	4680      	mov	r8, r0
    9db4:	0002      	movs	r2, r0
    9db6:	055b      	lsls	r3, r3, #21
    9db8:	d52d      	bpl.n	9e16 <__sfvwrite_r+0x2d2>
    9dba:	0011      	movs	r1, r2
    9dbc:	9801      	ldr	r0, [sp, #4]
    9dbe:	f000 f8f7 	bl	9fb0 <_malloc_r>
    9dc2:	1e05      	subs	r5, r0, #0
    9dc4:	d03f      	beq.n	9e46 <__sfvwrite_r+0x302>
    9dc6:	464a      	mov	r2, r9
    9dc8:	6921      	ldr	r1, [r4, #16]
    9dca:	f7fc fdfb 	bl	69c4 <memcpy>
    9dce:	89a2      	ldrh	r2, [r4, #12]
    9dd0:	4b22      	ldr	r3, [pc, #136]	; (9e5c <__sfvwrite_r+0x318>)
    9dd2:	4013      	ands	r3, r2
    9dd4:	2280      	movs	r2, #128	; 0x80
    9dd6:	4313      	orrs	r3, r2
    9dd8:	81a3      	strh	r3, [r4, #12]
    9dda:	4643      	mov	r3, r8
    9ddc:	0028      	movs	r0, r5
    9dde:	464a      	mov	r2, r9
    9de0:	4448      	add	r0, r9
    9de2:	6163      	str	r3, [r4, #20]
    9de4:	1a9b      	subs	r3, r3, r2
    9de6:	6125      	str	r5, [r4, #16]
    9de8:	6020      	str	r0, [r4, #0]
    9dea:	0035      	movs	r5, r6
    9dec:	60a3      	str	r3, [r4, #8]
    9dee:	46b0      	mov	r8, r6
    9df0:	e766      	b.n	9cc0 <__sfvwrite_r+0x17c>
    9df2:	4666      	mov	r6, ip
    9df4:	4649      	mov	r1, r9
    9df6:	f000 fbcd 	bl	a594 <memmove>
    9dfa:	46b4      	mov	ip, r6
    9dfc:	6823      	ldr	r3, [r4, #0]
    9dfe:	0021      	movs	r1, r4
    9e00:	4463      	add	r3, ip
    9e02:	6023      	str	r3, [r4, #0]
    9e04:	9801      	ldr	r0, [sp, #4]
    9e06:	f7ff fcaf 	bl	9768 <_fflush_r>
    9e0a:	2800      	cmp	r0, #0
    9e0c:	d000      	beq.n	9e10 <__sfvwrite_r+0x2cc>
    9e0e:	e73e      	b.n	9c8e <__sfvwrite_r+0x14a>
    9e10:	9b03      	ldr	r3, [sp, #12]
    9e12:	4698      	mov	r8, r3
    9e14:	e708      	b.n	9c28 <__sfvwrite_r+0xe4>
    9e16:	9801      	ldr	r0, [sp, #4]
    9e18:	f000 ff50 	bl	acbc <_realloc_r>
    9e1c:	1e05      	subs	r5, r0, #0
    9e1e:	d1dc      	bne.n	9dda <__sfvwrite_r+0x296>
    9e20:	9d01      	ldr	r5, [sp, #4]
    9e22:	6921      	ldr	r1, [r4, #16]
    9e24:	0028      	movs	r0, r5
    9e26:	f7ff fdab 	bl	9980 <_free_r>
    9e2a:	2280      	movs	r2, #128	; 0x80
    9e2c:	89a3      	ldrh	r3, [r4, #12]
    9e2e:	4393      	bics	r3, r2
    9e30:	b21a      	sxth	r2, r3
    9e32:	230c      	movs	r3, #12
    9e34:	602b      	str	r3, [r5, #0]
    9e36:	e72c      	b.n	9c92 <__sfvwrite_r+0x14e>
    9e38:	2301      	movs	r3, #1
    9e3a:	1c7d      	adds	r5, r7, #1
    9e3c:	9302      	str	r3, [sp, #8]
    9e3e:	e6d6      	b.n	9bee <__sfvwrite_r+0xaa>
    9e40:	2001      	movs	r0, #1
    9e42:	4240      	negs	r0, r0
    9e44:	e6b2      	b.n	9bac <__sfvwrite_r+0x68>
    9e46:	230c      	movs	r3, #12
    9e48:	9a01      	ldr	r2, [sp, #4]
    9e4a:	6013      	str	r3, [r2, #0]
    9e4c:	230c      	movs	r3, #12
    9e4e:	5ee2      	ldrsh	r2, [r4, r3]
    9e50:	e71f      	b.n	9c92 <__sfvwrite_r+0x14e>
    9e52:	46c0      	nop			; (mov r8, r8)
    9e54:	7ffffc00 	.word	0x7ffffc00
    9e58:	7fffffff 	.word	0x7fffffff
    9e5c:	fffffb7f 	.word	0xfffffb7f

00009e60 <_fwalk_reent>:
    9e60:	b5f8      	push	{r3, r4, r5, r6, r7, lr}
    9e62:	464f      	mov	r7, r9
    9e64:	4646      	mov	r6, r8
    9e66:	b4c0      	push	{r6, r7}
    9e68:	27b8      	movs	r7, #184	; 0xb8
    9e6a:	4680      	mov	r8, r0
    9e6c:	00bf      	lsls	r7, r7, #2
    9e6e:	4447      	add	r7, r8
    9e70:	4689      	mov	r9, r1
    9e72:	2600      	movs	r6, #0
    9e74:	2f00      	cmp	r7, #0
    9e76:	d014      	beq.n	9ea2 <_fwalk_reent+0x42>
    9e78:	687b      	ldr	r3, [r7, #4]
    9e7a:	68bc      	ldr	r4, [r7, #8]
    9e7c:	1e5d      	subs	r5, r3, #1
    9e7e:	d40d      	bmi.n	9e9c <_fwalk_reent+0x3c>
    9e80:	89a3      	ldrh	r3, [r4, #12]
    9e82:	2b01      	cmp	r3, #1
    9e84:	d907      	bls.n	9e96 <_fwalk_reent+0x36>
    9e86:	220e      	movs	r2, #14
    9e88:	5ea3      	ldrsh	r3, [r4, r2]
    9e8a:	3301      	adds	r3, #1
    9e8c:	d003      	beq.n	9e96 <_fwalk_reent+0x36>
    9e8e:	0021      	movs	r1, r4
    9e90:	4640      	mov	r0, r8
    9e92:	47c8      	blx	r9
    9e94:	4306      	orrs	r6, r0
    9e96:	3468      	adds	r4, #104	; 0x68
    9e98:	3d01      	subs	r5, #1
    9e9a:	d2f1      	bcs.n	9e80 <_fwalk_reent+0x20>
    9e9c:	683f      	ldr	r7, [r7, #0]
    9e9e:	2f00      	cmp	r7, #0
    9ea0:	d1ea      	bne.n	9e78 <_fwalk_reent+0x18>
    9ea2:	0030      	movs	r0, r6
    9ea4:	bc0c      	pop	{r2, r3}
    9ea6:	4690      	mov	r8, r2
    9ea8:	4699      	mov	r9, r3
    9eaa:	bdf8      	pop	{r3, r4, r5, r6, r7, pc}

00009eac <__locale_charset>:
    9eac:	4800      	ldr	r0, [pc, #0]	; (9eb0 <__locale_charset+0x4>)
    9eae:	4770      	bx	lr
    9eb0:	2000048c 	.word	0x2000048c

00009eb4 <__locale_mb_cur_max>:
    9eb4:	4b01      	ldr	r3, [pc, #4]	; (9ebc <__locale_mb_cur_max+0x8>)
    9eb6:	6818      	ldr	r0, [r3, #0]
    9eb8:	4770      	bx	lr
    9eba:	46c0      	nop			; (mov r8, r8)
    9ebc:	200004ac 	.word	0x200004ac

00009ec0 <_localeconv_r>:
    9ec0:	4800      	ldr	r0, [pc, #0]	; (9ec4 <_localeconv_r+0x4>)
    9ec2:	4770      	bx	lr
    9ec4:	20000454 	.word	0x20000454

00009ec8 <__swhatbuf_r>:
    9ec8:	b570      	push	{r4, r5, r6, lr}
    9eca:	000c      	movs	r4, r1
    9ecc:	001e      	movs	r6, r3
    9ece:	230e      	movs	r3, #14
    9ed0:	5ec9      	ldrsh	r1, [r1, r3]
    9ed2:	b090      	sub	sp, #64	; 0x40
    9ed4:	0015      	movs	r5, r2
    9ed6:	2900      	cmp	r1, #0
    9ed8:	db15      	blt.n	9f06 <__swhatbuf_r+0x3e>
    9eda:	aa01      	add	r2, sp, #4
    9edc:	f001 fae4 	bl	b4a8 <_fstat_r>
    9ee0:	2800      	cmp	r0, #0
    9ee2:	db10      	blt.n	9f06 <__swhatbuf_r+0x3e>
    9ee4:	23f0      	movs	r3, #240	; 0xf0
    9ee6:	9a02      	ldr	r2, [sp, #8]
    9ee8:	021b      	lsls	r3, r3, #8
    9eea:	4013      	ands	r3, r2
    9eec:	4a0d      	ldr	r2, [pc, #52]	; (9f24 <__swhatbuf_r+0x5c>)
    9eee:	2080      	movs	r0, #128	; 0x80
    9ef0:	4694      	mov	ip, r2
    9ef2:	4463      	add	r3, ip
    9ef4:	425a      	negs	r2, r3
    9ef6:	4153      	adcs	r3, r2
    9ef8:	6033      	str	r3, [r6, #0]
    9efa:	2380      	movs	r3, #128	; 0x80
    9efc:	00db      	lsls	r3, r3, #3
    9efe:	602b      	str	r3, [r5, #0]
    9f00:	0100      	lsls	r0, r0, #4
    9f02:	b010      	add	sp, #64	; 0x40
    9f04:	bd70      	pop	{r4, r5, r6, pc}
    9f06:	2300      	movs	r3, #0
    9f08:	6033      	str	r3, [r6, #0]
    9f0a:	89a3      	ldrh	r3, [r4, #12]
    9f0c:	061b      	lsls	r3, r3, #24
    9f0e:	d503      	bpl.n	9f18 <__swhatbuf_r+0x50>
    9f10:	2340      	movs	r3, #64	; 0x40
    9f12:	2000      	movs	r0, #0
    9f14:	602b      	str	r3, [r5, #0]
    9f16:	e7f4      	b.n	9f02 <__swhatbuf_r+0x3a>
    9f18:	2380      	movs	r3, #128	; 0x80
    9f1a:	00db      	lsls	r3, r3, #3
    9f1c:	602b      	str	r3, [r5, #0]
    9f1e:	2000      	movs	r0, #0
    9f20:	e7ef      	b.n	9f02 <__swhatbuf_r+0x3a>
    9f22:	46c0      	nop			; (mov r8, r8)
    9f24:	ffffe000 	.word	0xffffe000

00009f28 <__smakebuf_r>:
    9f28:	b570      	push	{r4, r5, r6, lr}
    9f2a:	898b      	ldrh	r3, [r1, #12]
    9f2c:	b082      	sub	sp, #8
    9f2e:	0005      	movs	r5, r0
    9f30:	000c      	movs	r4, r1
    9f32:	079b      	lsls	r3, r3, #30
    9f34:	d507      	bpl.n	9f46 <__smakebuf_r+0x1e>
    9f36:	0023      	movs	r3, r4
    9f38:	3343      	adds	r3, #67	; 0x43
    9f3a:	6023      	str	r3, [r4, #0]
    9f3c:	6123      	str	r3, [r4, #16]
    9f3e:	2301      	movs	r3, #1
    9f40:	6163      	str	r3, [r4, #20]
    9f42:	b002      	add	sp, #8
    9f44:	bd70      	pop	{r4, r5, r6, pc}
    9f46:	ab01      	add	r3, sp, #4
    9f48:	466a      	mov	r2, sp
    9f4a:	f7ff ffbd 	bl	9ec8 <__swhatbuf_r>
    9f4e:	9900      	ldr	r1, [sp, #0]
    9f50:	0006      	movs	r6, r0
    9f52:	0028      	movs	r0, r5
    9f54:	f000 f82c 	bl	9fb0 <_malloc_r>
    9f58:	2800      	cmp	r0, #0
    9f5a:	d01c      	beq.n	9f96 <__smakebuf_r+0x6e>
    9f5c:	2280      	movs	r2, #128	; 0x80
    9f5e:	4b13      	ldr	r3, [pc, #76]	; (9fac <__smakebuf_r+0x84>)
    9f60:	63eb      	str	r3, [r5, #60]	; 0x3c
    9f62:	89a3      	ldrh	r3, [r4, #12]
    9f64:	6020      	str	r0, [r4, #0]
    9f66:	4313      	orrs	r3, r2
    9f68:	9a00      	ldr	r2, [sp, #0]
    9f6a:	b21b      	sxth	r3, r3
    9f6c:	6162      	str	r2, [r4, #20]
    9f6e:	9a01      	ldr	r2, [sp, #4]
    9f70:	81a3      	strh	r3, [r4, #12]
    9f72:	6120      	str	r0, [r4, #16]
    9f74:	2a00      	cmp	r2, #0
    9f76:	d102      	bne.n	9f7e <__smakebuf_r+0x56>
    9f78:	4333      	orrs	r3, r6
    9f7a:	81a3      	strh	r3, [r4, #12]
    9f7c:	e7e1      	b.n	9f42 <__smakebuf_r+0x1a>
    9f7e:	230e      	movs	r3, #14
    9f80:	5ee1      	ldrsh	r1, [r4, r3]
    9f82:	0028      	movs	r0, r5
    9f84:	f001 faa4 	bl	b4d0 <_isatty_r>
    9f88:	2800      	cmp	r0, #0
    9f8a:	d00c      	beq.n	9fa6 <__smakebuf_r+0x7e>
    9f8c:	2201      	movs	r2, #1
    9f8e:	89a3      	ldrh	r3, [r4, #12]
    9f90:	431a      	orrs	r2, r3
    9f92:	b213      	sxth	r3, r2
    9f94:	e7f0      	b.n	9f78 <__smakebuf_r+0x50>
    9f96:	220c      	movs	r2, #12
    9f98:	5ea3      	ldrsh	r3, [r4, r2]
    9f9a:	059a      	lsls	r2, r3, #22
    9f9c:	d4d1      	bmi.n	9f42 <__smakebuf_r+0x1a>
    9f9e:	2202      	movs	r2, #2
    9fa0:	4313      	orrs	r3, r2
    9fa2:	81a3      	strh	r3, [r4, #12]
    9fa4:	e7c7      	b.n	9f36 <__smakebuf_r+0xe>
    9fa6:	220c      	movs	r2, #12
    9fa8:	5ea3      	ldrsh	r3, [r4, r2]
    9faa:	e7e5      	b.n	9f78 <__smakebuf_r+0x50>
    9fac:	00009795 	.word	0x00009795

00009fb0 <_malloc_r>:
    9fb0:	b5f0      	push	{r4, r5, r6, r7, lr}
    9fb2:	465f      	mov	r7, fp
    9fb4:	464d      	mov	r5, r9
    9fb6:	4656      	mov	r6, sl
    9fb8:	4644      	mov	r4, r8
    9fba:	b4f0      	push	{r4, r5, r6, r7}
    9fbc:	000d      	movs	r5, r1
    9fbe:	350b      	adds	r5, #11
    9fc0:	b083      	sub	sp, #12
    9fc2:	0007      	movs	r7, r0
    9fc4:	2d16      	cmp	r5, #22
    9fc6:	d800      	bhi.n	9fca <_malloc_r+0x1a>
    9fc8:	e0a8      	b.n	a11c <_malloc_r+0x16c>
    9fca:	2307      	movs	r3, #7
    9fcc:	439d      	bics	r5, r3
    9fce:	d500      	bpl.n	9fd2 <_malloc_r+0x22>
    9fd0:	e0ce      	b.n	a170 <_malloc_r+0x1c0>
    9fd2:	42a9      	cmp	r1, r5
    9fd4:	d900      	bls.n	9fd8 <_malloc_r+0x28>
    9fd6:	e0cb      	b.n	a170 <_malloc_r+0x1c0>
    9fd8:	f000 fb28 	bl	a62c <__malloc_lock>
    9fdc:	23f8      	movs	r3, #248	; 0xf8
    9fde:	33ff      	adds	r3, #255	; 0xff
    9fe0:	429d      	cmp	r5, r3
    9fe2:	d800      	bhi.n	9fe6 <_malloc_r+0x36>
    9fe4:	e284      	b.n	a4f0 <_malloc_r+0x540>
    9fe6:	0a6b      	lsrs	r3, r5, #9
    9fe8:	d100      	bne.n	9fec <_malloc_r+0x3c>
    9fea:	e0c5      	b.n	a178 <_malloc_r+0x1c8>
    9fec:	2b04      	cmp	r3, #4
    9fee:	d900      	bls.n	9ff2 <_malloc_r+0x42>
    9ff0:	e16c      	b.n	a2cc <_malloc_r+0x31c>
    9ff2:	2338      	movs	r3, #56	; 0x38
    9ff4:	09a9      	lsrs	r1, r5, #6
    9ff6:	469c      	mov	ip, r3
    9ff8:	3301      	adds	r3, #1
    9ffa:	4698      	mov	r8, r3
    9ffc:	4488      	add	r8, r1
    9ffe:	4643      	mov	r3, r8
    a000:	448c      	add	ip, r1
    a002:	0059      	lsls	r1, r3, #1
    a004:	4ec9      	ldr	r6, [pc, #804]	; (a32c <_malloc_r+0x37c>)
    a006:	0089      	lsls	r1, r1, #2
    a008:	1871      	adds	r1, r6, r1
    a00a:	3908      	subs	r1, #8
    a00c:	68cc      	ldr	r4, [r1, #12]
    a00e:	42a1      	cmp	r1, r4
    a010:	d017      	beq.n	a042 <_malloc_r+0x92>
    a012:	2303      	movs	r3, #3
    a014:	6862      	ldr	r2, [r4, #4]
    a016:	439a      	bics	r2, r3
    a018:	0013      	movs	r3, r2
    a01a:	1b52      	subs	r2, r2, r5
    a01c:	2a0f      	cmp	r2, #15
    a01e:	dd00      	ble.n	a022 <_malloc_r+0x72>
    a020:	e0b0      	b.n	a184 <_malloc_r+0x1d4>
    a022:	2003      	movs	r0, #3
    a024:	2a00      	cmp	r2, #0
    a026:	db09      	blt.n	a03c <_malloc_r+0x8c>
    a028:	e08d      	b.n	a146 <_malloc_r+0x196>
    a02a:	6863      	ldr	r3, [r4, #4]
    a02c:	4383      	bics	r3, r0
    a02e:	1b5a      	subs	r2, r3, r5
    a030:	2a0f      	cmp	r2, #15
    a032:	dd00      	ble.n	a036 <_malloc_r+0x86>
    a034:	e0a6      	b.n	a184 <_malloc_r+0x1d4>
    a036:	2a00      	cmp	r2, #0
    a038:	db00      	blt.n	a03c <_malloc_r+0x8c>
    a03a:	e084      	b.n	a146 <_malloc_r+0x196>
    a03c:	68e4      	ldr	r4, [r4, #12]
    a03e:	42a1      	cmp	r1, r4
    a040:	d1f3      	bne.n	a02a <_malloc_r+0x7a>
    a042:	4643      	mov	r3, r8
    a044:	9300      	str	r3, [sp, #0]
    a046:	0032      	movs	r2, r6
    a048:	6934      	ldr	r4, [r6, #16]
    a04a:	3208      	adds	r2, #8
    a04c:	4294      	cmp	r4, r2
    a04e:	d100      	bne.n	a052 <_malloc_r+0xa2>
    a050:	e18f      	b.n	a372 <_malloc_r+0x3c2>
    a052:	2303      	movs	r3, #3
    a054:	6861      	ldr	r1, [r4, #4]
    a056:	4399      	bics	r1, r3
    a058:	000b      	movs	r3, r1
    a05a:	1b48      	subs	r0, r1, r5
    a05c:	280f      	cmp	r0, #15
    a05e:	dd00      	ble.n	a062 <_malloc_r+0xb2>
    a060:	e176      	b.n	a350 <_malloc_r+0x3a0>
    a062:	6172      	str	r2, [r6, #20]
    a064:	6132      	str	r2, [r6, #16]
    a066:	2800      	cmp	r0, #0
    a068:	da71      	bge.n	a14e <_malloc_r+0x19e>
    a06a:	4ab1      	ldr	r2, [pc, #708]	; (a330 <_malloc_r+0x380>)
    a06c:	4291      	cmp	r1, r2
    a06e:	d900      	bls.n	a072 <_malloc_r+0xc2>
    a070:	e134      	b.n	a2dc <_malloc_r+0x32c>
    a072:	2301      	movs	r3, #1
    a074:	08c8      	lsrs	r0, r1, #3
    a076:	1082      	asrs	r2, r0, #2
    a078:	4093      	lsls	r3, r2
    a07a:	6872      	ldr	r2, [r6, #4]
    a07c:	431a      	orrs	r2, r3
    a07e:	00c3      	lsls	r3, r0, #3
    a080:	199b      	adds	r3, r3, r6
    a082:	6898      	ldr	r0, [r3, #8]
    a084:	6072      	str	r2, [r6, #4]
    a086:	60e3      	str	r3, [r4, #12]
    a088:	60a0      	str	r0, [r4, #8]
    a08a:	609c      	str	r4, [r3, #8]
    a08c:	0013      	movs	r3, r2
    a08e:	60c4      	str	r4, [r0, #12]
    a090:	2001      	movs	r0, #1
    a092:	9900      	ldr	r1, [sp, #0]
    a094:	108a      	asrs	r2, r1, #2
    a096:	4090      	lsls	r0, r2
    a098:	4298      	cmp	r0, r3
    a09a:	d900      	bls.n	a09e <_malloc_r+0xee>
    a09c:	e075      	b.n	a18a <_malloc_r+0x1da>
    a09e:	4203      	tst	r3, r0
    a0a0:	d10c      	bne.n	a0bc <_malloc_r+0x10c>
    a0a2:	2203      	movs	r2, #3
    a0a4:	4391      	bics	r1, r2
    a0a6:	1d0a      	adds	r2, r1, #4
    a0a8:	0040      	lsls	r0, r0, #1
    a0aa:	9200      	str	r2, [sp, #0]
    a0ac:	4203      	tst	r3, r0
    a0ae:	d105      	bne.n	a0bc <_malloc_r+0x10c>
    a0b0:	9a00      	ldr	r2, [sp, #0]
    a0b2:	0040      	lsls	r0, r0, #1
    a0b4:	3204      	adds	r2, #4
    a0b6:	9200      	str	r2, [sp, #0]
    a0b8:	4203      	tst	r3, r0
    a0ba:	d0f9      	beq.n	a0b0 <_malloc_r+0x100>
    a0bc:	2303      	movs	r3, #3
    a0be:	4698      	mov	r8, r3
    a0c0:	9a00      	ldr	r2, [sp, #0]
    a0c2:	00d3      	lsls	r3, r2, #3
    a0c4:	4699      	mov	r9, r3
    a0c6:	44b1      	add	r9, r6
    a0c8:	46cc      	mov	ip, r9
    a0ca:	4692      	mov	sl, r2
    a0cc:	4663      	mov	r3, ip
    a0ce:	68dc      	ldr	r4, [r3, #12]
    a0d0:	45a4      	cmp	ip, r4
    a0d2:	d107      	bne.n	a0e4 <_malloc_r+0x134>
    a0d4:	e14f      	b.n	a376 <_malloc_r+0x3c6>
    a0d6:	2a00      	cmp	r2, #0
    a0d8:	db00      	blt.n	a0dc <_malloc_r+0x12c>
    a0da:	e15f      	b.n	a39c <_malloc_r+0x3ec>
    a0dc:	68e4      	ldr	r4, [r4, #12]
    a0de:	45a4      	cmp	ip, r4
    a0e0:	d100      	bne.n	a0e4 <_malloc_r+0x134>
    a0e2:	e148      	b.n	a376 <_malloc_r+0x3c6>
    a0e4:	4642      	mov	r2, r8
    a0e6:	6863      	ldr	r3, [r4, #4]
    a0e8:	4393      	bics	r3, r2
    a0ea:	1b5a      	subs	r2, r3, r5
    a0ec:	2a0f      	cmp	r2, #15
    a0ee:	ddf2      	ble.n	a0d6 <_malloc_r+0x126>
    a0f0:	2101      	movs	r1, #1
    a0f2:	1963      	adds	r3, r4, r5
    a0f4:	430d      	orrs	r5, r1
    a0f6:	6065      	str	r5, [r4, #4]
    a0f8:	68e0      	ldr	r0, [r4, #12]
    a0fa:	68a5      	ldr	r5, [r4, #8]
    a0fc:	3608      	adds	r6, #8
    a0fe:	60e8      	str	r0, [r5, #12]
    a100:	4311      	orrs	r1, r2
    a102:	6085      	str	r5, [r0, #8]
    a104:	60f3      	str	r3, [r6, #12]
    a106:	60b3      	str	r3, [r6, #8]
    a108:	0038      	movs	r0, r7
    a10a:	60de      	str	r6, [r3, #12]
    a10c:	609e      	str	r6, [r3, #8]
    a10e:	6059      	str	r1, [r3, #4]
    a110:	509a      	str	r2, [r3, r2]
    a112:	f000 fa8d 	bl	a630 <__malloc_unlock>
    a116:	0020      	movs	r0, r4
    a118:	3008      	adds	r0, #8
    a11a:	e022      	b.n	a162 <_malloc_r+0x1b2>
    a11c:	2910      	cmp	r1, #16
    a11e:	d827      	bhi.n	a170 <_malloc_r+0x1c0>
    a120:	0038      	movs	r0, r7
    a122:	f000 fa83 	bl	a62c <__malloc_lock>
    a126:	2510      	movs	r5, #16
    a128:	2306      	movs	r3, #6
    a12a:	2102      	movs	r1, #2
    a12c:	4e7f      	ldr	r6, [pc, #508]	; (a32c <_malloc_r+0x37c>)
    a12e:	009b      	lsls	r3, r3, #2
    a130:	18f3      	adds	r3, r6, r3
    a132:	001a      	movs	r2, r3
    a134:	685c      	ldr	r4, [r3, #4]
    a136:	3a08      	subs	r2, #8
    a138:	4294      	cmp	r4, r2
    a13a:	d100      	bne.n	a13e <_malloc_r+0x18e>
    a13c:	e127      	b.n	a38e <_malloc_r+0x3de>
    a13e:	2303      	movs	r3, #3
    a140:	6862      	ldr	r2, [r4, #4]
    a142:	439a      	bics	r2, r3
    a144:	0013      	movs	r3, r2
    a146:	68e2      	ldr	r2, [r4, #12]
    a148:	68a1      	ldr	r1, [r4, #8]
    a14a:	60ca      	str	r2, [r1, #12]
    a14c:	6091      	str	r1, [r2, #8]
    a14e:	2201      	movs	r2, #1
    a150:	18e3      	adds	r3, r4, r3
    a152:	6859      	ldr	r1, [r3, #4]
    a154:	0038      	movs	r0, r7
    a156:	430a      	orrs	r2, r1
    a158:	605a      	str	r2, [r3, #4]
    a15a:	f000 fa69 	bl	a630 <__malloc_unlock>
    a15e:	0020      	movs	r0, r4
    a160:	3008      	adds	r0, #8
    a162:	b003      	add	sp, #12
    a164:	bc3c      	pop	{r2, r3, r4, r5}
    a166:	4690      	mov	r8, r2
    a168:	4699      	mov	r9, r3
    a16a:	46a2      	mov	sl, r4
    a16c:	46ab      	mov	fp, r5
    a16e:	bdf0      	pop	{r4, r5, r6, r7, pc}
    a170:	230c      	movs	r3, #12
    a172:	2000      	movs	r0, #0
    a174:	603b      	str	r3, [r7, #0]
    a176:	e7f4      	b.n	a162 <_malloc_r+0x1b2>
    a178:	2340      	movs	r3, #64	; 0x40
    a17a:	4698      	mov	r8, r3
    a17c:	3b01      	subs	r3, #1
    a17e:	2180      	movs	r1, #128	; 0x80
    a180:	469c      	mov	ip, r3
    a182:	e73f      	b.n	a004 <_malloc_r+0x54>
    a184:	4663      	mov	r3, ip
    a186:	9300      	str	r3, [sp, #0]
    a188:	e75d      	b.n	a046 <_malloc_r+0x96>
    a18a:	2303      	movs	r3, #3
    a18c:	68b4      	ldr	r4, [r6, #8]
    a18e:	6862      	ldr	r2, [r4, #4]
    a190:	439a      	bics	r2, r3
    a192:	4690      	mov	r8, r2
    a194:	42aa      	cmp	r2, r5
    a196:	d303      	bcc.n	a1a0 <_malloc_r+0x1f0>
    a198:	1b52      	subs	r2, r2, r5
    a19a:	2a0f      	cmp	r2, #15
    a19c:	dd00      	ble.n	a1a0 <_malloc_r+0x1f0>
    a19e:	e087      	b.n	a2b0 <_malloc_r+0x300>
    a1a0:	0023      	movs	r3, r4
    a1a2:	4443      	add	r3, r8
    a1a4:	4a63      	ldr	r2, [pc, #396]	; (a334 <_malloc_r+0x384>)
    a1a6:	9301      	str	r3, [sp, #4]
    a1a8:	4b63      	ldr	r3, [pc, #396]	; (a338 <_malloc_r+0x388>)
    a1aa:	4693      	mov	fp, r2
    a1ac:	681b      	ldr	r3, [r3, #0]
    a1ae:	6812      	ldr	r2, [r2, #0]
    a1b0:	18eb      	adds	r3, r5, r3
    a1b2:	3201      	adds	r2, #1
    a1b4:	d100      	bne.n	a1b8 <_malloc_r+0x208>
    a1b6:	e157      	b.n	a468 <_malloc_r+0x4b8>
    a1b8:	4a60      	ldr	r2, [pc, #384]	; (a33c <_malloc_r+0x38c>)
    a1ba:	4694      	mov	ip, r2
    a1bc:	4463      	add	r3, ip
    a1be:	0b1b      	lsrs	r3, r3, #12
    a1c0:	031b      	lsls	r3, r3, #12
    a1c2:	9300      	str	r3, [sp, #0]
    a1c4:	9900      	ldr	r1, [sp, #0]
    a1c6:	0038      	movs	r0, r7
    a1c8:	f000 ff66 	bl	b098 <_sbrk_r>
    a1cc:	0003      	movs	r3, r0
    a1ce:	4681      	mov	r9, r0
    a1d0:	3301      	adds	r3, #1
    a1d2:	d061      	beq.n	a298 <_malloc_r+0x2e8>
    a1d4:	9b01      	ldr	r3, [sp, #4]
    a1d6:	4283      	cmp	r3, r0
    a1d8:	d900      	bls.n	a1dc <_malloc_r+0x22c>
    a1da:	e0fd      	b.n	a3d8 <_malloc_r+0x428>
    a1dc:	4b58      	ldr	r3, [pc, #352]	; (a340 <_malloc_r+0x390>)
    a1de:	9a00      	ldr	r2, [sp, #0]
    a1e0:	469a      	mov	sl, r3
    a1e2:	681b      	ldr	r3, [r3, #0]
    a1e4:	469c      	mov	ip, r3
    a1e6:	4653      	mov	r3, sl
    a1e8:	4462      	add	r2, ip
    a1ea:	601a      	str	r2, [r3, #0]
    a1ec:	9b01      	ldr	r3, [sp, #4]
    a1ee:	0011      	movs	r1, r2
    a1f0:	454b      	cmp	r3, r9
    a1f2:	d100      	bne.n	a1f6 <_malloc_r+0x246>
    a1f4:	e143      	b.n	a47e <_malloc_r+0x4ce>
    a1f6:	465b      	mov	r3, fp
    a1f8:	681b      	ldr	r3, [r3, #0]
    a1fa:	3301      	adds	r3, #1
    a1fc:	d100      	bne.n	a200 <_malloc_r+0x250>
    a1fe:	e14f      	b.n	a4a0 <_malloc_r+0x4f0>
    a200:	464b      	mov	r3, r9
    a202:	9a01      	ldr	r2, [sp, #4]
    a204:	1a9b      	subs	r3, r3, r2
    a206:	1859      	adds	r1, r3, r1
    a208:	4653      	mov	r3, sl
    a20a:	6019      	str	r1, [r3, #0]
    a20c:	2307      	movs	r3, #7
    a20e:	464a      	mov	r2, r9
    a210:	4013      	ands	r3, r2
    a212:	d100      	bne.n	a216 <_malloc_r+0x266>
    a214:	e117      	b.n	a446 <_malloc_r+0x496>
    a216:	2108      	movs	r1, #8
    a218:	4689      	mov	r9, r1
    a21a:	494a      	ldr	r1, [pc, #296]	; (a344 <_malloc_r+0x394>)
    a21c:	1ad2      	subs	r2, r2, r3
    a21e:	4491      	add	r9, r2
    a220:	1ac9      	subs	r1, r1, r3
    a222:	9b00      	ldr	r3, [sp, #0]
    a224:	0038      	movs	r0, r7
    a226:	444b      	add	r3, r9
    a228:	051b      	lsls	r3, r3, #20
    a22a:	0d1b      	lsrs	r3, r3, #20
    a22c:	1acb      	subs	r3, r1, r3
    a22e:	0019      	movs	r1, r3
    a230:	469b      	mov	fp, r3
    a232:	f000 ff31 	bl	b098 <_sbrk_r>
    a236:	1c43      	adds	r3, r0, #1
    a238:	d100      	bne.n	a23c <_malloc_r+0x28c>
    a23a:	e135      	b.n	a4a8 <_malloc_r+0x4f8>
    a23c:	464b      	mov	r3, r9
    a23e:	1ac0      	subs	r0, r0, r3
    a240:	2301      	movs	r3, #1
    a242:	4458      	add	r0, fp
    a244:	4318      	orrs	r0, r3
    a246:	4653      	mov	r3, sl
    a248:	681b      	ldr	r3, [r3, #0]
    a24a:	445b      	add	r3, fp
    a24c:	0019      	movs	r1, r3
    a24e:	4653      	mov	r3, sl
    a250:	6019      	str	r1, [r3, #0]
    a252:	464b      	mov	r3, r9
    a254:	60b3      	str	r3, [r6, #8]
    a256:	6058      	str	r0, [r3, #4]
    a258:	42b4      	cmp	r4, r6
    a25a:	d013      	beq.n	a284 <_malloc_r+0x2d4>
    a25c:	4643      	mov	r3, r8
    a25e:	2b0f      	cmp	r3, #15
    a260:	d800      	bhi.n	a264 <_malloc_r+0x2b4>
    a262:	e0e1      	b.n	a428 <_malloc_r+0x478>
    a264:	4643      	mov	r3, r8
    a266:	2207      	movs	r2, #7
    a268:	6860      	ldr	r0, [r4, #4]
    a26a:	3b0c      	subs	r3, #12
    a26c:	4393      	bics	r3, r2
    a26e:	3a06      	subs	r2, #6
    a270:	4002      	ands	r2, r0
    a272:	2005      	movs	r0, #5
    a274:	431a      	orrs	r2, r3
    a276:	6062      	str	r2, [r4, #4]
    a278:	18e2      	adds	r2, r4, r3
    a27a:	6050      	str	r0, [r2, #4]
    a27c:	6090      	str	r0, [r2, #8]
    a27e:	2b0f      	cmp	r3, #15
    a280:	d900      	bls.n	a284 <_malloc_r+0x2d4>
    a282:	e115      	b.n	a4b0 <_malloc_r+0x500>
    a284:	4b30      	ldr	r3, [pc, #192]	; (a348 <_malloc_r+0x398>)
    a286:	681a      	ldr	r2, [r3, #0]
    a288:	4291      	cmp	r1, r2
    a28a:	d900      	bls.n	a28e <_malloc_r+0x2de>
    a28c:	6019      	str	r1, [r3, #0]
    a28e:	4b2f      	ldr	r3, [pc, #188]	; (a34c <_malloc_r+0x39c>)
    a290:	681a      	ldr	r2, [r3, #0]
    a292:	4291      	cmp	r1, r2
    a294:	d900      	bls.n	a298 <_malloc_r+0x2e8>
    a296:	6019      	str	r1, [r3, #0]
    a298:	2303      	movs	r3, #3
    a29a:	68b4      	ldr	r4, [r6, #8]
    a29c:	6862      	ldr	r2, [r4, #4]
    a29e:	439a      	bics	r2, r3
    a2a0:	0013      	movs	r3, r2
    a2a2:	1b52      	subs	r2, r2, r5
    a2a4:	429d      	cmp	r5, r3
    a2a6:	d900      	bls.n	a2aa <_malloc_r+0x2fa>
    a2a8:	e0c1      	b.n	a42e <_malloc_r+0x47e>
    a2aa:	2a0f      	cmp	r2, #15
    a2ac:	dc00      	bgt.n	a2b0 <_malloc_r+0x300>
    a2ae:	e0be      	b.n	a42e <_malloc_r+0x47e>
    a2b0:	2301      	movs	r3, #1
    a2b2:	0029      	movs	r1, r5
    a2b4:	1965      	adds	r5, r4, r5
    a2b6:	4319      	orrs	r1, r3
    a2b8:	4313      	orrs	r3, r2
    a2ba:	6061      	str	r1, [r4, #4]
    a2bc:	0038      	movs	r0, r7
    a2be:	60b5      	str	r5, [r6, #8]
    a2c0:	606b      	str	r3, [r5, #4]
    a2c2:	f000 f9b5 	bl	a630 <__malloc_unlock>
    a2c6:	0020      	movs	r0, r4
    a2c8:	3008      	adds	r0, #8
    a2ca:	e74a      	b.n	a162 <_malloc_r+0x1b2>
    a2cc:	2b14      	cmp	r3, #20
    a2ce:	d974      	bls.n	a3ba <_malloc_r+0x40a>
    a2d0:	2b54      	cmp	r3, #84	; 0x54
    a2d2:	d900      	bls.n	a2d6 <_malloc_r+0x326>
    a2d4:	e0b0      	b.n	a438 <_malloc_r+0x488>
    a2d6:	0b29      	lsrs	r1, r5, #12
    a2d8:	236e      	movs	r3, #110	; 0x6e
    a2da:	e68c      	b.n	9ff6 <_malloc_r+0x46>
    a2dc:	0a4a      	lsrs	r2, r1, #9
    a2de:	2a04      	cmp	r2, #4
    a2e0:	d974      	bls.n	a3cc <_malloc_r+0x41c>
    a2e2:	2a14      	cmp	r2, #20
    a2e4:	d900      	bls.n	a2e8 <_malloc_r+0x338>
    a2e6:	e0c2      	b.n	a46e <_malloc_r+0x4be>
    a2e8:	0010      	movs	r0, r2
    a2ea:	325c      	adds	r2, #92	; 0x5c
    a2ec:	305b      	adds	r0, #91	; 0x5b
    a2ee:	0052      	lsls	r2, r2, #1
    a2f0:	2108      	movs	r1, #8
    a2f2:	4249      	negs	r1, r1
    a2f4:	468c      	mov	ip, r1
    a2f6:	0092      	lsls	r2, r2, #2
    a2f8:	18b2      	adds	r2, r6, r2
    a2fa:	4494      	add	ip, r2
    a2fc:	4662      	mov	r2, ip
    a2fe:	6892      	ldr	r2, [r2, #8]
    a300:	310b      	adds	r1, #11
    a302:	4688      	mov	r8, r1
    a304:	4594      	cmp	ip, r2
    a306:	d100      	bne.n	a30a <_malloc_r+0x35a>
    a308:	e0a0      	b.n	a44c <_malloc_r+0x49c>
    a30a:	4641      	mov	r1, r8
    a30c:	6850      	ldr	r0, [r2, #4]
    a30e:	4388      	bics	r0, r1
    a310:	4283      	cmp	r3, r0
    a312:	d202      	bcs.n	a31a <_malloc_r+0x36a>
    a314:	6892      	ldr	r2, [r2, #8]
    a316:	4594      	cmp	ip, r2
    a318:	d1f7      	bne.n	a30a <_malloc_r+0x35a>
    a31a:	68d3      	ldr	r3, [r2, #12]
    a31c:	469c      	mov	ip, r3
    a31e:	6873      	ldr	r3, [r6, #4]
    a320:	4661      	mov	r1, ip
    a322:	60a2      	str	r2, [r4, #8]
    a324:	60e1      	str	r1, [r4, #12]
    a326:	608c      	str	r4, [r1, #8]
    a328:	60d4      	str	r4, [r2, #12]
    a32a:	e6b1      	b.n	a090 <_malloc_r+0xe0>
    a32c:	200004b0 	.word	0x200004b0
    a330:	000001ff 	.word	0x000001ff
    a334:	200008bc 	.word	0x200008bc
    a338:	20000af4 	.word	0x20000af4
    a33c:	0000100f 	.word	0x0000100f
    a340:	20000af8 	.word	0x20000af8
    a344:	00001008 	.word	0x00001008
    a348:	20000af0 	.word	0x20000af0
    a34c:	20000aec 	.word	0x20000aec
    a350:	2101      	movs	r1, #1
    a352:	1963      	adds	r3, r4, r5
    a354:	430d      	orrs	r5, r1
    a356:	4301      	orrs	r1, r0
    a358:	6065      	str	r5, [r4, #4]
    a35a:	6173      	str	r3, [r6, #20]
    a35c:	6133      	str	r3, [r6, #16]
    a35e:	60da      	str	r2, [r3, #12]
    a360:	609a      	str	r2, [r3, #8]
    a362:	6059      	str	r1, [r3, #4]
    a364:	5018      	str	r0, [r3, r0]
    a366:	0038      	movs	r0, r7
    a368:	f000 f962 	bl	a630 <__malloc_unlock>
    a36c:	0020      	movs	r0, r4
    a36e:	3008      	adds	r0, #8
    a370:	e6f7      	b.n	a162 <_malloc_r+0x1b2>
    a372:	6873      	ldr	r3, [r6, #4]
    a374:	e68c      	b.n	a090 <_malloc_r+0xe0>
    a376:	2308      	movs	r3, #8
    a378:	469b      	mov	fp, r3
    a37a:	3b07      	subs	r3, #7
    a37c:	44dc      	add	ip, fp
    a37e:	469b      	mov	fp, r3
    a380:	44da      	add	sl, fp
    a382:	4643      	mov	r3, r8
    a384:	4652      	mov	r2, sl
    a386:	4213      	tst	r3, r2
    a388:	d000      	beq.n	a38c <_malloc_r+0x3dc>
    a38a:	e69f      	b.n	a0cc <_malloc_r+0x11c>
    a38c:	e033      	b.n	a3f6 <_malloc_r+0x446>
    a38e:	68dc      	ldr	r4, [r3, #12]
    a390:	1c8a      	adds	r2, r1, #2
    a392:	9200      	str	r2, [sp, #0]
    a394:	42a3      	cmp	r3, r4
    a396:	d100      	bne.n	a39a <_malloc_r+0x3ea>
    a398:	e655      	b.n	a046 <_malloc_r+0x96>
    a39a:	e6d0      	b.n	a13e <_malloc_r+0x18e>
    a39c:	2201      	movs	r2, #1
    a39e:	18e3      	adds	r3, r4, r3
    a3a0:	6859      	ldr	r1, [r3, #4]
    a3a2:	0038      	movs	r0, r7
    a3a4:	430a      	orrs	r2, r1
    a3a6:	605a      	str	r2, [r3, #4]
    a3a8:	68e3      	ldr	r3, [r4, #12]
    a3aa:	68a2      	ldr	r2, [r4, #8]
    a3ac:	60d3      	str	r3, [r2, #12]
    a3ae:	609a      	str	r2, [r3, #8]
    a3b0:	f000 f93e 	bl	a630 <__malloc_unlock>
    a3b4:	0020      	movs	r0, r4
    a3b6:	3008      	adds	r0, #8
    a3b8:	e6d3      	b.n	a162 <_malloc_r+0x1b2>
    a3ba:	225b      	movs	r2, #91	; 0x5b
    a3bc:	4694      	mov	ip, r2
    a3be:	3201      	adds	r2, #1
    a3c0:	4690      	mov	r8, r2
    a3c2:	4498      	add	r8, r3
    a3c4:	449c      	add	ip, r3
    a3c6:	4643      	mov	r3, r8
    a3c8:	0059      	lsls	r1, r3, #1
    a3ca:	e61b      	b.n	a004 <_malloc_r+0x54>
    a3cc:	098a      	lsrs	r2, r1, #6
    a3ce:	0010      	movs	r0, r2
    a3d0:	3239      	adds	r2, #57	; 0x39
    a3d2:	3038      	adds	r0, #56	; 0x38
    a3d4:	0052      	lsls	r2, r2, #1
    a3d6:	e78b      	b.n	a2f0 <_malloc_r+0x340>
    a3d8:	42b4      	cmp	r4, r6
    a3da:	d000      	beq.n	a3de <_malloc_r+0x42e>
    a3dc:	e75c      	b.n	a298 <_malloc_r+0x2e8>
    a3de:	e6fd      	b.n	a1dc <_malloc_r+0x22c>
    a3e0:	9b00      	ldr	r3, [sp, #0]
    a3e2:	3b01      	subs	r3, #1
    a3e4:	9300      	str	r3, [sp, #0]
    a3e6:	2308      	movs	r3, #8
    a3e8:	425b      	negs	r3, r3
    a3ea:	469c      	mov	ip, r3
    a3ec:	44e1      	add	r9, ip
    a3ee:	464b      	mov	r3, r9
    a3f0:	689b      	ldr	r3, [r3, #8]
    a3f2:	4599      	cmp	r9, r3
    a3f4:	d17a      	bne.n	a4ec <_malloc_r+0x53c>
    a3f6:	4643      	mov	r3, r8
    a3f8:	9a00      	ldr	r2, [sp, #0]
    a3fa:	4213      	tst	r3, r2
    a3fc:	d1f0      	bne.n	a3e0 <_malloc_r+0x430>
    a3fe:	6873      	ldr	r3, [r6, #4]
    a400:	4383      	bics	r3, r0
    a402:	6073      	str	r3, [r6, #4]
    a404:	0040      	lsls	r0, r0, #1
    a406:	4298      	cmp	r0, r3
    a408:	d900      	bls.n	a40c <_malloc_r+0x45c>
    a40a:	e6be      	b.n	a18a <_malloc_r+0x1da>
    a40c:	2800      	cmp	r0, #0
    a40e:	d100      	bne.n	a412 <_malloc_r+0x462>
    a410:	e6bb      	b.n	a18a <_malloc_r+0x1da>
    a412:	4203      	tst	r3, r0
    a414:	d170      	bne.n	a4f8 <_malloc_r+0x548>
    a416:	4652      	mov	r2, sl
    a418:	9200      	str	r2, [sp, #0]
    a41a:	9a00      	ldr	r2, [sp, #0]
    a41c:	0040      	lsls	r0, r0, #1
    a41e:	3204      	adds	r2, #4
    a420:	9200      	str	r2, [sp, #0]
    a422:	4203      	tst	r3, r0
    a424:	d0f9      	beq.n	a41a <_malloc_r+0x46a>
    a426:	e64b      	b.n	a0c0 <_malloc_r+0x110>
    a428:	2301      	movs	r3, #1
    a42a:	464a      	mov	r2, r9
    a42c:	6053      	str	r3, [r2, #4]
    a42e:	0038      	movs	r0, r7
    a430:	f000 f8fe 	bl	a630 <__malloc_unlock>
    a434:	2000      	movs	r0, #0
    a436:	e694      	b.n	a162 <_malloc_r+0x1b2>
    a438:	22aa      	movs	r2, #170	; 0xaa
    a43a:	0052      	lsls	r2, r2, #1
    a43c:	4293      	cmp	r3, r2
    a43e:	d80d      	bhi.n	a45c <_malloc_r+0x4ac>
    a440:	0be9      	lsrs	r1, r5, #15
    a442:	2377      	movs	r3, #119	; 0x77
    a444:	e5d7      	b.n	9ff6 <_malloc_r+0x46>
    a446:	2180      	movs	r1, #128	; 0x80
    a448:	0149      	lsls	r1, r1, #5
    a44a:	e6ea      	b.n	a222 <_malloc_r+0x272>
    a44c:	2301      	movs	r3, #1
    a44e:	1080      	asrs	r0, r0, #2
    a450:	4083      	lsls	r3, r0
    a452:	6872      	ldr	r2, [r6, #4]
    a454:	4313      	orrs	r3, r2
    a456:	6073      	str	r3, [r6, #4]
    a458:	4662      	mov	r2, ip
    a45a:	e761      	b.n	a320 <_malloc_r+0x370>
    a45c:	4a28      	ldr	r2, [pc, #160]	; (a500 <_malloc_r+0x550>)
    a45e:	4293      	cmp	r3, r2
    a460:	d818      	bhi.n	a494 <_malloc_r+0x4e4>
    a462:	0ca9      	lsrs	r1, r5, #18
    a464:	237c      	movs	r3, #124	; 0x7c
    a466:	e5c6      	b.n	9ff6 <_malloc_r+0x46>
    a468:	3310      	adds	r3, #16
    a46a:	9300      	str	r3, [sp, #0]
    a46c:	e6aa      	b.n	a1c4 <_malloc_r+0x214>
    a46e:	2a54      	cmp	r2, #84	; 0x54
    a470:	d826      	bhi.n	a4c0 <_malloc_r+0x510>
    a472:	0b0a      	lsrs	r2, r1, #12
    a474:	0010      	movs	r0, r2
    a476:	326f      	adds	r2, #111	; 0x6f
    a478:	306e      	adds	r0, #110	; 0x6e
    a47a:	0052      	lsls	r2, r2, #1
    a47c:	e738      	b.n	a2f0 <_malloc_r+0x340>
    a47e:	051b      	lsls	r3, r3, #20
    a480:	d000      	beq.n	a484 <_malloc_r+0x4d4>
    a482:	e6b8      	b.n	a1f6 <_malloc_r+0x246>
    a484:	9b00      	ldr	r3, [sp, #0]
    a486:	68b2      	ldr	r2, [r6, #8]
    a488:	4443      	add	r3, r8
    a48a:	0018      	movs	r0, r3
    a48c:	2301      	movs	r3, #1
    a48e:	4303      	orrs	r3, r0
    a490:	6053      	str	r3, [r2, #4]
    a492:	e6f7      	b.n	a284 <_malloc_r+0x2d4>
    a494:	237f      	movs	r3, #127	; 0x7f
    a496:	4698      	mov	r8, r3
    a498:	3b01      	subs	r3, #1
    a49a:	21fe      	movs	r1, #254	; 0xfe
    a49c:	469c      	mov	ip, r3
    a49e:	e5b1      	b.n	a004 <_malloc_r+0x54>
    a4a0:	465b      	mov	r3, fp
    a4a2:	464a      	mov	r2, r9
    a4a4:	601a      	str	r2, [r3, #0]
    a4a6:	e6b1      	b.n	a20c <_malloc_r+0x25c>
    a4a8:	2300      	movs	r3, #0
    a4aa:	2001      	movs	r0, #1
    a4ac:	469b      	mov	fp, r3
    a4ae:	e6ca      	b.n	a246 <_malloc_r+0x296>
    a4b0:	0021      	movs	r1, r4
    a4b2:	0038      	movs	r0, r7
    a4b4:	3108      	adds	r1, #8
    a4b6:	f7ff fa63 	bl	9980 <_free_r>
    a4ba:	4653      	mov	r3, sl
    a4bc:	6819      	ldr	r1, [r3, #0]
    a4be:	e6e1      	b.n	a284 <_malloc_r+0x2d4>
    a4c0:	20aa      	movs	r0, #170	; 0xaa
    a4c2:	0040      	lsls	r0, r0, #1
    a4c4:	4282      	cmp	r2, r0
    a4c6:	d805      	bhi.n	a4d4 <_malloc_r+0x524>
    a4c8:	0bca      	lsrs	r2, r1, #15
    a4ca:	0010      	movs	r0, r2
    a4cc:	3278      	adds	r2, #120	; 0x78
    a4ce:	3077      	adds	r0, #119	; 0x77
    a4d0:	0052      	lsls	r2, r2, #1
    a4d2:	e70d      	b.n	a2f0 <_malloc_r+0x340>
    a4d4:	480a      	ldr	r0, [pc, #40]	; (a500 <_malloc_r+0x550>)
    a4d6:	4282      	cmp	r2, r0
    a4d8:	d805      	bhi.n	a4e6 <_malloc_r+0x536>
    a4da:	0c8a      	lsrs	r2, r1, #18
    a4dc:	0010      	movs	r0, r2
    a4de:	327d      	adds	r2, #125	; 0x7d
    a4e0:	307c      	adds	r0, #124	; 0x7c
    a4e2:	0052      	lsls	r2, r2, #1
    a4e4:	e704      	b.n	a2f0 <_malloc_r+0x340>
    a4e6:	22fe      	movs	r2, #254	; 0xfe
    a4e8:	207e      	movs	r0, #126	; 0x7e
    a4ea:	e701      	b.n	a2f0 <_malloc_r+0x340>
    a4ec:	6873      	ldr	r3, [r6, #4]
    a4ee:	e789      	b.n	a404 <_malloc_r+0x454>
    a4f0:	08e9      	lsrs	r1, r5, #3
    a4f2:	1c4b      	adds	r3, r1, #1
    a4f4:	005b      	lsls	r3, r3, #1
    a4f6:	e619      	b.n	a12c <_malloc_r+0x17c>
    a4f8:	4653      	mov	r3, sl
    a4fa:	9300      	str	r3, [sp, #0]
    a4fc:	e5e0      	b.n	a0c0 <_malloc_r+0x110>
    a4fe:	46c0      	nop			; (mov r8, r8)
    a500:	00000554 	.word	0x00000554

0000a504 <memchr>:
    a504:	b570      	push	{r4, r5, r6, lr}
    a506:	b2cd      	uxtb	r5, r1
    a508:	0783      	lsls	r3, r0, #30
    a50a:	d03c      	beq.n	a586 <memchr+0x82>
    a50c:	1e53      	subs	r3, r2, #1
    a50e:	2a00      	cmp	r2, #0
    a510:	d01f      	beq.n	a552 <memchr+0x4e>
    a512:	7802      	ldrb	r2, [r0, #0]
    a514:	42aa      	cmp	r2, r5
    a516:	d01d      	beq.n	a554 <memchr+0x50>
    a518:	2403      	movs	r4, #3
    a51a:	e005      	b.n	a528 <memchr+0x24>
    a51c:	2b00      	cmp	r3, #0
    a51e:	d018      	beq.n	a552 <memchr+0x4e>
    a520:	7802      	ldrb	r2, [r0, #0]
    a522:	3b01      	subs	r3, #1
    a524:	42aa      	cmp	r2, r5
    a526:	d015      	beq.n	a554 <memchr+0x50>
    a528:	3001      	adds	r0, #1
    a52a:	4220      	tst	r0, r4
    a52c:	d1f6      	bne.n	a51c <memchr+0x18>
    a52e:	2b03      	cmp	r3, #3
    a530:	d811      	bhi.n	a556 <memchr+0x52>
    a532:	2b00      	cmp	r3, #0
    a534:	d00d      	beq.n	a552 <memchr+0x4e>
    a536:	7802      	ldrb	r2, [r0, #0]
    a538:	42aa      	cmp	r2, r5
    a53a:	d00b      	beq.n	a554 <memchr+0x50>
    a53c:	1c42      	adds	r2, r0, #1
    a53e:	18c0      	adds	r0, r0, r3
    a540:	e004      	b.n	a54c <memchr+0x48>
    a542:	3201      	adds	r2, #1
    a544:	1e51      	subs	r1, r2, #1
    a546:	7809      	ldrb	r1, [r1, #0]
    a548:	42a9      	cmp	r1, r5
    a54a:	d01a      	beq.n	a582 <memchr+0x7e>
    a54c:	0013      	movs	r3, r2
    a54e:	4290      	cmp	r0, r2
    a550:	d1f7      	bne.n	a542 <memchr+0x3e>
    a552:	2000      	movs	r0, #0
    a554:	bd70      	pop	{r4, r5, r6, pc}
    a556:	22ff      	movs	r2, #255	; 0xff
    a558:	020c      	lsls	r4, r1, #8
    a55a:	0212      	lsls	r2, r2, #8
    a55c:	4022      	ands	r2, r4
    a55e:	24ff      	movs	r4, #255	; 0xff
    a560:	4021      	ands	r1, r4
    a562:	4311      	orrs	r1, r2
    a564:	040c      	lsls	r4, r1, #16
    a566:	4e09      	ldr	r6, [pc, #36]	; (a58c <memchr+0x88>)
    a568:	430c      	orrs	r4, r1
    a56a:	6802      	ldr	r2, [r0, #0]
    a56c:	4908      	ldr	r1, [pc, #32]	; (a590 <memchr+0x8c>)
    a56e:	4062      	eors	r2, r4
    a570:	1851      	adds	r1, r2, r1
    a572:	4391      	bics	r1, r2
    a574:	4231      	tst	r1, r6
    a576:	d1de      	bne.n	a536 <memchr+0x32>
    a578:	3b04      	subs	r3, #4
    a57a:	3004      	adds	r0, #4
    a57c:	2b03      	cmp	r3, #3
    a57e:	d8f4      	bhi.n	a56a <memchr+0x66>
    a580:	e7d7      	b.n	a532 <memchr+0x2e>
    a582:	0018      	movs	r0, r3
    a584:	e7e6      	b.n	a554 <memchr+0x50>
    a586:	0013      	movs	r3, r2
    a588:	e7d1      	b.n	a52e <memchr+0x2a>
    a58a:	46c0      	nop			; (mov r8, r8)
    a58c:	80808080 	.word	0x80808080
    a590:	fefefeff 	.word	0xfefefeff

0000a594 <memmove>:
    a594:	b570      	push	{r4, r5, r6, lr}
    a596:	4288      	cmp	r0, r1
    a598:	d90b      	bls.n	a5b2 <memmove+0x1e>
    a59a:	188b      	adds	r3, r1, r2
    a59c:	4298      	cmp	r0, r3
    a59e:	d208      	bcs.n	a5b2 <memmove+0x1e>
    a5a0:	1a99      	subs	r1, r3, r2
    a5a2:	1e53      	subs	r3, r2, #1
    a5a4:	2a00      	cmp	r2, #0
    a5a6:	d003      	beq.n	a5b0 <memmove+0x1c>
    a5a8:	5cca      	ldrb	r2, [r1, r3]
    a5aa:	54c2      	strb	r2, [r0, r3]
    a5ac:	3b01      	subs	r3, #1
    a5ae:	d2fb      	bcs.n	a5a8 <memmove+0x14>
    a5b0:	bd70      	pop	{r4, r5, r6, pc}
    a5b2:	2a0f      	cmp	r2, #15
    a5b4:	d809      	bhi.n	a5ca <memmove+0x36>
    a5b6:	0005      	movs	r5, r0
    a5b8:	2a00      	cmp	r2, #0
    a5ba:	d0f9      	beq.n	a5b0 <memmove+0x1c>
    a5bc:	2300      	movs	r3, #0
    a5be:	5ccc      	ldrb	r4, [r1, r3]
    a5c0:	54ec      	strb	r4, [r5, r3]
    a5c2:	3301      	adds	r3, #1
    a5c4:	429a      	cmp	r2, r3
    a5c6:	d1fa      	bne.n	a5be <memmove+0x2a>
    a5c8:	e7f2      	b.n	a5b0 <memmove+0x1c>
    a5ca:	000c      	movs	r4, r1
    a5cc:	4304      	orrs	r4, r0
    a5ce:	000b      	movs	r3, r1
    a5d0:	07a4      	lsls	r4, r4, #30
    a5d2:	d126      	bne.n	a622 <memmove+0x8e>
    a5d4:	0015      	movs	r5, r2
    a5d6:	0004      	movs	r4, r0
    a5d8:	3d10      	subs	r5, #16
    a5da:	092d      	lsrs	r5, r5, #4
    a5dc:	3501      	adds	r5, #1
    a5de:	012d      	lsls	r5, r5, #4
    a5e0:	1949      	adds	r1, r1, r5
    a5e2:	681e      	ldr	r6, [r3, #0]
    a5e4:	6026      	str	r6, [r4, #0]
    a5e6:	685e      	ldr	r6, [r3, #4]
    a5e8:	6066      	str	r6, [r4, #4]
    a5ea:	689e      	ldr	r6, [r3, #8]
    a5ec:	60a6      	str	r6, [r4, #8]
    a5ee:	68de      	ldr	r6, [r3, #12]
    a5f0:	3310      	adds	r3, #16
    a5f2:	60e6      	str	r6, [r4, #12]
    a5f4:	3410      	adds	r4, #16
    a5f6:	4299      	cmp	r1, r3
    a5f8:	d1f3      	bne.n	a5e2 <memmove+0x4e>
    a5fa:	240f      	movs	r4, #15
    a5fc:	1945      	adds	r5, r0, r5
    a5fe:	4014      	ands	r4, r2
    a600:	2c03      	cmp	r4, #3
    a602:	d910      	bls.n	a626 <memmove+0x92>
    a604:	2300      	movs	r3, #0
    a606:	3c04      	subs	r4, #4
    a608:	08a4      	lsrs	r4, r4, #2
    a60a:	3401      	adds	r4, #1
    a60c:	00a4      	lsls	r4, r4, #2
    a60e:	58ce      	ldr	r6, [r1, r3]
    a610:	50ee      	str	r6, [r5, r3]
    a612:	3304      	adds	r3, #4
    a614:	429c      	cmp	r4, r3
    a616:	d1fa      	bne.n	a60e <memmove+0x7a>
    a618:	2303      	movs	r3, #3
    a61a:	192d      	adds	r5, r5, r4
    a61c:	1909      	adds	r1, r1, r4
    a61e:	401a      	ands	r2, r3
    a620:	e7ca      	b.n	a5b8 <memmove+0x24>
    a622:	0005      	movs	r5, r0
    a624:	e7ca      	b.n	a5bc <memmove+0x28>
    a626:	0022      	movs	r2, r4
    a628:	e7c6      	b.n	a5b8 <memmove+0x24>
    a62a:	46c0      	nop			; (mov r8, r8)

0000a62c <__malloc_lock>:
    a62c:	4770      	bx	lr
    a62e:	46c0      	nop			; (mov r8, r8)

0000a630 <__malloc_unlock>:
    a630:	4770      	bx	lr
    a632:	46c0      	nop			; (mov r8, r8)

0000a634 <_Balloc>:
    a634:	6cc3      	ldr	r3, [r0, #76]	; 0x4c
    a636:	b570      	push	{r4, r5, r6, lr}
    a638:	0004      	movs	r4, r0
    a63a:	000d      	movs	r5, r1
    a63c:	2b00      	cmp	r3, #0
    a63e:	d00a      	beq.n	a656 <_Balloc+0x22>
    a640:	00aa      	lsls	r2, r5, #2
    a642:	189b      	adds	r3, r3, r2
    a644:	6818      	ldr	r0, [r3, #0]
    a646:	2800      	cmp	r0, #0
    a648:	d00e      	beq.n	a668 <_Balloc+0x34>
    a64a:	6802      	ldr	r2, [r0, #0]
    a64c:	601a      	str	r2, [r3, #0]
    a64e:	2300      	movs	r3, #0
    a650:	6103      	str	r3, [r0, #16]
    a652:	60c3      	str	r3, [r0, #12]
    a654:	bd70      	pop	{r4, r5, r6, pc}
    a656:	2221      	movs	r2, #33	; 0x21
    a658:	2104      	movs	r1, #4
    a65a:	f000 fe41 	bl	b2e0 <_calloc_r>
    a65e:	64e0      	str	r0, [r4, #76]	; 0x4c
    a660:	1e03      	subs	r3, r0, #0
    a662:	d1ed      	bne.n	a640 <_Balloc+0xc>
    a664:	2000      	movs	r0, #0
    a666:	e7f5      	b.n	a654 <_Balloc+0x20>
    a668:	2601      	movs	r6, #1
    a66a:	40ae      	lsls	r6, r5
    a66c:	1d72      	adds	r2, r6, #5
    a66e:	0092      	lsls	r2, r2, #2
    a670:	2101      	movs	r1, #1
    a672:	0020      	movs	r0, r4
    a674:	f000 fe34 	bl	b2e0 <_calloc_r>
    a678:	2800      	cmp	r0, #0
    a67a:	d0f3      	beq.n	a664 <_Balloc+0x30>
    a67c:	6045      	str	r5, [r0, #4]
    a67e:	6086      	str	r6, [r0, #8]
    a680:	e7e5      	b.n	a64e <_Balloc+0x1a>
    a682:	46c0      	nop			; (mov r8, r8)

0000a684 <_Bfree>:
    a684:	2900      	cmp	r1, #0
    a686:	d006      	beq.n	a696 <_Bfree+0x12>
    a688:	684b      	ldr	r3, [r1, #4]
    a68a:	6cc2      	ldr	r2, [r0, #76]	; 0x4c
    a68c:	009b      	lsls	r3, r3, #2
    a68e:	18d3      	adds	r3, r2, r3
    a690:	681a      	ldr	r2, [r3, #0]
    a692:	600a      	str	r2, [r1, #0]
    a694:	6019      	str	r1, [r3, #0]
    a696:	4770      	bx	lr

0000a698 <__multadd>:
    a698:	b5f8      	push	{r3, r4, r5, r6, r7, lr}
    a69a:	464f      	mov	r7, r9
    a69c:	4646      	mov	r6, r8
    a69e:	b4c0      	push	{r6, r7}
    a6a0:	000f      	movs	r7, r1
    a6a2:	4681      	mov	r9, r0
    a6a4:	000e      	movs	r6, r1
    a6a6:	001c      	movs	r4, r3
    a6a8:	2000      	movs	r0, #0
    a6aa:	690d      	ldr	r5, [r1, #16]
    a6ac:	3714      	adds	r7, #20
    a6ae:	6839      	ldr	r1, [r7, #0]
    a6b0:	3001      	adds	r0, #1
    a6b2:	040b      	lsls	r3, r1, #16
    a6b4:	0c1b      	lsrs	r3, r3, #16
    a6b6:	4353      	muls	r3, r2
    a6b8:	0c09      	lsrs	r1, r1, #16
    a6ba:	4351      	muls	r1, r2
    a6bc:	191b      	adds	r3, r3, r4
    a6be:	0c1c      	lsrs	r4, r3, #16
    a6c0:	1909      	adds	r1, r1, r4
    a6c2:	041b      	lsls	r3, r3, #16
    a6c4:	0c0c      	lsrs	r4, r1, #16
    a6c6:	0c1b      	lsrs	r3, r3, #16
    a6c8:	0409      	lsls	r1, r1, #16
    a6ca:	18cb      	adds	r3, r1, r3
    a6cc:	c708      	stmia	r7!, {r3}
    a6ce:	4285      	cmp	r5, r0
    a6d0:	dced      	bgt.n	a6ae <__multadd+0x16>
    a6d2:	2c00      	cmp	r4, #0
    a6d4:	d008      	beq.n	a6e8 <__multadd+0x50>
    a6d6:	68b3      	ldr	r3, [r6, #8]
    a6d8:	429d      	cmp	r5, r3
    a6da:	da0a      	bge.n	a6f2 <__multadd+0x5a>
    a6dc:	1d2b      	adds	r3, r5, #4
    a6de:	009b      	lsls	r3, r3, #2
    a6e0:	18f3      	adds	r3, r6, r3
    a6e2:	3501      	adds	r5, #1
    a6e4:	605c      	str	r4, [r3, #4]
    a6e6:	6135      	str	r5, [r6, #16]
    a6e8:	0030      	movs	r0, r6
    a6ea:	bc0c      	pop	{r2, r3}
    a6ec:	4690      	mov	r8, r2
    a6ee:	4699      	mov	r9, r3
    a6f0:	bdf8      	pop	{r3, r4, r5, r6, r7, pc}
    a6f2:	6873      	ldr	r3, [r6, #4]
    a6f4:	4648      	mov	r0, r9
    a6f6:	1c59      	adds	r1, r3, #1
    a6f8:	f7ff ff9c 	bl	a634 <_Balloc>
    a6fc:	0031      	movs	r1, r6
    a6fe:	6933      	ldr	r3, [r6, #16]
    a700:	4680      	mov	r8, r0
    a702:	1c9a      	adds	r2, r3, #2
    a704:	0092      	lsls	r2, r2, #2
    a706:	310c      	adds	r1, #12
    a708:	300c      	adds	r0, #12
    a70a:	f7fc f95b 	bl	69c4 <memcpy>
    a70e:	464a      	mov	r2, r9
    a710:	6873      	ldr	r3, [r6, #4]
    a712:	6cd2      	ldr	r2, [r2, #76]	; 0x4c
    a714:	009b      	lsls	r3, r3, #2
    a716:	18d3      	adds	r3, r2, r3
    a718:	681a      	ldr	r2, [r3, #0]
    a71a:	6032      	str	r2, [r6, #0]
    a71c:	601e      	str	r6, [r3, #0]
    a71e:	4646      	mov	r6, r8
    a720:	e7dc      	b.n	a6dc <__multadd+0x44>
    a722:	46c0      	nop			; (mov r8, r8)

0000a724 <__hi0bits>:
    a724:	0003      	movs	r3, r0
    a726:	0c01      	lsrs	r1, r0, #16
    a728:	2200      	movs	r2, #0
    a72a:	2900      	cmp	r1, #0
    a72c:	d101      	bne.n	a732 <__hi0bits+0xe>
    a72e:	0403      	lsls	r3, r0, #16
    a730:	3210      	adds	r2, #16
    a732:	0e19      	lsrs	r1, r3, #24
    a734:	d101      	bne.n	a73a <__hi0bits+0x16>
    a736:	3208      	adds	r2, #8
    a738:	021b      	lsls	r3, r3, #8
    a73a:	0f19      	lsrs	r1, r3, #28
    a73c:	d101      	bne.n	a742 <__hi0bits+0x1e>
    a73e:	3204      	adds	r2, #4
    a740:	011b      	lsls	r3, r3, #4
    a742:	0f99      	lsrs	r1, r3, #30
    a744:	d101      	bne.n	a74a <__hi0bits+0x26>
    a746:	3202      	adds	r2, #2
    a748:	009b      	lsls	r3, r3, #2
    a74a:	2b00      	cmp	r3, #0
    a74c:	db05      	blt.n	a75a <__hi0bits+0x36>
    a74e:	2020      	movs	r0, #32
    a750:	005b      	lsls	r3, r3, #1
    a752:	d400      	bmi.n	a756 <__hi0bits+0x32>
    a754:	4770      	bx	lr
    a756:	1c50      	adds	r0, r2, #1
    a758:	e7fc      	b.n	a754 <__hi0bits+0x30>
    a75a:	0010      	movs	r0, r2
    a75c:	e7fa      	b.n	a754 <__hi0bits+0x30>
    a75e:	46c0      	nop			; (mov r8, r8)

0000a760 <__lo0bits>:
    a760:	6803      	ldr	r3, [r0, #0]
    a762:	0001      	movs	r1, r0
    a764:	075a      	lsls	r2, r3, #29
    a766:	d008      	beq.n	a77a <__lo0bits+0x1a>
    a768:	2000      	movs	r0, #0
    a76a:	07da      	lsls	r2, r3, #31
    a76c:	d404      	bmi.n	a778 <__lo0bits+0x18>
    a76e:	079a      	lsls	r2, r3, #30
    a770:	d420      	bmi.n	a7b4 <__lo0bits+0x54>
    a772:	2002      	movs	r0, #2
    a774:	089b      	lsrs	r3, r3, #2
    a776:	600b      	str	r3, [r1, #0]
    a778:	4770      	bx	lr
    a77a:	0418      	lsls	r0, r3, #16
    a77c:	2200      	movs	r2, #0
    a77e:	2800      	cmp	r0, #0
    a780:	d101      	bne.n	a786 <__lo0bits+0x26>
    a782:	0c1b      	lsrs	r3, r3, #16
    a784:	3210      	adds	r2, #16
    a786:	20ff      	movs	r0, #255	; 0xff
    a788:	4218      	tst	r0, r3
    a78a:	d101      	bne.n	a790 <__lo0bits+0x30>
    a78c:	3208      	adds	r2, #8
    a78e:	0a1b      	lsrs	r3, r3, #8
    a790:	0718      	lsls	r0, r3, #28
    a792:	d101      	bne.n	a798 <__lo0bits+0x38>
    a794:	3204      	adds	r2, #4
    a796:	091b      	lsrs	r3, r3, #4
    a798:	0798      	lsls	r0, r3, #30
    a79a:	d101      	bne.n	a7a0 <__lo0bits+0x40>
    a79c:	3202      	adds	r2, #2
    a79e:	089b      	lsrs	r3, r3, #2
    a7a0:	07d8      	lsls	r0, r3, #31
    a7a2:	d404      	bmi.n	a7ae <__lo0bits+0x4e>
    a7a4:	085b      	lsrs	r3, r3, #1
    a7a6:	2020      	movs	r0, #32
    a7a8:	2b00      	cmp	r3, #0
    a7aa:	d0e5      	beq.n	a778 <__lo0bits+0x18>
    a7ac:	3201      	adds	r2, #1
    a7ae:	600b      	str	r3, [r1, #0]
    a7b0:	0010      	movs	r0, r2
    a7b2:	e7e1      	b.n	a778 <__lo0bits+0x18>
    a7b4:	085b      	lsrs	r3, r3, #1
    a7b6:	600b      	str	r3, [r1, #0]
    a7b8:	3001      	adds	r0, #1
    a7ba:	e7dd      	b.n	a778 <__lo0bits+0x18>

0000a7bc <__i2b>:
    a7bc:	b510      	push	{r4, lr}
    a7be:	000c      	movs	r4, r1
    a7c0:	2101      	movs	r1, #1
    a7c2:	f7ff ff37 	bl	a634 <_Balloc>
    a7c6:	2301      	movs	r3, #1
    a7c8:	6144      	str	r4, [r0, #20]
    a7ca:	6103      	str	r3, [r0, #16]
    a7cc:	bd10      	pop	{r4, pc}
    a7ce:	46c0      	nop			; (mov r8, r8)

0000a7d0 <__multiply>:
    a7d0:	b5f0      	push	{r4, r5, r6, r7, lr}
    a7d2:	465f      	mov	r7, fp
    a7d4:	4656      	mov	r6, sl
    a7d6:	464d      	mov	r5, r9
    a7d8:	4644      	mov	r4, r8
    a7da:	b4f0      	push	{r4, r5, r6, r7}
    a7dc:	690e      	ldr	r6, [r1, #16]
    a7de:	6914      	ldr	r4, [r2, #16]
    a7e0:	b085      	sub	sp, #20
    a7e2:	000f      	movs	r7, r1
    a7e4:	0015      	movs	r5, r2
    a7e6:	42a6      	cmp	r6, r4
    a7e8:	da04      	bge.n	a7f4 <__multiply+0x24>
    a7ea:	0033      	movs	r3, r6
    a7ec:	0017      	movs	r7, r2
    a7ee:	0026      	movs	r6, r4
    a7f0:	000d      	movs	r5, r1
    a7f2:	001c      	movs	r4, r3
    a7f4:	1933      	adds	r3, r6, r4
    a7f6:	4698      	mov	r8, r3
    a7f8:	68bb      	ldr	r3, [r7, #8]
    a7fa:	6879      	ldr	r1, [r7, #4]
    a7fc:	4598      	cmp	r8, r3
    a7fe:	dd00      	ble.n	a802 <__multiply+0x32>
    a800:	3101      	adds	r1, #1
    a802:	f7ff ff17 	bl	a634 <_Balloc>
    a806:	2214      	movs	r2, #20
    a808:	0003      	movs	r3, r0
    a80a:	4694      	mov	ip, r2
    a80c:	4463      	add	r3, ip
    a80e:	469b      	mov	fp, r3
    a810:	4643      	mov	r3, r8
    a812:	009b      	lsls	r3, r3, #2
    a814:	445b      	add	r3, fp
    a816:	0019      	movs	r1, r3
    a818:	9302      	str	r3, [sp, #8]
    a81a:	9003      	str	r0, [sp, #12]
    a81c:	465b      	mov	r3, fp
    a81e:	2200      	movs	r2, #0
    a820:	458b      	cmp	fp, r1
    a822:	d203      	bcs.n	a82c <__multiply+0x5c>
    a824:	9902      	ldr	r1, [sp, #8]
    a826:	c304      	stmia	r3!, {r2}
    a828:	4299      	cmp	r1, r3
    a82a:	d8fc      	bhi.n	a826 <__multiply+0x56>
    a82c:	2314      	movs	r3, #20
    a82e:	00a4      	lsls	r4, r4, #2
    a830:	469a      	mov	sl, r3
    a832:	3714      	adds	r7, #20
    a834:	0023      	movs	r3, r4
    a836:	46bc      	mov	ip, r7
    a838:	44aa      	add	sl, r5
    a83a:	00b6      	lsls	r6, r6, #2
    a83c:	4453      	add	r3, sl
    a83e:	9700      	str	r7, [sp, #0]
    a840:	44b4      	add	ip, r6
    a842:	9301      	str	r3, [sp, #4]
    a844:	459a      	cmp	sl, r3
    a846:	d253      	bcs.n	a8f0 <__multiply+0x120>
    a848:	4653      	mov	r3, sl
    a84a:	681b      	ldr	r3, [r3, #0]
    a84c:	041e      	lsls	r6, r3, #16
    a84e:	0c36      	lsrs	r6, r6, #16
    a850:	d021      	beq.n	a896 <__multiply+0xc6>
    a852:	465c      	mov	r4, fp
    a854:	2700      	movs	r7, #0
    a856:	4661      	mov	r1, ip
    a858:	9d00      	ldr	r5, [sp, #0]
    a85a:	cd04      	ldmia	r5!, {r2}
    a85c:	0020      	movs	r0, r4
    a85e:	0413      	lsls	r3, r2, #16
    a860:	0c1b      	lsrs	r3, r3, #16
    a862:	4373      	muls	r3, r6
    a864:	4699      	mov	r9, r3
    a866:	6823      	ldr	r3, [r4, #0]
    a868:	041b      	lsls	r3, r3, #16
    a86a:	0c1b      	lsrs	r3, r3, #16
    a86c:	444b      	add	r3, r9
    a86e:	19db      	adds	r3, r3, r7
    a870:	0c17      	lsrs	r7, r2, #16
    a872:	4377      	muls	r7, r6
    a874:	6822      	ldr	r2, [r4, #0]
    a876:	0c12      	lsrs	r2, r2, #16
    a878:	18ba      	adds	r2, r7, r2
    a87a:	0c1f      	lsrs	r7, r3, #16
    a87c:	19d2      	adds	r2, r2, r7
    a87e:	041b      	lsls	r3, r3, #16
    a880:	0c17      	lsrs	r7, r2, #16
    a882:	0c1b      	lsrs	r3, r3, #16
    a884:	0412      	lsls	r2, r2, #16
    a886:	4313      	orrs	r3, r2
    a888:	c408      	stmia	r4!, {r3}
    a88a:	42a9      	cmp	r1, r5
    a88c:	d8e5      	bhi.n	a85a <__multiply+0x8a>
    a88e:	4653      	mov	r3, sl
    a890:	468c      	mov	ip, r1
    a892:	6047      	str	r7, [r0, #4]
    a894:	681b      	ldr	r3, [r3, #0]
    a896:	0c1e      	lsrs	r6, r3, #16
    a898:	d023      	beq.n	a8e2 <__multiply+0x112>
    a89a:	465b      	mov	r3, fp
    a89c:	2200      	movs	r2, #0
    a89e:	681b      	ldr	r3, [r3, #0]
    a8a0:	4658      	mov	r0, fp
    a8a2:	001d      	movs	r5, r3
    a8a4:	0011      	movs	r1, r2
    a8a6:	4667      	mov	r7, ip
    a8a8:	9c00      	ldr	r4, [sp, #0]
    a8aa:	8822      	ldrh	r2, [r4, #0]
    a8ac:	0c2d      	lsrs	r5, r5, #16
    a8ae:	4372      	muls	r2, r6
    a8b0:	1955      	adds	r5, r2, r5
    a8b2:	186a      	adds	r2, r5, r1
    a8b4:	041b      	lsls	r3, r3, #16
    a8b6:	0411      	lsls	r1, r2, #16
    a8b8:	0c1b      	lsrs	r3, r3, #16
    a8ba:	430b      	orrs	r3, r1
    a8bc:	6003      	str	r3, [r0, #0]
    a8be:	cc08      	ldmia	r4!, {r3}
    a8c0:	6845      	ldr	r5, [r0, #4]
    a8c2:	0c1b      	lsrs	r3, r3, #16
    a8c4:	4373      	muls	r3, r6
    a8c6:	0429      	lsls	r1, r5, #16
    a8c8:	0c09      	lsrs	r1, r1, #16
    a8ca:	1859      	adds	r1, r3, r1
    a8cc:	0c13      	lsrs	r3, r2, #16
    a8ce:	18cb      	adds	r3, r1, r3
    a8d0:	4684      	mov	ip, r0
    a8d2:	0c19      	lsrs	r1, r3, #16
    a8d4:	3004      	adds	r0, #4
    a8d6:	42a7      	cmp	r7, r4
    a8d8:	d8e7      	bhi.n	a8aa <__multiply+0xda>
    a8da:	003a      	movs	r2, r7
    a8dc:	4667      	mov	r7, ip
    a8de:	4694      	mov	ip, r2
    a8e0:	607b      	str	r3, [r7, #4]
    a8e2:	2304      	movs	r3, #4
    a8e4:	4699      	mov	r9, r3
    a8e6:	9b01      	ldr	r3, [sp, #4]
    a8e8:	44ca      	add	sl, r9
    a8ea:	44cb      	add	fp, r9
    a8ec:	4553      	cmp	r3, sl
    a8ee:	d8ab      	bhi.n	a848 <__multiply+0x78>
    a8f0:	4643      	mov	r3, r8
    a8f2:	2b00      	cmp	r3, #0
    a8f4:	dd0e      	ble.n	a914 <__multiply+0x144>
    a8f6:	9b02      	ldr	r3, [sp, #8]
    a8f8:	3b04      	subs	r3, #4
    a8fa:	681a      	ldr	r2, [r3, #0]
    a8fc:	2a00      	cmp	r2, #0
    a8fe:	d109      	bne.n	a914 <__multiply+0x144>
    a900:	4642      	mov	r2, r8
    a902:	e003      	b.n	a90c <__multiply+0x13c>
    a904:	3b04      	subs	r3, #4
    a906:	6819      	ldr	r1, [r3, #0]
    a908:	2900      	cmp	r1, #0
    a90a:	d102      	bne.n	a912 <__multiply+0x142>
    a90c:	3a01      	subs	r2, #1
    a90e:	2a00      	cmp	r2, #0
    a910:	d1f8      	bne.n	a904 <__multiply+0x134>
    a912:	4690      	mov	r8, r2
    a914:	9b03      	ldr	r3, [sp, #12]
    a916:	4642      	mov	r2, r8
    a918:	0018      	movs	r0, r3
    a91a:	611a      	str	r2, [r3, #16]
    a91c:	b005      	add	sp, #20
    a91e:	bc3c      	pop	{r2, r3, r4, r5}
    a920:	4690      	mov	r8, r2
    a922:	4699      	mov	r9, r3
    a924:	46a2      	mov	sl, r4
    a926:	46ab      	mov	fp, r5
    a928:	bdf0      	pop	{r4, r5, r6, r7, pc}
    a92a:	46c0      	nop			; (mov r8, r8)

0000a92c <__pow5mult>:
    a92c:	b5f8      	push	{r3, r4, r5, r6, r7, lr}
    a92e:	4646      	mov	r6, r8
    a930:	464f      	mov	r7, r9
    a932:	2303      	movs	r3, #3
    a934:	b4c0      	push	{r6, r7}
    a936:	4680      	mov	r8, r0
    a938:	000e      	movs	r6, r1
    a93a:	0014      	movs	r4, r2
    a93c:	4013      	ands	r3, r2
    a93e:	d137      	bne.n	a9b0 <__pow5mult+0x84>
    a940:	10a4      	asrs	r4, r4, #2
    a942:	d024      	beq.n	a98e <__pow5mult+0x62>
    a944:	4643      	mov	r3, r8
    a946:	6c9d      	ldr	r5, [r3, #72]	; 0x48
    a948:	2d00      	cmp	r5, #0
    a94a:	d03a      	beq.n	a9c2 <__pow5mult+0x96>
    a94c:	2300      	movs	r3, #0
    a94e:	2701      	movs	r7, #1
    a950:	4699      	mov	r9, r3
    a952:	4227      	tst	r7, r4
    a954:	d107      	bne.n	a966 <__pow5mult+0x3a>
    a956:	1064      	asrs	r4, r4, #1
    a958:	d019      	beq.n	a98e <__pow5mult+0x62>
    a95a:	6828      	ldr	r0, [r5, #0]
    a95c:	2800      	cmp	r0, #0
    a95e:	d01b      	beq.n	a998 <__pow5mult+0x6c>
    a960:	0005      	movs	r5, r0
    a962:	4227      	tst	r7, r4
    a964:	d0f7      	beq.n	a956 <__pow5mult+0x2a>
    a966:	002a      	movs	r2, r5
    a968:	0031      	movs	r1, r6
    a96a:	4640      	mov	r0, r8
    a96c:	f7ff ff30 	bl	a7d0 <__multiply>
    a970:	2e00      	cmp	r6, #0
    a972:	d01b      	beq.n	a9ac <__pow5mult+0x80>
    a974:	4642      	mov	r2, r8
    a976:	6cd2      	ldr	r2, [r2, #76]	; 0x4c
    a978:	6873      	ldr	r3, [r6, #4]
    a97a:	4694      	mov	ip, r2
    a97c:	009b      	lsls	r3, r3, #2
    a97e:	4463      	add	r3, ip
    a980:	681a      	ldr	r2, [r3, #0]
    a982:	1064      	asrs	r4, r4, #1
    a984:	6032      	str	r2, [r6, #0]
    a986:	601e      	str	r6, [r3, #0]
    a988:	0006      	movs	r6, r0
    a98a:	2c00      	cmp	r4, #0
    a98c:	d1e5      	bne.n	a95a <__pow5mult+0x2e>
    a98e:	0030      	movs	r0, r6
    a990:	bc0c      	pop	{r2, r3}
    a992:	4690      	mov	r8, r2
    a994:	4699      	mov	r9, r3
    a996:	bdf8      	pop	{r3, r4, r5, r6, r7, pc}
    a998:	002a      	movs	r2, r5
    a99a:	0029      	movs	r1, r5
    a99c:	4640      	mov	r0, r8
    a99e:	f7ff ff17 	bl	a7d0 <__multiply>
    a9a2:	464b      	mov	r3, r9
    a9a4:	6028      	str	r0, [r5, #0]
    a9a6:	6003      	str	r3, [r0, #0]
    a9a8:	0005      	movs	r5, r0
    a9aa:	e7da      	b.n	a962 <__pow5mult+0x36>
    a9ac:	0006      	movs	r6, r0
    a9ae:	e7d2      	b.n	a956 <__pow5mult+0x2a>
    a9b0:	4a0b      	ldr	r2, [pc, #44]	; (a9e0 <__pow5mult+0xb4>)
    a9b2:	3b01      	subs	r3, #1
    a9b4:	009b      	lsls	r3, r3, #2
    a9b6:	589a      	ldr	r2, [r3, r2]
    a9b8:	2300      	movs	r3, #0
    a9ba:	f7ff fe6d 	bl	a698 <__multadd>
    a9be:	0006      	movs	r6, r0
    a9c0:	e7be      	b.n	a940 <__pow5mult+0x14>
    a9c2:	2101      	movs	r1, #1
    a9c4:	4640      	mov	r0, r8
    a9c6:	f7ff fe35 	bl	a634 <_Balloc>
    a9ca:	4b06      	ldr	r3, [pc, #24]	; (a9e4 <__pow5mult+0xb8>)
    a9cc:	0005      	movs	r5, r0
    a9ce:	6143      	str	r3, [r0, #20]
    a9d0:	2301      	movs	r3, #1
    a9d2:	6103      	str	r3, [r0, #16]
    a9d4:	4643      	mov	r3, r8
    a9d6:	6498      	str	r0, [r3, #72]	; 0x48
    a9d8:	2300      	movs	r3, #0
    a9da:	6003      	str	r3, [r0, #0]
    a9dc:	e7b6      	b.n	a94c <__pow5mult+0x20>
    a9de:	46c0      	nop			; (mov r8, r8)
    a9e0:	0000c108 	.word	0x0000c108
    a9e4:	00000271 	.word	0x00000271

0000a9e8 <__lshift>:
    a9e8:	b5f0      	push	{r4, r5, r6, r7, lr}
    a9ea:	464d      	mov	r5, r9
    a9ec:	4644      	mov	r4, r8
    a9ee:	465f      	mov	r7, fp
    a9f0:	4656      	mov	r6, sl
    a9f2:	b4f0      	push	{r4, r5, r6, r7}
    a9f4:	000e      	movs	r6, r1
    a9f6:	6933      	ldr	r3, [r6, #16]
    a9f8:	1157      	asrs	r7, r2, #5
    a9fa:	4699      	mov	r9, r3
    a9fc:	44b9      	add	r9, r7
    a9fe:	464b      	mov	r3, r9
    aa00:	1c5d      	adds	r5, r3, #1
    aa02:	68b3      	ldr	r3, [r6, #8]
    aa04:	b083      	sub	sp, #12
    aa06:	4680      	mov	r8, r0
    aa08:	0014      	movs	r4, r2
    aa0a:	6849      	ldr	r1, [r1, #4]
    aa0c:	429d      	cmp	r5, r3
    aa0e:	dd03      	ble.n	aa18 <__lshift+0x30>
    aa10:	3101      	adds	r1, #1
    aa12:	005b      	lsls	r3, r3, #1
    aa14:	429d      	cmp	r5, r3
    aa16:	dcfb      	bgt.n	aa10 <__lshift+0x28>
    aa18:	4640      	mov	r0, r8
    aa1a:	f7ff fe0b 	bl	a634 <_Balloc>
    aa1e:	0003      	movs	r3, r0
    aa20:	4682      	mov	sl, r0
    aa22:	3314      	adds	r3, #20
    aa24:	2f00      	cmp	r7, #0
    aa26:	dd06      	ble.n	aa36 <__lshift+0x4e>
    aa28:	00b9      	lsls	r1, r7, #2
    aa2a:	001a      	movs	r2, r3
    aa2c:	185b      	adds	r3, r3, r1
    aa2e:	2100      	movs	r1, #0
    aa30:	c202      	stmia	r2!, {r1}
    aa32:	4293      	cmp	r3, r2
    aa34:	d1fc      	bne.n	aa30 <__lshift+0x48>
    aa36:	0031      	movs	r1, r6
    aa38:	201f      	movs	r0, #31
    aa3a:	6932      	ldr	r2, [r6, #16]
    aa3c:	3114      	adds	r1, #20
    aa3e:	0092      	lsls	r2, r2, #2
    aa40:	188a      	adds	r2, r1, r2
    aa42:	4020      	ands	r0, r4
    aa44:	d026      	beq.n	aa94 <__lshift+0xac>
    aa46:	2420      	movs	r4, #32
    aa48:	1a24      	subs	r4, r4, r0
    aa4a:	46a4      	mov	ip, r4
    aa4c:	2400      	movs	r4, #0
    aa4e:	680f      	ldr	r7, [r1, #0]
    aa50:	9301      	str	r3, [sp, #4]
    aa52:	4087      	lsls	r7, r0
    aa54:	433c      	orrs	r4, r7
    aa56:	4667      	mov	r7, ip
    aa58:	c310      	stmia	r3!, {r4}
    aa5a:	c910      	ldmia	r1!, {r4}
    aa5c:	40fc      	lsrs	r4, r7
    aa5e:	428a      	cmp	r2, r1
    aa60:	d8f5      	bhi.n	aa4e <__lshift+0x66>
    aa62:	9b01      	ldr	r3, [sp, #4]
    aa64:	605c      	str	r4, [r3, #4]
    aa66:	2c00      	cmp	r4, #0
    aa68:	d001      	beq.n	aa6e <__lshift+0x86>
    aa6a:	464d      	mov	r5, r9
    aa6c:	3502      	adds	r5, #2
    aa6e:	4653      	mov	r3, sl
    aa70:	4642      	mov	r2, r8
    aa72:	4650      	mov	r0, sl
    aa74:	3d01      	subs	r5, #1
    aa76:	611d      	str	r5, [r3, #16]
    aa78:	6873      	ldr	r3, [r6, #4]
    aa7a:	6cd2      	ldr	r2, [r2, #76]	; 0x4c
    aa7c:	009b      	lsls	r3, r3, #2
    aa7e:	18d3      	adds	r3, r2, r3
    aa80:	681a      	ldr	r2, [r3, #0]
    aa82:	6032      	str	r2, [r6, #0]
    aa84:	601e      	str	r6, [r3, #0]
    aa86:	b003      	add	sp, #12
    aa88:	bc3c      	pop	{r2, r3, r4, r5}
    aa8a:	4690      	mov	r8, r2
    aa8c:	4699      	mov	r9, r3
    aa8e:	46a2      	mov	sl, r4
    aa90:	46ab      	mov	fp, r5
    aa92:	bdf0      	pop	{r4, r5, r6, r7, pc}
    aa94:	c901      	ldmia	r1!, {r0}
    aa96:	c301      	stmia	r3!, {r0}
    aa98:	428a      	cmp	r2, r1
    aa9a:	d9e8      	bls.n	aa6e <__lshift+0x86>
    aa9c:	c901      	ldmia	r1!, {r0}
    aa9e:	c301      	stmia	r3!, {r0}
    aaa0:	428a      	cmp	r2, r1
    aaa2:	d8f7      	bhi.n	aa94 <__lshift+0xac>
    aaa4:	e7e3      	b.n	aa6e <__lshift+0x86>
    aaa6:	46c0      	nop			; (mov r8, r8)

0000aaa8 <__mcmp>:
    aaa8:	6902      	ldr	r2, [r0, #16]
    aaaa:	690b      	ldr	r3, [r1, #16]
    aaac:	b510      	push	{r4, lr}
    aaae:	1ad2      	subs	r2, r2, r3
    aab0:	0004      	movs	r4, r0
    aab2:	1e10      	subs	r0, r2, #0
    aab4:	d112      	bne.n	aadc <__mcmp+0x34>
    aab6:	0020      	movs	r0, r4
    aab8:	009a      	lsls	r2, r3, #2
    aaba:	3014      	adds	r0, #20
    aabc:	3114      	adds	r1, #20
    aabe:	1883      	adds	r3, r0, r2
    aac0:	1889      	adds	r1, r1, r2
    aac2:	e001      	b.n	aac8 <__mcmp+0x20>
    aac4:	4298      	cmp	r0, r3
    aac6:	d20a      	bcs.n	aade <__mcmp+0x36>
    aac8:	3b04      	subs	r3, #4
    aaca:	3904      	subs	r1, #4
    aacc:	681a      	ldr	r2, [r3, #0]
    aace:	680c      	ldr	r4, [r1, #0]
    aad0:	42a2      	cmp	r2, r4
    aad2:	d0f7      	beq.n	aac4 <__mcmp+0x1c>
    aad4:	42a2      	cmp	r2, r4
    aad6:	4192      	sbcs	r2, r2
    aad8:	2001      	movs	r0, #1
    aada:	4310      	orrs	r0, r2
    aadc:	bd10      	pop	{r4, pc}
    aade:	2000      	movs	r0, #0
    aae0:	e7fc      	b.n	aadc <__mcmp+0x34>
    aae2:	46c0      	nop			; (mov r8, r8)

0000aae4 <__mdiff>:
    aae4:	b5f8      	push	{r3, r4, r5, r6, r7, lr}
    aae6:	464f      	mov	r7, r9
    aae8:	4646      	mov	r6, r8
    aaea:	0014      	movs	r4, r2
    aaec:	690b      	ldr	r3, [r1, #16]
    aaee:	6912      	ldr	r2, [r2, #16]
    aaf0:	b4c0      	push	{r6, r7}
    aaf2:	1a9b      	subs	r3, r3, r2
    aaf4:	000f      	movs	r7, r1
    aaf6:	2b00      	cmp	r3, #0
    aaf8:	d119      	bne.n	ab2e <__mdiff+0x4a>
    aafa:	000d      	movs	r5, r1
    aafc:	2114      	movs	r1, #20
    aafe:	468c      	mov	ip, r1
    ab00:	0092      	lsls	r2, r2, #2
    ab02:	3514      	adds	r5, #20
    ab04:	44a4      	add	ip, r4
    ab06:	18ab      	adds	r3, r5, r2
    ab08:	4462      	add	r2, ip
    ab0a:	e001      	b.n	ab10 <__mdiff+0x2c>
    ab0c:	429d      	cmp	r5, r3
    ab0e:	d266      	bcs.n	abde <__mdiff+0xfa>
    ab10:	3b04      	subs	r3, #4
    ab12:	3a04      	subs	r2, #4
    ab14:	681e      	ldr	r6, [r3, #0]
    ab16:	6811      	ldr	r1, [r2, #0]
    ab18:	428e      	cmp	r6, r1
    ab1a:	d0f7      	beq.n	ab0c <__mdiff+0x28>
    ab1c:	d267      	bcs.n	abee <__mdiff+0x10a>
    ab1e:	002e      	movs	r6, r5
    ab20:	4665      	mov	r5, ip
    ab22:	003b      	movs	r3, r7
    ab24:	0027      	movs	r7, r4
    ab26:	001c      	movs	r4, r3
    ab28:	2301      	movs	r3, #1
    ab2a:	4699      	mov	r9, r3
    ab2c:	e007      	b.n	ab3e <__mdiff+0x5a>
    ab2e:	2b00      	cmp	r3, #0
    ab30:	db61      	blt.n	abf6 <__mdiff+0x112>
    ab32:	2300      	movs	r3, #0
    ab34:	0026      	movs	r6, r4
    ab36:	000d      	movs	r5, r1
    ab38:	4699      	mov	r9, r3
    ab3a:	3614      	adds	r6, #20
    ab3c:	3514      	adds	r5, #20
    ab3e:	6879      	ldr	r1, [r7, #4]
    ab40:	f7ff fd78 	bl	a634 <_Balloc>
    ab44:	464a      	mov	r2, r9
    ab46:	4680      	mov	r8, r0
    ab48:	6921      	ldr	r1, [r4, #16]
    ab4a:	60c2      	str	r2, [r0, #12]
    ab4c:	6938      	ldr	r0, [r7, #16]
    ab4e:	0089      	lsls	r1, r1, #2
    ab50:	0083      	lsls	r3, r0, #2
    ab52:	469c      	mov	ip, r3
    ab54:	4689      	mov	r9, r1
    ab56:	4647      	mov	r7, r8
    ab58:	2400      	movs	r4, #0
    ab5a:	44ac      	add	ip, r5
    ab5c:	44b1      	add	r9, r6
    ab5e:	3714      	adds	r7, #20
    ab60:	cd08      	ldmia	r5!, {r3}
    ab62:	ce02      	ldmia	r6!, {r1}
    ab64:	041a      	lsls	r2, r3, #16
    ab66:	0c12      	lsrs	r2, r2, #16
    ab68:	1914      	adds	r4, r2, r4
    ab6a:	040a      	lsls	r2, r1, #16
    ab6c:	0c12      	lsrs	r2, r2, #16
    ab6e:	1aa2      	subs	r2, r4, r2
    ab70:	0c1c      	lsrs	r4, r3, #16
    ab72:	0c0b      	lsrs	r3, r1, #16
    ab74:	1ae3      	subs	r3, r4, r3
    ab76:	1414      	asrs	r4, r2, #16
    ab78:	191b      	adds	r3, r3, r4
    ab7a:	0412      	lsls	r2, r2, #16
    ab7c:	0c12      	lsrs	r2, r2, #16
    ab7e:	141c      	asrs	r4, r3, #16
    ab80:	3704      	adds	r7, #4
    ab82:	041b      	lsls	r3, r3, #16
    ab84:	4313      	orrs	r3, r2
    ab86:	1f3a      	subs	r2, r7, #4
    ab88:	6013      	str	r3, [r2, #0]
    ab8a:	45b1      	cmp	r9, r6
    ab8c:	d8e8      	bhi.n	ab60 <__mdiff+0x7c>
    ab8e:	45ac      	cmp	ip, r5
    ab90:	d91c      	bls.n	abcc <__mdiff+0xe8>
    ab92:	003e      	movs	r6, r7
    ab94:	002a      	movs	r2, r5
    ab96:	ca08      	ldmia	r2!, {r3}
    ab98:	0419      	lsls	r1, r3, #16
    ab9a:	0c09      	lsrs	r1, r1, #16
    ab9c:	1909      	adds	r1, r1, r4
    ab9e:	140c      	asrs	r4, r1, #16
    aba0:	0c1b      	lsrs	r3, r3, #16
    aba2:	191b      	adds	r3, r3, r4
    aba4:	0409      	lsls	r1, r1, #16
    aba6:	141c      	asrs	r4, r3, #16
    aba8:	0c09      	lsrs	r1, r1, #16
    abaa:	041b      	lsls	r3, r3, #16
    abac:	430b      	orrs	r3, r1
    abae:	c608      	stmia	r6!, {r3}
    abb0:	4594      	cmp	ip, r2
    abb2:	d8f0      	bhi.n	ab96 <__mdiff+0xb2>
    abb4:	43ed      	mvns	r5, r5
    abb6:	4465      	add	r5, ip
    abb8:	08ad      	lsrs	r5, r5, #2
    abba:	3501      	adds	r5, #1
    abbc:	00ad      	lsls	r5, r5, #2
    abbe:	197f      	adds	r7, r7, r5
    abc0:	1f3a      	subs	r2, r7, #4
    abc2:	2b00      	cmp	r3, #0
    abc4:	d104      	bne.n	abd0 <__mdiff+0xec>
    abc6:	3a04      	subs	r2, #4
    abc8:	6813      	ldr	r3, [r2, #0]
    abca:	3801      	subs	r0, #1
    abcc:	2b00      	cmp	r3, #0
    abce:	d0fa      	beq.n	abc6 <__mdiff+0xe2>
    abd0:	4643      	mov	r3, r8
    abd2:	6118      	str	r0, [r3, #16]
    abd4:	4640      	mov	r0, r8
    abd6:	bc0c      	pop	{r2, r3}
    abd8:	4690      	mov	r8, r2
    abda:	4699      	mov	r9, r3
    abdc:	bdf8      	pop	{r3, r4, r5, r6, r7, pc}
    abde:	2100      	movs	r1, #0
    abe0:	f7ff fd28 	bl	a634 <_Balloc>
    abe4:	2301      	movs	r3, #1
    abe6:	6103      	str	r3, [r0, #16]
    abe8:	2300      	movs	r3, #0
    abea:	6143      	str	r3, [r0, #20]
    abec:	e7f3      	b.n	abd6 <__mdiff+0xf2>
    abee:	2300      	movs	r3, #0
    abf0:	4666      	mov	r6, ip
    abf2:	4699      	mov	r9, r3
    abf4:	e7a3      	b.n	ab3e <__mdiff+0x5a>
    abf6:	003e      	movs	r6, r7
    abf8:	0025      	movs	r5, r4
    abfa:	3614      	adds	r6, #20
    abfc:	3514      	adds	r5, #20
    abfe:	e790      	b.n	ab22 <__mdiff+0x3e>

0000ac00 <__d2b>:
    ac00:	b5f0      	push	{r4, r5, r6, r7, lr}
    ac02:	2101      	movs	r1, #1
    ac04:	001c      	movs	r4, r3
    ac06:	b083      	sub	sp, #12
    ac08:	9f08      	ldr	r7, [sp, #32]
    ac0a:	0015      	movs	r5, r2
    ac0c:	f7ff fd12 	bl	a634 <_Balloc>
    ac10:	0321      	lsls	r1, r4, #12
    ac12:	0064      	lsls	r4, r4, #1
    ac14:	0006      	movs	r6, r0
    ac16:	0b09      	lsrs	r1, r1, #12
    ac18:	0d64      	lsrs	r4, r4, #21
    ac1a:	d002      	beq.n	ac22 <__d2b+0x22>
    ac1c:	2380      	movs	r3, #128	; 0x80
    ac1e:	035b      	lsls	r3, r3, #13
    ac20:	4319      	orrs	r1, r3
    ac22:	9101      	str	r1, [sp, #4]
    ac24:	2d00      	cmp	r5, #0
    ac26:	d01a      	beq.n	ac5e <__d2b+0x5e>
    ac28:	4668      	mov	r0, sp
    ac2a:	9500      	str	r5, [sp, #0]
    ac2c:	f7ff fd98 	bl	a760 <__lo0bits>
    ac30:	2800      	cmp	r0, #0
    ac32:	d131      	bne.n	ac98 <__d2b+0x98>
    ac34:	9b00      	ldr	r3, [sp, #0]
    ac36:	9d01      	ldr	r5, [sp, #4]
    ac38:	6173      	str	r3, [r6, #20]
    ac3a:	61b5      	str	r5, [r6, #24]
    ac3c:	426b      	negs	r3, r5
    ac3e:	416b      	adcs	r3, r5
    ac40:	2502      	movs	r5, #2
    ac42:	1aed      	subs	r5, r5, r3
    ac44:	6135      	str	r5, [r6, #16]
    ac46:	2c00      	cmp	r4, #0
    ac48:	d014      	beq.n	ac74 <__d2b+0x74>
    ac4a:	4b19      	ldr	r3, [pc, #100]	; (acb0 <__d2b+0xb0>)
    ac4c:	469c      	mov	ip, r3
    ac4e:	2335      	movs	r3, #53	; 0x35
    ac50:	4464      	add	r4, ip
    ac52:	1824      	adds	r4, r4, r0
    ac54:	1a18      	subs	r0, r3, r0
    ac56:	9b09      	ldr	r3, [sp, #36]	; 0x24
    ac58:	603c      	str	r4, [r7, #0]
    ac5a:	6018      	str	r0, [r3, #0]
    ac5c:	e019      	b.n	ac92 <__d2b+0x92>
    ac5e:	a801      	add	r0, sp, #4
    ac60:	f7ff fd7e 	bl	a760 <__lo0bits>
    ac64:	9b01      	ldr	r3, [sp, #4]
    ac66:	3020      	adds	r0, #32
    ac68:	6173      	str	r3, [r6, #20]
    ac6a:	2301      	movs	r3, #1
    ac6c:	2501      	movs	r5, #1
    ac6e:	6133      	str	r3, [r6, #16]
    ac70:	2c00      	cmp	r4, #0
    ac72:	d1ea      	bne.n	ac4a <__d2b+0x4a>
    ac74:	4b0f      	ldr	r3, [pc, #60]	; (acb4 <__d2b+0xb4>)
    ac76:	469c      	mov	ip, r3
    ac78:	4b0f      	ldr	r3, [pc, #60]	; (acb8 <__d2b+0xb8>)
    ac7a:	4460      	add	r0, ip
    ac7c:	18eb      	adds	r3, r5, r3
    ac7e:	009b      	lsls	r3, r3, #2
    ac80:	18f3      	adds	r3, r6, r3
    ac82:	6038      	str	r0, [r7, #0]
    ac84:	6958      	ldr	r0, [r3, #20]
    ac86:	f7ff fd4d 	bl	a724 <__hi0bits>
    ac8a:	016d      	lsls	r5, r5, #5
    ac8c:	9b09      	ldr	r3, [sp, #36]	; 0x24
    ac8e:	1a28      	subs	r0, r5, r0
    ac90:	6018      	str	r0, [r3, #0]
    ac92:	0030      	movs	r0, r6
    ac94:	b003      	add	sp, #12
    ac96:	bdf0      	pop	{r4, r5, r6, r7, pc}
    ac98:	9d01      	ldr	r5, [sp, #4]
    ac9a:	2320      	movs	r3, #32
    ac9c:	002a      	movs	r2, r5
    ac9e:	1a1b      	subs	r3, r3, r0
    aca0:	409a      	lsls	r2, r3
    aca2:	0013      	movs	r3, r2
    aca4:	40c5      	lsrs	r5, r0
    aca6:	9a00      	ldr	r2, [sp, #0]
    aca8:	9501      	str	r5, [sp, #4]
    acaa:	4313      	orrs	r3, r2
    acac:	6173      	str	r3, [r6, #20]
    acae:	e7c4      	b.n	ac3a <__d2b+0x3a>
    acb0:	fffffbcd 	.word	0xfffffbcd
    acb4:	fffffbce 	.word	0xfffffbce
    acb8:	3fffffff 	.word	0x3fffffff

0000acbc <_realloc_r>:
    acbc:	b5f0      	push	{r4, r5, r6, r7, lr}
    acbe:	4656      	mov	r6, sl
    acc0:	464d      	mov	r5, r9
    acc2:	4644      	mov	r4, r8
    acc4:	465f      	mov	r7, fp
    acc6:	b4f0      	push	{r4, r5, r6, r7}
    acc8:	4680      	mov	r8, r0
    acca:	b085      	sub	sp, #20
    accc:	1e0e      	subs	r6, r1, #0
    acce:	4691      	mov	r9, r2
    acd0:	d100      	bne.n	acd4 <_realloc_r+0x18>
    acd2:	e0cb      	b.n	ae6c <_realloc_r+0x1b0>
    acd4:	0037      	movs	r7, r6
    acd6:	3f08      	subs	r7, #8
    acd8:	f7ff fca8 	bl	a62c <__malloc_lock>
    acdc:	687a      	ldr	r2, [r7, #4]
    acde:	464d      	mov	r5, r9
    ace0:	2303      	movs	r3, #3
    ace2:	0014      	movs	r4, r2
    ace4:	350b      	adds	r5, #11
    ace6:	46ba      	mov	sl, r7
    ace8:	439c      	bics	r4, r3
    acea:	2d16      	cmp	r5, #22
    acec:	d84a      	bhi.n	ad84 <_realloc_r+0xc8>
    acee:	2310      	movs	r3, #16
    acf0:	2510      	movs	r5, #16
    acf2:	45a9      	cmp	r9, r5
    acf4:	d84a      	bhi.n	ad8c <_realloc_r+0xd0>
    acf6:	429c      	cmp	r4, r3
    acf8:	da7b      	bge.n	adf2 <_realloc_r+0x136>
    acfa:	49d3      	ldr	r1, [pc, #844]	; (b048 <_realloc_r+0x38c>)
    acfc:	1938      	adds	r0, r7, r4
    acfe:	6889      	ldr	r1, [r1, #8]
    ad00:	9001      	str	r0, [sp, #4]
    ad02:	4288      	cmp	r0, r1
    ad04:	d100      	bne.n	ad08 <_realloc_r+0x4c>
    ad06:	e0ec      	b.n	aee2 <_realloc_r+0x226>
    ad08:	6840      	ldr	r0, [r0, #4]
    ad0a:	0001      	movs	r1, r0
    ad0c:	9002      	str	r0, [sp, #8]
    ad0e:	2001      	movs	r0, #1
    ad10:	9003      	str	r0, [sp, #12]
    ad12:	0008      	movs	r0, r1
    ad14:	2101      	movs	r1, #1
    ad16:	4388      	bics	r0, r1
    ad18:	9901      	ldr	r1, [sp, #4]
    ad1a:	4684      	mov	ip, r0
    ad1c:	468b      	mov	fp, r1
    ad1e:	44dc      	add	ip, fp
    ad20:	4661      	mov	r1, ip
    ad22:	2001      	movs	r0, #1
    ad24:	6849      	ldr	r1, [r1, #4]
    ad26:	4201      	tst	r1, r0
    ad28:	d100      	bne.n	ad2c <_realloc_r+0x70>
    ad2a:	e07c      	b.n	ae26 <_realloc_r+0x16a>
    ad2c:	2101      	movs	r1, #1
    ad2e:	4211      	tst	r1, r2
    ad30:	d031      	beq.n	ad96 <_realloc_r+0xda>
    ad32:	4649      	mov	r1, r9
    ad34:	4640      	mov	r0, r8
    ad36:	f7ff f93b 	bl	9fb0 <_malloc_r>
    ad3a:	4681      	mov	r9, r0
    ad3c:	2800      	cmp	r0, #0
    ad3e:	d100      	bne.n	ad42 <_realloc_r+0x86>
    ad40:	e19c      	b.n	b07c <_realloc_r+0x3c0>
    ad42:	2301      	movs	r3, #1
    ad44:	0002      	movs	r2, r0
    ad46:	6879      	ldr	r1, [r7, #4]
    ad48:	3a08      	subs	r2, #8
    ad4a:	4399      	bics	r1, r3
    ad4c:	187f      	adds	r7, r7, r1
    ad4e:	42ba      	cmp	r2, r7
    ad50:	d100      	bne.n	ad54 <_realloc_r+0x98>
    ad52:	e13c      	b.n	afce <_realloc_r+0x312>
    ad54:	1f22      	subs	r2, r4, #4
    ad56:	2a24      	cmp	r2, #36	; 0x24
    ad58:	d900      	bls.n	ad5c <_realloc_r+0xa0>
    ad5a:	e129      	b.n	afb0 <_realloc_r+0x2f4>
    ad5c:	0003      	movs	r3, r0
    ad5e:	2a13      	cmp	r2, #19
    ad60:	d900      	bls.n	ad64 <_realloc_r+0xa8>
    ad62:	e10b      	b.n	af7c <_realloc_r+0x2c0>
    ad64:	0032      	movs	r2, r6
    ad66:	6811      	ldr	r1, [r2, #0]
    ad68:	6019      	str	r1, [r3, #0]
    ad6a:	6851      	ldr	r1, [r2, #4]
    ad6c:	6059      	str	r1, [r3, #4]
    ad6e:	6892      	ldr	r2, [r2, #8]
    ad70:	609a      	str	r2, [r3, #8]
    ad72:	0031      	movs	r1, r6
    ad74:	4640      	mov	r0, r8
    ad76:	f7fe fe03 	bl	9980 <_free_r>
    ad7a:	4640      	mov	r0, r8
    ad7c:	f7ff fc58 	bl	a630 <__malloc_unlock>
    ad80:	4648      	mov	r0, r9
    ad82:	e049      	b.n	ae18 <_realloc_r+0x15c>
    ad84:	3304      	adds	r3, #4
    ad86:	439d      	bics	r5, r3
    ad88:	1e2b      	subs	r3, r5, #0
    ad8a:	dab2      	bge.n	acf2 <_realloc_r+0x36>
    ad8c:	230c      	movs	r3, #12
    ad8e:	4642      	mov	r2, r8
    ad90:	2000      	movs	r0, #0
    ad92:	6013      	str	r3, [r2, #0]
    ad94:	e040      	b.n	ae18 <_realloc_r+0x15c>
    ad96:	683a      	ldr	r2, [r7, #0]
    ad98:	1aba      	subs	r2, r7, r2
    ad9a:	4693      	mov	fp, r2
    ad9c:	4659      	mov	r1, fp
    ad9e:	2203      	movs	r2, #3
    ada0:	6849      	ldr	r1, [r1, #4]
    ada2:	4391      	bics	r1, r2
    ada4:	000a      	movs	r2, r1
    ada6:	18a2      	adds	r2, r4, r2
    ada8:	9201      	str	r2, [sp, #4]
    adaa:	429a      	cmp	r2, r3
    adac:	dbc1      	blt.n	ad32 <_realloc_r+0x76>
    adae:	465b      	mov	r3, fp
    adb0:	465a      	mov	r2, fp
    adb2:	465f      	mov	r7, fp
    adb4:	6892      	ldr	r2, [r2, #8]
    adb6:	68db      	ldr	r3, [r3, #12]
    adb8:	3708      	adds	r7, #8
    adba:	60d3      	str	r3, [r2, #12]
    adbc:	609a      	str	r2, [r3, #8]
    adbe:	1f22      	subs	r2, r4, #4
    adc0:	2a24      	cmp	r2, #36	; 0x24
    adc2:	d900      	bls.n	adc6 <_realloc_r+0x10a>
    adc4:	e110      	b.n	afe8 <_realloc_r+0x32c>
    adc6:	003b      	movs	r3, r7
    adc8:	2a13      	cmp	r2, #19
    adca:	d909      	bls.n	ade0 <_realloc_r+0x124>
    adcc:	465b      	mov	r3, fp
    adce:	6831      	ldr	r1, [r6, #0]
    add0:	6099      	str	r1, [r3, #8]
    add2:	6871      	ldr	r1, [r6, #4]
    add4:	60d9      	str	r1, [r3, #12]
    add6:	2a1b      	cmp	r2, #27
    add8:	d900      	bls.n	addc <_realloc_r+0x120>
    adda:	e121      	b.n	b020 <_realloc_r+0x364>
    addc:	3310      	adds	r3, #16
    adde:	3608      	adds	r6, #8
    ade0:	6832      	ldr	r2, [r6, #0]
    ade2:	46da      	mov	sl, fp
    ade4:	601a      	str	r2, [r3, #0]
    ade6:	6872      	ldr	r2, [r6, #4]
    ade8:	9c01      	ldr	r4, [sp, #4]
    adea:	605a      	str	r2, [r3, #4]
    adec:	68b2      	ldr	r2, [r6, #8]
    adee:	003e      	movs	r6, r7
    adf0:	609a      	str	r2, [r3, #8]
    adf2:	1b63      	subs	r3, r4, r5
    adf4:	2b0f      	cmp	r3, #15
    adf6:	d824      	bhi.n	ae42 <_realloc_r+0x186>
    adf8:	4653      	mov	r3, sl
    adfa:	2101      	movs	r1, #1
    adfc:	4652      	mov	r2, sl
    adfe:	685b      	ldr	r3, [r3, #4]
    ae00:	400b      	ands	r3, r1
    ae02:	4323      	orrs	r3, r4
    ae04:	6053      	str	r3, [r2, #4]
    ae06:	0022      	movs	r2, r4
    ae08:	4452      	add	r2, sl
    ae0a:	6853      	ldr	r3, [r2, #4]
    ae0c:	4319      	orrs	r1, r3
    ae0e:	6051      	str	r1, [r2, #4]
    ae10:	4640      	mov	r0, r8
    ae12:	f7ff fc0d 	bl	a630 <__malloc_unlock>
    ae16:	0030      	movs	r0, r6
    ae18:	b005      	add	sp, #20
    ae1a:	bc3c      	pop	{r2, r3, r4, r5}
    ae1c:	4690      	mov	r8, r2
    ae1e:	4699      	mov	r9, r3
    ae20:	46a2      	mov	sl, r4
    ae22:	46ab      	mov	fp, r5
    ae24:	bdf0      	pop	{r4, r5, r6, r7, pc}
    ae26:	2103      	movs	r1, #3
    ae28:	9802      	ldr	r0, [sp, #8]
    ae2a:	468c      	mov	ip, r1
    ae2c:	4388      	bics	r0, r1
    ae2e:	1901      	adds	r1, r0, r4
    ae30:	4299      	cmp	r1, r3
    ae32:	db1f      	blt.n	ae74 <_realloc_r+0x1b8>
    ae34:	9a01      	ldr	r2, [sp, #4]
    ae36:	000c      	movs	r4, r1
    ae38:	68d3      	ldr	r3, [r2, #12]
    ae3a:	6892      	ldr	r2, [r2, #8]
    ae3c:	60d3      	str	r3, [r2, #12]
    ae3e:	609a      	str	r2, [r3, #8]
    ae40:	e7d7      	b.n	adf2 <_realloc_r+0x136>
    ae42:	4652      	mov	r2, sl
    ae44:	4650      	mov	r0, sl
    ae46:	1951      	adds	r1, r2, r5
    ae48:	2201      	movs	r2, #1
    ae4a:	6840      	ldr	r0, [r0, #4]
    ae4c:	4010      	ands	r0, r2
    ae4e:	4305      	orrs	r5, r0
    ae50:	4650      	mov	r0, sl
    ae52:	6045      	str	r5, [r0, #4]
    ae54:	0018      	movs	r0, r3
    ae56:	4310      	orrs	r0, r2
    ae58:	18cb      	adds	r3, r1, r3
    ae5a:	6048      	str	r0, [r1, #4]
    ae5c:	6858      	ldr	r0, [r3, #4]
    ae5e:	3108      	adds	r1, #8
    ae60:	4302      	orrs	r2, r0
    ae62:	605a      	str	r2, [r3, #4]
    ae64:	4640      	mov	r0, r8
    ae66:	f7fe fd8b 	bl	9980 <_free_r>
    ae6a:	e7d1      	b.n	ae10 <_realloc_r+0x154>
    ae6c:	0011      	movs	r1, r2
    ae6e:	f7ff f89f 	bl	9fb0 <_malloc_r>
    ae72:	e7d1      	b.n	ae18 <_realloc_r+0x15c>
    ae74:	2001      	movs	r0, #1
    ae76:	4210      	tst	r0, r2
    ae78:	d000      	beq.n	ae7c <_realloc_r+0x1c0>
    ae7a:	e75a      	b.n	ad32 <_realloc_r+0x76>
    ae7c:	4660      	mov	r0, ip
    ae7e:	683a      	ldr	r2, [r7, #0]
    ae80:	1aba      	subs	r2, r7, r2
    ae82:	4693      	mov	fp, r2
    ae84:	6852      	ldr	r2, [r2, #4]
    ae86:	4382      	bics	r2, r0
    ae88:	1889      	adds	r1, r1, r2
    ae8a:	9102      	str	r1, [sp, #8]
    ae8c:	4299      	cmp	r1, r3
    ae8e:	da00      	bge.n	ae92 <_realloc_r+0x1d6>
    ae90:	e789      	b.n	ada6 <_realloc_r+0xea>
    ae92:	9a01      	ldr	r2, [sp, #4]
    ae94:	465f      	mov	r7, fp
    ae96:	68d3      	ldr	r3, [r2, #12]
    ae98:	6892      	ldr	r2, [r2, #8]
    ae9a:	3708      	adds	r7, #8
    ae9c:	60d3      	str	r3, [r2, #12]
    ae9e:	609a      	str	r2, [r3, #8]
    aea0:	465b      	mov	r3, fp
    aea2:	465a      	mov	r2, fp
    aea4:	68db      	ldr	r3, [r3, #12]
    aea6:	6892      	ldr	r2, [r2, #8]
    aea8:	60d3      	str	r3, [r2, #12]
    aeaa:	609a      	str	r2, [r3, #8]
    aeac:	1f22      	subs	r2, r4, #4
    aeae:	2a24      	cmp	r2, #36	; 0x24
    aeb0:	d900      	bls.n	aeb4 <_realloc_r+0x1f8>
    aeb2:	e091      	b.n	afd8 <_realloc_r+0x31c>
    aeb4:	003b      	movs	r3, r7
    aeb6:	2a13      	cmp	r2, #19
    aeb8:	d909      	bls.n	aece <_realloc_r+0x212>
    aeba:	465b      	mov	r3, fp
    aebc:	6831      	ldr	r1, [r6, #0]
    aebe:	6099      	str	r1, [r3, #8]
    aec0:	6871      	ldr	r1, [r6, #4]
    aec2:	60d9      	str	r1, [r3, #12]
    aec4:	2a1b      	cmp	r2, #27
    aec6:	d900      	bls.n	aeca <_realloc_r+0x20e>
    aec8:	e096      	b.n	aff8 <_realloc_r+0x33c>
    aeca:	3310      	adds	r3, #16
    aecc:	3608      	adds	r6, #8
    aece:	6832      	ldr	r2, [r6, #0]
    aed0:	9c02      	ldr	r4, [sp, #8]
    aed2:	601a      	str	r2, [r3, #0]
    aed4:	6872      	ldr	r2, [r6, #4]
    aed6:	46da      	mov	sl, fp
    aed8:	605a      	str	r2, [r3, #4]
    aeda:	68b2      	ldr	r2, [r6, #8]
    aedc:	003e      	movs	r6, r7
    aede:	609a      	str	r2, [r3, #8]
    aee0:	e787      	b.n	adf2 <_realloc_r+0x136>
    aee2:	2003      	movs	r0, #3
    aee4:	9901      	ldr	r1, [sp, #4]
    aee6:	4684      	mov	ip, r0
    aee8:	6849      	ldr	r1, [r1, #4]
    aeea:	4381      	bics	r1, r0
    aeec:	0028      	movs	r0, r5
    aeee:	1909      	adds	r1, r1, r4
    aef0:	3010      	adds	r0, #16
    aef2:	9001      	str	r0, [sp, #4]
    aef4:	4281      	cmp	r1, r0
    aef6:	da4b      	bge.n	af90 <_realloc_r+0x2d4>
    aef8:	07d2      	lsls	r2, r2, #31
    aefa:	d500      	bpl.n	aefe <_realloc_r+0x242>
    aefc:	e719      	b.n	ad32 <_realloc_r+0x76>
    aefe:	4660      	mov	r0, ip
    af00:	683a      	ldr	r2, [r7, #0]
    af02:	1aba      	subs	r2, r7, r2
    af04:	4693      	mov	fp, r2
    af06:	6852      	ldr	r2, [r2, #4]
    af08:	4382      	bics	r2, r0
    af0a:	9801      	ldr	r0, [sp, #4]
    af0c:	1851      	adds	r1, r2, r1
    af0e:	9102      	str	r1, [sp, #8]
    af10:	4288      	cmp	r0, r1
    af12:	dd00      	ble.n	af16 <_realloc_r+0x25a>
    af14:	e747      	b.n	ada6 <_realloc_r+0xea>
    af16:	465b      	mov	r3, fp
    af18:	465a      	mov	r2, fp
    af1a:	465f      	mov	r7, fp
    af1c:	6892      	ldr	r2, [r2, #8]
    af1e:	68db      	ldr	r3, [r3, #12]
    af20:	3708      	adds	r7, #8
    af22:	60d3      	str	r3, [r2, #12]
    af24:	609a      	str	r2, [r3, #8]
    af26:	1f22      	subs	r2, r4, #4
    af28:	2a24      	cmp	r2, #36	; 0x24
    af2a:	d900      	bls.n	af2e <_realloc_r+0x272>
    af2c:	e097      	b.n	b05e <_realloc_r+0x3a2>
    af2e:	003b      	movs	r3, r7
    af30:	2a13      	cmp	r2, #19
    af32:	d909      	bls.n	af48 <_realloc_r+0x28c>
    af34:	465b      	mov	r3, fp
    af36:	6831      	ldr	r1, [r6, #0]
    af38:	6099      	str	r1, [r3, #8]
    af3a:	6871      	ldr	r1, [r6, #4]
    af3c:	60d9      	str	r1, [r3, #12]
    af3e:	2a1b      	cmp	r2, #27
    af40:	d900      	bls.n	af44 <_realloc_r+0x288>
    af42:	e091      	b.n	b068 <_realloc_r+0x3ac>
    af44:	3310      	adds	r3, #16
    af46:	3608      	adds	r6, #8
    af48:	6832      	ldr	r2, [r6, #0]
    af4a:	601a      	str	r2, [r3, #0]
    af4c:	6872      	ldr	r2, [r6, #4]
    af4e:	605a      	str	r2, [r3, #4]
    af50:	68b2      	ldr	r2, [r6, #8]
    af52:	609a      	str	r2, [r3, #8]
    af54:	465b      	mov	r3, fp
    af56:	1959      	adds	r1, r3, r5
    af58:	4b3b      	ldr	r3, [pc, #236]	; (b048 <_realloc_r+0x38c>)
    af5a:	4640      	mov	r0, r8
    af5c:	6099      	str	r1, [r3, #8]
    af5e:	9b02      	ldr	r3, [sp, #8]
    af60:	1b5a      	subs	r2, r3, r5
    af62:	2301      	movs	r3, #1
    af64:	431a      	orrs	r2, r3
    af66:	604a      	str	r2, [r1, #4]
    af68:	465a      	mov	r2, fp
    af6a:	6852      	ldr	r2, [r2, #4]
    af6c:	4013      	ands	r3, r2
    af6e:	431d      	orrs	r5, r3
    af70:	465b      	mov	r3, fp
    af72:	605d      	str	r5, [r3, #4]
    af74:	f7ff fb5c 	bl	a630 <__malloc_unlock>
    af78:	0038      	movs	r0, r7
    af7a:	e74d      	b.n	ae18 <_realloc_r+0x15c>
    af7c:	6831      	ldr	r1, [r6, #0]
    af7e:	6001      	str	r1, [r0, #0]
    af80:	6871      	ldr	r1, [r6, #4]
    af82:	6041      	str	r1, [r0, #4]
    af84:	2a1b      	cmp	r2, #27
    af86:	d817      	bhi.n	afb8 <_realloc_r+0x2fc>
    af88:	0032      	movs	r2, r6
    af8a:	3308      	adds	r3, #8
    af8c:	3208      	adds	r2, #8
    af8e:	e6ea      	b.n	ad66 <_realloc_r+0xaa>
    af90:	4b2d      	ldr	r3, [pc, #180]	; (b048 <_realloc_r+0x38c>)
    af92:	197a      	adds	r2, r7, r5
    af94:	609a      	str	r2, [r3, #8]
    af96:	2301      	movs	r3, #1
    af98:	1b49      	subs	r1, r1, r5
    af9a:	4319      	orrs	r1, r3
    af9c:	6051      	str	r1, [r2, #4]
    af9e:	687a      	ldr	r2, [r7, #4]
    afa0:	4640      	mov	r0, r8
    afa2:	4013      	ands	r3, r2
    afa4:	431d      	orrs	r5, r3
    afa6:	607d      	str	r5, [r7, #4]
    afa8:	f7ff fb42 	bl	a630 <__malloc_unlock>
    afac:	0030      	movs	r0, r6
    afae:	e733      	b.n	ae18 <_realloc_r+0x15c>
    afb0:	0031      	movs	r1, r6
    afb2:	f7ff faef 	bl	a594 <memmove>
    afb6:	e6dc      	b.n	ad72 <_realloc_r+0xb6>
    afb8:	68b1      	ldr	r1, [r6, #8]
    afba:	0003      	movs	r3, r0
    afbc:	6081      	str	r1, [r0, #8]
    afbe:	68f1      	ldr	r1, [r6, #12]
    afc0:	60c1      	str	r1, [r0, #12]
    afc2:	2a24      	cmp	r2, #36	; 0x24
    afc4:	d022      	beq.n	b00c <_realloc_r+0x350>
    afc6:	0032      	movs	r2, r6
    afc8:	3310      	adds	r3, #16
    afca:	3210      	adds	r2, #16
    afcc:	e6cb      	b.n	ad66 <_realloc_r+0xaa>
    afce:	6853      	ldr	r3, [r2, #4]
    afd0:	2203      	movs	r2, #3
    afd2:	4393      	bics	r3, r2
    afd4:	18e4      	adds	r4, r4, r3
    afd6:	e70c      	b.n	adf2 <_realloc_r+0x136>
    afd8:	0031      	movs	r1, r6
    afda:	0038      	movs	r0, r7
    afdc:	f7ff fada 	bl	a594 <memmove>
    afe0:	003e      	movs	r6, r7
    afe2:	9c02      	ldr	r4, [sp, #8]
    afe4:	46da      	mov	sl, fp
    afe6:	e704      	b.n	adf2 <_realloc_r+0x136>
    afe8:	0031      	movs	r1, r6
    afea:	0038      	movs	r0, r7
    afec:	f7ff fad2 	bl	a594 <memmove>
    aff0:	003e      	movs	r6, r7
    aff2:	9c01      	ldr	r4, [sp, #4]
    aff4:	46da      	mov	sl, fp
    aff6:	e6fc      	b.n	adf2 <_realloc_r+0x136>
    aff8:	465b      	mov	r3, fp
    affa:	68b1      	ldr	r1, [r6, #8]
    affc:	6119      	str	r1, [r3, #16]
    affe:	68f1      	ldr	r1, [r6, #12]
    b000:	6159      	str	r1, [r3, #20]
    b002:	2a24      	cmp	r2, #36	; 0x24
    b004:	d016      	beq.n	b034 <_realloc_r+0x378>
    b006:	3318      	adds	r3, #24
    b008:	3610      	adds	r6, #16
    b00a:	e760      	b.n	aece <_realloc_r+0x212>
    b00c:	6932      	ldr	r2, [r6, #16]
    b00e:	0003      	movs	r3, r0
    b010:	6102      	str	r2, [r0, #16]
    b012:	0001      	movs	r1, r0
    b014:	0032      	movs	r2, r6
    b016:	6970      	ldr	r0, [r6, #20]
    b018:	3318      	adds	r3, #24
    b01a:	3218      	adds	r2, #24
    b01c:	6148      	str	r0, [r1, #20]
    b01e:	e6a2      	b.n	ad66 <_realloc_r+0xaa>
    b020:	465b      	mov	r3, fp
    b022:	68b1      	ldr	r1, [r6, #8]
    b024:	6119      	str	r1, [r3, #16]
    b026:	68f1      	ldr	r1, [r6, #12]
    b028:	6159      	str	r1, [r3, #20]
    b02a:	2a24      	cmp	r2, #36	; 0x24
    b02c:	d00e      	beq.n	b04c <_realloc_r+0x390>
    b02e:	3318      	adds	r3, #24
    b030:	3610      	adds	r6, #16
    b032:	e6d5      	b.n	ade0 <_realloc_r+0x124>
    b034:	465b      	mov	r3, fp
    b036:	6932      	ldr	r2, [r6, #16]
    b038:	619a      	str	r2, [r3, #24]
    b03a:	465a      	mov	r2, fp
    b03c:	6971      	ldr	r1, [r6, #20]
    b03e:	3320      	adds	r3, #32
    b040:	61d1      	str	r1, [r2, #28]
    b042:	3618      	adds	r6, #24
    b044:	e743      	b.n	aece <_realloc_r+0x212>
    b046:	46c0      	nop			; (mov r8, r8)
    b048:	200004b0 	.word	0x200004b0
    b04c:	465b      	mov	r3, fp
    b04e:	6932      	ldr	r2, [r6, #16]
    b050:	619a      	str	r2, [r3, #24]
    b052:	465a      	mov	r2, fp
    b054:	6971      	ldr	r1, [r6, #20]
    b056:	3320      	adds	r3, #32
    b058:	61d1      	str	r1, [r2, #28]
    b05a:	3618      	adds	r6, #24
    b05c:	e6c0      	b.n	ade0 <_realloc_r+0x124>
    b05e:	0031      	movs	r1, r6
    b060:	0038      	movs	r0, r7
    b062:	f7ff fa97 	bl	a594 <memmove>
    b066:	e775      	b.n	af54 <_realloc_r+0x298>
    b068:	465b      	mov	r3, fp
    b06a:	68b1      	ldr	r1, [r6, #8]
    b06c:	6119      	str	r1, [r3, #16]
    b06e:	68f1      	ldr	r1, [r6, #12]
    b070:	6159      	str	r1, [r3, #20]
    b072:	2a24      	cmp	r2, #36	; 0x24
    b074:	d007      	beq.n	b086 <_realloc_r+0x3ca>
    b076:	3318      	adds	r3, #24
    b078:	3610      	adds	r6, #16
    b07a:	e765      	b.n	af48 <_realloc_r+0x28c>
    b07c:	4640      	mov	r0, r8
    b07e:	f7ff fad7 	bl	a630 <__malloc_unlock>
    b082:	2000      	movs	r0, #0
    b084:	e6c8      	b.n	ae18 <_realloc_r+0x15c>
    b086:	465b      	mov	r3, fp
    b088:	6932      	ldr	r2, [r6, #16]
    b08a:	619a      	str	r2, [r3, #24]
    b08c:	465a      	mov	r2, fp
    b08e:	6971      	ldr	r1, [r6, #20]
    b090:	3320      	adds	r3, #32
    b092:	61d1      	str	r1, [r2, #28]
    b094:	3618      	adds	r6, #24
    b096:	e757      	b.n	af48 <_realloc_r+0x28c>

0000b098 <_sbrk_r>:
    b098:	2300      	movs	r3, #0
    b09a:	b570      	push	{r4, r5, r6, lr}
    b09c:	4c06      	ldr	r4, [pc, #24]	; (b0b8 <_sbrk_r+0x20>)
    b09e:	0005      	movs	r5, r0
    b0a0:	0008      	movs	r0, r1
    b0a2:	6023      	str	r3, [r4, #0]
    b0a4:	f7f5 f87c 	bl	1a0 <_sbrk>
    b0a8:	1c43      	adds	r3, r0, #1
    b0aa:	d000      	beq.n	b0ae <_sbrk_r+0x16>
    b0ac:	bd70      	pop	{r4, r5, r6, pc}
    b0ae:	6823      	ldr	r3, [r4, #0]
    b0b0:	2b00      	cmp	r3, #0
    b0b2:	d0fb      	beq.n	b0ac <_sbrk_r+0x14>
    b0b4:	602b      	str	r3, [r5, #0]
    b0b6:	e7f9      	b.n	b0ac <_sbrk_r+0x14>
    b0b8:	20000b2c 	.word	0x20000b2c

0000b0bc <__sread>:
    b0bc:	b570      	push	{r4, r5, r6, lr}
    b0be:	000c      	movs	r4, r1
    b0c0:	250e      	movs	r5, #14
    b0c2:	5f49      	ldrsh	r1, [r1, r5]
    b0c4:	f000 fa2a 	bl	b51c <_read_r>
    b0c8:	2800      	cmp	r0, #0
    b0ca:	db03      	blt.n	b0d4 <__sread+0x18>
    b0cc:	6d23      	ldr	r3, [r4, #80]	; 0x50
    b0ce:	181b      	adds	r3, r3, r0
    b0d0:	6523      	str	r3, [r4, #80]	; 0x50
    b0d2:	bd70      	pop	{r4, r5, r6, pc}
    b0d4:	89a2      	ldrh	r2, [r4, #12]
    b0d6:	4b02      	ldr	r3, [pc, #8]	; (b0e0 <__sread+0x24>)
    b0d8:	4013      	ands	r3, r2
    b0da:	81a3      	strh	r3, [r4, #12]
    b0dc:	e7f9      	b.n	b0d2 <__sread+0x16>
    b0de:	46c0      	nop			; (mov r8, r8)
    b0e0:	ffffefff 	.word	0xffffefff

0000b0e4 <__swrite>:
    b0e4:	b5f8      	push	{r3, r4, r5, r6, r7, lr}
    b0e6:	0016      	movs	r6, r2
    b0e8:	001f      	movs	r7, r3
    b0ea:	230c      	movs	r3, #12
    b0ec:	5eca      	ldrsh	r2, [r1, r3]
    b0ee:	0005      	movs	r5, r0
    b0f0:	000c      	movs	r4, r1
    b0f2:	05d3      	lsls	r3, r2, #23
    b0f4:	d507      	bpl.n	b106 <__swrite+0x22>
    b0f6:	230e      	movs	r3, #14
    b0f8:	5ec9      	ldrsh	r1, [r1, r3]
    b0fa:	2200      	movs	r2, #0
    b0fc:	2302      	movs	r3, #2
    b0fe:	f000 f9f9 	bl	b4f4 <_lseek_r>
    b102:	230c      	movs	r3, #12
    b104:	5ee2      	ldrsh	r2, [r4, r3]
    b106:	4b05      	ldr	r3, [pc, #20]	; (b11c <__swrite+0x38>)
    b108:	0028      	movs	r0, r5
    b10a:	4013      	ands	r3, r2
    b10c:	81a3      	strh	r3, [r4, #12]
    b10e:	0032      	movs	r2, r6
    b110:	230e      	movs	r3, #14
    b112:	5ee1      	ldrsh	r1, [r4, r3]
    b114:	003b      	movs	r3, r7
    b116:	f000 f865 	bl	b1e4 <_write_r>
    b11a:	bdf8      	pop	{r3, r4, r5, r6, r7, pc}
    b11c:	ffffefff 	.word	0xffffefff

0000b120 <__sseek>:
    b120:	b570      	push	{r4, r5, r6, lr}
    b122:	000c      	movs	r4, r1
    b124:	250e      	movs	r5, #14
    b126:	5f49      	ldrsh	r1, [r1, r5]
    b128:	f000 f9e4 	bl	b4f4 <_lseek_r>
    b12c:	1c43      	adds	r3, r0, #1
    b12e:	d006      	beq.n	b13e <__sseek+0x1e>
    b130:	2280      	movs	r2, #128	; 0x80
    b132:	89a3      	ldrh	r3, [r4, #12]
    b134:	0152      	lsls	r2, r2, #5
    b136:	4313      	orrs	r3, r2
    b138:	81a3      	strh	r3, [r4, #12]
    b13a:	6520      	str	r0, [r4, #80]	; 0x50
    b13c:	bd70      	pop	{r4, r5, r6, pc}
    b13e:	89a2      	ldrh	r2, [r4, #12]
    b140:	4b01      	ldr	r3, [pc, #4]	; (b148 <__sseek+0x28>)
    b142:	4013      	ands	r3, r2
    b144:	81a3      	strh	r3, [r4, #12]
    b146:	e7f9      	b.n	b13c <__sseek+0x1c>
    b148:	ffffefff 	.word	0xffffefff

0000b14c <__sclose>:
    b14c:	b510      	push	{r4, lr}
    b14e:	230e      	movs	r3, #14
    b150:	5ec9      	ldrsh	r1, [r1, r3]
    b152:	f000 f8f5 	bl	b340 <_close_r>
    b156:	bd10      	pop	{r4, pc}

0000b158 <__sprint_r.part.0>:
    b158:	b5f0      	push	{r4, r5, r6, r7, lr}
    b15a:	4657      	mov	r7, sl
    b15c:	464e      	mov	r6, r9
    b15e:	4645      	mov	r5, r8
    b160:	6e4b      	ldr	r3, [r1, #100]	; 0x64
    b162:	b4e0      	push	{r5, r6, r7}
    b164:	4680      	mov	r8, r0
    b166:	000f      	movs	r7, r1
    b168:	4691      	mov	r9, r2
    b16a:	049b      	lsls	r3, r3, #18
    b16c:	d52d      	bpl.n	b1ca <__sprint_r.part.0+0x72>
    b16e:	6813      	ldr	r3, [r2, #0]
    b170:	469a      	mov	sl, r3
    b172:	6893      	ldr	r3, [r2, #8]
    b174:	2b00      	cmp	r3, #0
    b176:	d026      	beq.n	b1c6 <__sprint_r.part.0+0x6e>
    b178:	4652      	mov	r2, sl
    b17a:	6852      	ldr	r2, [r2, #4]
    b17c:	2500      	movs	r5, #0
    b17e:	0896      	lsrs	r6, r2, #2
    b180:	4652      	mov	r2, sl
    b182:	6814      	ldr	r4, [r2, #0]
    b184:	d104      	bne.n	b190 <__sprint_r.part.0+0x38>
    b186:	e015      	b.n	b1b4 <__sprint_r.part.0+0x5c>
    b188:	3501      	adds	r5, #1
    b18a:	3404      	adds	r4, #4
    b18c:	42ae      	cmp	r6, r5
    b18e:	d00f      	beq.n	b1b0 <__sprint_r.part.0+0x58>
    b190:	003a      	movs	r2, r7
    b192:	6821      	ldr	r1, [r4, #0]
    b194:	4640      	mov	r0, r8
    b196:	f000 f977 	bl	b488 <_fputwc_r>
    b19a:	1c43      	adds	r3, r0, #1
    b19c:	d1f4      	bne.n	b188 <__sprint_r.part.0+0x30>
    b19e:	464a      	mov	r2, r9
    b1a0:	2300      	movs	r3, #0
    b1a2:	6093      	str	r3, [r2, #8]
    b1a4:	6053      	str	r3, [r2, #4]
    b1a6:	bc1c      	pop	{r2, r3, r4}
    b1a8:	4690      	mov	r8, r2
    b1aa:	4699      	mov	r9, r3
    b1ac:	46a2      	mov	sl, r4
    b1ae:	bdf0      	pop	{r4, r5, r6, r7, pc}
    b1b0:	464b      	mov	r3, r9
    b1b2:	689b      	ldr	r3, [r3, #8]
    b1b4:	464a      	mov	r2, r9
    b1b6:	00b6      	lsls	r6, r6, #2
    b1b8:	1b9b      	subs	r3, r3, r6
    b1ba:	6093      	str	r3, [r2, #8]
    b1bc:	2208      	movs	r2, #8
    b1be:	4694      	mov	ip, r2
    b1c0:	44e2      	add	sl, ip
    b1c2:	2b00      	cmp	r3, #0
    b1c4:	d1d8      	bne.n	b178 <__sprint_r.part.0+0x20>
    b1c6:	2000      	movs	r0, #0
    b1c8:	e7e9      	b.n	b19e <__sprint_r.part.0+0x46>
    b1ca:	f7fe fcbb 	bl	9b44 <__sfvwrite_r>
    b1ce:	e7e6      	b.n	b19e <__sprint_r.part.0+0x46>

0000b1d0 <__sprint_r>:
    b1d0:	6893      	ldr	r3, [r2, #8]
    b1d2:	b510      	push	{r4, lr}
    b1d4:	2b00      	cmp	r3, #0
    b1d6:	d002      	beq.n	b1de <__sprint_r+0xe>
    b1d8:	f7ff ffbe 	bl	b158 <__sprint_r.part.0>
    b1dc:	bd10      	pop	{r4, pc}
    b1de:	6053      	str	r3, [r2, #4]
    b1e0:	2000      	movs	r0, #0
    b1e2:	e7fb      	b.n	b1dc <__sprint_r+0xc>

0000b1e4 <_write_r>:
    b1e4:	b570      	push	{r4, r5, r6, lr}
    b1e6:	0005      	movs	r5, r0
    b1e8:	0008      	movs	r0, r1
    b1ea:	0011      	movs	r1, r2
    b1ec:	2200      	movs	r2, #0
    b1ee:	4c06      	ldr	r4, [pc, #24]	; (b208 <_write_r+0x24>)
    b1f0:	6022      	str	r2, [r4, #0]
    b1f2:	001a      	movs	r2, r3
    b1f4:	f7f6 fb0e 	bl	1814 <_write>
    b1f8:	1c43      	adds	r3, r0, #1
    b1fa:	d000      	beq.n	b1fe <_write_r+0x1a>
    b1fc:	bd70      	pop	{r4, r5, r6, pc}
    b1fe:	6823      	ldr	r3, [r4, #0]
    b200:	2b00      	cmp	r3, #0
    b202:	d0fb      	beq.n	b1fc <_write_r+0x18>
    b204:	602b      	str	r3, [r5, #0]
    b206:	e7f9      	b.n	b1fc <_write_r+0x18>
    b208:	20000b2c 	.word	0x20000b2c

0000b20c <__register_exitproc>:
    b20c:	b5f8      	push	{r3, r4, r5, r6, r7, lr}
    b20e:	4644      	mov	r4, r8
    b210:	465f      	mov	r7, fp
    b212:	4656      	mov	r6, sl
    b214:	464d      	mov	r5, r9
    b216:	469b      	mov	fp, r3
    b218:	4b2f      	ldr	r3, [pc, #188]	; (b2d8 <__register_exitproc+0xcc>)
    b21a:	b4f0      	push	{r4, r5, r6, r7}
    b21c:	681c      	ldr	r4, [r3, #0]
    b21e:	23a4      	movs	r3, #164	; 0xa4
    b220:	005b      	lsls	r3, r3, #1
    b222:	0005      	movs	r5, r0
    b224:	58e0      	ldr	r0, [r4, r3]
    b226:	000e      	movs	r6, r1
    b228:	4690      	mov	r8, r2
    b22a:	2800      	cmp	r0, #0
    b22c:	d04b      	beq.n	b2c6 <__register_exitproc+0xba>
    b22e:	6843      	ldr	r3, [r0, #4]
    b230:	2b1f      	cmp	r3, #31
    b232:	dc0d      	bgt.n	b250 <__register_exitproc+0x44>
    b234:	1c5c      	adds	r4, r3, #1
    b236:	2d00      	cmp	r5, #0
    b238:	d121      	bne.n	b27e <__register_exitproc+0x72>
    b23a:	3302      	adds	r3, #2
    b23c:	009b      	lsls	r3, r3, #2
    b23e:	6044      	str	r4, [r0, #4]
    b240:	501e      	str	r6, [r3, r0]
    b242:	2000      	movs	r0, #0
    b244:	bc3c      	pop	{r2, r3, r4, r5}
    b246:	4690      	mov	r8, r2
    b248:	4699      	mov	r9, r3
    b24a:	46a2      	mov	sl, r4
    b24c:	46ab      	mov	fp, r5
    b24e:	bdf8      	pop	{r3, r4, r5, r6, r7, pc}
    b250:	4b22      	ldr	r3, [pc, #136]	; (b2dc <__register_exitproc+0xd0>)
    b252:	2b00      	cmp	r3, #0
    b254:	d03c      	beq.n	b2d0 <__register_exitproc+0xc4>
    b256:	20c8      	movs	r0, #200	; 0xc8
    b258:	0040      	lsls	r0, r0, #1
    b25a:	e000      	b.n	b25e <__register_exitproc+0x52>
    b25c:	bf00      	nop
    b25e:	2800      	cmp	r0, #0
    b260:	d036      	beq.n	b2d0 <__register_exitproc+0xc4>
    b262:	22a4      	movs	r2, #164	; 0xa4
    b264:	2300      	movs	r3, #0
    b266:	0052      	lsls	r2, r2, #1
    b268:	58a1      	ldr	r1, [r4, r2]
    b26a:	6043      	str	r3, [r0, #4]
    b26c:	6001      	str	r1, [r0, #0]
    b26e:	50a0      	str	r0, [r4, r2]
    b270:	3240      	adds	r2, #64	; 0x40
    b272:	5083      	str	r3, [r0, r2]
    b274:	3204      	adds	r2, #4
    b276:	5083      	str	r3, [r0, r2]
    b278:	2401      	movs	r4, #1
    b27a:	2d00      	cmp	r5, #0
    b27c:	d0dd      	beq.n	b23a <__register_exitproc+0x2e>
    b27e:	009a      	lsls	r2, r3, #2
    b280:	4691      	mov	r9, r2
    b282:	4481      	add	r9, r0
    b284:	4642      	mov	r2, r8
    b286:	2188      	movs	r1, #136	; 0x88
    b288:	464f      	mov	r7, r9
    b28a:	507a      	str	r2, [r7, r1]
    b28c:	22c4      	movs	r2, #196	; 0xc4
    b28e:	0052      	lsls	r2, r2, #1
    b290:	4690      	mov	r8, r2
    b292:	4480      	add	r8, r0
    b294:	4642      	mov	r2, r8
    b296:	3987      	subs	r1, #135	; 0x87
    b298:	4099      	lsls	r1, r3
    b29a:	6812      	ldr	r2, [r2, #0]
    b29c:	468a      	mov	sl, r1
    b29e:	430a      	orrs	r2, r1
    b2a0:	4694      	mov	ip, r2
    b2a2:	4642      	mov	r2, r8
    b2a4:	4661      	mov	r1, ip
    b2a6:	6011      	str	r1, [r2, #0]
    b2a8:	2284      	movs	r2, #132	; 0x84
    b2aa:	4649      	mov	r1, r9
    b2ac:	465f      	mov	r7, fp
    b2ae:	0052      	lsls	r2, r2, #1
    b2b0:	508f      	str	r7, [r1, r2]
    b2b2:	2d02      	cmp	r5, #2
    b2b4:	d1c1      	bne.n	b23a <__register_exitproc+0x2e>
    b2b6:	0002      	movs	r2, r0
    b2b8:	4655      	mov	r5, sl
    b2ba:	328d      	adds	r2, #141	; 0x8d
    b2bc:	32ff      	adds	r2, #255	; 0xff
    b2be:	6811      	ldr	r1, [r2, #0]
    b2c0:	430d      	orrs	r5, r1
    b2c2:	6015      	str	r5, [r2, #0]
    b2c4:	e7b9      	b.n	b23a <__register_exitproc+0x2e>
    b2c6:	0020      	movs	r0, r4
    b2c8:	304d      	adds	r0, #77	; 0x4d
    b2ca:	30ff      	adds	r0, #255	; 0xff
    b2cc:	50e0      	str	r0, [r4, r3]
    b2ce:	e7ae      	b.n	b22e <__register_exitproc+0x22>
    b2d0:	2001      	movs	r0, #1
    b2d2:	4240      	negs	r0, r0
    b2d4:	e7b6      	b.n	b244 <__register_exitproc+0x38>
    b2d6:	46c0      	nop			; (mov r8, r8)
    b2d8:	0000be2c 	.word	0x0000be2c
    b2dc:	00000000 	.word	0x00000000

0000b2e0 <_calloc_r>:
    b2e0:	b510      	push	{r4, lr}
    b2e2:	4351      	muls	r1, r2
    b2e4:	f7fe fe64 	bl	9fb0 <_malloc_r>
    b2e8:	1e04      	subs	r4, r0, #0
    b2ea:	d026      	beq.n	b33a <_calloc_r+0x5a>
    b2ec:	0003      	movs	r3, r0
    b2ee:	3b08      	subs	r3, #8
    b2f0:	685a      	ldr	r2, [r3, #4]
    b2f2:	2303      	movs	r3, #3
    b2f4:	439a      	bics	r2, r3
    b2f6:	3a04      	subs	r2, #4
    b2f8:	2a24      	cmp	r2, #36	; 0x24
    b2fa:	d816      	bhi.n	b32a <_calloc_r+0x4a>
    b2fc:	0003      	movs	r3, r0
    b2fe:	2a13      	cmp	r2, #19
    b300:	d90d      	bls.n	b31e <_calloc_r+0x3e>
    b302:	2100      	movs	r1, #0
    b304:	3308      	adds	r3, #8
    b306:	6001      	str	r1, [r0, #0]
    b308:	6041      	str	r1, [r0, #4]
    b30a:	2a1b      	cmp	r2, #27
    b30c:	d907      	bls.n	b31e <_calloc_r+0x3e>
    b30e:	6081      	str	r1, [r0, #8]
    b310:	60c1      	str	r1, [r0, #12]
    b312:	2a24      	cmp	r2, #36	; 0x24
    b314:	d10e      	bne.n	b334 <_calloc_r+0x54>
    b316:	0003      	movs	r3, r0
    b318:	6101      	str	r1, [r0, #16]
    b31a:	3318      	adds	r3, #24
    b31c:	6141      	str	r1, [r0, #20]
    b31e:	2200      	movs	r2, #0
    b320:	0020      	movs	r0, r4
    b322:	601a      	str	r2, [r3, #0]
    b324:	605a      	str	r2, [r3, #4]
    b326:	609a      	str	r2, [r3, #8]
    b328:	bd10      	pop	{r4, pc}
    b32a:	2100      	movs	r1, #0
    b32c:	f7fb fb88 	bl	6a40 <memset>
    b330:	0020      	movs	r0, r4
    b332:	e7f9      	b.n	b328 <_calloc_r+0x48>
    b334:	0003      	movs	r3, r0
    b336:	3310      	adds	r3, #16
    b338:	e7f1      	b.n	b31e <_calloc_r+0x3e>
    b33a:	2000      	movs	r0, #0
    b33c:	e7f4      	b.n	b328 <_calloc_r+0x48>
    b33e:	46c0      	nop			; (mov r8, r8)

0000b340 <_close_r>:
    b340:	2300      	movs	r3, #0
    b342:	b570      	push	{r4, r5, r6, lr}
    b344:	4c06      	ldr	r4, [pc, #24]	; (b360 <_close_r+0x20>)
    b346:	0005      	movs	r5, r0
    b348:	0008      	movs	r0, r1
    b34a:	6023      	str	r3, [r4, #0]
    b34c:	f7f4 ff46 	bl	1dc <_close>
    b350:	1c43      	adds	r3, r0, #1
    b352:	d000      	beq.n	b356 <_close_r+0x16>
    b354:	bd70      	pop	{r4, r5, r6, pc}
    b356:	6823      	ldr	r3, [r4, #0]
    b358:	2b00      	cmp	r3, #0
    b35a:	d0fb      	beq.n	b354 <_close_r+0x14>
    b35c:	602b      	str	r3, [r5, #0]
    b35e:	e7f9      	b.n	b354 <_close_r+0x14>
    b360:	20000b2c 	.word	0x20000b2c

0000b364 <_fclose_r>:
    b364:	b570      	push	{r4, r5, r6, lr}
    b366:	0005      	movs	r5, r0
    b368:	1e0c      	subs	r4, r1, #0
    b36a:	d008      	beq.n	b37e <_fclose_r+0x1a>
    b36c:	2800      	cmp	r0, #0
    b36e:	d002      	beq.n	b376 <_fclose_r+0x12>
    b370:	6b83      	ldr	r3, [r0, #56]	; 0x38
    b372:	2b00      	cmp	r3, #0
    b374:	d031      	beq.n	b3da <_fclose_r+0x76>
    b376:	220c      	movs	r2, #12
    b378:	5ea3      	ldrsh	r3, [r4, r2]
    b37a:	2b00      	cmp	r3, #0
    b37c:	d101      	bne.n	b382 <_fclose_r+0x1e>
    b37e:	2000      	movs	r0, #0
    b380:	bd70      	pop	{r4, r5, r6, pc}
    b382:	0021      	movs	r1, r4
    b384:	0028      	movs	r0, r5
    b386:	f7fe f947 	bl	9618 <__sflush_r>
    b38a:	6ae3      	ldr	r3, [r4, #44]	; 0x2c
    b38c:	0006      	movs	r6, r0
    b38e:	2b00      	cmp	r3, #0
    b390:	d004      	beq.n	b39c <_fclose_r+0x38>
    b392:	69e1      	ldr	r1, [r4, #28]
    b394:	0028      	movs	r0, r5
    b396:	4798      	blx	r3
    b398:	2800      	cmp	r0, #0
    b39a:	db21      	blt.n	b3e0 <_fclose_r+0x7c>
    b39c:	89a3      	ldrh	r3, [r4, #12]
    b39e:	061b      	lsls	r3, r3, #24
    b3a0:	d421      	bmi.n	b3e6 <_fclose_r+0x82>
    b3a2:	6b21      	ldr	r1, [r4, #48]	; 0x30
    b3a4:	2900      	cmp	r1, #0
    b3a6:	d008      	beq.n	b3ba <_fclose_r+0x56>
    b3a8:	0023      	movs	r3, r4
    b3aa:	3340      	adds	r3, #64	; 0x40
    b3ac:	4299      	cmp	r1, r3
    b3ae:	d002      	beq.n	b3b6 <_fclose_r+0x52>
    b3b0:	0028      	movs	r0, r5
    b3b2:	f7fe fae5 	bl	9980 <_free_r>
    b3b6:	2300      	movs	r3, #0
    b3b8:	6323      	str	r3, [r4, #48]	; 0x30
    b3ba:	6c61      	ldr	r1, [r4, #68]	; 0x44
    b3bc:	2900      	cmp	r1, #0
    b3be:	d004      	beq.n	b3ca <_fclose_r+0x66>
    b3c0:	0028      	movs	r0, r5
    b3c2:	f7fe fadd 	bl	9980 <_free_r>
    b3c6:	2300      	movs	r3, #0
    b3c8:	6463      	str	r3, [r4, #68]	; 0x44
    b3ca:	f7fe fa6b 	bl	98a4 <__sfp_lock_acquire>
    b3ce:	2300      	movs	r3, #0
    b3d0:	81a3      	strh	r3, [r4, #12]
    b3d2:	f7fe fa69 	bl	98a8 <__sfp_lock_release>
    b3d6:	0030      	movs	r0, r6
    b3d8:	e7d2      	b.n	b380 <_fclose_r+0x1c>
    b3da:	f7fe fa5b 	bl	9894 <__sinit>
    b3de:	e7ca      	b.n	b376 <_fclose_r+0x12>
    b3e0:	2601      	movs	r6, #1
    b3e2:	4276      	negs	r6, r6
    b3e4:	e7da      	b.n	b39c <_fclose_r+0x38>
    b3e6:	6921      	ldr	r1, [r4, #16]
    b3e8:	0028      	movs	r0, r5
    b3ea:	f7fe fac9 	bl	9980 <_free_r>
    b3ee:	e7d8      	b.n	b3a2 <_fclose_r+0x3e>

0000b3f0 <__fputwc>:
    b3f0:	b5f0      	push	{r4, r5, r6, r7, lr}
    b3f2:	464f      	mov	r7, r9
    b3f4:	4646      	mov	r6, r8
    b3f6:	b4c0      	push	{r6, r7}
    b3f8:	b085      	sub	sp, #20
    b3fa:	4680      	mov	r8, r0
    b3fc:	4689      	mov	r9, r1
    b3fe:	0014      	movs	r4, r2
    b400:	f7fe fd58 	bl	9eb4 <__locale_mb_cur_max>
    b404:	2801      	cmp	r0, #1
    b406:	d031      	beq.n	b46c <__fputwc+0x7c>
    b408:	0023      	movs	r3, r4
    b40a:	af03      	add	r7, sp, #12
    b40c:	335c      	adds	r3, #92	; 0x5c
    b40e:	464a      	mov	r2, r9
    b410:	0039      	movs	r1, r7
    b412:	4640      	mov	r0, r8
    b414:	f000 f8f4 	bl	b600 <_wcrtomb_r>
    b418:	0006      	movs	r6, r0
    b41a:	1c43      	adds	r3, r0, #1
    b41c:	d021      	beq.n	b462 <__fputwc+0x72>
    b41e:	2800      	cmp	r0, #0
    b420:	d030      	beq.n	b484 <__fputwc+0x94>
    b422:	7839      	ldrb	r1, [r7, #0]
    b424:	2500      	movs	r5, #0
    b426:	e007      	b.n	b438 <__fputwc+0x48>
    b428:	6823      	ldr	r3, [r4, #0]
    b42a:	1c5a      	adds	r2, r3, #1
    b42c:	6022      	str	r2, [r4, #0]
    b42e:	7019      	strb	r1, [r3, #0]
    b430:	3501      	adds	r5, #1
    b432:	42b5      	cmp	r5, r6
    b434:	d226      	bcs.n	b484 <__fputwc+0x94>
    b436:	5d79      	ldrb	r1, [r7, r5]
    b438:	68a3      	ldr	r3, [r4, #8]
    b43a:	3b01      	subs	r3, #1
    b43c:	60a3      	str	r3, [r4, #8]
    b43e:	2b00      	cmp	r3, #0
    b440:	daf2      	bge.n	b428 <__fputwc+0x38>
    b442:	69a2      	ldr	r2, [r4, #24]
    b444:	4293      	cmp	r3, r2
    b446:	db01      	blt.n	b44c <__fputwc+0x5c>
    b448:	290a      	cmp	r1, #10
    b44a:	d1ed      	bne.n	b428 <__fputwc+0x38>
    b44c:	0022      	movs	r2, r4
    b44e:	4640      	mov	r0, r8
    b450:	f000 f878 	bl	b544 <__swbuf_r>
    b454:	1c43      	adds	r3, r0, #1
    b456:	d1eb      	bne.n	b430 <__fputwc+0x40>
    b458:	b005      	add	sp, #20
    b45a:	bc0c      	pop	{r2, r3}
    b45c:	4690      	mov	r8, r2
    b45e:	4699      	mov	r9, r3
    b460:	bdf0      	pop	{r4, r5, r6, r7, pc}
    b462:	2340      	movs	r3, #64	; 0x40
    b464:	89a2      	ldrh	r2, [r4, #12]
    b466:	4313      	orrs	r3, r2
    b468:	81a3      	strh	r3, [r4, #12]
    b46a:	e7f5      	b.n	b458 <__fputwc+0x68>
    b46c:	464b      	mov	r3, r9
    b46e:	3b01      	subs	r3, #1
    b470:	2bfe      	cmp	r3, #254	; 0xfe
    b472:	d8c9      	bhi.n	b408 <__fputwc+0x18>
    b474:	466a      	mov	r2, sp
    b476:	464b      	mov	r3, r9
    b478:	71d3      	strb	r3, [r2, #7]
    b47a:	79d1      	ldrb	r1, [r2, #7]
    b47c:	af03      	add	r7, sp, #12
    b47e:	7039      	strb	r1, [r7, #0]
    b480:	2601      	movs	r6, #1
    b482:	e7cf      	b.n	b424 <__fputwc+0x34>
    b484:	4648      	mov	r0, r9
    b486:	e7e7      	b.n	b458 <__fputwc+0x68>

0000b488 <_fputwc_r>:
    b488:	b510      	push	{r4, lr}
    b48a:	240c      	movs	r4, #12
    b48c:	5f13      	ldrsh	r3, [r2, r4]
    b48e:	2480      	movs	r4, #128	; 0x80
    b490:	01a4      	lsls	r4, r4, #6
    b492:	4223      	tst	r3, r4
    b494:	d104      	bne.n	b4a0 <_fputwc_r+0x18>
    b496:	4323      	orrs	r3, r4
    b498:	8193      	strh	r3, [r2, #12]
    b49a:	6e53      	ldr	r3, [r2, #100]	; 0x64
    b49c:	431c      	orrs	r4, r3
    b49e:	6654      	str	r4, [r2, #100]	; 0x64
    b4a0:	f7ff ffa6 	bl	b3f0 <__fputwc>
    b4a4:	bd10      	pop	{r4, pc}
    b4a6:	46c0      	nop			; (mov r8, r8)

0000b4a8 <_fstat_r>:
    b4a8:	2300      	movs	r3, #0
    b4aa:	b570      	push	{r4, r5, r6, lr}
    b4ac:	4c07      	ldr	r4, [pc, #28]	; (b4cc <_fstat_r+0x24>)
    b4ae:	0005      	movs	r5, r0
    b4b0:	0008      	movs	r0, r1
    b4b2:	0011      	movs	r1, r2
    b4b4:	6023      	str	r3, [r4, #0]
    b4b6:	f7f4 fe9b 	bl	1f0 <_fstat>
    b4ba:	1c43      	adds	r3, r0, #1
    b4bc:	d000      	beq.n	b4c0 <_fstat_r+0x18>
    b4be:	bd70      	pop	{r4, r5, r6, pc}
    b4c0:	6823      	ldr	r3, [r4, #0]
    b4c2:	2b00      	cmp	r3, #0
    b4c4:	d0fb      	beq.n	b4be <_fstat_r+0x16>
    b4c6:	602b      	str	r3, [r5, #0]
    b4c8:	e7f9      	b.n	b4be <_fstat_r+0x16>
    b4ca:	46c0      	nop			; (mov r8, r8)
    b4cc:	20000b2c 	.word	0x20000b2c

0000b4d0 <_isatty_r>:
    b4d0:	2300      	movs	r3, #0
    b4d2:	b570      	push	{r4, r5, r6, lr}
    b4d4:	4c06      	ldr	r4, [pc, #24]	; (b4f0 <_isatty_r+0x20>)
    b4d6:	0005      	movs	r5, r0
    b4d8:	0008      	movs	r0, r1
    b4da:	6023      	str	r3, [r4, #0]
    b4dc:	f7f4 fe96 	bl	20c <_isatty>
    b4e0:	1c43      	adds	r3, r0, #1
    b4e2:	d000      	beq.n	b4e6 <_isatty_r+0x16>
    b4e4:	bd70      	pop	{r4, r5, r6, pc}
    b4e6:	6823      	ldr	r3, [r4, #0]
    b4e8:	2b00      	cmp	r3, #0
    b4ea:	d0fb      	beq.n	b4e4 <_isatty_r+0x14>
    b4ec:	602b      	str	r3, [r5, #0]
    b4ee:	e7f9      	b.n	b4e4 <_isatty_r+0x14>
    b4f0:	20000b2c 	.word	0x20000b2c

0000b4f4 <_lseek_r>:
    b4f4:	b570      	push	{r4, r5, r6, lr}
    b4f6:	0005      	movs	r5, r0
    b4f8:	0008      	movs	r0, r1
    b4fa:	0011      	movs	r1, r2
    b4fc:	2200      	movs	r2, #0
    b4fe:	4c06      	ldr	r4, [pc, #24]	; (b518 <_lseek_r+0x24>)
    b500:	6022      	str	r2, [r4, #0]
    b502:	001a      	movs	r2, r3
    b504:	f7f4 fe8c 	bl	220 <_lseek>
    b508:	1c43      	adds	r3, r0, #1
    b50a:	d000      	beq.n	b50e <_lseek_r+0x1a>
    b50c:	bd70      	pop	{r4, r5, r6, pc}
    b50e:	6823      	ldr	r3, [r4, #0]
    b510:	2b00      	cmp	r3, #0
    b512:	d0fb      	beq.n	b50c <_lseek_r+0x18>
    b514:	602b      	str	r3, [r5, #0]
    b516:	e7f9      	b.n	b50c <_lseek_r+0x18>
    b518:	20000b2c 	.word	0x20000b2c

0000b51c <_read_r>:
    b51c:	b570      	push	{r4, r5, r6, lr}
    b51e:	0005      	movs	r5, r0
    b520:	0008      	movs	r0, r1
    b522:	0011      	movs	r1, r2
    b524:	2200      	movs	r2, #0
    b526:	4c06      	ldr	r4, [pc, #24]	; (b540 <_read_r+0x24>)
    b528:	6022      	str	r2, [r4, #0]
    b52a:	001a      	movs	r2, r3
    b52c:	f000 f9c6 	bl	b8bc <_read>
    b530:	1c43      	adds	r3, r0, #1
    b532:	d000      	beq.n	b536 <_read_r+0x1a>
    b534:	bd70      	pop	{r4, r5, r6, pc}
    b536:	6823      	ldr	r3, [r4, #0]
    b538:	2b00      	cmp	r3, #0
    b53a:	d0fb      	beq.n	b534 <_read_r+0x18>
    b53c:	602b      	str	r3, [r5, #0]
    b53e:	e7f9      	b.n	b534 <_read_r+0x18>
    b540:	20000b2c 	.word	0x20000b2c

0000b544 <__swbuf_r>:
    b544:	b5f8      	push	{r3, r4, r5, r6, r7, lr}
    b546:	0006      	movs	r6, r0
    b548:	000f      	movs	r7, r1
    b54a:	0014      	movs	r4, r2
    b54c:	2800      	cmp	r0, #0
    b54e:	d002      	beq.n	b556 <__swbuf_r+0x12>
    b550:	6b83      	ldr	r3, [r0, #56]	; 0x38
    b552:	2b00      	cmp	r3, #0
    b554:	d04c      	beq.n	b5f0 <__swbuf_r+0xac>
    b556:	69a3      	ldr	r3, [r4, #24]
    b558:	60a3      	str	r3, [r4, #8]
    b55a:	230c      	movs	r3, #12
    b55c:	5ee2      	ldrsh	r2, [r4, r3]
    b55e:	b291      	uxth	r1, r2
    b560:	070b      	lsls	r3, r1, #28
    b562:	d53a      	bpl.n	b5da <__swbuf_r+0x96>
    b564:	6923      	ldr	r3, [r4, #16]
    b566:	2b00      	cmp	r3, #0
    b568:	d037      	beq.n	b5da <__swbuf_r+0x96>
    b56a:	2080      	movs	r0, #128	; 0x80
    b56c:	25ff      	movs	r5, #255	; 0xff
    b56e:	0180      	lsls	r0, r0, #6
    b570:	403d      	ands	r5, r7
    b572:	4201      	tst	r1, r0
    b574:	d015      	beq.n	b5a2 <__swbuf_r+0x5e>
    b576:	6822      	ldr	r2, [r4, #0]
    b578:	6961      	ldr	r1, [r4, #20]
    b57a:	1ad3      	subs	r3, r2, r3
    b57c:	428b      	cmp	r3, r1
    b57e:	da1b      	bge.n	b5b8 <__swbuf_r+0x74>
    b580:	3301      	adds	r3, #1
    b582:	68a1      	ldr	r1, [r4, #8]
    b584:	3901      	subs	r1, #1
    b586:	60a1      	str	r1, [r4, #8]
    b588:	1c51      	adds	r1, r2, #1
    b58a:	6021      	str	r1, [r4, #0]
    b58c:	7017      	strb	r7, [r2, #0]
    b58e:	6962      	ldr	r2, [r4, #20]
    b590:	429a      	cmp	r2, r3
    b592:	d01a      	beq.n	b5ca <__swbuf_r+0x86>
    b594:	89a3      	ldrh	r3, [r4, #12]
    b596:	0028      	movs	r0, r5
    b598:	07db      	lsls	r3, r3, #31
    b59a:	d501      	bpl.n	b5a0 <__swbuf_r+0x5c>
    b59c:	2d0a      	cmp	r5, #10
    b59e:	d014      	beq.n	b5ca <__swbuf_r+0x86>
    b5a0:	bdf8      	pop	{r3, r4, r5, r6, r7, pc}
    b5a2:	4302      	orrs	r2, r0
    b5a4:	6e61      	ldr	r1, [r4, #100]	; 0x64
    b5a6:	81a2      	strh	r2, [r4, #12]
    b5a8:	4a14      	ldr	r2, [pc, #80]	; (b5fc <__swbuf_r+0xb8>)
    b5aa:	400a      	ands	r2, r1
    b5ac:	6662      	str	r2, [r4, #100]	; 0x64
    b5ae:	6961      	ldr	r1, [r4, #20]
    b5b0:	6822      	ldr	r2, [r4, #0]
    b5b2:	1ad3      	subs	r3, r2, r3
    b5b4:	428b      	cmp	r3, r1
    b5b6:	dbe3      	blt.n	b580 <__swbuf_r+0x3c>
    b5b8:	0021      	movs	r1, r4
    b5ba:	0030      	movs	r0, r6
    b5bc:	f7fe f8d4 	bl	9768 <_fflush_r>
    b5c0:	2800      	cmp	r0, #0
    b5c2:	d118      	bne.n	b5f6 <__swbuf_r+0xb2>
    b5c4:	6822      	ldr	r2, [r4, #0]
    b5c6:	2301      	movs	r3, #1
    b5c8:	e7db      	b.n	b582 <__swbuf_r+0x3e>
    b5ca:	0021      	movs	r1, r4
    b5cc:	0030      	movs	r0, r6
    b5ce:	f7fe f8cb 	bl	9768 <_fflush_r>
    b5d2:	2800      	cmp	r0, #0
    b5d4:	d10f      	bne.n	b5f6 <__swbuf_r+0xb2>
    b5d6:	0028      	movs	r0, r5
    b5d8:	e7e2      	b.n	b5a0 <__swbuf_r+0x5c>
    b5da:	0021      	movs	r1, r4
    b5dc:	0030      	movs	r0, r6
    b5de:	f7fc ff4b 	bl	8478 <__swsetup_r>
    b5e2:	2800      	cmp	r0, #0
    b5e4:	d107      	bne.n	b5f6 <__swbuf_r+0xb2>
    b5e6:	230c      	movs	r3, #12
    b5e8:	5ee2      	ldrsh	r2, [r4, r3]
    b5ea:	6923      	ldr	r3, [r4, #16]
    b5ec:	b291      	uxth	r1, r2
    b5ee:	e7bc      	b.n	b56a <__swbuf_r+0x26>
    b5f0:	f7fe f950 	bl	9894 <__sinit>
    b5f4:	e7af      	b.n	b556 <__swbuf_r+0x12>
    b5f6:	2001      	movs	r0, #1
    b5f8:	4240      	negs	r0, r0
    b5fa:	e7d1      	b.n	b5a0 <__swbuf_r+0x5c>
    b5fc:	ffffdfff 	.word	0xffffdfff

0000b600 <_wcrtomb_r>:
    b600:	b5f0      	push	{r4, r5, r6, r7, lr}
    b602:	4647      	mov	r7, r8
    b604:	b480      	push	{r7}
    b606:	001e      	movs	r6, r3
    b608:	b086      	sub	sp, #24
    b60a:	0005      	movs	r5, r0
    b60c:	000c      	movs	r4, r1
    b60e:	0017      	movs	r7, r2
    b610:	4b10      	ldr	r3, [pc, #64]	; (b654 <_wcrtomb_r+0x54>)
    b612:	2900      	cmp	r1, #0
    b614:	d013      	beq.n	b63e <_wcrtomb_r+0x3e>
    b616:	681b      	ldr	r3, [r3, #0]
    b618:	4698      	mov	r8, r3
    b61a:	f7fe fc47 	bl	9eac <__locale_charset>
    b61e:	9600      	str	r6, [sp, #0]
    b620:	0003      	movs	r3, r0
    b622:	003a      	movs	r2, r7
    b624:	0021      	movs	r1, r4
    b626:	0028      	movs	r0, r5
    b628:	47c0      	blx	r8
    b62a:	1c43      	adds	r3, r0, #1
    b62c:	d103      	bne.n	b636 <_wcrtomb_r+0x36>
    b62e:	2300      	movs	r3, #0
    b630:	6033      	str	r3, [r6, #0]
    b632:	338a      	adds	r3, #138	; 0x8a
    b634:	602b      	str	r3, [r5, #0]
    b636:	b006      	add	sp, #24
    b638:	bc04      	pop	{r2}
    b63a:	4690      	mov	r8, r2
    b63c:	bdf0      	pop	{r4, r5, r6, r7, pc}
    b63e:	681c      	ldr	r4, [r3, #0]
    b640:	f7fe fc34 	bl	9eac <__locale_charset>
    b644:	9600      	str	r6, [sp, #0]
    b646:	0003      	movs	r3, r0
    b648:	2200      	movs	r2, #0
    b64a:	a903      	add	r1, sp, #12
    b64c:	0028      	movs	r0, r5
    b64e:	47a0      	blx	r4
    b650:	e7eb      	b.n	b62a <_wcrtomb_r+0x2a>
    b652:	46c0      	nop			; (mov r8, r8)
    b654:	200008c0 	.word	0x200008c0

0000b658 <__ascii_wctomb>:
    b658:	2900      	cmp	r1, #0
    b65a:	d004      	beq.n	b666 <__ascii_wctomb+0xe>
    b65c:	2aff      	cmp	r2, #255	; 0xff
    b65e:	d804      	bhi.n	b66a <__ascii_wctomb+0x12>
    b660:	2001      	movs	r0, #1
    b662:	700a      	strb	r2, [r1, #0]
    b664:	4770      	bx	lr
    b666:	2000      	movs	r0, #0
    b668:	e7fc      	b.n	b664 <__ascii_wctomb+0xc>
    b66a:	238a      	movs	r3, #138	; 0x8a
    b66c:	6003      	str	r3, [r0, #0]
    b66e:	2001      	movs	r0, #1
    b670:	4240      	negs	r0, r0
    b672:	e7f7      	b.n	b664 <__ascii_wctomb+0xc>

0000b674 <__aeabi_uldivmod>:
    b674:	2b00      	cmp	r3, #0
    b676:	d111      	bne.n	b69c <__aeabi_uldivmod+0x28>
    b678:	2a00      	cmp	r2, #0
    b67a:	d10f      	bne.n	b69c <__aeabi_uldivmod+0x28>
    b67c:	2900      	cmp	r1, #0
    b67e:	d100      	bne.n	b682 <__aeabi_uldivmod+0xe>
    b680:	2800      	cmp	r0, #0
    b682:	d002      	beq.n	b68a <__aeabi_uldivmod+0x16>
    b684:	2100      	movs	r1, #0
    b686:	43c9      	mvns	r1, r1
    b688:	1c08      	adds	r0, r1, #0
    b68a:	b407      	push	{r0, r1, r2}
    b68c:	4802      	ldr	r0, [pc, #8]	; (b698 <__aeabi_uldivmod+0x24>)
    b68e:	a102      	add	r1, pc, #8	; (adr r1, b698 <__aeabi_uldivmod+0x24>)
    b690:	1840      	adds	r0, r0, r1
    b692:	9002      	str	r0, [sp, #8]
    b694:	bd03      	pop	{r0, r1, pc}
    b696:	46c0      	nop			; (mov r8, r8)
    b698:	ffff8ce9 	.word	0xffff8ce9
    b69c:	b403      	push	{r0, r1}
    b69e:	4668      	mov	r0, sp
    b6a0:	b501      	push	{r0, lr}
    b6a2:	9802      	ldr	r0, [sp, #8]
    b6a4:	f000 f806 	bl	b6b4 <__udivmoddi4>
    b6a8:	9b01      	ldr	r3, [sp, #4]
    b6aa:	469e      	mov	lr, r3
    b6ac:	b002      	add	sp, #8
    b6ae:	bc0c      	pop	{r2, r3}
    b6b0:	4770      	bx	lr
    b6b2:	46c0      	nop			; (mov r8, r8)

0000b6b4 <__udivmoddi4>:
    b6b4:	b5f0      	push	{r4, r5, r6, r7, lr}
    b6b6:	464d      	mov	r5, r9
    b6b8:	4656      	mov	r6, sl
    b6ba:	4644      	mov	r4, r8
    b6bc:	465f      	mov	r7, fp
    b6be:	b4f0      	push	{r4, r5, r6, r7}
    b6c0:	4692      	mov	sl, r2
    b6c2:	b083      	sub	sp, #12
    b6c4:	0004      	movs	r4, r0
    b6c6:	000d      	movs	r5, r1
    b6c8:	4699      	mov	r9, r3
    b6ca:	428b      	cmp	r3, r1
    b6cc:	d82f      	bhi.n	b72e <__udivmoddi4+0x7a>
    b6ce:	d02c      	beq.n	b72a <__udivmoddi4+0x76>
    b6d0:	4649      	mov	r1, r9
    b6d2:	4650      	mov	r0, sl
    b6d4:	f000 f8e6 	bl	b8a4 <__clzdi2>
    b6d8:	0029      	movs	r1, r5
    b6da:	0006      	movs	r6, r0
    b6dc:	0020      	movs	r0, r4
    b6de:	f000 f8e1 	bl	b8a4 <__clzdi2>
    b6e2:	1a33      	subs	r3, r6, r0
    b6e4:	4698      	mov	r8, r3
    b6e6:	3b20      	subs	r3, #32
    b6e8:	469b      	mov	fp, r3
    b6ea:	d500      	bpl.n	b6ee <__udivmoddi4+0x3a>
    b6ec:	e074      	b.n	b7d8 <__udivmoddi4+0x124>
    b6ee:	4653      	mov	r3, sl
    b6f0:	465a      	mov	r2, fp
    b6f2:	4093      	lsls	r3, r2
    b6f4:	001f      	movs	r7, r3
    b6f6:	4653      	mov	r3, sl
    b6f8:	4642      	mov	r2, r8
    b6fa:	4093      	lsls	r3, r2
    b6fc:	001e      	movs	r6, r3
    b6fe:	42af      	cmp	r7, r5
    b700:	d829      	bhi.n	b756 <__udivmoddi4+0xa2>
    b702:	d026      	beq.n	b752 <__udivmoddi4+0x9e>
    b704:	465b      	mov	r3, fp
    b706:	1ba4      	subs	r4, r4, r6
    b708:	41bd      	sbcs	r5, r7
    b70a:	2b00      	cmp	r3, #0
    b70c:	da00      	bge.n	b710 <__udivmoddi4+0x5c>
    b70e:	e079      	b.n	b804 <__udivmoddi4+0x150>
    b710:	2200      	movs	r2, #0
    b712:	2300      	movs	r3, #0
    b714:	9200      	str	r2, [sp, #0]
    b716:	9301      	str	r3, [sp, #4]
    b718:	2301      	movs	r3, #1
    b71a:	465a      	mov	r2, fp
    b71c:	4093      	lsls	r3, r2
    b71e:	9301      	str	r3, [sp, #4]
    b720:	2301      	movs	r3, #1
    b722:	4642      	mov	r2, r8
    b724:	4093      	lsls	r3, r2
    b726:	9300      	str	r3, [sp, #0]
    b728:	e019      	b.n	b75e <__udivmoddi4+0xaa>
    b72a:	4282      	cmp	r2, r0
    b72c:	d9d0      	bls.n	b6d0 <__udivmoddi4+0x1c>
    b72e:	2200      	movs	r2, #0
    b730:	2300      	movs	r3, #0
    b732:	9200      	str	r2, [sp, #0]
    b734:	9301      	str	r3, [sp, #4]
    b736:	9b0c      	ldr	r3, [sp, #48]	; 0x30
    b738:	2b00      	cmp	r3, #0
    b73a:	d001      	beq.n	b740 <__udivmoddi4+0x8c>
    b73c:	601c      	str	r4, [r3, #0]
    b73e:	605d      	str	r5, [r3, #4]
    b740:	9800      	ldr	r0, [sp, #0]
    b742:	9901      	ldr	r1, [sp, #4]
    b744:	b003      	add	sp, #12
    b746:	bc3c      	pop	{r2, r3, r4, r5}
    b748:	4690      	mov	r8, r2
    b74a:	4699      	mov	r9, r3
    b74c:	46a2      	mov	sl, r4
    b74e:	46ab      	mov	fp, r5
    b750:	bdf0      	pop	{r4, r5, r6, r7, pc}
    b752:	42a3      	cmp	r3, r4
    b754:	d9d6      	bls.n	b704 <__udivmoddi4+0x50>
    b756:	2200      	movs	r2, #0
    b758:	2300      	movs	r3, #0
    b75a:	9200      	str	r2, [sp, #0]
    b75c:	9301      	str	r3, [sp, #4]
    b75e:	4643      	mov	r3, r8
    b760:	2b00      	cmp	r3, #0
    b762:	d0e8      	beq.n	b736 <__udivmoddi4+0x82>
    b764:	07fb      	lsls	r3, r7, #31
    b766:	0872      	lsrs	r2, r6, #1
    b768:	431a      	orrs	r2, r3
    b76a:	4646      	mov	r6, r8
    b76c:	087b      	lsrs	r3, r7, #1
    b76e:	e00e      	b.n	b78e <__udivmoddi4+0xda>
    b770:	42ab      	cmp	r3, r5
    b772:	d101      	bne.n	b778 <__udivmoddi4+0xc4>
    b774:	42a2      	cmp	r2, r4
    b776:	d80c      	bhi.n	b792 <__udivmoddi4+0xde>
    b778:	1aa4      	subs	r4, r4, r2
    b77a:	419d      	sbcs	r5, r3
    b77c:	2001      	movs	r0, #1
    b77e:	1924      	adds	r4, r4, r4
    b780:	416d      	adcs	r5, r5
    b782:	2100      	movs	r1, #0
    b784:	3e01      	subs	r6, #1
    b786:	1824      	adds	r4, r4, r0
    b788:	414d      	adcs	r5, r1
    b78a:	2e00      	cmp	r6, #0
    b78c:	d006      	beq.n	b79c <__udivmoddi4+0xe8>
    b78e:	42ab      	cmp	r3, r5
    b790:	d9ee      	bls.n	b770 <__udivmoddi4+0xbc>
    b792:	3e01      	subs	r6, #1
    b794:	1924      	adds	r4, r4, r4
    b796:	416d      	adcs	r5, r5
    b798:	2e00      	cmp	r6, #0
    b79a:	d1f8      	bne.n	b78e <__udivmoddi4+0xda>
    b79c:	465b      	mov	r3, fp
    b79e:	9800      	ldr	r0, [sp, #0]
    b7a0:	9901      	ldr	r1, [sp, #4]
    b7a2:	1900      	adds	r0, r0, r4
    b7a4:	4169      	adcs	r1, r5
    b7a6:	2b00      	cmp	r3, #0
    b7a8:	db22      	blt.n	b7f0 <__udivmoddi4+0x13c>
    b7aa:	002b      	movs	r3, r5
    b7ac:	465a      	mov	r2, fp
    b7ae:	40d3      	lsrs	r3, r2
    b7b0:	002a      	movs	r2, r5
    b7b2:	4644      	mov	r4, r8
    b7b4:	40e2      	lsrs	r2, r4
    b7b6:	001c      	movs	r4, r3
    b7b8:	465b      	mov	r3, fp
    b7ba:	0015      	movs	r5, r2
    b7bc:	2b00      	cmp	r3, #0
    b7be:	db2c      	blt.n	b81a <__udivmoddi4+0x166>
    b7c0:	0026      	movs	r6, r4
    b7c2:	409e      	lsls	r6, r3
    b7c4:	0033      	movs	r3, r6
    b7c6:	0026      	movs	r6, r4
    b7c8:	4647      	mov	r7, r8
    b7ca:	40be      	lsls	r6, r7
    b7cc:	0032      	movs	r2, r6
    b7ce:	1a80      	subs	r0, r0, r2
    b7d0:	4199      	sbcs	r1, r3
    b7d2:	9000      	str	r0, [sp, #0]
    b7d4:	9101      	str	r1, [sp, #4]
    b7d6:	e7ae      	b.n	b736 <__udivmoddi4+0x82>
    b7d8:	4642      	mov	r2, r8
    b7da:	2320      	movs	r3, #32
    b7dc:	1a9b      	subs	r3, r3, r2
    b7de:	4652      	mov	r2, sl
    b7e0:	40da      	lsrs	r2, r3
    b7e2:	4641      	mov	r1, r8
    b7e4:	0013      	movs	r3, r2
    b7e6:	464a      	mov	r2, r9
    b7e8:	408a      	lsls	r2, r1
    b7ea:	0017      	movs	r7, r2
    b7ec:	431f      	orrs	r7, r3
    b7ee:	e782      	b.n	b6f6 <__udivmoddi4+0x42>
    b7f0:	4642      	mov	r2, r8
    b7f2:	2320      	movs	r3, #32
    b7f4:	1a9b      	subs	r3, r3, r2
    b7f6:	002a      	movs	r2, r5
    b7f8:	4646      	mov	r6, r8
    b7fa:	409a      	lsls	r2, r3
    b7fc:	0023      	movs	r3, r4
    b7fe:	40f3      	lsrs	r3, r6
    b800:	4313      	orrs	r3, r2
    b802:	e7d5      	b.n	b7b0 <__udivmoddi4+0xfc>
    b804:	4642      	mov	r2, r8
    b806:	2320      	movs	r3, #32
    b808:	2100      	movs	r1, #0
    b80a:	1a9b      	subs	r3, r3, r2
    b80c:	2200      	movs	r2, #0
    b80e:	9100      	str	r1, [sp, #0]
    b810:	9201      	str	r2, [sp, #4]
    b812:	2201      	movs	r2, #1
    b814:	40da      	lsrs	r2, r3
    b816:	9201      	str	r2, [sp, #4]
    b818:	e782      	b.n	b720 <__udivmoddi4+0x6c>
    b81a:	4642      	mov	r2, r8
    b81c:	2320      	movs	r3, #32
    b81e:	0026      	movs	r6, r4
    b820:	1a9b      	subs	r3, r3, r2
    b822:	40de      	lsrs	r6, r3
    b824:	002f      	movs	r7, r5
    b826:	46b4      	mov	ip, r6
    b828:	4097      	lsls	r7, r2
    b82a:	4666      	mov	r6, ip
    b82c:	003b      	movs	r3, r7
    b82e:	4333      	orrs	r3, r6
    b830:	e7c9      	b.n	b7c6 <__udivmoddi4+0x112>
    b832:	46c0      	nop			; (mov r8, r8)

0000b834 <__aeabi_ui2d>:
    b834:	b570      	push	{r4, r5, r6, lr}
    b836:	1e05      	subs	r5, r0, #0
    b838:	d028      	beq.n	b88c <__aeabi_ui2d+0x58>
    b83a:	f7fb f87b 	bl	6934 <__clzsi2>
    b83e:	4b15      	ldr	r3, [pc, #84]	; (b894 <__aeabi_ui2d+0x60>)
    b840:	4a15      	ldr	r2, [pc, #84]	; (b898 <__aeabi_ui2d+0x64>)
    b842:	1a1b      	subs	r3, r3, r0
    b844:	1ad2      	subs	r2, r2, r3
    b846:	2a1f      	cmp	r2, #31
    b848:	dd16      	ble.n	b878 <__aeabi_ui2d+0x44>
    b84a:	002c      	movs	r4, r5
    b84c:	4a13      	ldr	r2, [pc, #76]	; (b89c <__aeabi_ui2d+0x68>)
    b84e:	2500      	movs	r5, #0
    b850:	1ad2      	subs	r2, r2, r3
    b852:	4094      	lsls	r4, r2
    b854:	055a      	lsls	r2, r3, #21
    b856:	0324      	lsls	r4, r4, #12
    b858:	0b24      	lsrs	r4, r4, #12
    b85a:	0d52      	lsrs	r2, r2, #21
    b85c:	2100      	movs	r1, #0
    b85e:	0324      	lsls	r4, r4, #12
    b860:	0d0b      	lsrs	r3, r1, #20
    b862:	0b24      	lsrs	r4, r4, #12
    b864:	051b      	lsls	r3, r3, #20
    b866:	4323      	orrs	r3, r4
    b868:	4c0d      	ldr	r4, [pc, #52]	; (b8a0 <__aeabi_ui2d+0x6c>)
    b86a:	0512      	lsls	r2, r2, #20
    b86c:	4023      	ands	r3, r4
    b86e:	4313      	orrs	r3, r2
    b870:	005b      	lsls	r3, r3, #1
    b872:	0028      	movs	r0, r5
    b874:	0859      	lsrs	r1, r3, #1
    b876:	bd70      	pop	{r4, r5, r6, pc}
    b878:	210b      	movs	r1, #11
    b87a:	002c      	movs	r4, r5
    b87c:	1a08      	subs	r0, r1, r0
    b87e:	40c4      	lsrs	r4, r0
    b880:	4095      	lsls	r5, r2
    b882:	0324      	lsls	r4, r4, #12
    b884:	055a      	lsls	r2, r3, #21
    b886:	0b24      	lsrs	r4, r4, #12
    b888:	0d52      	lsrs	r2, r2, #21
    b88a:	e7e7      	b.n	b85c <__aeabi_ui2d+0x28>
    b88c:	2200      	movs	r2, #0
    b88e:	2400      	movs	r4, #0
    b890:	e7e4      	b.n	b85c <__aeabi_ui2d+0x28>
    b892:	46c0      	nop			; (mov r8, r8)
    b894:	0000041e 	.word	0x0000041e
    b898:	00000433 	.word	0x00000433
    b89c:	00000413 	.word	0x00000413
    b8a0:	800fffff 	.word	0x800fffff

0000b8a4 <__clzdi2>:
    b8a4:	b510      	push	{r4, lr}
    b8a6:	2900      	cmp	r1, #0
    b8a8:	d103      	bne.n	b8b2 <__clzdi2+0xe>
    b8aa:	f7fb f843 	bl	6934 <__clzsi2>
    b8ae:	3020      	adds	r0, #32
    b8b0:	e002      	b.n	b8b8 <__clzdi2+0x14>
    b8b2:	1c08      	adds	r0, r1, #0
    b8b4:	f7fb f83e 	bl	6934 <__clzsi2>
    b8b8:	bd10      	pop	{r4, pc}
    b8ba:	46c0      	nop			; (mov r8, r8)

0000b8bc <_read>:
    b8bc:	2258      	movs	r2, #88	; 0x58
    b8be:	2001      	movs	r0, #1
    b8c0:	4b01      	ldr	r3, [pc, #4]	; (b8c8 <_read+0xc>)
    b8c2:	4240      	negs	r0, r0
    b8c4:	601a      	str	r2, [r3, #0]
    b8c6:	4770      	bx	lr
    b8c8:	20000b2c 	.word	0x20000b2c
    b8cc:	20545549 	.word	0x20545549
    b8d0:	4e206564 	.word	0x4e206564
    b8d4:	65746e61 	.word	0x65746e61
    b8d8:	00000073 	.word	0x00000073
    b8dc:	74706544 	.word	0x74706544
    b8e0:	49454720 	.word	0x49454720
    b8e4:	00000049 	.word	0x00000049

0000b8e8 <img>:
    b8e8:	fc1804f8 0202020e 0e660302 f00000f0     ..........f.....
    b8f8:	00000000 00808000 00000000 e0e0e000     ................
    b908:	01000000 5a3c2e03 c2d6f450 11242048     ......<ZP...H $.
    b918:	fefffef8 ff000000 0000ffff f0f00000     ................
    b928:	f0ffffff 000060f0 00000000 00ffffff     .....`..........
    b938:	ff000000 00ffffff ffff0000 000000ff     ................
    b948:	ff000000 0000ffff 00000000 7f400000     ..............@.
    b958:	00007f7f 3f0f0000 78707f7f 7f7f3f7c     .......?..px|?..
    b968:	00002078 7f1f0000 0020787f              x .......x .

0000b974 <sysfont_glyphs>:
    b974:	00000000 20000000 20202020 50502000     .......     . PP
    b984:	00000050 f8505000 5050f850 70a07820     P....PP.P.PP x.p
    b994:	c020f028 402010c8 90601898 90a840a0     (. ... @..`..@..
    b9a4:	40206068 00000000 40402010 40102040     h` @..... @@@ .@
    b9b4:	10101020 50004020 5020f820 20200000      ... @.P . P..  
    b9c4:	002020f8 00000000 00402060 00f80000     .  .....` @.....
    b9d4:	00000000 60000000 10080060 00804020     .......``... @..
    b9e4:	a8988870 207088c8 20202060 88707020     p.....p `    pp.
    b9f4:	40201008 2010f8f8 70880810 90503010     .. @... ...p.0P.
    ba04:	f81010f8 0808f080 40307088 8888f080     .........p0@....
    ba14:	1008f870 40404020 70888870 70708888     p... @@@p..p..pp
    ba24:	08788888 60006010 60600060 60600000     ..x..`.``.``..``
    ba34:	40206000 40201008 00081020 f800f800     .` @.. @ .......
    ba44:	40800000 40201020 08887080 20002010     ...@ . @.p... . 
    ba54:	68088870 7070a8a8 f8888888 88f08888     p..h..pp........
    ba64:	8888f088 808870f0 70888080 888890e0     .....p.....p....
    ba74:	f8e09088 80f08080 80f8f880 8080e080     ................
    ba84:	80887080 70889880 f8888888 70888888     .p.....p.......p
    ba94:	20202020 10387020 90101010 a0908860          p8.....`...
    baa4:	8890a0c0 80808080 88f88080 8888a8d8     ................
    bab4:	88888888 8898a8c8 88887088 70888888     .........p.....p
    bac4:	f08888f0 70808080 a8888888 88f06890     .......p.....h..
    bad4:	90a0f088 80807888 f0080870 202020f8     .....x..p....   
    bae4:	88202020 88888888 88887088 50888888        ......p.....P
    baf4:	88888820 88d8a8a8 20508888 88888850      .........P P...
    bb04:	20205088 08f82020 80402010 202038f8     .P    ... @..8  
    bb14:	38202020 20408000 e0000810 20202020        8..@ ....    
    bb24:	5020e020 00000088 00000000 f8000000      . P............
    bb34:	00102040 00000000 78087000 80807888     @ .......p.x.x..
    bb44:	8888c8b0 700000f0 70888080 98680808     .......p...p..h.
    bb54:	00788888 f8887000 48307080 4040e040     ..x..p...p0H@.@@
    bb64:	78000040 30087888 c8b08080 20888888     @..x.x.0....... 
    bb74:	20206000 00107020 90101030 48404060     .`   p..0...`@@H
    bb84:	48506050 20202060 00702020 a8a8d000     P`PH`     p.....
    bb94:	00008888 8888c8b0 70000088 70888888     ...........p...p
    bba4:	88f00000 008080f0 78986800 00000808     .........h.x....
    bbb4:	8080c8b0 70000080 f0087080 40e04040     .......p.p..@@.@
    bbc4:	00304840 88888800 00006898 50888888     @H0......h.....P
    bbd4:	88000020 50a8a888 50880000 00885020      ......P...P P..
    bbe4:	78888800 00007008 402010f8 202010f8     ...x.p.... @..  
    bbf4:	10202040 20202020 40202020 20102020     @  .       @  . 
    bc04:	00004020 0000152a 0000155c 000015a6      @..*...\.......
    bc14:	000015d8 00001622                       ...."...

0000bc1c <timerToCLkId.10040>:
    bc1c:	0000001a 0000001a 0000001b 0000001b     ................
    bc2c:	0000001c 0000001c 0000001d 0000001d     ................
    bc3c:	6f636341 75656472 31762072 0000302e     Accordeur v1.0..
    bc4c:	00006f44 20626552 6f44202f 00000023     Do..Reb / Do#...
    bc5c:	00006552 2062694d 6552202f 00000023     Re..Mib / Re#...
    bc6c:	0000694d 00006146 626c6f53 46202f20     Mi..Fa..Solb / F
    bc7c:	00002361 006c6f53 2062614c 6f53202f     a#..Sol.Lab / So
    bc8c:	0000236c 0000614c 20626953 614c202f     l#..La..Sib / La
    bc9c:	00000023 00006953 6f636e49 65756e6e     #...Si..Inconnue
    bcac:	00000000 00001b3c 00001a64 00001a76     ....<...d...v...
    bcbc:	00001a88 00001a9a 00001aac 00001abe     ................
    bccc:	00001ad0 00001ae2 00001af4 00001b06     ................
    bcdc:	00001b18 00001b2a 65746f4e 203a2020     ....*...Note  : 
    bcec:	00000000 6f636e69 65756e6e 00000000     ....inconnue....
    bcfc:	00001c3e 00001bc6 00001bd0 00001bda     >...............
    bd0c:	00001be4 00001bee 00001bf8 00001c02     ................
    bd1c:	00001c0c 00001c16 00001c20 00001c2a     ........ ...*...
    bd2c:	00001c34 71657246 203a2020 66322e25     4...Freq  : %.2f
    bd3c:	0a7a4820 00000000 72676544 203a2065      Hz.....Degre : 
    bd4c:	20206425 00000a20 0000256e 0000226e     %d   ...n%..n"..
    bd5c:	000022ae 000022ee 0000232e 0000236e     ."..."...#..n#..
    bd6c:	000023ae 000023ee 0000242e 0000246e     .#...#...$..n$..
    bd7c:	000024ae 000024ee 0000252e 31676f6c     .$...$...%..log1
    bd8c:	00000030 00776f70 00000000              0...pow.....

0000bd98 <TWO52>:
    bd98:	00000000 43300000 00000000 c3300000     ......0C......0.
    bda8:	00005450 0000531e 00005424 00005314     PT...S..$T...S..
    bdb8:	00005424 0000542e 00005424 00005314     $T...T..$T...S..
    bdc8:	0000531e 0000531e 0000542e 00005314     .S...S...T...S..
    bdd8:	0000530a 0000530a 0000530a 00005680     .S...S...S...V..
    bde8:	00005c98 00005b58 00005b58 00005b56     .\..X[..X[..V[..
    bdf8:	00005c70 00005c70 00005c62 00005b56     p\..p\..b\..V[..
    be08:	00005c70 00005c62 00005c70 00005b56     p\..b\..p\..V[..
    be18:	00005c78 00005c78 00005c78 00005e78     x\..x\..x\..x^..
    be28:	00000043                                C...

0000be2c <_global_impure_ptr>:
    be2c:	20000028 0000000a 000073a6 0000740a     (.. .....s...t..
    be3c:	0000740a 000073b4 0000740a 0000740a     .t...s...t...t..
    be4c:	0000740a 0000740a 0000740a 0000740a     .t...t...t...t..
    be5c:	00006dd0 000073c0 0000740a 00006cfe     .m...s...t...l..
    be6c:	00006de4 0000740a 00006e34 00006e40     .m...t..4n..@n..
    be7c:	00006e40 00006e40 00006e40 00006e40     @n..@n..@n..@n..
    be8c:	00006e40 00006e40 00006e40 00006e40     @n..@n..@n..@n..
    be9c:	0000740a 0000740a 0000740a 0000740a     .t...t...t...t..
    beac:	0000740a 0000740a 0000740a 0000740a     .t...t...t...t..
    bebc:	0000740a 0000740a 00006e68 00006f28     .t...t..hn..(o..
    becc:	0000740a 00006f28 0000740a 0000740a     .t..(o...t...t..
    bedc:	0000740a 0000740a 00006fc0 0000740a     .t...t...o...t..
    beec:	0000740a 00006fcc 0000740a 0000740a     .t...o...t...t..
    befc:	0000740a 0000740a 0000740a 00007136     .t...t...t..6q..
    bf0c:	0000740a 0000740a 00007270 0000740a     .t...t..pr...t..
    bf1c:	0000740a 0000740a 0000740a 0000740a     .t...t...t...t..
    bf2c:	0000740a 0000740a 0000740a 0000740a     .t...t...t...t..
    bf3c:	0000740a 000073c8 0000720c 00006f28     .t...s...r..(o..
    bf4c:	00006f28 00006f28 0000721c 0000720c     (o..(o...r...r..
    bf5c:	0000740a 0000740a 00007228 0000740a     .t...t..(r...t..
    bf6c:	0000723c 00007198 00006d0a 000071a8     <r...q...m...q..
    bf7c:	0000740a 000071b4 0000740a 00007328     .t...q...t..(s..
    bf8c:	0000740a 0000740a 00007338              .t...t..8s..

0000bf98 <zeroes.7050>:
    bf98:	30303030 30303030 30303030 30303030     0000000000000000
    bfa8:	00464e49 00666e69 004e414e 006e616e     INF.inf.NAN.nan.
    bfb8:	33323130 37363534 42413938 46454443     0123456789ABCDEF
    bfc8:	00000000 33323130 37363534 62613938     ....0123456789ab
    bfd8:	66656463 00000000 6c756e28 0000296c     cdef....(null)..

0000bfe8 <blanks.7049>:
    bfe8:	20202020 20202020 20202020 20202020                     
    bff8:	69666e49 7974696e 00000000 004e614e     Infinity....NaN.
    c008:	49534f50 00000058 0000002e 00000000     POSIX...........

0000c018 <__mprec_tens>:
    c018:	00000000 3ff00000 00000000 40240000     .......?......$@
    c028:	00000000 40590000 00000000 408f4000     ......Y@.....@.@
    c038:	00000000 40c38800 00000000 40f86a00     .......@.....j.@
    c048:	00000000 412e8480 00000000 416312d0     .......A......cA
    c058:	00000000 4197d784 00000000 41cdcd65     .......A....e..A
    c068:	20000000 4202a05f e8000000 42374876     ... _..B....vH7B
    c078:	a2000000 426d1a94 e5400000 42a2309c     ......mB..@..0.B
    c088:	1e900000 42d6bcc4 26340000 430c6bf5     .......B..4&.k.C
    c098:	37e08000 4341c379 85d8a000 43763457     ...7y.AC....W4vC
    c0a8:	674ec800 43abc16d 60913d00 43e158e4     ..Ngm..C.=.`.X.C
    c0b8:	78b58c40 4415af1d d6e2ef50 444b1ae4     @..x...DP.....KD
    c0c8:	064dd592 4480f0cf c7e14af6 44b52d02     ..M....D.J...-.D
    c0d8:	79d99db4 44ea7843                       ...yCx.D

0000c0e0 <__mprec_bigtens>:
    c0e0:	37e08000 4341c379 b5056e17 4693b8b5     ...7y.AC.n.....F
    c0f0:	e93ff9f5 4d384f03 f9301d32 5a827748     ..?..O8M2.0.Hw.Z
    c100:	7f73bf3c 75154fdd                       <.s..O.u

0000c108 <p05.5373>:
    c108:	00000005 00000019 0000007d              ........}...

0000c114 <_init>:
    c114:	b5f8      	push	{r3, r4, r5, r6, r7, lr}
    c116:	46c0      	nop			; (mov r8, r8)
    c118:	bcf8      	pop	{r3, r4, r5, r6, r7}
    c11a:	bc08      	pop	{r3}
    c11c:	469e      	mov	lr, r3
    c11e:	4770      	bx	lr

0000c120 <__init_array_start>:
    c120:	0000854d 	.word	0x0000854d

0000c124 <__frame_dummy_init_array_entry>:
    c124:	000000dd                                ....

0000c128 <_fini>:
    c128:	b5f8      	push	{r3, r4, r5, r6, r7, lr}
    c12a:	46c0      	nop			; (mov r8, r8)
    c12c:	bcf8      	pop	{r3, r4, r5, r6, r7}
    c12e:	bc08      	pop	{r3}
    c130:	469e      	mov	lr, r3
    c132:	4770      	bx	lr

0000c134 <__fini_array_start>:
    c134:	000000b5 	.word	0x000000b5
