
TP-info2_6_2.elf:     file format elf32-littlearm

Sections:
Idx Name          Size      VMA       LMA       File off  Algn
  0 .text         00004768  00000000  00000000  00010000  2**2
                  CONTENTS, ALLOC, LOAD, READONLY, CODE
  1 .relocate     0000085c  20000000  00004768  00020000  2**3
                  CONTENTS, ALLOC, LOAD, DATA
  2 .bss          0000026c  2000085c  00004fc4  0002085c  2**2
                  ALLOC
  3 .stack        00002000  20000ac8  00005230  0002085c  2**0
                  ALLOC
  4 .ARM.attributes 00000028  00000000  00000000  0002085c  2**0
                  CONTENTS, READONLY
  5 .comment      00000059  00000000  00000000  00020884  2**0
                  CONTENTS, READONLY
  6 .debug_info   0000cb47  00000000  00000000  000208dd  2**0
                  CONTENTS, READONLY, DEBUGGING
  7 .debug_abbrev 00000f95  00000000  00000000  0002d424  2**0
                  CONTENTS, READONLY, DEBUGGING
  8 .debug_loc    00001156  00000000  00000000  0002e3b9  2**0
                  CONTENTS, READONLY, DEBUGGING
  9 .debug_aranges 00000398  00000000  00000000  0002f50f  2**0
                  CONTENTS, READONLY, DEBUGGING
 10 .debug_ranges 000002e8  00000000  00000000  0002f8a7  2**0
                  CONTENTS, READONLY, DEBUGGING
 11 .debug_macro  00014b07  00000000  00000000  0002fb8f  2**0
                  CONTENTS, READONLY, DEBUGGING
 12 .debug_line   000054c3  00000000  00000000  00044696  2**0
                  CONTENTS, READONLY, DEBUGGING
 13 .debug_str    00074f25  00000000  00000000  00049b59  2**0
                  CONTENTS, READONLY, DEBUGGING
 14 .debug_frame  00001460  00000000  00000000  000bea80  2**2
                  CONTENTS, READONLY, DEBUGGING
 15 .stab         00000024  00000000  00000000  000bfee0  2**2
                  CONTENTS, READONLY, DEBUGGING
 16 .stabstr      0000003c  00000000  00000000  000bff04  2**0
                  CONTENTS, READONLY, DEBUGGING

Disassembly of section .text:

00000000 <_sfixed>:
       0:	20002ac8 	.word	0x20002ac8
       4:	00000115 	.word	0x00000115
       8:	00000199 	.word	0x00000199
       c:	00000199 	.word	0x00000199
	...
      2c:	00000199 	.word	0x00000199
	...
      38:	00000199 	.word	0x00000199
      3c:	00000199 	.word	0x00000199
      40:	00000199 	.word	0x00000199
      44:	00000199 	.word	0x00000199
      48:	00000199 	.word	0x00000199
      4c:	00000199 	.word	0x00000199
      50:	00001829 	.word	0x00001829
      54:	00000199 	.word	0x00000199
      58:	00000199 	.word	0x00000199
      5c:	00000199 	.word	0x00000199
      60:	00000199 	.word	0x00000199
      64:	00000199 	.word	0x00000199
      68:	00000199 	.word	0x00000199
      6c:	00000199 	.word	0x00000199
      70:	00000199 	.word	0x00000199
      74:	00000199 	.word	0x00000199
      78:	00000199 	.word	0x00000199
      7c:	00000199 	.word	0x00000199
      80:	00000199 	.word	0x00000199
      84:	00000199 	.word	0x00000199
      88:	00000199 	.word	0x00000199
      8c:	00000199 	.word	0x00000199
      90:	00000199 	.word	0x00000199
      94:	00000199 	.word	0x00000199
      98:	00000199 	.word	0x00000199
      9c:	00000199 	.word	0x00000199
      a0:	00000199 	.word	0x00000199
      a4:	00000199 	.word	0x00000199
      a8:	00000199 	.word	0x00000199
      ac:	00000199 	.word	0x00000199
      b0:	00000000 	.word	0x00000000

000000b4 <__do_global_dtors_aux>:
      b4:	b510      	push	{r4, lr}
      b6:	4c06      	ldr	r4, [pc, #24]	; (d0 <__do_global_dtors_aux+0x1c>)
      b8:	7823      	ldrb	r3, [r4, #0]
      ba:	2b00      	cmp	r3, #0
      bc:	d107      	bne.n	ce <__do_global_dtors_aux+0x1a>
      be:	4b05      	ldr	r3, [pc, #20]	; (d4 <__do_global_dtors_aux+0x20>)
      c0:	2b00      	cmp	r3, #0
      c2:	d002      	beq.n	ca <__do_global_dtors_aux+0x16>
      c4:	4804      	ldr	r0, [pc, #16]	; (d8 <__do_global_dtors_aux+0x24>)
      c6:	e000      	b.n	ca <__do_global_dtors_aux+0x16>
      c8:	bf00      	nop
      ca:	2301      	movs	r3, #1
      cc:	7023      	strb	r3, [r4, #0]
      ce:	bd10      	pop	{r4, pc}
      d0:	2000085c 	.word	0x2000085c
      d4:	00000000 	.word	0x00000000
      d8:	00004768 	.word	0x00004768

000000dc <frame_dummy>:
      dc:	4b08      	ldr	r3, [pc, #32]	; (100 <frame_dummy+0x24>)
      de:	b510      	push	{r4, lr}
      e0:	2b00      	cmp	r3, #0
      e2:	d003      	beq.n	ec <frame_dummy+0x10>
      e4:	4907      	ldr	r1, [pc, #28]	; (104 <frame_dummy+0x28>)
      e6:	4808      	ldr	r0, [pc, #32]	; (108 <frame_dummy+0x2c>)
      e8:	e000      	b.n	ec <frame_dummy+0x10>
      ea:	bf00      	nop
      ec:	4807      	ldr	r0, [pc, #28]	; (10c <frame_dummy+0x30>)
      ee:	6803      	ldr	r3, [r0, #0]
      f0:	2b00      	cmp	r3, #0
      f2:	d100      	bne.n	f6 <frame_dummy+0x1a>
      f4:	bd10      	pop	{r4, pc}
      f6:	4b06      	ldr	r3, [pc, #24]	; (110 <frame_dummy+0x34>)
      f8:	2b00      	cmp	r3, #0
      fa:	d0fb      	beq.n	f4 <frame_dummy+0x18>
      fc:	4798      	blx	r3
      fe:	e7f9      	b.n	f4 <frame_dummy+0x18>
     100:	00000000 	.word	0x00000000
     104:	20000860 	.word	0x20000860
     108:	00004768 	.word	0x00004768
     10c:	00004768 	.word	0x00004768
     110:	00000000 	.word	0x00000000

00000114 <Reset_Handler>:
     114:	b580      	push	{r7, lr}
     116:	b082      	sub	sp, #8
     118:	af00      	add	r7, sp, #0
     11a:	4b16      	ldr	r3, [pc, #88]	; (174 <Reset_Handler+0x60>)
     11c:	607b      	str	r3, [r7, #4]
     11e:	4b16      	ldr	r3, [pc, #88]	; (178 <Reset_Handler+0x64>)
     120:	603b      	str	r3, [r7, #0]
     122:	687a      	ldr	r2, [r7, #4]
     124:	683b      	ldr	r3, [r7, #0]
     126:	429a      	cmp	r2, r3
     128:	d00c      	beq.n	144 <Reset_Handler+0x30>
     12a:	e007      	b.n	13c <Reset_Handler+0x28>
     12c:	683b      	ldr	r3, [r7, #0]
     12e:	1d1a      	adds	r2, r3, #4
     130:	603a      	str	r2, [r7, #0]
     132:	687a      	ldr	r2, [r7, #4]
     134:	1d11      	adds	r1, r2, #4
     136:	6079      	str	r1, [r7, #4]
     138:	6812      	ldr	r2, [r2, #0]
     13a:	601a      	str	r2, [r3, #0]
     13c:	683a      	ldr	r2, [r7, #0]
     13e:	4b0f      	ldr	r3, [pc, #60]	; (17c <Reset_Handler+0x68>)
     140:	429a      	cmp	r2, r3
     142:	d3f3      	bcc.n	12c <Reset_Handler+0x18>
     144:	4b0e      	ldr	r3, [pc, #56]	; (180 <Reset_Handler+0x6c>)
     146:	603b      	str	r3, [r7, #0]
     148:	e004      	b.n	154 <Reset_Handler+0x40>
     14a:	683b      	ldr	r3, [r7, #0]
     14c:	1d1a      	adds	r2, r3, #4
     14e:	603a      	str	r2, [r7, #0]
     150:	2200      	movs	r2, #0
     152:	601a      	str	r2, [r3, #0]
     154:	683a      	ldr	r2, [r7, #0]
     156:	4b0b      	ldr	r3, [pc, #44]	; (184 <Reset_Handler+0x70>)
     158:	429a      	cmp	r2, r3
     15a:	d3f6      	bcc.n	14a <Reset_Handler+0x36>
     15c:	4b0a      	ldr	r3, [pc, #40]	; (188 <Reset_Handler+0x74>)
     15e:	607b      	str	r3, [r7, #4]
     160:	4b0a      	ldr	r3, [pc, #40]	; (18c <Reset_Handler+0x78>)
     162:	687a      	ldr	r2, [r7, #4]
     164:	21ff      	movs	r1, #255	; 0xff
     166:	438a      	bics	r2, r1
     168:	609a      	str	r2, [r3, #8]
     16a:	4b09      	ldr	r3, [pc, #36]	; (190 <Reset_Handler+0x7c>)
     16c:	4798      	blx	r3
     16e:	4b09      	ldr	r3, [pc, #36]	; (194 <Reset_Handler+0x80>)
     170:	4798      	blx	r3
     172:	e7fe      	b.n	172 <Reset_Handler+0x5e>
     174:	00004768 	.word	0x00004768
     178:	20000000 	.word	0x20000000
     17c:	2000085c 	.word	0x2000085c
     180:	2000085c 	.word	0x2000085c
     184:	20000ac8 	.word	0x20000ac8
     188:	00000000 	.word	0x00000000
     18c:	e000ed00 	.word	0xe000ed00
     190:	00002935 	.word	0x00002935
     194:	000016fd 	.word	0x000016fd

00000198 <Dummy_Handler>:
     198:	b580      	push	{r7, lr}
     19a:	af00      	add	r7, sp, #0
     19c:	e7fe      	b.n	19c <Dummy_Handler+0x4>
     19e:	46c0      	nop			; (mov r8, r8)

000001a0 <_sbrk>:
     1a0:	b580      	push	{r7, lr}
     1a2:	b084      	sub	sp, #16
     1a4:	af00      	add	r7, sp, #0
     1a6:	6078      	str	r0, [r7, #4]
     1a8:	4b0a      	ldr	r3, [pc, #40]	; (1d4 <_sbrk+0x34>)
     1aa:	681b      	ldr	r3, [r3, #0]
     1ac:	2b00      	cmp	r3, #0
     1ae:	d102      	bne.n	1b6 <_sbrk+0x16>
     1b0:	4b08      	ldr	r3, [pc, #32]	; (1d4 <_sbrk+0x34>)
     1b2:	4a09      	ldr	r2, [pc, #36]	; (1d8 <_sbrk+0x38>)
     1b4:	601a      	str	r2, [r3, #0]
     1b6:	4b07      	ldr	r3, [pc, #28]	; (1d4 <_sbrk+0x34>)
     1b8:	681b      	ldr	r3, [r3, #0]
     1ba:	60fb      	str	r3, [r7, #12]
     1bc:	4b05      	ldr	r3, [pc, #20]	; (1d4 <_sbrk+0x34>)
     1be:	681a      	ldr	r2, [r3, #0]
     1c0:	687b      	ldr	r3, [r7, #4]
     1c2:	18d2      	adds	r2, r2, r3
     1c4:	4b03      	ldr	r3, [pc, #12]	; (1d4 <_sbrk+0x34>)
     1c6:	601a      	str	r2, [r3, #0]
     1c8:	68fb      	ldr	r3, [r7, #12]
     1ca:	0018      	movs	r0, r3
     1cc:	46bd      	mov	sp, r7
     1ce:	b004      	add	sp, #16
     1d0:	bd80      	pop	{r7, pc}
     1d2:	46c0      	nop			; (mov r8, r8)
     1d4:	20000878 	.word	0x20000878
     1d8:	20002ac8 	.word	0x20002ac8

000001dc <_close>:
     1dc:	b580      	push	{r7, lr}
     1de:	b082      	sub	sp, #8
     1e0:	af00      	add	r7, sp, #0
     1e2:	6078      	str	r0, [r7, #4]
     1e4:	2301      	movs	r3, #1
     1e6:	425b      	negs	r3, r3
     1e8:	0018      	movs	r0, r3
     1ea:	46bd      	mov	sp, r7
     1ec:	b002      	add	sp, #8
     1ee:	bd80      	pop	{r7, pc}

000001f0 <_fstat>:
     1f0:	b580      	push	{r7, lr}
     1f2:	b082      	sub	sp, #8
     1f4:	af00      	add	r7, sp, #0
     1f6:	6078      	str	r0, [r7, #4]
     1f8:	6039      	str	r1, [r7, #0]
     1fa:	683b      	ldr	r3, [r7, #0]
     1fc:	2280      	movs	r2, #128	; 0x80
     1fe:	0192      	lsls	r2, r2, #6
     200:	605a      	str	r2, [r3, #4]
     202:	2300      	movs	r3, #0
     204:	0018      	movs	r0, r3
     206:	46bd      	mov	sp, r7
     208:	b002      	add	sp, #8
     20a:	bd80      	pop	{r7, pc}

0000020c <_isatty>:
     20c:	b580      	push	{r7, lr}
     20e:	b082      	sub	sp, #8
     210:	af00      	add	r7, sp, #0
     212:	6078      	str	r0, [r7, #4]
     214:	2301      	movs	r3, #1
     216:	0018      	movs	r0, r3
     218:	46bd      	mov	sp, r7
     21a:	b002      	add	sp, #8
     21c:	bd80      	pop	{r7, pc}
     21e:	46c0      	nop			; (mov r8, r8)

00000220 <_lseek>:
     220:	b580      	push	{r7, lr}
     222:	b084      	sub	sp, #16
     224:	af00      	add	r7, sp, #0
     226:	60f8      	str	r0, [r7, #12]
     228:	60b9      	str	r1, [r7, #8]
     22a:	607a      	str	r2, [r7, #4]
     22c:	2300      	movs	r3, #0
     22e:	0018      	movs	r0, r3
     230:	46bd      	mov	sp, r7
     232:	b004      	add	sp, #16
     234:	bd80      	pop	{r7, pc}
     236:	46c0      	nop			; (mov r8, r8)

00000238 <SystemInit>:
     238:	b580      	push	{r7, lr}
     23a:	af00      	add	r7, sp, #0
     23c:	4a67      	ldr	r2, [pc, #412]	; (3dc <SystemInit+0x1a4>)
     23e:	6853      	ldr	r3, [r2, #4]
     240:	211e      	movs	r1, #30
     242:	438b      	bics	r3, r1
     244:	2102      	movs	r1, #2
     246:	430b      	orrs	r3, r1
     248:	6053      	str	r3, [r2, #4]
     24a:	4b65      	ldr	r3, [pc, #404]	; (3e0 <SystemInit+0x1a8>)
     24c:	4a64      	ldr	r2, [pc, #400]	; (3e0 <SystemInit+0x1a8>)
     24e:	6992      	ldr	r2, [r2, #24]
     250:	2108      	movs	r1, #8
     252:	430a      	orrs	r2, r1
     254:	619a      	str	r2, [r3, #24]
     256:	4b63      	ldr	r3, [pc, #396]	; (3e4 <SystemInit+0x1ac>)
     258:	4a63      	ldr	r2, [pc, #396]	; (3e8 <SystemInit+0x1b0>)
     25a:	829a      	strh	r2, [r3, #20]
     25c:	4a61      	ldr	r2, [pc, #388]	; (3e4 <SystemInit+0x1ac>)
     25e:	8a93      	ldrh	r3, [r2, #20]
     260:	2102      	movs	r1, #2
     262:	430b      	orrs	r3, r1
     264:	8293      	strh	r3, [r2, #20]
     266:	46c0      	nop			; (mov r8, r8)
     268:	4b5e      	ldr	r3, [pc, #376]	; (3e4 <SystemInit+0x1ac>)
     26a:	68db      	ldr	r3, [r3, #12]
     26c:	2202      	movs	r2, #2
     26e:	4013      	ands	r3, r2
     270:	d0fa      	beq.n	268 <SystemInit+0x30>
     272:	4b5e      	ldr	r3, [pc, #376]	; (3ec <SystemInit+0x1b4>)
     274:	2201      	movs	r2, #1
     276:	701a      	strb	r2, [r3, #0]
     278:	46c0      	nop			; (mov r8, r8)
     27a:	4b5c      	ldr	r3, [pc, #368]	; (3ec <SystemInit+0x1b4>)
     27c:	781b      	ldrb	r3, [r3, #0]
     27e:	b2db      	uxtb	r3, r3
     280:	001a      	movs	r2, r3
     282:	2301      	movs	r3, #1
     284:	4013      	ands	r3, r2
     286:	d005      	beq.n	294 <SystemInit+0x5c>
     288:	4b58      	ldr	r3, [pc, #352]	; (3ec <SystemInit+0x1b4>)
     28a:	785b      	ldrb	r3, [r3, #1]
     28c:	b2db      	uxtb	r3, r3
     28e:	b25b      	sxtb	r3, r3
     290:	2b00      	cmp	r3, #0
     292:	dbf2      	blt.n	27a <SystemInit+0x42>
     294:	4b55      	ldr	r3, [pc, #340]	; (3ec <SystemInit+0x1b4>)
     296:	2201      	movs	r2, #1
     298:	609a      	str	r2, [r3, #8]
     29a:	46c0      	nop			; (mov r8, r8)
     29c:	4b53      	ldr	r3, [pc, #332]	; (3ec <SystemInit+0x1b4>)
     29e:	785b      	ldrb	r3, [r3, #1]
     2a0:	b2db      	uxtb	r3, r3
     2a2:	b25b      	sxtb	r3, r3
     2a4:	2b00      	cmp	r3, #0
     2a6:	dbf9      	blt.n	29c <SystemInit+0x64>
     2a8:	4b50      	ldr	r3, [pc, #320]	; (3ec <SystemInit+0x1b4>)
     2aa:	4a51      	ldr	r2, [pc, #324]	; (3f0 <SystemInit+0x1b8>)
     2ac:	605a      	str	r2, [r3, #4]
     2ae:	46c0      	nop			; (mov r8, r8)
     2b0:	4b4e      	ldr	r3, [pc, #312]	; (3ec <SystemInit+0x1b4>)
     2b2:	785b      	ldrb	r3, [r3, #1]
     2b4:	b2db      	uxtb	r3, r3
     2b6:	b25b      	sxtb	r3, r3
     2b8:	2b00      	cmp	r3, #0
     2ba:	dbf9      	blt.n	2b0 <SystemInit+0x78>
     2bc:	4b4b      	ldr	r3, [pc, #300]	; (3ec <SystemInit+0x1b4>)
     2be:	2282      	movs	r2, #130	; 0x82
     2c0:	01d2      	lsls	r2, r2, #7
     2c2:	805a      	strh	r2, [r3, #2]
     2c4:	46c0      	nop			; (mov r8, r8)
     2c6:	4b49      	ldr	r3, [pc, #292]	; (3ec <SystemInit+0x1b4>)
     2c8:	785b      	ldrb	r3, [r3, #1]
     2ca:	b2db      	uxtb	r3, r3
     2cc:	b25b      	sxtb	r3, r3
     2ce:	2b00      	cmp	r3, #0
     2d0:	dbf9      	blt.n	2c6 <SystemInit+0x8e>
     2d2:	4a44      	ldr	r2, [pc, #272]	; (3e4 <SystemInit+0x1ac>)
     2d4:	8c93      	ldrh	r3, [r2, #36]	; 0x24
     2d6:	2180      	movs	r1, #128	; 0x80
     2d8:	438b      	bics	r3, r1
     2da:	8493      	strh	r3, [r2, #36]	; 0x24
     2dc:	46c0      	nop			; (mov r8, r8)
     2de:	4b41      	ldr	r3, [pc, #260]	; (3e4 <SystemInit+0x1ac>)
     2e0:	68db      	ldr	r3, [r3, #12]
     2e2:	2210      	movs	r2, #16
     2e4:	4013      	ands	r3, r2
     2e6:	d0fa      	beq.n	2de <SystemInit+0xa6>
     2e8:	4b3e      	ldr	r3, [pc, #248]	; (3e4 <SystemInit+0x1ac>)
     2ea:	4a42      	ldr	r2, [pc, #264]	; (3f4 <SystemInit+0x1bc>)
     2ec:	62da      	str	r2, [r3, #44]	; 0x2c
     2ee:	46c0      	nop			; (mov r8, r8)
     2f0:	4b3c      	ldr	r3, [pc, #240]	; (3e4 <SystemInit+0x1ac>)
     2f2:	68db      	ldr	r3, [r3, #12]
     2f4:	2210      	movs	r2, #16
     2f6:	4013      	ands	r3, r2
     2f8:	d0fa      	beq.n	2f0 <SystemInit+0xb8>
     2fa:	4a3a      	ldr	r2, [pc, #232]	; (3e4 <SystemInit+0x1ac>)
     2fc:	4b39      	ldr	r3, [pc, #228]	; (3e4 <SystemInit+0x1ac>)
     2fe:	8c9b      	ldrh	r3, [r3, #36]	; 0x24
     300:	b29b      	uxth	r3, r3
     302:	493d      	ldr	r1, [pc, #244]	; (3f8 <SystemInit+0x1c0>)
     304:	430b      	orrs	r3, r1
     306:	b29b      	uxth	r3, r3
     308:	8493      	strh	r3, [r2, #36]	; 0x24
     30a:	46c0      	nop			; (mov r8, r8)
     30c:	4b35      	ldr	r3, [pc, #212]	; (3e4 <SystemInit+0x1ac>)
     30e:	68db      	ldr	r3, [r3, #12]
     310:	2210      	movs	r2, #16
     312:	4013      	ands	r3, r2
     314:	d0fa      	beq.n	30c <SystemInit+0xd4>
     316:	4a33      	ldr	r2, [pc, #204]	; (3e4 <SystemInit+0x1ac>)
     318:	4b32      	ldr	r3, [pc, #200]	; (3e4 <SystemInit+0x1ac>)
     31a:	8c9b      	ldrh	r3, [r3, #36]	; 0x24
     31c:	b29b      	uxth	r3, r3
     31e:	2102      	movs	r1, #2
     320:	430b      	orrs	r3, r1
     322:	b29b      	uxth	r3, r3
     324:	8493      	strh	r3, [r2, #36]	; 0x24
     326:	46c0      	nop			; (mov r8, r8)
     328:	4b2e      	ldr	r3, [pc, #184]	; (3e4 <SystemInit+0x1ac>)
     32a:	68db      	ldr	r3, [r3, #12]
     32c:	2280      	movs	r2, #128	; 0x80
     32e:	4013      	ands	r3, r2
     330:	d0fa      	beq.n	328 <SystemInit+0xf0>
     332:	4b2c      	ldr	r3, [pc, #176]	; (3e4 <SystemInit+0x1ac>)
     334:	68db      	ldr	r3, [r3, #12]
     336:	2240      	movs	r2, #64	; 0x40
     338:	4013      	ands	r3, r2
     33a:	d0f5      	beq.n	328 <SystemInit+0xf0>
     33c:	46c0      	nop			; (mov r8, r8)
     33e:	4b29      	ldr	r3, [pc, #164]	; (3e4 <SystemInit+0x1ac>)
     340:	68db      	ldr	r3, [r3, #12]
     342:	2210      	movs	r2, #16
     344:	4013      	ands	r3, r2
     346:	d0fa      	beq.n	33e <SystemInit+0x106>
     348:	4b28      	ldr	r3, [pc, #160]	; (3ec <SystemInit+0x1b4>)
     34a:	2200      	movs	r2, #0
     34c:	609a      	str	r2, [r3, #8]
     34e:	46c0      	nop			; (mov r8, r8)
     350:	4b26      	ldr	r3, [pc, #152]	; (3ec <SystemInit+0x1b4>)
     352:	785b      	ldrb	r3, [r3, #1]
     354:	b2db      	uxtb	r3, r3
     356:	b25b      	sxtb	r3, r3
     358:	2b00      	cmp	r3, #0
     35a:	dbf9      	blt.n	350 <SystemInit+0x118>
     35c:	4b23      	ldr	r3, [pc, #140]	; (3ec <SystemInit+0x1b4>)
     35e:	4a27      	ldr	r2, [pc, #156]	; (3fc <SystemInit+0x1c4>)
     360:	605a      	str	r2, [r3, #4]
     362:	46c0      	nop			; (mov r8, r8)
     364:	4b21      	ldr	r3, [pc, #132]	; (3ec <SystemInit+0x1b4>)
     366:	785b      	ldrb	r3, [r3, #1]
     368:	b2db      	uxtb	r3, r3
     36a:	b25b      	sxtb	r3, r3
     36c:	2b00      	cmp	r3, #0
     36e:	dbf9      	blt.n	364 <SystemInit+0x12c>
     370:	4a1c      	ldr	r2, [pc, #112]	; (3e4 <SystemInit+0x1ac>)
     372:	6a13      	ldr	r3, [r2, #32]
     374:	4922      	ldr	r1, [pc, #136]	; (400 <SystemInit+0x1c8>)
     376:	400b      	ands	r3, r1
     378:	6213      	str	r3, [r2, #32]
     37a:	4a1a      	ldr	r2, [pc, #104]	; (3e4 <SystemInit+0x1ac>)
     37c:	6a13      	ldr	r3, [r2, #32]
     37e:	2180      	movs	r1, #128	; 0x80
     380:	438b      	bics	r3, r1
     382:	6213      	str	r3, [r2, #32]
     384:	4b19      	ldr	r3, [pc, #100]	; (3ec <SystemInit+0x1b4>)
     386:	2203      	movs	r2, #3
     388:	609a      	str	r2, [r3, #8]
     38a:	4b18      	ldr	r3, [pc, #96]	; (3ec <SystemInit+0x1b4>)
     38c:	4a1d      	ldr	r2, [pc, #116]	; (404 <SystemInit+0x1cc>)
     38e:	605a      	str	r2, [r3, #4]
     390:	46c0      	nop			; (mov r8, r8)
     392:	4b16      	ldr	r3, [pc, #88]	; (3ec <SystemInit+0x1b4>)
     394:	785b      	ldrb	r3, [r3, #1]
     396:	b2db      	uxtb	r3, r3
     398:	b25b      	sxtb	r3, r3
     39a:	2b00      	cmp	r3, #0
     39c:	dbf9      	blt.n	392 <SystemInit+0x15a>
     39e:	4b13      	ldr	r3, [pc, #76]	; (3ec <SystemInit+0x1b4>)
     3a0:	4a19      	ldr	r2, [pc, #100]	; (408 <SystemInit+0x1d0>)
     3a2:	609a      	str	r2, [r3, #8]
     3a4:	4b11      	ldr	r3, [pc, #68]	; (3ec <SystemInit+0x1b4>)
     3a6:	4a19      	ldr	r2, [pc, #100]	; (40c <SystemInit+0x1d4>)
     3a8:	605a      	str	r2, [r3, #4]
     3aa:	46c0      	nop			; (mov r8, r8)
     3ac:	4b0f      	ldr	r3, [pc, #60]	; (3ec <SystemInit+0x1b4>)
     3ae:	785b      	ldrb	r3, [r3, #1]
     3b0:	b2db      	uxtb	r3, r3
     3b2:	b25b      	sxtb	r3, r3
     3b4:	2b00      	cmp	r3, #0
     3b6:	dbf9      	blt.n	3ac <SystemInit+0x174>
     3b8:	4b09      	ldr	r3, [pc, #36]	; (3e0 <SystemInit+0x1a8>)
     3ba:	2200      	movs	r2, #0
     3bc:	721a      	strb	r2, [r3, #8]
     3be:	4b08      	ldr	r3, [pc, #32]	; (3e0 <SystemInit+0x1a8>)
     3c0:	2200      	movs	r2, #0
     3c2:	725a      	strb	r2, [r3, #9]
     3c4:	4b06      	ldr	r3, [pc, #24]	; (3e0 <SystemInit+0x1a8>)
     3c6:	2200      	movs	r2, #0
     3c8:	729a      	strb	r2, [r3, #10]
     3ca:	4b05      	ldr	r3, [pc, #20]	; (3e0 <SystemInit+0x1a8>)
     3cc:	2200      	movs	r2, #0
     3ce:	72da      	strb	r2, [r3, #11]
     3d0:	4b0f      	ldr	r3, [pc, #60]	; (410 <SystemInit+0x1d8>)
     3d2:	4a10      	ldr	r2, [pc, #64]	; (414 <SystemInit+0x1dc>)
     3d4:	601a      	str	r2, [r3, #0]
     3d6:	46c0      	nop			; (mov r8, r8)
     3d8:	46bd      	mov	sp, r7
     3da:	bd80      	pop	{r7, pc}
     3dc:	41004000 	.word	0x41004000
     3e0:	40000400 	.word	0x40000400
     3e4:	40000800 	.word	0x40000800
     3e8:	0000060c 	.word	0x0000060c
     3ec:	40000c00 	.word	0x40000c00
     3f0:	00010501 	.word	0x00010501
     3f4:	7dff05dc 	.word	0x7dff05dc
     3f8:	00000a04 	.word	0x00000a04
     3fc:	00030700 	.word	0x00030700
     400:	fffffcff 	.word	0xfffffcff
     404:	00010603 	.word	0x00010603
     408:	00000804 	.word	0x00000804
     40c:	00010604 	.word	0x00010604
     410:	20000000 	.word	0x20000000
     414:	02dc6c00 	.word	0x02dc6c00

00000418 <ssd1306_set_page_address>:
     418:	b580      	push	{r7, lr}
     41a:	b082      	sub	sp, #8
     41c:	af00      	add	r7, sp, #0
     41e:	0002      	movs	r2, r0
     420:	1dfb      	adds	r3, r7, #7
     422:	701a      	strb	r2, [r3, #0]
     424:	1dfb      	adds	r3, r7, #7
     426:	1dfa      	adds	r2, r7, #7
     428:	7812      	ldrb	r2, [r2, #0]
     42a:	210f      	movs	r1, #15
     42c:	400a      	ands	r2, r1
     42e:	701a      	strb	r2, [r3, #0]
     430:	1dfb      	adds	r3, r7, #7
     432:	781b      	ldrb	r3, [r3, #0]
     434:	2250      	movs	r2, #80	; 0x50
     436:	4252      	negs	r2, r2
     438:	4313      	orrs	r3, r2
     43a:	b2db      	uxtb	r3, r3
     43c:	0018      	movs	r0, r3
     43e:	4b03      	ldr	r3, [pc, #12]	; (44c <ssd1306_set_page_address+0x34>)
     440:	4798      	blx	r3
     442:	46c0      	nop			; (mov r8, r8)
     444:	46bd      	mov	sp, r7
     446:	b002      	add	sp, #8
     448:	bd80      	pop	{r7, pc}
     44a:	46c0      	nop			; (mov r8, r8)
     44c:	000007ed 	.word	0x000007ed

00000450 <ssd1306_set_column_address>:
     450:	b580      	push	{r7, lr}
     452:	b082      	sub	sp, #8
     454:	af00      	add	r7, sp, #0
     456:	0002      	movs	r2, r0
     458:	1dfb      	adds	r3, r7, #7
     45a:	701a      	strb	r2, [r3, #0]
     45c:	1dfb      	adds	r3, r7, #7
     45e:	1dfa      	adds	r2, r7, #7
     460:	7812      	ldrb	r2, [r2, #0]
     462:	217f      	movs	r1, #127	; 0x7f
     464:	400a      	ands	r2, r1
     466:	701a      	strb	r2, [r3, #0]
     468:	1dfb      	adds	r3, r7, #7
     46a:	781b      	ldrb	r3, [r3, #0]
     46c:	091b      	lsrs	r3, r3, #4
     46e:	b2db      	uxtb	r3, r3
     470:	2210      	movs	r2, #16
     472:	4313      	orrs	r3, r2
     474:	b2db      	uxtb	r3, r3
     476:	0018      	movs	r0, r3
     478:	4b06      	ldr	r3, [pc, #24]	; (494 <ssd1306_set_column_address+0x44>)
     47a:	4798      	blx	r3
     47c:	1dfb      	adds	r3, r7, #7
     47e:	781b      	ldrb	r3, [r3, #0]
     480:	220f      	movs	r2, #15
     482:	4013      	ands	r3, r2
     484:	b2db      	uxtb	r3, r3
     486:	0018      	movs	r0, r3
     488:	4b02      	ldr	r3, [pc, #8]	; (494 <ssd1306_set_column_address+0x44>)
     48a:	4798      	blx	r3
     48c:	46c0      	nop			; (mov r8, r8)
     48e:	46bd      	mov	sp, r7
     490:	b002      	add	sp, #8
     492:	bd80      	pop	{r7, pc}
     494:	000007ed 	.word	0x000007ed

00000498 <ssd1306_set_display_start_line_address>:
     498:	b580      	push	{r7, lr}
     49a:	b082      	sub	sp, #8
     49c:	af00      	add	r7, sp, #0
     49e:	0002      	movs	r2, r0
     4a0:	1dfb      	adds	r3, r7, #7
     4a2:	701a      	strb	r2, [r3, #0]
     4a4:	1dfb      	adds	r3, r7, #7
     4a6:	1dfa      	adds	r2, r7, #7
     4a8:	7812      	ldrb	r2, [r2, #0]
     4aa:	213f      	movs	r1, #63	; 0x3f
     4ac:	400a      	ands	r2, r1
     4ae:	701a      	strb	r2, [r3, #0]
     4b0:	1dfb      	adds	r3, r7, #7
     4b2:	781b      	ldrb	r3, [r3, #0]
     4b4:	2240      	movs	r2, #64	; 0x40
     4b6:	4313      	orrs	r3, r2
     4b8:	b2db      	uxtb	r3, r3
     4ba:	0018      	movs	r0, r3
     4bc:	4b02      	ldr	r3, [pc, #8]	; (4c8 <ssd1306_set_display_start_line_address+0x30>)
     4be:	4798      	blx	r3
     4c0:	46c0      	nop			; (mov r8, r8)
     4c2:	46bd      	mov	sp, r7
     4c4:	b002      	add	sp, #8
     4c6:	bd80      	pop	{r7, pc}
     4c8:	000007ed 	.word	0x000007ed

000004cc <ssd1306_display_on>:
     4cc:	b580      	push	{r7, lr}
     4ce:	af00      	add	r7, sp, #0
     4d0:	20af      	movs	r0, #175	; 0xaf
     4d2:	4b02      	ldr	r3, [pc, #8]	; (4dc <ssd1306_display_on+0x10>)
     4d4:	4798      	blx	r3
     4d6:	46c0      	nop			; (mov r8, r8)
     4d8:	46bd      	mov	sp, r7
     4da:	bd80      	pop	{r7, pc}
     4dc:	000007ed 	.word	0x000007ed

000004e0 <ssd1306_set_contrast>:
     4e0:	b580      	push	{r7, lr}
     4e2:	b082      	sub	sp, #8
     4e4:	af00      	add	r7, sp, #0
     4e6:	0002      	movs	r2, r0
     4e8:	1dfb      	adds	r3, r7, #7
     4ea:	701a      	strb	r2, [r3, #0]
     4ec:	2081      	movs	r0, #129	; 0x81
     4ee:	4b06      	ldr	r3, [pc, #24]	; (508 <ssd1306_set_contrast+0x28>)
     4f0:	4798      	blx	r3
     4f2:	1dfb      	adds	r3, r7, #7
     4f4:	781b      	ldrb	r3, [r3, #0]
     4f6:	0018      	movs	r0, r3
     4f8:	4b03      	ldr	r3, [pc, #12]	; (508 <ssd1306_set_contrast+0x28>)
     4fa:	4798      	blx	r3
     4fc:	1dfb      	adds	r3, r7, #7
     4fe:	781b      	ldrb	r3, [r3, #0]
     500:	0018      	movs	r0, r3
     502:	46bd      	mov	sp, r7
     504:	b002      	add	sp, #8
     506:	bd80      	pop	{r7, pc}
     508:	000007ed 	.word	0x000007ed

0000050c <ssd1306_display_invert_disable>:
     50c:	b580      	push	{r7, lr}
     50e:	af00      	add	r7, sp, #0
     510:	20a6      	movs	r0, #166	; 0xa6
     512:	4b02      	ldr	r3, [pc, #8]	; (51c <ssd1306_display_invert_disable+0x10>)
     514:	4798      	blx	r3
     516:	46c0      	nop			; (mov r8, r8)
     518:	46bd      	mov	sp, r7
     51a:	bd80      	pop	{r7, pc}
     51c:	000007ed 	.word	0x000007ed

00000520 <OLEDInit>:
     520:	b590      	push	{r4, r7, lr}
     522:	b083      	sub	sp, #12
     524:	af00      	add	r7, sp, #0
     526:	0002      	movs	r2, r0
     528:	1dfb      	adds	r3, r7, #7
     52a:	701a      	strb	r2, [r3, #0]
     52c:	4b10      	ldr	r3, [pc, #64]	; (570 <OLEDInit+0x50>)
     52e:	4798      	blx	r3
     530:	1dfb      	adds	r3, r7, #7
     532:	781b      	ldrb	r3, [r3, #0]
     534:	2b00      	cmp	r3, #0
     536:	d017      	beq.n	568 <OLEDInit+0x48>
     538:	4b0e      	ldr	r3, [pc, #56]	; (574 <OLEDInit+0x54>)
     53a:	2200      	movs	r2, #0
     53c:	2100      	movs	r1, #0
     53e:	0018      	movs	r0, r3
     540:	4b0d      	ldr	r3, [pc, #52]	; (578 <OLEDInit+0x58>)
     542:	4798      	blx	r3
     544:	4b0d      	ldr	r3, [pc, #52]	; (57c <OLEDInit+0x5c>)
     546:	480e      	ldr	r0, [pc, #56]	; (580 <OLEDInit+0x60>)
     548:	2202      	movs	r2, #2
     54a:	212b      	movs	r1, #43	; 0x2b
     54c:	4c0d      	ldr	r4, [pc, #52]	; (584 <OLEDInit+0x64>)
     54e:	47a0      	blx	r4
     550:	4b0a      	ldr	r3, [pc, #40]	; (57c <OLEDInit+0x5c>)
     552:	480d      	ldr	r0, [pc, #52]	; (588 <OLEDInit+0x68>)
     554:	2213      	movs	r2, #19
     556:	2135      	movs	r1, #53	; 0x35
     558:	4c0a      	ldr	r4, [pc, #40]	; (584 <OLEDInit+0x64>)
     55a:	47a0      	blx	r4
     55c:	2301      	movs	r3, #1
     55e:	2222      	movs	r2, #34	; 0x22
     560:	211d      	movs	r1, #29
     562:	203f      	movs	r0, #63	; 0x3f
     564:	4c09      	ldr	r4, [pc, #36]	; (58c <OLEDInit+0x6c>)
     566:	47a0      	blx	r4
     568:	46c0      	nop			; (mov r8, r8)
     56a:	46bd      	mov	sp, r7
     56c:	b003      	add	sp, #12
     56e:	bd90      	pop	{r4, r7, pc}
     570:	00001035 	.word	0x00001035
     574:	20000004 	.word	0x20000004
     578:	00000c59 	.word	0x00000c59
     57c:	2000000c 	.word	0x2000000c
     580:	00004360 	.word	0x00004360
     584:	00000f81 	.word	0x00000f81
     588:	00004370 	.word	0x00004370
     58c:	00000a21 	.word	0x00000a21

00000590 <OLEDSetLine>:
     590:	b580      	push	{r7, lr}
     592:	b082      	sub	sp, #8
     594:	af00      	add	r7, sp, #0
     596:	6078      	str	r0, [r7, #4]
     598:	687b      	ldr	r3, [r7, #4]
     59a:	2b03      	cmp	r3, #3
     59c:	dc07      	bgt.n	5ae <OLEDSetLine+0x1e>
     59e:	687b      	ldr	r3, [r7, #4]
     5a0:	00da      	lsls	r2, r3, #3
     5a2:	4b05      	ldr	r3, [pc, #20]	; (5b8 <OLEDSetLine+0x28>)
     5a4:	601a      	str	r2, [r3, #0]
     5a6:	4b05      	ldr	r3, [pc, #20]	; (5bc <OLEDSetLine+0x2c>)
     5a8:	2200      	movs	r2, #0
     5aa:	601a      	str	r2, [r3, #0]
     5ac:	e000      	b.n	5b0 <OLEDSetLine+0x20>
     5ae:	46c0      	nop			; (mov r8, r8)
     5b0:	46bd      	mov	sp, r7
     5b2:	b002      	add	sp, #8
     5b4:	bd80      	pop	{r7, pc}
     5b6:	46c0      	nop			; (mov r8, r8)
     5b8:	20000ab8 	.word	0x20000ab8
     5bc:	20000abc 	.word	0x20000abc

000005c0 <OLEDPrintChar>:
     5c0:	b590      	push	{r4, r7, lr}
     5c2:	b083      	sub	sp, #12
     5c4:	af00      	add	r7, sp, #0
     5c6:	0002      	movs	r2, r0
     5c8:	1dfb      	adds	r3, r7, #7
     5ca:	701a      	strb	r2, [r3, #0]
     5cc:	1dfb      	adds	r3, r7, #7
     5ce:	781b      	ldrb	r3, [r3, #0]
     5d0:	2b0a      	cmp	r3, #10
     5d2:	d111      	bne.n	5f8 <OLEDPrintChar+0x38>
     5d4:	4b1d      	ldr	r3, [pc, #116]	; (64c <OLEDPrintChar+0x8c>)
     5d6:	2200      	movs	r2, #0
     5d8:	601a      	str	r2, [r3, #0]
     5da:	4b1d      	ldr	r3, [pc, #116]	; (650 <OLEDPrintChar+0x90>)
     5dc:	681b      	ldr	r3, [r3, #0]
     5de:	3308      	adds	r3, #8
     5e0:	4a1c      	ldr	r2, [pc, #112]	; (654 <OLEDPrintChar+0x94>)
     5e2:	4013      	ands	r3, r2
     5e4:	d504      	bpl.n	5f0 <OLEDPrintChar+0x30>
     5e6:	3b01      	subs	r3, #1
     5e8:	2220      	movs	r2, #32
     5ea:	4252      	negs	r2, r2
     5ec:	4313      	orrs	r3, r2
     5ee:	3301      	adds	r3, #1
     5f0:	001a      	movs	r2, r3
     5f2:	4b17      	ldr	r3, [pc, #92]	; (650 <OLEDPrintChar+0x90>)
     5f4:	601a      	str	r2, [r3, #0]
     5f6:	e025      	b.n	644 <OLEDPrintChar+0x84>
     5f8:	4b14      	ldr	r3, [pc, #80]	; (64c <OLEDPrintChar+0x8c>)
     5fa:	681b      	ldr	r3, [r3, #0]
     5fc:	b2d9      	uxtb	r1, r3
     5fe:	4b14      	ldr	r3, [pc, #80]	; (650 <OLEDPrintChar+0x90>)
     600:	681b      	ldr	r3, [r3, #0]
     602:	b2da      	uxtb	r2, r3
     604:	4c14      	ldr	r4, [pc, #80]	; (658 <OLEDPrintChar+0x98>)
     606:	1dfb      	adds	r3, r7, #7
     608:	7818      	ldrb	r0, [r3, #0]
     60a:	0023      	movs	r3, r4
     60c:	4c13      	ldr	r4, [pc, #76]	; (65c <OLEDPrintChar+0x9c>)
     60e:	47a0      	blx	r4
     610:	4b0e      	ldr	r3, [pc, #56]	; (64c <OLEDPrintChar+0x8c>)
     612:	681b      	ldr	r3, [r3, #0]
     614:	1d9a      	adds	r2, r3, #6
     616:	4b0d      	ldr	r3, [pc, #52]	; (64c <OLEDPrintChar+0x8c>)
     618:	601a      	str	r2, [r3, #0]
     61a:	4b0c      	ldr	r3, [pc, #48]	; (64c <OLEDPrintChar+0x8c>)
     61c:	681b      	ldr	r3, [r3, #0]
     61e:	2b7f      	cmp	r3, #127	; 0x7f
     620:	dd10      	ble.n	644 <OLEDPrintChar+0x84>
     622:	4b0a      	ldr	r3, [pc, #40]	; (64c <OLEDPrintChar+0x8c>)
     624:	2200      	movs	r2, #0
     626:	601a      	str	r2, [r3, #0]
     628:	4b09      	ldr	r3, [pc, #36]	; (650 <OLEDPrintChar+0x90>)
     62a:	681b      	ldr	r3, [r3, #0]
     62c:	3308      	adds	r3, #8
     62e:	4a09      	ldr	r2, [pc, #36]	; (654 <OLEDPrintChar+0x94>)
     630:	4013      	ands	r3, r2
     632:	d504      	bpl.n	63e <OLEDPrintChar+0x7e>
     634:	3b01      	subs	r3, #1
     636:	2220      	movs	r2, #32
     638:	4252      	negs	r2, r2
     63a:	4313      	orrs	r3, r2
     63c:	3301      	adds	r3, #1
     63e:	001a      	movs	r2, r3
     640:	4b03      	ldr	r3, [pc, #12]	; (650 <OLEDPrintChar+0x90>)
     642:	601a      	str	r2, [r3, #0]
     644:	46c0      	nop			; (mov r8, r8)
     646:	46bd      	mov	sp, r7
     648:	b003      	add	sp, #12
     64a:	bd90      	pop	{r4, r7, pc}
     64c:	20000abc 	.word	0x20000abc
     650:	20000ab8 	.word	0x20000ab8
     654:	8000001f 	.word	0x8000001f
     658:	2000000c 	.word	0x2000000c
     65c:	00000f19 	.word	0x00000f19

00000660 <OLEDClear>:
     660:	b590      	push	{r4, r7, lr}
     662:	b083      	sub	sp, #12
     664:	af00      	add	r7, sp, #0
     666:	2300      	movs	r3, #0
     668:	607b      	str	r3, [r7, #4]
     66a:	e013      	b.n	694 <OLEDClear+0x34>
     66c:	2300      	movs	r3, #0
     66e:	603b      	str	r3, [r7, #0]
     670:	e00a      	b.n	688 <OLEDClear+0x28>
     672:	687b      	ldr	r3, [r7, #4]
     674:	b2d8      	uxtb	r0, r3
     676:	683b      	ldr	r3, [r7, #0]
     678:	b2d9      	uxtb	r1, r3
     67a:	2301      	movs	r3, #1
     67c:	2200      	movs	r2, #0
     67e:	4c0c      	ldr	r4, [pc, #48]	; (6b0 <OLEDClear+0x50>)
     680:	47a0      	blx	r4
     682:	683b      	ldr	r3, [r7, #0]
     684:	3301      	adds	r3, #1
     686:	603b      	str	r3, [r7, #0]
     688:	683b      	ldr	r3, [r7, #0]
     68a:	2b7f      	cmp	r3, #127	; 0x7f
     68c:	ddf1      	ble.n	672 <OLEDClear+0x12>
     68e:	687b      	ldr	r3, [r7, #4]
     690:	3301      	adds	r3, #1
     692:	607b      	str	r3, [r7, #4]
     694:	687b      	ldr	r3, [r7, #4]
     696:	2b03      	cmp	r3, #3
     698:	dde8      	ble.n	66c <OLEDClear+0xc>
     69a:	4b06      	ldr	r3, [pc, #24]	; (6b4 <OLEDClear+0x54>)
     69c:	2200      	movs	r2, #0
     69e:	601a      	str	r2, [r3, #0]
     6a0:	4b05      	ldr	r3, [pc, #20]	; (6b8 <OLEDClear+0x58>)
     6a2:	2200      	movs	r2, #0
     6a4:	601a      	str	r2, [r3, #0]
     6a6:	46c0      	nop			; (mov r8, r8)
     6a8:	46bd      	mov	sp, r7
     6aa:	b003      	add	sp, #12
     6ac:	bd90      	pop	{r4, r7, pc}
     6ae:	46c0      	nop			; (mov r8, r8)
     6b0:	00001225 	.word	0x00001225
     6b4:	20000abc 	.word	0x20000abc
     6b8:	20000ab8 	.word	0x20000ab8

000006bc <oledWait10us>:
     6bc:	b580      	push	{r7, lr}
     6be:	b082      	sub	sp, #8
     6c0:	af00      	add	r7, sp, #0
     6c2:	2300      	movs	r3, #0
     6c4:	607b      	str	r3, [r7, #4]
     6c6:	e002      	b.n	6ce <oledWait10us+0x12>
     6c8:	687b      	ldr	r3, [r7, #4]
     6ca:	3301      	adds	r3, #1
     6cc:	607b      	str	r3, [r7, #4]
     6ce:	687b      	ldr	r3, [r7, #4]
     6d0:	4a03      	ldr	r2, [pc, #12]	; (6e0 <oledWait10us+0x24>)
     6d2:	4293      	cmp	r3, r2
     6d4:	ddf8      	ble.n	6c8 <oledWait10us+0xc>
     6d6:	46c0      	nop			; (mov r8, r8)
     6d8:	46bd      	mov	sp, r7
     6da:	b002      	add	sp, #8
     6dc:	bd80      	pop	{r7, pc}
     6de:	46c0      	nop			; (mov r8, r8)
     6e0:	000003e7 	.word	0x000003e7

000006e4 <ssd1306_hard_reset>:
     6e4:	b580      	push	{r7, lr}
     6e6:	af00      	add	r7, sp, #0
     6e8:	2201      	movs	r2, #1
     6ea:	211b      	movs	r1, #27
     6ec:	2000      	movs	r0, #0
     6ee:	4b09      	ldr	r3, [pc, #36]	; (714 <ssd1306_hard_reset+0x30>)
     6f0:	4798      	blx	r3
     6f2:	2200      	movs	r2, #0
     6f4:	211b      	movs	r1, #27
     6f6:	2000      	movs	r0, #0
     6f8:	4b07      	ldr	r3, [pc, #28]	; (718 <ssd1306_hard_reset+0x34>)
     6fa:	4798      	blx	r3
     6fc:	4b07      	ldr	r3, [pc, #28]	; (71c <ssd1306_hard_reset+0x38>)
     6fe:	4798      	blx	r3
     700:	2201      	movs	r2, #1
     702:	211b      	movs	r1, #27
     704:	2000      	movs	r0, #0
     706:	4b04      	ldr	r3, [pc, #16]	; (718 <ssd1306_hard_reset+0x34>)
     708:	4798      	blx	r3
     70a:	4b04      	ldr	r3, [pc, #16]	; (71c <ssd1306_hard_reset+0x38>)
     70c:	4798      	blx	r3
     70e:	46c0      	nop			; (mov r8, r8)
     710:	46bd      	mov	sp, r7
     712:	bd80      	pop	{r7, pc}
     714:	000012ed 	.word	0x000012ed
     718:	0000148d 	.word	0x0000148d
     71c:	000006bd 	.word	0x000006bd

00000720 <OLEDSpiInit>:
     720:	b580      	push	{r7, lr}
     722:	af00      	add	r7, sp, #0
     724:	2202      	movs	r2, #2
     726:	2111      	movs	r1, #17
     728:	2001      	movs	r0, #1
     72a:	4b1d      	ldr	r3, [pc, #116]	; (7a0 <OLEDSpiInit+0x80>)
     72c:	4798      	blx	r3
     72e:	2203      	movs	r2, #3
     730:	2116      	movs	r1, #22
     732:	2001      	movs	r0, #1
     734:	4b1a      	ldr	r3, [pc, #104]	; (7a0 <OLEDSpiInit+0x80>)
     736:	4798      	blx	r3
     738:	2203      	movs	r2, #3
     73a:	2117      	movs	r1, #23
     73c:	2001      	movs	r0, #1
     73e:	4b18      	ldr	r3, [pc, #96]	; (7a0 <OLEDSpiInit+0x80>)
     740:	4798      	blx	r3
     742:	4b18      	ldr	r3, [pc, #96]	; (7a4 <OLEDSpiInit+0x84>)
     744:	4a17      	ldr	r2, [pc, #92]	; (7a4 <OLEDSpiInit+0x84>)
     746:	6a12      	ldr	r2, [r2, #32]
     748:	2180      	movs	r1, #128	; 0x80
     74a:	430a      	orrs	r2, r1
     74c:	621a      	str	r2, [r3, #32]
     74e:	4b16      	ldr	r3, [pc, #88]	; (7a8 <OLEDSpiInit+0x88>)
     750:	4a16      	ldr	r2, [pc, #88]	; (7ac <OLEDSpiInit+0x8c>)
     752:	805a      	strh	r2, [r3, #2]
     754:	4a16      	ldr	r2, [pc, #88]	; (7b0 <OLEDSpiInit+0x90>)
     756:	6813      	ldr	r3, [r2, #0]
     758:	2101      	movs	r1, #1
     75a:	430b      	orrs	r3, r1
     75c:	6013      	str	r3, [r2, #0]
     75e:	46c0      	nop			; (mov r8, r8)
     760:	4b13      	ldr	r3, [pc, #76]	; (7b0 <OLEDSpiInit+0x90>)
     762:	681b      	ldr	r3, [r3, #0]
     764:	07db      	lsls	r3, r3, #31
     766:	0fdb      	lsrs	r3, r3, #31
     768:	b2db      	uxtb	r3, r3
     76a:	2b00      	cmp	r3, #0
     76c:	d1f8      	bne.n	760 <OLEDSpiInit+0x40>
     76e:	4b10      	ldr	r3, [pc, #64]	; (7b0 <OLEDSpiInit+0x90>)
     770:	69db      	ldr	r3, [r3, #28]
     772:	07db      	lsls	r3, r3, #31
     774:	0fdb      	lsrs	r3, r3, #31
     776:	b2db      	uxtb	r3, r3
     778:	2b00      	cmp	r3, #0
     77a:	d1f1      	bne.n	760 <OLEDSpiInit+0x40>
     77c:	4b0c      	ldr	r3, [pc, #48]	; (7b0 <OLEDSpiInit+0x90>)
     77e:	4a0d      	ldr	r2, [pc, #52]	; (7b4 <OLEDSpiInit+0x94>)
     780:	601a      	str	r2, [r3, #0]
     782:	4b0b      	ldr	r3, [pc, #44]	; (7b0 <OLEDSpiInit+0x90>)
     784:	4a0c      	ldr	r2, [pc, #48]	; (7b8 <OLEDSpiInit+0x98>)
     786:	605a      	str	r2, [r3, #4]
     788:	4b09      	ldr	r3, [pc, #36]	; (7b0 <OLEDSpiInit+0x90>)
     78a:	2203      	movs	r2, #3
     78c:	731a      	strb	r2, [r3, #12]
     78e:	4b08      	ldr	r3, [pc, #32]	; (7b0 <OLEDSpiInit+0x90>)
     790:	4a07      	ldr	r2, [pc, #28]	; (7b0 <OLEDSpiInit+0x90>)
     792:	6812      	ldr	r2, [r2, #0]
     794:	2102      	movs	r1, #2
     796:	430a      	orrs	r2, r1
     798:	601a      	str	r2, [r3, #0]
     79a:	46c0      	nop			; (mov r8, r8)
     79c:	46bd      	mov	sp, r7
     79e:	bd80      	pop	{r7, pc}
     7a0:	000014fd 	.word	0x000014fd
     7a4:	40000400 	.word	0x40000400
     7a8:	40000c00 	.word	0x40000c00
     7ac:	00004319 	.word	0x00004319
     7b0:	42001c00 	.word	0x42001c00
     7b4:	0001008c 	.word	0x0001008c
     7b8:	00022200 	.word	0x00022200

000007bc <ssd1306_write_first_command>:
     7bc:	b580      	push	{r7, lr}
     7be:	b082      	sub	sp, #8
     7c0:	af00      	add	r7, sp, #0
     7c2:	0002      	movs	r2, r0
     7c4:	1dfb      	adds	r3, r7, #7
     7c6:	701a      	strb	r2, [r3, #0]
     7c8:	2200      	movs	r2, #0
     7ca:	211e      	movs	r1, #30
     7cc:	2001      	movs	r0, #1
     7ce:	4b05      	ldr	r3, [pc, #20]	; (7e4 <ssd1306_write_first_command+0x28>)
     7d0:	4798      	blx	r3
     7d2:	4b05      	ldr	r3, [pc, #20]	; (7e8 <ssd1306_write_first_command+0x2c>)
     7d4:	1dfa      	adds	r2, r7, #7
     7d6:	7812      	ldrb	r2, [r2, #0]
     7d8:	629a      	str	r2, [r3, #40]	; 0x28
     7da:	46c0      	nop			; (mov r8, r8)
     7dc:	46bd      	mov	sp, r7
     7de:	b002      	add	sp, #8
     7e0:	bd80      	pop	{r7, pc}
     7e2:	46c0      	nop			; (mov r8, r8)
     7e4:	0000148d 	.word	0x0000148d
     7e8:	42001c00 	.word	0x42001c00

000007ec <ssd1306_write_command>:
     7ec:	b580      	push	{r7, lr}
     7ee:	b082      	sub	sp, #8
     7f0:	af00      	add	r7, sp, #0
     7f2:	0002      	movs	r2, r0
     7f4:	1dfb      	adds	r3, r7, #7
     7f6:	701a      	strb	r2, [r3, #0]
     7f8:	46c0      	nop			; (mov r8, r8)
     7fa:	4b0a      	ldr	r3, [pc, #40]	; (824 <ssd1306_write_command+0x38>)
     7fc:	7e1b      	ldrb	r3, [r3, #24]
     7fe:	079b      	lsls	r3, r3, #30
     800:	0fdb      	lsrs	r3, r3, #31
     802:	b2db      	uxtb	r3, r3
     804:	2b00      	cmp	r3, #0
     806:	d0f8      	beq.n	7fa <ssd1306_write_command+0xe>
     808:	4907      	ldr	r1, [pc, #28]	; (828 <ssd1306_write_command+0x3c>)
     80a:	2294      	movs	r2, #148	; 0x94
     80c:	2380      	movs	r3, #128	; 0x80
     80e:	05db      	lsls	r3, r3, #23
     810:	508b      	str	r3, [r1, r2]
     812:	4b04      	ldr	r3, [pc, #16]	; (824 <ssd1306_write_command+0x38>)
     814:	1dfa      	adds	r2, r7, #7
     816:	7812      	ldrb	r2, [r2, #0]
     818:	629a      	str	r2, [r3, #40]	; 0x28
     81a:	46c0      	nop			; (mov r8, r8)
     81c:	46bd      	mov	sp, r7
     81e:	b002      	add	sp, #8
     820:	bd80      	pop	{r7, pc}
     822:	46c0      	nop			; (mov r8, r8)
     824:	42001c00 	.word	0x42001c00
     828:	41004400 	.word	0x41004400

0000082c <ssd1306_write_data>:
     82c:	b580      	push	{r7, lr}
     82e:	b082      	sub	sp, #8
     830:	af00      	add	r7, sp, #0
     832:	0002      	movs	r2, r0
     834:	1dfb      	adds	r3, r7, #7
     836:	701a      	strb	r2, [r3, #0]
     838:	46c0      	nop			; (mov r8, r8)
     83a:	4b0a      	ldr	r3, [pc, #40]	; (864 <ssd1306_write_data+0x38>)
     83c:	7e1b      	ldrb	r3, [r3, #24]
     83e:	079b      	lsls	r3, r3, #30
     840:	0fdb      	lsrs	r3, r3, #31
     842:	b2db      	uxtb	r3, r3
     844:	2b00      	cmp	r3, #0
     846:	d0f8      	beq.n	83a <ssd1306_write_data+0xe>
     848:	4907      	ldr	r1, [pc, #28]	; (868 <ssd1306_write_data+0x3c>)
     84a:	2298      	movs	r2, #152	; 0x98
     84c:	2380      	movs	r3, #128	; 0x80
     84e:	05db      	lsls	r3, r3, #23
     850:	508b      	str	r3, [r1, r2]
     852:	4b04      	ldr	r3, [pc, #16]	; (864 <ssd1306_write_data+0x38>)
     854:	1dfa      	adds	r2, r7, #7
     856:	7812      	ldrb	r2, [r2, #0]
     858:	629a      	str	r2, [r3, #40]	; 0x28
     85a:	46c0      	nop			; (mov r8, r8)
     85c:	46bd      	mov	sp, r7
     85e:	b002      	add	sp, #8
     860:	bd80      	pop	{r7, pc}
     862:	46c0      	nop			; (mov r8, r8)
     864:	42001c00 	.word	0x42001c00
     868:	41004400 	.word	0x41004400

0000086c <ssd1306_init>:
     86c:	b580      	push	{r7, lr}
     86e:	af00      	add	r7, sp, #0
     870:	2201      	movs	r2, #1
     872:	211e      	movs	r1, #30
     874:	2001      	movs	r0, #1
     876:	4b23      	ldr	r3, [pc, #140]	; (904 <ssd1306_init+0x98>)
     878:	4798      	blx	r3
     87a:	4b23      	ldr	r3, [pc, #140]	; (908 <ssd1306_init+0x9c>)
     87c:	4798      	blx	r3
     87e:	4b23      	ldr	r3, [pc, #140]	; (90c <ssd1306_init+0xa0>)
     880:	4798      	blx	r3
     882:	20a8      	movs	r0, #168	; 0xa8
     884:	4b22      	ldr	r3, [pc, #136]	; (910 <ssd1306_init+0xa4>)
     886:	4798      	blx	r3
     888:	201f      	movs	r0, #31
     88a:	4b22      	ldr	r3, [pc, #136]	; (914 <ssd1306_init+0xa8>)
     88c:	4798      	blx	r3
     88e:	20d3      	movs	r0, #211	; 0xd3
     890:	4b20      	ldr	r3, [pc, #128]	; (914 <ssd1306_init+0xa8>)
     892:	4798      	blx	r3
     894:	2000      	movs	r0, #0
     896:	4b1f      	ldr	r3, [pc, #124]	; (914 <ssd1306_init+0xa8>)
     898:	4798      	blx	r3
     89a:	2040      	movs	r0, #64	; 0x40
     89c:	4b1d      	ldr	r3, [pc, #116]	; (914 <ssd1306_init+0xa8>)
     89e:	4798      	blx	r3
     8a0:	20a1      	movs	r0, #161	; 0xa1
     8a2:	4b1c      	ldr	r3, [pc, #112]	; (914 <ssd1306_init+0xa8>)
     8a4:	4798      	blx	r3
     8a6:	20c8      	movs	r0, #200	; 0xc8
     8a8:	4b1a      	ldr	r3, [pc, #104]	; (914 <ssd1306_init+0xa8>)
     8aa:	4798      	blx	r3
     8ac:	20da      	movs	r0, #218	; 0xda
     8ae:	4b19      	ldr	r3, [pc, #100]	; (914 <ssd1306_init+0xa8>)
     8b0:	4798      	blx	r3
     8b2:	2002      	movs	r0, #2
     8b4:	4b17      	ldr	r3, [pc, #92]	; (914 <ssd1306_init+0xa8>)
     8b6:	4798      	blx	r3
     8b8:	208f      	movs	r0, #143	; 0x8f
     8ba:	4b17      	ldr	r3, [pc, #92]	; (918 <ssd1306_init+0xac>)
     8bc:	4798      	blx	r3
     8be:	20a4      	movs	r0, #164	; 0xa4
     8c0:	4b14      	ldr	r3, [pc, #80]	; (914 <ssd1306_init+0xa8>)
     8c2:	4798      	blx	r3
     8c4:	4b15      	ldr	r3, [pc, #84]	; (91c <ssd1306_init+0xb0>)
     8c6:	4798      	blx	r3
     8c8:	20d5      	movs	r0, #213	; 0xd5
     8ca:	4b12      	ldr	r3, [pc, #72]	; (914 <ssd1306_init+0xa8>)
     8cc:	4798      	blx	r3
     8ce:	2080      	movs	r0, #128	; 0x80
     8d0:	4b10      	ldr	r3, [pc, #64]	; (914 <ssd1306_init+0xa8>)
     8d2:	4798      	blx	r3
     8d4:	208d      	movs	r0, #141	; 0x8d
     8d6:	4b0f      	ldr	r3, [pc, #60]	; (914 <ssd1306_init+0xa8>)
     8d8:	4798      	blx	r3
     8da:	2014      	movs	r0, #20
     8dc:	4b0d      	ldr	r3, [pc, #52]	; (914 <ssd1306_init+0xa8>)
     8de:	4798      	blx	r3
     8e0:	20db      	movs	r0, #219	; 0xdb
     8e2:	4b0c      	ldr	r3, [pc, #48]	; (914 <ssd1306_init+0xa8>)
     8e4:	4798      	blx	r3
     8e6:	2040      	movs	r0, #64	; 0x40
     8e8:	4b0a      	ldr	r3, [pc, #40]	; (914 <ssd1306_init+0xa8>)
     8ea:	4798      	blx	r3
     8ec:	20d9      	movs	r0, #217	; 0xd9
     8ee:	4b09      	ldr	r3, [pc, #36]	; (914 <ssd1306_init+0xa8>)
     8f0:	4798      	blx	r3
     8f2:	20f1      	movs	r0, #241	; 0xf1
     8f4:	4b07      	ldr	r3, [pc, #28]	; (914 <ssd1306_init+0xa8>)
     8f6:	4798      	blx	r3
     8f8:	4b09      	ldr	r3, [pc, #36]	; (920 <ssd1306_init+0xb4>)
     8fa:	4798      	blx	r3
     8fc:	46c0      	nop			; (mov r8, r8)
     8fe:	46bd      	mov	sp, r7
     900:	bd80      	pop	{r7, pc}
     902:	46c0      	nop			; (mov r8, r8)
     904:	000012ed 	.word	0x000012ed
     908:	000006e5 	.word	0x000006e5
     90c:	00000721 	.word	0x00000721
     910:	000007bd 	.word	0x000007bd
     914:	000007ed 	.word	0x000007ed
     918:	000004e1 	.word	0x000004e1
     91c:	0000050d 	.word	0x0000050d
     920:	000004cd 	.word	0x000004cd

00000924 <gfx_mono_set_framebuffer>:
     924:	b580      	push	{r7, lr}
     926:	b082      	sub	sp, #8
     928:	af00      	add	r7, sp, #0
     92a:	6078      	str	r0, [r7, #4]
     92c:	4b03      	ldr	r3, [pc, #12]	; (93c <gfx_mono_set_framebuffer+0x18>)
     92e:	687a      	ldr	r2, [r7, #4]
     930:	601a      	str	r2, [r3, #0]
     932:	46c0      	nop			; (mov r8, r8)
     934:	46bd      	mov	sp, r7
     936:	b002      	add	sp, #8
     938:	bd80      	pop	{r7, pc}
     93a:	46c0      	nop			; (mov r8, r8)
     93c:	2000087c 	.word	0x2000087c

00000940 <gfx_mono_framebuffer_put_page>:
     940:	b590      	push	{r4, r7, lr}
     942:	b085      	sub	sp, #20
     944:	af00      	add	r7, sp, #0
     946:	6078      	str	r0, [r7, #4]
     948:	000c      	movs	r4, r1
     94a:	0010      	movs	r0, r2
     94c:	0019      	movs	r1, r3
     94e:	1cfb      	adds	r3, r7, #3
     950:	1c22      	adds	r2, r4, #0
     952:	701a      	strb	r2, [r3, #0]
     954:	1cbb      	adds	r3, r7, #2
     956:	1c02      	adds	r2, r0, #0
     958:	701a      	strb	r2, [r3, #0]
     95a:	1c7b      	adds	r3, r7, #1
     95c:	1c0a      	adds	r2, r1, #0
     95e:	701a      	strb	r2, [r3, #0]
     960:	687b      	ldr	r3, [r7, #4]
     962:	60fb      	str	r3, [r7, #12]
     964:	4b0f      	ldr	r3, [pc, #60]	; (9a4 <gfx_mono_framebuffer_put_page+0x64>)
     966:	681b      	ldr	r3, [r3, #0]
     968:	1cfa      	adds	r2, r7, #3
     96a:	7812      	ldrb	r2, [r2, #0]
     96c:	01d1      	lsls	r1, r2, #7
     96e:	1cba      	adds	r2, r7, #2
     970:	7812      	ldrb	r2, [r2, #0]
     972:	188a      	adds	r2, r1, r2
     974:	189b      	adds	r3, r3, r2
     976:	60bb      	str	r3, [r7, #8]
     978:	68bb      	ldr	r3, [r7, #8]
     97a:	1c5a      	adds	r2, r3, #1
     97c:	60ba      	str	r2, [r7, #8]
     97e:	68fa      	ldr	r2, [r7, #12]
     980:	1c51      	adds	r1, r2, #1
     982:	60f9      	str	r1, [r7, #12]
     984:	7812      	ldrb	r2, [r2, #0]
     986:	701a      	strb	r2, [r3, #0]
     988:	1c7b      	adds	r3, r7, #1
     98a:	1c7a      	adds	r2, r7, #1
     98c:	7812      	ldrb	r2, [r2, #0]
     98e:	3a01      	subs	r2, #1
     990:	701a      	strb	r2, [r3, #0]
     992:	1c7b      	adds	r3, r7, #1
     994:	781b      	ldrb	r3, [r3, #0]
     996:	2b00      	cmp	r3, #0
     998:	d1ee      	bne.n	978 <gfx_mono_framebuffer_put_page+0x38>
     99a:	46c0      	nop			; (mov r8, r8)
     99c:	46bd      	mov	sp, r7
     99e:	b005      	add	sp, #20
     9a0:	bd90      	pop	{r4, r7, pc}
     9a2:	46c0      	nop			; (mov r8, r8)
     9a4:	2000087c 	.word	0x2000087c

000009a8 <gfx_mono_framebuffer_put_byte>:
     9a8:	b590      	push	{r4, r7, lr}
     9aa:	b083      	sub	sp, #12
     9ac:	af00      	add	r7, sp, #0
     9ae:	0004      	movs	r4, r0
     9b0:	0008      	movs	r0, r1
     9b2:	0011      	movs	r1, r2
     9b4:	1dfb      	adds	r3, r7, #7
     9b6:	1c22      	adds	r2, r4, #0
     9b8:	701a      	strb	r2, [r3, #0]
     9ba:	1dbb      	adds	r3, r7, #6
     9bc:	1c02      	adds	r2, r0, #0
     9be:	701a      	strb	r2, [r3, #0]
     9c0:	1d7b      	adds	r3, r7, #5
     9c2:	1c0a      	adds	r2, r1, #0
     9c4:	701a      	strb	r2, [r3, #0]
     9c6:	4b08      	ldr	r3, [pc, #32]	; (9e8 <gfx_mono_framebuffer_put_byte+0x40>)
     9c8:	681a      	ldr	r2, [r3, #0]
     9ca:	1dfb      	adds	r3, r7, #7
     9cc:	781b      	ldrb	r3, [r3, #0]
     9ce:	01db      	lsls	r3, r3, #7
     9d0:	0019      	movs	r1, r3
     9d2:	1dbb      	adds	r3, r7, #6
     9d4:	781b      	ldrb	r3, [r3, #0]
     9d6:	18cb      	adds	r3, r1, r3
     9d8:	18d3      	adds	r3, r2, r3
     9da:	1d7a      	adds	r2, r7, #5
     9dc:	7812      	ldrb	r2, [r2, #0]
     9de:	701a      	strb	r2, [r3, #0]
     9e0:	46c0      	nop			; (mov r8, r8)
     9e2:	46bd      	mov	sp, r7
     9e4:	b003      	add	sp, #12
     9e6:	bd90      	pop	{r4, r7, pc}
     9e8:	2000087c 	.word	0x2000087c

000009ec <gfx_mono_framebuffer_get_byte>:
     9ec:	b580      	push	{r7, lr}
     9ee:	b082      	sub	sp, #8
     9f0:	af00      	add	r7, sp, #0
     9f2:	0002      	movs	r2, r0
     9f4:	1dfb      	adds	r3, r7, #7
     9f6:	701a      	strb	r2, [r3, #0]
     9f8:	1dbb      	adds	r3, r7, #6
     9fa:	1c0a      	adds	r2, r1, #0
     9fc:	701a      	strb	r2, [r3, #0]
     9fe:	4b07      	ldr	r3, [pc, #28]	; (a1c <gfx_mono_framebuffer_get_byte+0x30>)
     a00:	681a      	ldr	r2, [r3, #0]
     a02:	1dfb      	adds	r3, r7, #7
     a04:	781b      	ldrb	r3, [r3, #0]
     a06:	01db      	lsls	r3, r3, #7
     a08:	0019      	movs	r1, r3
     a0a:	1dbb      	adds	r3, r7, #6
     a0c:	781b      	ldrb	r3, [r3, #0]
     a0e:	18cb      	adds	r3, r1, r3
     a10:	18d3      	adds	r3, r2, r3
     a12:	781b      	ldrb	r3, [r3, #0]
     a14:	0018      	movs	r0, r3
     a16:	46bd      	mov	sp, r7
     a18:	b002      	add	sp, #8
     a1a:	bd80      	pop	{r7, pc}
     a1c:	2000087c 	.word	0x2000087c

00000a20 <gfx_mono_generic_draw_horizontal_line>:
     a20:	b5b0      	push	{r4, r5, r7, lr}
     a22:	b084      	sub	sp, #16
     a24:	af00      	add	r7, sp, #0
     a26:	0005      	movs	r5, r0
     a28:	000c      	movs	r4, r1
     a2a:	0010      	movs	r0, r2
     a2c:	0019      	movs	r1, r3
     a2e:	1dfb      	adds	r3, r7, #7
     a30:	1c2a      	adds	r2, r5, #0
     a32:	701a      	strb	r2, [r3, #0]
     a34:	1dbb      	adds	r3, r7, #6
     a36:	1c22      	adds	r2, r4, #0
     a38:	701a      	strb	r2, [r3, #0]
     a3a:	1d7b      	adds	r3, r7, #5
     a3c:	1c02      	adds	r2, r0, #0
     a3e:	701a      	strb	r2, [r3, #0]
     a40:	1d3b      	adds	r3, r7, #4
     a42:	1c0a      	adds	r2, r1, #0
     a44:	701a      	strb	r2, [r3, #0]
     a46:	1dfb      	adds	r3, r7, #7
     a48:	781a      	ldrb	r2, [r3, #0]
     a4a:	1d7b      	adds	r3, r7, #5
     a4c:	781b      	ldrb	r3, [r3, #0]
     a4e:	18d3      	adds	r3, r2, r3
     a50:	2b80      	cmp	r3, #128	; 0x80
     a52:	dd06      	ble.n	a62 <gfx_mono_generic_draw_horizontal_line+0x42>
     a54:	1d7b      	adds	r3, r7, #5
     a56:	1dfa      	adds	r2, r7, #7
     a58:	7812      	ldrb	r2, [r2, #0]
     a5a:	2180      	movs	r1, #128	; 0x80
     a5c:	4249      	negs	r1, r1
     a5e:	1a8a      	subs	r2, r1, r2
     a60:	701a      	strb	r2, [r3, #0]
     a62:	230f      	movs	r3, #15
     a64:	18fb      	adds	r3, r7, r3
     a66:	1dba      	adds	r2, r7, #6
     a68:	7812      	ldrb	r2, [r2, #0]
     a6a:	08d2      	lsrs	r2, r2, #3
     a6c:	701a      	strb	r2, [r3, #0]
     a6e:	1dbb      	adds	r3, r7, #6
     a70:	781a      	ldrb	r2, [r3, #0]
     a72:	230f      	movs	r3, #15
     a74:	18fb      	adds	r3, r7, r3
     a76:	781b      	ldrb	r3, [r3, #0]
     a78:	00db      	lsls	r3, r3, #3
     a7a:	1ad3      	subs	r3, r2, r3
     a7c:	2201      	movs	r2, #1
     a7e:	409a      	lsls	r2, r3
     a80:	230e      	movs	r3, #14
     a82:	18fb      	adds	r3, r7, r3
     a84:	701a      	strb	r2, [r3, #0]
     a86:	1d7b      	adds	r3, r7, #5
     a88:	781b      	ldrb	r3, [r3, #0]
     a8a:	2b00      	cmp	r3, #0
     a8c:	d100      	bne.n	a90 <gfx_mono_generic_draw_horizontal_line+0x70>
     a8e:	e0a4      	b.n	bda <gfx_mono_generic_draw_horizontal_line+0x1ba>
     a90:	1d3b      	adds	r3, r7, #4
     a92:	781b      	ldrb	r3, [r3, #0]
     a94:	2b01      	cmp	r3, #1
     a96:	d02f      	beq.n	af8 <gfx_mono_generic_draw_horizontal_line+0xd8>
     a98:	2b02      	cmp	r3, #2
     a9a:	d100      	bne.n	a9e <gfx_mono_generic_draw_horizontal_line+0x7e>
     a9c:	e095      	b.n	bca <gfx_mono_generic_draw_horizontal_line+0x1aa>
     a9e:	2b00      	cmp	r3, #0
     aa0:	d061      	beq.n	b66 <gfx_mono_generic_draw_horizontal_line+0x146>
     aa2:	e09b      	b.n	bdc <gfx_mono_generic_draw_horizontal_line+0x1bc>
     aa4:	1dfa      	adds	r2, r7, #7
     aa6:	1d7b      	adds	r3, r7, #5
     aa8:	7812      	ldrb	r2, [r2, #0]
     aaa:	781b      	ldrb	r3, [r3, #0]
     aac:	18d3      	adds	r3, r2, r3
     aae:	b2da      	uxtb	r2, r3
     ab0:	230d      	movs	r3, #13
     ab2:	18fc      	adds	r4, r7, r3
     ab4:	230f      	movs	r3, #15
     ab6:	18fb      	adds	r3, r7, r3
     ab8:	781b      	ldrb	r3, [r3, #0]
     aba:	0011      	movs	r1, r2
     abc:	0018      	movs	r0, r3
     abe:	4b49      	ldr	r3, [pc, #292]	; (be4 <gfx_mono_generic_draw_horizontal_line+0x1c4>)
     ac0:	4798      	blx	r3
     ac2:	0003      	movs	r3, r0
     ac4:	7023      	strb	r3, [r4, #0]
     ac6:	230d      	movs	r3, #13
     ac8:	18fb      	adds	r3, r7, r3
     aca:	220d      	movs	r2, #13
     acc:	18b9      	adds	r1, r7, r2
     ace:	220e      	movs	r2, #14
     ad0:	18ba      	adds	r2, r7, r2
     ad2:	7809      	ldrb	r1, [r1, #0]
     ad4:	7812      	ldrb	r2, [r2, #0]
     ad6:	430a      	orrs	r2, r1
     ad8:	701a      	strb	r2, [r3, #0]
     ada:	1dfa      	adds	r2, r7, #7
     adc:	1d7b      	adds	r3, r7, #5
     ade:	7812      	ldrb	r2, [r2, #0]
     ae0:	781b      	ldrb	r3, [r3, #0]
     ae2:	18d3      	adds	r3, r2, r3
     ae4:	b2d9      	uxtb	r1, r3
     ae6:	230d      	movs	r3, #13
     ae8:	18fb      	adds	r3, r7, r3
     aea:	781a      	ldrb	r2, [r3, #0]
     aec:	230f      	movs	r3, #15
     aee:	18fb      	adds	r3, r7, r3
     af0:	7818      	ldrb	r0, [r3, #0]
     af2:	2300      	movs	r3, #0
     af4:	4c3c      	ldr	r4, [pc, #240]	; (be8 <gfx_mono_generic_draw_horizontal_line+0x1c8>)
     af6:	47a0      	blx	r4
     af8:	1d7b      	adds	r3, r7, #5
     afa:	781b      	ldrb	r3, [r3, #0]
     afc:	1d7a      	adds	r2, r7, #5
     afe:	1e59      	subs	r1, r3, #1
     b00:	7011      	strb	r1, [r2, #0]
     b02:	2b00      	cmp	r3, #0
     b04:	d1ce      	bne.n	aa4 <gfx_mono_generic_draw_horizontal_line+0x84>
     b06:	e069      	b.n	bdc <gfx_mono_generic_draw_horizontal_line+0x1bc>
     b08:	1dfa      	adds	r2, r7, #7
     b0a:	1d7b      	adds	r3, r7, #5
     b0c:	7812      	ldrb	r2, [r2, #0]
     b0e:	781b      	ldrb	r3, [r3, #0]
     b10:	18d3      	adds	r3, r2, r3
     b12:	b2da      	uxtb	r2, r3
     b14:	230d      	movs	r3, #13
     b16:	18fc      	adds	r4, r7, r3
     b18:	230f      	movs	r3, #15
     b1a:	18fb      	adds	r3, r7, r3
     b1c:	781b      	ldrb	r3, [r3, #0]
     b1e:	0011      	movs	r1, r2
     b20:	0018      	movs	r0, r3
     b22:	4b30      	ldr	r3, [pc, #192]	; (be4 <gfx_mono_generic_draw_horizontal_line+0x1c4>)
     b24:	4798      	blx	r3
     b26:	0003      	movs	r3, r0
     b28:	7023      	strb	r3, [r4, #0]
     b2a:	230e      	movs	r3, #14
     b2c:	18fb      	adds	r3, r7, r3
     b2e:	781b      	ldrb	r3, [r3, #0]
     b30:	b25b      	sxtb	r3, r3
     b32:	43db      	mvns	r3, r3
     b34:	b25b      	sxtb	r3, r3
     b36:	220d      	movs	r2, #13
     b38:	18ba      	adds	r2, r7, r2
     b3a:	7812      	ldrb	r2, [r2, #0]
     b3c:	b252      	sxtb	r2, r2
     b3e:	4013      	ands	r3, r2
     b40:	b25a      	sxtb	r2, r3
     b42:	230d      	movs	r3, #13
     b44:	18fb      	adds	r3, r7, r3
     b46:	701a      	strb	r2, [r3, #0]
     b48:	1dfa      	adds	r2, r7, #7
     b4a:	1d7b      	adds	r3, r7, #5
     b4c:	7812      	ldrb	r2, [r2, #0]
     b4e:	781b      	ldrb	r3, [r3, #0]
     b50:	18d3      	adds	r3, r2, r3
     b52:	b2d9      	uxtb	r1, r3
     b54:	230d      	movs	r3, #13
     b56:	18fb      	adds	r3, r7, r3
     b58:	781a      	ldrb	r2, [r3, #0]
     b5a:	230f      	movs	r3, #15
     b5c:	18fb      	adds	r3, r7, r3
     b5e:	7818      	ldrb	r0, [r3, #0]
     b60:	2300      	movs	r3, #0
     b62:	4c21      	ldr	r4, [pc, #132]	; (be8 <gfx_mono_generic_draw_horizontal_line+0x1c8>)
     b64:	47a0      	blx	r4
     b66:	1d7b      	adds	r3, r7, #5
     b68:	781b      	ldrb	r3, [r3, #0]
     b6a:	1d7a      	adds	r2, r7, #5
     b6c:	1e59      	subs	r1, r3, #1
     b6e:	7011      	strb	r1, [r2, #0]
     b70:	2b00      	cmp	r3, #0
     b72:	d1c9      	bne.n	b08 <gfx_mono_generic_draw_horizontal_line+0xe8>
     b74:	e032      	b.n	bdc <gfx_mono_generic_draw_horizontal_line+0x1bc>
     b76:	1dfa      	adds	r2, r7, #7
     b78:	1d7b      	adds	r3, r7, #5
     b7a:	7812      	ldrb	r2, [r2, #0]
     b7c:	781b      	ldrb	r3, [r3, #0]
     b7e:	18d3      	adds	r3, r2, r3
     b80:	b2da      	uxtb	r2, r3
     b82:	230d      	movs	r3, #13
     b84:	18fc      	adds	r4, r7, r3
     b86:	230f      	movs	r3, #15
     b88:	18fb      	adds	r3, r7, r3
     b8a:	781b      	ldrb	r3, [r3, #0]
     b8c:	0011      	movs	r1, r2
     b8e:	0018      	movs	r0, r3
     b90:	4b14      	ldr	r3, [pc, #80]	; (be4 <gfx_mono_generic_draw_horizontal_line+0x1c4>)
     b92:	4798      	blx	r3
     b94:	0003      	movs	r3, r0
     b96:	7023      	strb	r3, [r4, #0]
     b98:	230d      	movs	r3, #13
     b9a:	18fb      	adds	r3, r7, r3
     b9c:	220d      	movs	r2, #13
     b9e:	18b9      	adds	r1, r7, r2
     ba0:	220e      	movs	r2, #14
     ba2:	18ba      	adds	r2, r7, r2
     ba4:	7809      	ldrb	r1, [r1, #0]
     ba6:	7812      	ldrb	r2, [r2, #0]
     ba8:	404a      	eors	r2, r1
     baa:	701a      	strb	r2, [r3, #0]
     bac:	1dfa      	adds	r2, r7, #7
     bae:	1d7b      	adds	r3, r7, #5
     bb0:	7812      	ldrb	r2, [r2, #0]
     bb2:	781b      	ldrb	r3, [r3, #0]
     bb4:	18d3      	adds	r3, r2, r3
     bb6:	b2d9      	uxtb	r1, r3
     bb8:	230d      	movs	r3, #13
     bba:	18fb      	adds	r3, r7, r3
     bbc:	781a      	ldrb	r2, [r3, #0]
     bbe:	230f      	movs	r3, #15
     bc0:	18fb      	adds	r3, r7, r3
     bc2:	7818      	ldrb	r0, [r3, #0]
     bc4:	2300      	movs	r3, #0
     bc6:	4c08      	ldr	r4, [pc, #32]	; (be8 <gfx_mono_generic_draw_horizontal_line+0x1c8>)
     bc8:	47a0      	blx	r4
     bca:	1d7b      	adds	r3, r7, #5
     bcc:	781b      	ldrb	r3, [r3, #0]
     bce:	1d7a      	adds	r2, r7, #5
     bd0:	1e59      	subs	r1, r3, #1
     bd2:	7011      	strb	r1, [r2, #0]
     bd4:	2b00      	cmp	r3, #0
     bd6:	d1ce      	bne.n	b76 <gfx_mono_generic_draw_horizontal_line+0x156>
     bd8:	e000      	b.n	bdc <gfx_mono_generic_draw_horizontal_line+0x1bc>
     bda:	46c0      	nop			; (mov r8, r8)
     bdc:	46bd      	mov	sp, r7
     bde:	b004      	add	sp, #16
     be0:	bdb0      	pop	{r4, r5, r7, pc}
     be2:	46c0      	nop			; (mov r8, r8)
     be4:	000012bd 	.word	0x000012bd
     be8:	00001225 	.word	0x00001225

00000bec <gfx_mono_generic_draw_filled_rect>:
     bec:	b5b0      	push	{r4, r5, r7, lr}
     bee:	b082      	sub	sp, #8
     bf0:	af00      	add	r7, sp, #0
     bf2:	0005      	movs	r5, r0
     bf4:	000c      	movs	r4, r1
     bf6:	0010      	movs	r0, r2
     bf8:	0019      	movs	r1, r3
     bfa:	1dfb      	adds	r3, r7, #7
     bfc:	1c2a      	adds	r2, r5, #0
     bfe:	701a      	strb	r2, [r3, #0]
     c00:	1dbb      	adds	r3, r7, #6
     c02:	1c22      	adds	r2, r4, #0
     c04:	701a      	strb	r2, [r3, #0]
     c06:	1d7b      	adds	r3, r7, #5
     c08:	1c02      	adds	r2, r0, #0
     c0a:	701a      	strb	r2, [r3, #0]
     c0c:	1d3b      	adds	r3, r7, #4
     c0e:	1c0a      	adds	r2, r1, #0
     c10:	701a      	strb	r2, [r3, #0]
     c12:	1d3b      	adds	r3, r7, #4
     c14:	781b      	ldrb	r3, [r3, #0]
     c16:	2b00      	cmp	r3, #0
     c18:	d018      	beq.n	c4c <gfx_mono_generic_draw_filled_rect+0x60>
     c1a:	e00f      	b.n	c3c <gfx_mono_generic_draw_filled_rect+0x50>
     c1c:	1dba      	adds	r2, r7, #6
     c1e:	1d3b      	adds	r3, r7, #4
     c20:	7812      	ldrb	r2, [r2, #0]
     c22:	781b      	ldrb	r3, [r3, #0]
     c24:	18d3      	adds	r3, r2, r3
     c26:	b2d9      	uxtb	r1, r3
     c28:	2318      	movs	r3, #24
     c2a:	18fb      	adds	r3, r7, r3
     c2c:	781c      	ldrb	r4, [r3, #0]
     c2e:	1d7b      	adds	r3, r7, #5
     c30:	781a      	ldrb	r2, [r3, #0]
     c32:	1dfb      	adds	r3, r7, #7
     c34:	7818      	ldrb	r0, [r3, #0]
     c36:	0023      	movs	r3, r4
     c38:	4c06      	ldr	r4, [pc, #24]	; (c54 <gfx_mono_generic_draw_filled_rect+0x68>)
     c3a:	47a0      	blx	r4
     c3c:	1d3b      	adds	r3, r7, #4
     c3e:	781b      	ldrb	r3, [r3, #0]
     c40:	1d3a      	adds	r2, r7, #4
     c42:	1e59      	subs	r1, r3, #1
     c44:	7011      	strb	r1, [r2, #0]
     c46:	2b00      	cmp	r3, #0
     c48:	d1e8      	bne.n	c1c <gfx_mono_generic_draw_filled_rect+0x30>
     c4a:	e000      	b.n	c4e <gfx_mono_generic_draw_filled_rect+0x62>
     c4c:	46c0      	nop			; (mov r8, r8)
     c4e:	46bd      	mov	sp, r7
     c50:	b002      	add	sp, #8
     c52:	bdb0      	pop	{r4, r5, r7, pc}
     c54:	00000a21 	.word	0x00000a21

00000c58 <gfx_mono_generic_put_bitmap>:
     c58:	b590      	push	{r4, r7, lr}
     c5a:	b085      	sub	sp, #20
     c5c:	af00      	add	r7, sp, #0
     c5e:	6078      	str	r0, [r7, #4]
     c60:	0008      	movs	r0, r1
     c62:	0011      	movs	r1, r2
     c64:	1cfb      	adds	r3, r7, #3
     c66:	1c02      	adds	r2, r0, #0
     c68:	701a      	strb	r2, [r3, #0]
     c6a:	1cbb      	adds	r3, r7, #2
     c6c:	1c0a      	adds	r2, r1, #0
     c6e:	701a      	strb	r2, [r3, #0]
     c70:	687b      	ldr	r3, [r7, #4]
     c72:	785a      	ldrb	r2, [r3, #1]
     c74:	230d      	movs	r3, #13
     c76:	18fb      	adds	r3, r7, r3
     c78:	08d2      	lsrs	r2, r2, #3
     c7a:	701a      	strb	r2, [r3, #0]
     c7c:	230c      	movs	r3, #12
     c7e:	18fb      	adds	r3, r7, r3
     c80:	1cba      	adds	r2, r7, #2
     c82:	7812      	ldrb	r2, [r2, #0]
     c84:	08d2      	lsrs	r2, r2, #3
     c86:	701a      	strb	r2, [r3, #0]
     c88:	687b      	ldr	r3, [r7, #4]
     c8a:	789b      	ldrb	r3, [r3, #2]
     c8c:	2b00      	cmp	r3, #0
     c8e:	d051      	beq.n	d34 <gfx_mono_generic_put_bitmap+0xdc>
     c90:	2b01      	cmp	r3, #1
     c92:	d000      	beq.n	c96 <gfx_mono_generic_put_bitmap+0x3e>
     c94:	e07b      	b.n	d8e <gfx_mono_generic_put_bitmap+0x136>
     c96:	230e      	movs	r3, #14
     c98:	18fb      	adds	r3, r7, r3
     c9a:	2200      	movs	r2, #0
     c9c:	701a      	strb	r2, [r3, #0]
     c9e:	e040      	b.n	d22 <gfx_mono_generic_put_bitmap+0xca>
     ca0:	230f      	movs	r3, #15
     ca2:	18fb      	adds	r3, r7, r3
     ca4:	2200      	movs	r2, #0
     ca6:	701a      	strb	r2, [r3, #0]
     ca8:	e02d      	b.n	d06 <gfx_mono_generic_put_bitmap+0xae>
     caa:	687b      	ldr	r3, [r7, #4]
     cac:	685a      	ldr	r2, [r3, #4]
     cae:	230e      	movs	r3, #14
     cb0:	18fb      	adds	r3, r7, r3
     cb2:	781b      	ldrb	r3, [r3, #0]
     cb4:	6879      	ldr	r1, [r7, #4]
     cb6:	7809      	ldrb	r1, [r1, #0]
     cb8:	434b      	muls	r3, r1
     cba:	0019      	movs	r1, r3
     cbc:	230f      	movs	r3, #15
     cbe:	18fb      	adds	r3, r7, r3
     cc0:	781b      	ldrb	r3, [r3, #0]
     cc2:	18cb      	adds	r3, r1, r3
     cc4:	18d2      	adds	r2, r2, r3
     cc6:	230b      	movs	r3, #11
     cc8:	18fb      	adds	r3, r7, r3
     cca:	7812      	ldrb	r2, [r2, #0]
     ccc:	701a      	strb	r2, [r3, #0]
     cce:	230e      	movs	r3, #14
     cd0:	18fa      	adds	r2, r7, r3
     cd2:	230c      	movs	r3, #12
     cd4:	18fb      	adds	r3, r7, r3
     cd6:	7812      	ldrb	r2, [r2, #0]
     cd8:	781b      	ldrb	r3, [r3, #0]
     cda:	18d3      	adds	r3, r2, r3
     cdc:	b2d8      	uxtb	r0, r3
     cde:	230f      	movs	r3, #15
     ce0:	18fa      	adds	r2, r7, r3
     ce2:	1cfb      	adds	r3, r7, #3
     ce4:	7812      	ldrb	r2, [r2, #0]
     ce6:	781b      	ldrb	r3, [r3, #0]
     ce8:	18d3      	adds	r3, r2, r3
     cea:	b2d9      	uxtb	r1, r3
     cec:	230b      	movs	r3, #11
     cee:	18fb      	adds	r3, r7, r3
     cf0:	781a      	ldrb	r2, [r3, #0]
     cf2:	2300      	movs	r3, #0
     cf4:	4c28      	ldr	r4, [pc, #160]	; (d98 <gfx_mono_generic_put_bitmap+0x140>)
     cf6:	47a0      	blx	r4
     cf8:	230f      	movs	r3, #15
     cfa:	18fb      	adds	r3, r7, r3
     cfc:	781a      	ldrb	r2, [r3, #0]
     cfe:	230f      	movs	r3, #15
     d00:	18fb      	adds	r3, r7, r3
     d02:	3201      	adds	r2, #1
     d04:	701a      	strb	r2, [r3, #0]
     d06:	687b      	ldr	r3, [r7, #4]
     d08:	781b      	ldrb	r3, [r3, #0]
     d0a:	220f      	movs	r2, #15
     d0c:	18ba      	adds	r2, r7, r2
     d0e:	7812      	ldrb	r2, [r2, #0]
     d10:	429a      	cmp	r2, r3
     d12:	d3ca      	bcc.n	caa <gfx_mono_generic_put_bitmap+0x52>
     d14:	230e      	movs	r3, #14
     d16:	18fb      	adds	r3, r7, r3
     d18:	781a      	ldrb	r2, [r3, #0]
     d1a:	230e      	movs	r3, #14
     d1c:	18fb      	adds	r3, r7, r3
     d1e:	3201      	adds	r2, #1
     d20:	701a      	strb	r2, [r3, #0]
     d22:	230e      	movs	r3, #14
     d24:	18fa      	adds	r2, r7, r3
     d26:	230d      	movs	r3, #13
     d28:	18fb      	adds	r3, r7, r3
     d2a:	7812      	ldrb	r2, [r2, #0]
     d2c:	781b      	ldrb	r3, [r3, #0]
     d2e:	429a      	cmp	r2, r3
     d30:	d3b6      	bcc.n	ca0 <gfx_mono_generic_put_bitmap+0x48>
     d32:	e02c      	b.n	d8e <gfx_mono_generic_put_bitmap+0x136>
     d34:	230e      	movs	r3, #14
     d36:	18fb      	adds	r3, r7, r3
     d38:	2200      	movs	r2, #0
     d3a:	701a      	strb	r2, [r3, #0]
     d3c:	e01e      	b.n	d7c <gfx_mono_generic_put_bitmap+0x124>
     d3e:	687b      	ldr	r3, [r7, #4]
     d40:	685b      	ldr	r3, [r3, #4]
     d42:	220e      	movs	r2, #14
     d44:	18ba      	adds	r2, r7, r2
     d46:	7812      	ldrb	r2, [r2, #0]
     d48:	6879      	ldr	r1, [r7, #4]
     d4a:	7809      	ldrb	r1, [r1, #0]
     d4c:	434a      	muls	r2, r1
     d4e:	1898      	adds	r0, r3, r2
     d50:	230c      	movs	r3, #12
     d52:	18fa      	adds	r2, r7, r3
     d54:	230e      	movs	r3, #14
     d56:	18fb      	adds	r3, r7, r3
     d58:	7812      	ldrb	r2, [r2, #0]
     d5a:	781b      	ldrb	r3, [r3, #0]
     d5c:	18d3      	adds	r3, r2, r3
     d5e:	b2d9      	uxtb	r1, r3
     d60:	687b      	ldr	r3, [r7, #4]
     d62:	781c      	ldrb	r4, [r3, #0]
     d64:	1cfb      	adds	r3, r7, #3
     d66:	781a      	ldrb	r2, [r3, #0]
     d68:	0023      	movs	r3, r4
     d6a:	4c0c      	ldr	r4, [pc, #48]	; (d9c <gfx_mono_generic_put_bitmap+0x144>)
     d6c:	47a0      	blx	r4
     d6e:	230e      	movs	r3, #14
     d70:	18fb      	adds	r3, r7, r3
     d72:	781a      	ldrb	r2, [r3, #0]
     d74:	230e      	movs	r3, #14
     d76:	18fb      	adds	r3, r7, r3
     d78:	3201      	adds	r2, #1
     d7a:	701a      	strb	r2, [r3, #0]
     d7c:	230e      	movs	r3, #14
     d7e:	18fa      	adds	r2, r7, r3
     d80:	230d      	movs	r3, #13
     d82:	18fb      	adds	r3, r7, r3
     d84:	7812      	ldrb	r2, [r2, #0]
     d86:	781b      	ldrb	r3, [r3, #0]
     d88:	429a      	cmp	r2, r3
     d8a:	d3d8      	bcc.n	d3e <gfx_mono_generic_put_bitmap+0xe6>
     d8c:	46c0      	nop			; (mov r8, r8)
     d8e:	46c0      	nop			; (mov r8, r8)
     d90:	46bd      	mov	sp, r7
     d92:	b005      	add	sp, #20
     d94:	bd90      	pop	{r4, r7, pc}
     d96:	46c0      	nop			; (mov r8, r8)
     d98:	00001225 	.word	0x00001225
     d9c:	000011a5 	.word	0x000011a5

00000da0 <gfx_mono_draw_char_progmem>:
     da0:	b590      	push	{r4, r7, lr}
     da2:	b087      	sub	sp, #28
     da4:	af00      	add	r7, sp, #0
     da6:	0004      	movs	r4, r0
     da8:	0008      	movs	r0, r1
     daa:	0011      	movs	r1, r2
     dac:	603b      	str	r3, [r7, #0]
     dae:	1dfb      	adds	r3, r7, #7
     db0:	1c22      	adds	r2, r4, #0
     db2:	701a      	strb	r2, [r3, #0]
     db4:	1dbb      	adds	r3, r7, #6
     db6:	1c02      	adds	r2, r0, #0
     db8:	701a      	strb	r2, [r3, #0]
     dba:	1d7b      	adds	r3, r7, #5
     dbc:	1c0a      	adds	r2, r1, #0
     dbe:	701a      	strb	r2, [r3, #0]
     dc0:	683b      	ldr	r3, [r7, #0]
     dc2:	2b00      	cmp	r3, #0
     dc4:	d100      	bne.n	dc8 <gfx_mono_draw_char_progmem+0x28>
     dc6:	e0a0      	b.n	f0a <gfx_mono_draw_char_progmem+0x16a>
     dc8:	2310      	movs	r3, #16
     dca:	18fb      	adds	r3, r7, r3
     dcc:	1dba      	adds	r2, r7, #6
     dce:	7812      	ldrb	r2, [r2, #0]
     dd0:	701a      	strb	r2, [r3, #0]
     dd2:	230f      	movs	r3, #15
     dd4:	18fb      	adds	r3, r7, r3
     dd6:	1d7a      	adds	r2, r7, #5
     dd8:	7812      	ldrb	r2, [r2, #0]
     dda:	701a      	strb	r2, [r3, #0]
     ddc:	683b      	ldr	r3, [r7, #0]
     dde:	7a1a      	ldrb	r2, [r3, #8]
     de0:	2313      	movs	r3, #19
     de2:	18fb      	adds	r3, r7, r3
     de4:	08d2      	lsrs	r2, r2, #3
     de6:	701a      	strb	r2, [r3, #0]
     de8:	683b      	ldr	r3, [r7, #0]
     dea:	7a1b      	ldrb	r3, [r3, #8]
     dec:	2207      	movs	r2, #7
     dee:	4013      	ands	r3, r2
     df0:	b2db      	uxtb	r3, r3
     df2:	2b00      	cmp	r3, #0
     df4:	d006      	beq.n	e04 <gfx_mono_draw_char_progmem+0x64>
     df6:	2313      	movs	r3, #19
     df8:	18fb      	adds	r3, r7, r3
     dfa:	781a      	ldrb	r2, [r3, #0]
     dfc:	2313      	movs	r3, #19
     dfe:	18fb      	adds	r3, r7, r3
     e00:	3201      	adds	r2, #1
     e02:	701a      	strb	r2, [r3, #0]
     e04:	2313      	movs	r3, #19
     e06:	18fb      	adds	r3, r7, r3
     e08:	781b      	ldrb	r3, [r3, #0]
     e0a:	b29b      	uxth	r3, r3
     e0c:	683a      	ldr	r2, [r7, #0]
     e0e:	7a52      	ldrb	r2, [r2, #9]
     e10:	b292      	uxth	r2, r2
     e12:	4353      	muls	r3, r2
     e14:	b29a      	uxth	r2, r3
     e16:	1dfb      	adds	r3, r7, #7
     e18:	781b      	ldrb	r3, [r3, #0]
     e1a:	6839      	ldr	r1, [r7, #0]
     e1c:	7a89      	ldrb	r1, [r1, #10]
     e1e:	1a5b      	subs	r3, r3, r1
     e20:	b299      	uxth	r1, r3
     e22:	230c      	movs	r3, #12
     e24:	18fb      	adds	r3, r7, r3
     e26:	434a      	muls	r2, r1
     e28:	801a      	strh	r2, [r3, #0]
     e2a:	683b      	ldr	r3, [r7, #0]
     e2c:	685a      	ldr	r2, [r3, #4]
     e2e:	230c      	movs	r3, #12
     e30:	18fb      	adds	r3, r7, r3
     e32:	881b      	ldrh	r3, [r3, #0]
     e34:	18d3      	adds	r3, r2, r3
     e36:	617b      	str	r3, [r7, #20]
     e38:	2312      	movs	r3, #18
     e3a:	18fb      	adds	r3, r7, r3
     e3c:	683a      	ldr	r2, [r7, #0]
     e3e:	7a52      	ldrb	r2, [r2, #9]
     e40:	701a      	strb	r2, [r3, #0]
     e42:	230e      	movs	r3, #14
     e44:	18fb      	adds	r3, r7, r3
     e46:	2200      	movs	r2, #0
     e48:	701a      	strb	r2, [r3, #0]
     e4a:	230b      	movs	r3, #11
     e4c:	18fb      	adds	r3, r7, r3
     e4e:	683a      	ldr	r2, [r7, #0]
     e50:	7a12      	ldrb	r2, [r2, #8]
     e52:	701a      	strb	r2, [r3, #0]
     e54:	2311      	movs	r3, #17
     e56:	18fb      	adds	r3, r7, r3
     e58:	2200      	movs	r2, #0
     e5a:	701a      	strb	r2, [r3, #0]
     e5c:	e034      	b.n	ec8 <gfx_mono_draw_char_progmem+0x128>
     e5e:	2311      	movs	r3, #17
     e60:	18fb      	adds	r3, r7, r3
     e62:	781b      	ldrb	r3, [r3, #0]
     e64:	2207      	movs	r2, #7
     e66:	4013      	ands	r3, r2
     e68:	b2db      	uxtb	r3, r3
     e6a:	2b00      	cmp	r3, #0
     e6c:	d107      	bne.n	e7e <gfx_mono_draw_char_progmem+0xde>
     e6e:	230e      	movs	r3, #14
     e70:	18fb      	adds	r3, r7, r3
     e72:	697a      	ldr	r2, [r7, #20]
     e74:	7812      	ldrb	r2, [r2, #0]
     e76:	701a      	strb	r2, [r3, #0]
     e78:	697b      	ldr	r3, [r7, #20]
     e7a:	3301      	adds	r3, #1
     e7c:	617b      	str	r3, [r7, #20]
     e7e:	230e      	movs	r3, #14
     e80:	18fb      	adds	r3, r7, r3
     e82:	781b      	ldrb	r3, [r3, #0]
     e84:	b25b      	sxtb	r3, r3
     e86:	2b00      	cmp	r3, #0
     e88:	da09      	bge.n	e9e <gfx_mono_draw_char_progmem+0xfe>
     e8a:	230f      	movs	r3, #15
     e8c:	18fb      	adds	r3, r7, r3
     e8e:	7819      	ldrb	r1, [r3, #0]
     e90:	2310      	movs	r3, #16
     e92:	18fb      	adds	r3, r7, r3
     e94:	781b      	ldrb	r3, [r3, #0]
     e96:	2201      	movs	r2, #1
     e98:	0018      	movs	r0, r3
     e9a:	4b1e      	ldr	r3, [pc, #120]	; (f14 <gfx_mono_draw_char_progmem+0x174>)
     e9c:	4798      	blx	r3
     e9e:	2310      	movs	r3, #16
     ea0:	18fb      	adds	r3, r7, r3
     ea2:	2210      	movs	r2, #16
     ea4:	18ba      	adds	r2, r7, r2
     ea6:	7812      	ldrb	r2, [r2, #0]
     ea8:	3201      	adds	r2, #1
     eaa:	701a      	strb	r2, [r3, #0]
     eac:	230e      	movs	r3, #14
     eae:	18fa      	adds	r2, r7, r3
     eb0:	230e      	movs	r3, #14
     eb2:	18fb      	adds	r3, r7, r3
     eb4:	781b      	ldrb	r3, [r3, #0]
     eb6:	18db      	adds	r3, r3, r3
     eb8:	7013      	strb	r3, [r2, #0]
     eba:	2311      	movs	r3, #17
     ebc:	18fb      	adds	r3, r7, r3
     ebe:	781a      	ldrb	r2, [r3, #0]
     ec0:	2311      	movs	r3, #17
     ec2:	18fb      	adds	r3, r7, r3
     ec4:	3201      	adds	r2, #1
     ec6:	701a      	strb	r2, [r3, #0]
     ec8:	2311      	movs	r3, #17
     eca:	18fa      	adds	r2, r7, r3
     ecc:	230b      	movs	r3, #11
     ece:	18fb      	adds	r3, r7, r3
     ed0:	7812      	ldrb	r2, [r2, #0]
     ed2:	781b      	ldrb	r3, [r3, #0]
     ed4:	429a      	cmp	r2, r3
     ed6:	d3c2      	bcc.n	e5e <gfx_mono_draw_char_progmem+0xbe>
     ed8:	230f      	movs	r3, #15
     eda:	18fb      	adds	r3, r7, r3
     edc:	220f      	movs	r2, #15
     ede:	18ba      	adds	r2, r7, r2
     ee0:	7812      	ldrb	r2, [r2, #0]
     ee2:	3201      	adds	r2, #1
     ee4:	701a      	strb	r2, [r3, #0]
     ee6:	2310      	movs	r3, #16
     ee8:	18fb      	adds	r3, r7, r3
     eea:	1dba      	adds	r2, r7, #6
     eec:	7812      	ldrb	r2, [r2, #0]
     eee:	701a      	strb	r2, [r3, #0]
     ef0:	2312      	movs	r3, #18
     ef2:	18fb      	adds	r3, r7, r3
     ef4:	781a      	ldrb	r2, [r3, #0]
     ef6:	2312      	movs	r3, #18
     ef8:	18fb      	adds	r3, r7, r3
     efa:	3a01      	subs	r2, #1
     efc:	701a      	strb	r2, [r3, #0]
     efe:	2312      	movs	r3, #18
     f00:	18fb      	adds	r3, r7, r3
     f02:	781b      	ldrb	r3, [r3, #0]
     f04:	2b00      	cmp	r3, #0
     f06:	d19c      	bne.n	e42 <gfx_mono_draw_char_progmem+0xa2>
     f08:	e000      	b.n	f0c <gfx_mono_draw_char_progmem+0x16c>
     f0a:	46c0      	nop			; (mov r8, r8)
     f0c:	46bd      	mov	sp, r7
     f0e:	b007      	add	sp, #28
     f10:	bd90      	pop	{r4, r7, pc}
     f12:	46c0      	nop			; (mov r8, r8)
     f14:	000010b1 	.word	0x000010b1

00000f18 <gfx_mono_draw_char>:
     f18:	b590      	push	{r4, r7, lr}
     f1a:	b085      	sub	sp, #20
     f1c:	af02      	add	r7, sp, #8
     f1e:	0004      	movs	r4, r0
     f20:	0008      	movs	r0, r1
     f22:	0011      	movs	r1, r2
     f24:	603b      	str	r3, [r7, #0]
     f26:	1dfb      	adds	r3, r7, #7
     f28:	1c22      	adds	r2, r4, #0
     f2a:	701a      	strb	r2, [r3, #0]
     f2c:	1dbb      	adds	r3, r7, #6
     f2e:	1c02      	adds	r2, r0, #0
     f30:	701a      	strb	r2, [r3, #0]
     f32:	1d7b      	adds	r3, r7, #5
     f34:	1c0a      	adds	r2, r1, #0
     f36:	701a      	strb	r2, [r3, #0]
     f38:	683b      	ldr	r3, [r7, #0]
     f3a:	7a1a      	ldrb	r2, [r3, #8]
     f3c:	683b      	ldr	r3, [r7, #0]
     f3e:	7a5c      	ldrb	r4, [r3, #9]
     f40:	1d7b      	adds	r3, r7, #5
     f42:	7819      	ldrb	r1, [r3, #0]
     f44:	1dbb      	adds	r3, r7, #6
     f46:	7818      	ldrb	r0, [r3, #0]
     f48:	2300      	movs	r3, #0
     f4a:	9300      	str	r3, [sp, #0]
     f4c:	0023      	movs	r3, r4
     f4e:	4c0a      	ldr	r4, [pc, #40]	; (f78 <gfx_mono_draw_char+0x60>)
     f50:	47a0      	blx	r4
     f52:	683b      	ldr	r3, [r7, #0]
     f54:	781b      	ldrb	r3, [r3, #0]
     f56:	2b00      	cmp	r3, #0
     f58:	d000      	beq.n	f5c <gfx_mono_draw_char+0x44>
     f5a:	e00a      	b.n	f72 <gfx_mono_draw_char+0x5a>
     f5c:	683c      	ldr	r4, [r7, #0]
     f5e:	1d7b      	adds	r3, r7, #5
     f60:	781a      	ldrb	r2, [r3, #0]
     f62:	1dbb      	adds	r3, r7, #6
     f64:	7819      	ldrb	r1, [r3, #0]
     f66:	1dfb      	adds	r3, r7, #7
     f68:	7818      	ldrb	r0, [r3, #0]
     f6a:	0023      	movs	r3, r4
     f6c:	4c03      	ldr	r4, [pc, #12]	; (f7c <gfx_mono_draw_char+0x64>)
     f6e:	47a0      	blx	r4
     f70:	46c0      	nop			; (mov r8, r8)
     f72:	46bd      	mov	sp, r7
     f74:	b003      	add	sp, #12
     f76:	bd90      	pop	{r4, r7, pc}
     f78:	00000bed 	.word	0x00000bed
     f7c:	00000da1 	.word	0x00000da1

00000f80 <gfx_mono_draw_string>:
     f80:	b590      	push	{r4, r7, lr}
     f82:	b087      	sub	sp, #28
     f84:	af00      	add	r7, sp, #0
     f86:	60f8      	str	r0, [r7, #12]
     f88:	0008      	movs	r0, r1
     f8a:	0011      	movs	r1, r2
     f8c:	607b      	str	r3, [r7, #4]
     f8e:	230b      	movs	r3, #11
     f90:	18fb      	adds	r3, r7, r3
     f92:	1c02      	adds	r2, r0, #0
     f94:	701a      	strb	r2, [r3, #0]
     f96:	230a      	movs	r3, #10
     f98:	18fb      	adds	r3, r7, r3
     f9a:	1c0a      	adds	r2, r1, #0
     f9c:	701a      	strb	r2, [r3, #0]
     f9e:	2317      	movs	r3, #23
     fa0:	18fb      	adds	r3, r7, r3
     fa2:	220b      	movs	r2, #11
     fa4:	18ba      	adds	r2, r7, r2
     fa6:	7812      	ldrb	r2, [r2, #0]
     fa8:	701a      	strb	r2, [r3, #0]
     faa:	68fb      	ldr	r3, [r7, #12]
     fac:	2b00      	cmp	r3, #0
     fae:	d039      	beq.n	1024 <gfx_mono_draw_string+0xa4>
     fb0:	687b      	ldr	r3, [r7, #4]
     fb2:	2b00      	cmp	r3, #0
     fb4:	d038      	beq.n	1028 <gfx_mono_draw_string+0xa8>
     fb6:	68fb      	ldr	r3, [r7, #12]
     fb8:	781b      	ldrb	r3, [r3, #0]
     fba:	2b0a      	cmp	r3, #10
     fbc:	d111      	bne.n	fe2 <gfx_mono_draw_string+0x62>
     fbe:	230b      	movs	r3, #11
     fc0:	18fb      	adds	r3, r7, r3
     fc2:	2217      	movs	r2, #23
     fc4:	18ba      	adds	r2, r7, r2
     fc6:	7812      	ldrb	r2, [r2, #0]
     fc8:	701a      	strb	r2, [r3, #0]
     fca:	687b      	ldr	r3, [r7, #4]
     fcc:	7a5a      	ldrb	r2, [r3, #9]
     fce:	230a      	movs	r3, #10
     fd0:	18fb      	adds	r3, r7, r3
     fd2:	781b      	ldrb	r3, [r3, #0]
     fd4:	18d3      	adds	r3, r2, r3
     fd6:	b2da      	uxtb	r2, r3
     fd8:	230a      	movs	r3, #10
     fda:	18fb      	adds	r3, r7, r3
     fdc:	3201      	adds	r2, #1
     fde:	701a      	strb	r2, [r3, #0]
     fe0:	e018      	b.n	1014 <gfx_mono_draw_string+0x94>
     fe2:	68fb      	ldr	r3, [r7, #12]
     fe4:	781b      	ldrb	r3, [r3, #0]
     fe6:	2b0d      	cmp	r3, #13
     fe8:	d014      	beq.n	1014 <gfx_mono_draw_string+0x94>
     fea:	68fb      	ldr	r3, [r7, #12]
     fec:	7818      	ldrb	r0, [r3, #0]
     fee:	687c      	ldr	r4, [r7, #4]
     ff0:	230a      	movs	r3, #10
     ff2:	18fb      	adds	r3, r7, r3
     ff4:	781a      	ldrb	r2, [r3, #0]
     ff6:	230b      	movs	r3, #11
     ff8:	18fb      	adds	r3, r7, r3
     ffa:	7819      	ldrb	r1, [r3, #0]
     ffc:	0023      	movs	r3, r4
     ffe:	4c0c      	ldr	r4, [pc, #48]	; (1030 <gfx_mono_draw_string+0xb0>)
    1000:	47a0      	blx	r4
    1002:	687b      	ldr	r3, [r7, #4]
    1004:	7a19      	ldrb	r1, [r3, #8]
    1006:	230b      	movs	r3, #11
    1008:	18fb      	adds	r3, r7, r3
    100a:	220b      	movs	r2, #11
    100c:	18ba      	adds	r2, r7, r2
    100e:	7812      	ldrb	r2, [r2, #0]
    1010:	188a      	adds	r2, r1, r2
    1012:	701a      	strb	r2, [r3, #0]
    1014:	68fb      	ldr	r3, [r7, #12]
    1016:	3301      	adds	r3, #1
    1018:	60fb      	str	r3, [r7, #12]
    101a:	68fb      	ldr	r3, [r7, #12]
    101c:	781b      	ldrb	r3, [r3, #0]
    101e:	2b00      	cmp	r3, #0
    1020:	d1c9      	bne.n	fb6 <gfx_mono_draw_string+0x36>
    1022:	e002      	b.n	102a <gfx_mono_draw_string+0xaa>
    1024:	46c0      	nop			; (mov r8, r8)
    1026:	e000      	b.n	102a <gfx_mono_draw_string+0xaa>
    1028:	46c0      	nop			; (mov r8, r8)
    102a:	46bd      	mov	sp, r7
    102c:	b007      	add	sp, #28
    102e:	bd90      	pop	{r4, r7, pc}
    1030:	00000f19 	.word	0x00000f19

00001034 <gfx_mono_ssd1306_init>:
    1034:	b590      	push	{r4, r7, lr}
    1036:	b083      	sub	sp, #12
    1038:	af00      	add	r7, sp, #0
    103a:	4b18      	ldr	r3, [pc, #96]	; (109c <gfx_mono_ssd1306_init+0x68>)
    103c:	0018      	movs	r0, r3
    103e:	4b18      	ldr	r3, [pc, #96]	; (10a0 <gfx_mono_ssd1306_init+0x6c>)
    1040:	4798      	blx	r3
    1042:	4b18      	ldr	r3, [pc, #96]	; (10a4 <gfx_mono_ssd1306_init+0x70>)
    1044:	4798      	blx	r3
    1046:	2000      	movs	r0, #0
    1048:	4b17      	ldr	r3, [pc, #92]	; (10a8 <gfx_mono_ssd1306_init+0x74>)
    104a:	4798      	blx	r3
    104c:	1dfb      	adds	r3, r7, #7
    104e:	2200      	movs	r2, #0
    1050:	701a      	strb	r2, [r3, #0]
    1052:	e01a      	b.n	108a <gfx_mono_ssd1306_init+0x56>
    1054:	1dbb      	adds	r3, r7, #6
    1056:	2200      	movs	r2, #0
    1058:	701a      	strb	r2, [r3, #0]
    105a:	e00c      	b.n	1076 <gfx_mono_ssd1306_init+0x42>
    105c:	1dbb      	adds	r3, r7, #6
    105e:	7819      	ldrb	r1, [r3, #0]
    1060:	1dfb      	adds	r3, r7, #7
    1062:	7818      	ldrb	r0, [r3, #0]
    1064:	2301      	movs	r3, #1
    1066:	2200      	movs	r2, #0
    1068:	4c10      	ldr	r4, [pc, #64]	; (10ac <gfx_mono_ssd1306_init+0x78>)
    106a:	47a0      	blx	r4
    106c:	1dbb      	adds	r3, r7, #6
    106e:	781a      	ldrb	r2, [r3, #0]
    1070:	1dbb      	adds	r3, r7, #6
    1072:	3201      	adds	r2, #1
    1074:	701a      	strb	r2, [r3, #0]
    1076:	1dbb      	adds	r3, r7, #6
    1078:	781b      	ldrb	r3, [r3, #0]
    107a:	b25b      	sxtb	r3, r3
    107c:	2b00      	cmp	r3, #0
    107e:	daed      	bge.n	105c <gfx_mono_ssd1306_init+0x28>
    1080:	1dfb      	adds	r3, r7, #7
    1082:	781a      	ldrb	r2, [r3, #0]
    1084:	1dfb      	adds	r3, r7, #7
    1086:	3201      	adds	r2, #1
    1088:	701a      	strb	r2, [r3, #0]
    108a:	1dfb      	adds	r3, r7, #7
    108c:	781b      	ldrb	r3, [r3, #0]
    108e:	2b03      	cmp	r3, #3
    1090:	d9e0      	bls.n	1054 <gfx_mono_ssd1306_init+0x20>
    1092:	46c0      	nop			; (mov r8, r8)
    1094:	46bd      	mov	sp, r7
    1096:	b003      	add	sp, #12
    1098:	bd90      	pop	{r4, r7, pc}
    109a:	46c0      	nop			; (mov r8, r8)
    109c:	20000880 	.word	0x20000880
    10a0:	00000925 	.word	0x00000925
    10a4:	0000086d 	.word	0x0000086d
    10a8:	00000499 	.word	0x00000499
    10ac:	00001225 	.word	0x00001225

000010b0 <gfx_mono_ssd1306_draw_pixel>:
    10b0:	b590      	push	{r4, r7, lr}
    10b2:	b085      	sub	sp, #20
    10b4:	af00      	add	r7, sp, #0
    10b6:	0004      	movs	r4, r0
    10b8:	0008      	movs	r0, r1
    10ba:	0011      	movs	r1, r2
    10bc:	1dfb      	adds	r3, r7, #7
    10be:	1c22      	adds	r2, r4, #0
    10c0:	701a      	strb	r2, [r3, #0]
    10c2:	1dbb      	adds	r3, r7, #6
    10c4:	1c02      	adds	r2, r0, #0
    10c6:	701a      	strb	r2, [r3, #0]
    10c8:	1d7b      	adds	r3, r7, #5
    10ca:	1c0a      	adds	r2, r1, #0
    10cc:	701a      	strb	r2, [r3, #0]
    10ce:	1dfb      	adds	r3, r7, #7
    10d0:	781b      	ldrb	r3, [r3, #0]
    10d2:	b25b      	sxtb	r3, r3
    10d4:	2b00      	cmp	r3, #0
    10d6:	db5d      	blt.n	1194 <gfx_mono_ssd1306_draw_pixel+0xe4>
    10d8:	1dbb      	adds	r3, r7, #6
    10da:	781b      	ldrb	r3, [r3, #0]
    10dc:	2b1f      	cmp	r3, #31
    10de:	d859      	bhi.n	1194 <gfx_mono_ssd1306_draw_pixel+0xe4>
    10e0:	230e      	movs	r3, #14
    10e2:	18fb      	adds	r3, r7, r3
    10e4:	1dba      	adds	r2, r7, #6
    10e6:	7812      	ldrb	r2, [r2, #0]
    10e8:	08d2      	lsrs	r2, r2, #3
    10ea:	701a      	strb	r2, [r3, #0]
    10ec:	1dbb      	adds	r3, r7, #6
    10ee:	781a      	ldrb	r2, [r3, #0]
    10f0:	230e      	movs	r3, #14
    10f2:	18fb      	adds	r3, r7, r3
    10f4:	781b      	ldrb	r3, [r3, #0]
    10f6:	00db      	lsls	r3, r3, #3
    10f8:	1ad3      	subs	r3, r2, r3
    10fa:	2201      	movs	r2, #1
    10fc:	409a      	lsls	r2, r3
    10fe:	230d      	movs	r3, #13
    1100:	18fb      	adds	r3, r7, r3
    1102:	701a      	strb	r2, [r3, #0]
    1104:	230f      	movs	r3, #15
    1106:	18fc      	adds	r4, r7, r3
    1108:	1dfb      	adds	r3, r7, #7
    110a:	781a      	ldrb	r2, [r3, #0]
    110c:	230e      	movs	r3, #14
    110e:	18fb      	adds	r3, r7, r3
    1110:	781b      	ldrb	r3, [r3, #0]
    1112:	0011      	movs	r1, r2
    1114:	0018      	movs	r0, r3
    1116:	4b21      	ldr	r3, [pc, #132]	; (119c <gfx_mono_ssd1306_draw_pixel+0xec>)
    1118:	4798      	blx	r3
    111a:	0003      	movs	r3, r0
    111c:	7023      	strb	r3, [r4, #0]
    111e:	1d7b      	adds	r3, r7, #5
    1120:	781b      	ldrb	r3, [r3, #0]
    1122:	2b01      	cmp	r3, #1
    1124:	d004      	beq.n	1130 <gfx_mono_ssd1306_draw_pixel+0x80>
    1126:	2b02      	cmp	r3, #2
    1128:	d01d      	beq.n	1166 <gfx_mono_ssd1306_draw_pixel+0xb6>
    112a:	2b00      	cmp	r3, #0
    112c:	d00b      	beq.n	1146 <gfx_mono_ssd1306_draw_pixel+0x96>
    112e:	e025      	b.n	117c <gfx_mono_ssd1306_draw_pixel+0xcc>
    1130:	230f      	movs	r3, #15
    1132:	18fb      	adds	r3, r7, r3
    1134:	220f      	movs	r2, #15
    1136:	18b9      	adds	r1, r7, r2
    1138:	220d      	movs	r2, #13
    113a:	18ba      	adds	r2, r7, r2
    113c:	7809      	ldrb	r1, [r1, #0]
    113e:	7812      	ldrb	r2, [r2, #0]
    1140:	430a      	orrs	r2, r1
    1142:	701a      	strb	r2, [r3, #0]
    1144:	e01a      	b.n	117c <gfx_mono_ssd1306_draw_pixel+0xcc>
    1146:	230d      	movs	r3, #13
    1148:	18fb      	adds	r3, r7, r3
    114a:	781b      	ldrb	r3, [r3, #0]
    114c:	b25b      	sxtb	r3, r3
    114e:	43db      	mvns	r3, r3
    1150:	b25b      	sxtb	r3, r3
    1152:	220f      	movs	r2, #15
    1154:	18ba      	adds	r2, r7, r2
    1156:	7812      	ldrb	r2, [r2, #0]
    1158:	b252      	sxtb	r2, r2
    115a:	4013      	ands	r3, r2
    115c:	b25a      	sxtb	r2, r3
    115e:	230f      	movs	r3, #15
    1160:	18fb      	adds	r3, r7, r3
    1162:	701a      	strb	r2, [r3, #0]
    1164:	e00a      	b.n	117c <gfx_mono_ssd1306_draw_pixel+0xcc>
    1166:	230f      	movs	r3, #15
    1168:	18fb      	adds	r3, r7, r3
    116a:	220f      	movs	r2, #15
    116c:	18b9      	adds	r1, r7, r2
    116e:	220d      	movs	r2, #13
    1170:	18ba      	adds	r2, r7, r2
    1172:	7809      	ldrb	r1, [r1, #0]
    1174:	7812      	ldrb	r2, [r2, #0]
    1176:	404a      	eors	r2, r1
    1178:	701a      	strb	r2, [r3, #0]
    117a:	46c0      	nop			; (mov r8, r8)
    117c:	230f      	movs	r3, #15
    117e:	18fb      	adds	r3, r7, r3
    1180:	781a      	ldrb	r2, [r3, #0]
    1182:	1dfb      	adds	r3, r7, #7
    1184:	7819      	ldrb	r1, [r3, #0]
    1186:	230e      	movs	r3, #14
    1188:	18fb      	adds	r3, r7, r3
    118a:	7818      	ldrb	r0, [r3, #0]
    118c:	2300      	movs	r3, #0
    118e:	4c04      	ldr	r4, [pc, #16]	; (11a0 <gfx_mono_ssd1306_draw_pixel+0xf0>)
    1190:	47a0      	blx	r4
    1192:	e000      	b.n	1196 <gfx_mono_ssd1306_draw_pixel+0xe6>
    1194:	46c0      	nop			; (mov r8, r8)
    1196:	46bd      	mov	sp, r7
    1198:	b005      	add	sp, #20
    119a:	bd90      	pop	{r4, r7, pc}
    119c:	000012bd 	.word	0x000012bd
    11a0:	00001225 	.word	0x00001225

000011a4 <gfx_mono_ssd1306_put_page>:
    11a4:	b590      	push	{r4, r7, lr}
    11a6:	b083      	sub	sp, #12
    11a8:	af00      	add	r7, sp, #0
    11aa:	6078      	str	r0, [r7, #4]
    11ac:	000c      	movs	r4, r1
    11ae:	0010      	movs	r0, r2
    11b0:	0019      	movs	r1, r3
    11b2:	1cfb      	adds	r3, r7, #3
    11b4:	1c22      	adds	r2, r4, #0
    11b6:	701a      	strb	r2, [r3, #0]
    11b8:	1cbb      	adds	r3, r7, #2
    11ba:	1c02      	adds	r2, r0, #0
    11bc:	701a      	strb	r2, [r3, #0]
    11be:	1c7b      	adds	r3, r7, #1
    11c0:	1c0a      	adds	r2, r1, #0
    11c2:	701a      	strb	r2, [r3, #0]
    11c4:	1c7b      	adds	r3, r7, #1
    11c6:	781c      	ldrb	r4, [r3, #0]
    11c8:	1cbb      	adds	r3, r7, #2
    11ca:	781a      	ldrb	r2, [r3, #0]
    11cc:	1cfb      	adds	r3, r7, #3
    11ce:	7819      	ldrb	r1, [r3, #0]
    11d0:	6878      	ldr	r0, [r7, #4]
    11d2:	0023      	movs	r3, r4
    11d4:	4c0f      	ldr	r4, [pc, #60]	; (1214 <gfx_mono_ssd1306_put_page+0x70>)
    11d6:	47a0      	blx	r4
    11d8:	1cfb      	adds	r3, r7, #3
    11da:	781b      	ldrb	r3, [r3, #0]
    11dc:	0018      	movs	r0, r3
    11de:	4b0e      	ldr	r3, [pc, #56]	; (1218 <gfx_mono_ssd1306_put_page+0x74>)
    11e0:	4798      	blx	r3
    11e2:	1cbb      	adds	r3, r7, #2
    11e4:	781b      	ldrb	r3, [r3, #0]
    11e6:	0018      	movs	r0, r3
    11e8:	4b0c      	ldr	r3, [pc, #48]	; (121c <gfx_mono_ssd1306_put_page+0x78>)
    11ea:	4798      	blx	r3
    11ec:	687b      	ldr	r3, [r7, #4]
    11ee:	1c5a      	adds	r2, r3, #1
    11f0:	607a      	str	r2, [r7, #4]
    11f2:	781b      	ldrb	r3, [r3, #0]
    11f4:	0018      	movs	r0, r3
    11f6:	4b0a      	ldr	r3, [pc, #40]	; (1220 <gfx_mono_ssd1306_put_page+0x7c>)
    11f8:	4798      	blx	r3
    11fa:	1c7b      	adds	r3, r7, #1
    11fc:	1c7a      	adds	r2, r7, #1
    11fe:	7812      	ldrb	r2, [r2, #0]
    1200:	3a01      	subs	r2, #1
    1202:	701a      	strb	r2, [r3, #0]
    1204:	1c7b      	adds	r3, r7, #1
    1206:	781b      	ldrb	r3, [r3, #0]
    1208:	2b00      	cmp	r3, #0
    120a:	d1ef      	bne.n	11ec <gfx_mono_ssd1306_put_page+0x48>
    120c:	46c0      	nop			; (mov r8, r8)
    120e:	46bd      	mov	sp, r7
    1210:	b003      	add	sp, #12
    1212:	bd90      	pop	{r4, r7, pc}
    1214:	00000941 	.word	0x00000941
    1218:	00000419 	.word	0x00000419
    121c:	00000451 	.word	0x00000451
    1220:	0000082d 	.word	0x0000082d

00001224 <gfx_mono_ssd1306_put_byte>:
    1224:	b5b0      	push	{r4, r5, r7, lr}
    1226:	b082      	sub	sp, #8
    1228:	af00      	add	r7, sp, #0
    122a:	0005      	movs	r5, r0
    122c:	000c      	movs	r4, r1
    122e:	0010      	movs	r0, r2
    1230:	0019      	movs	r1, r3
    1232:	1dfb      	adds	r3, r7, #7
    1234:	1c2a      	adds	r2, r5, #0
    1236:	701a      	strb	r2, [r3, #0]
    1238:	1dbb      	adds	r3, r7, #6
    123a:	1c22      	adds	r2, r4, #0
    123c:	701a      	strb	r2, [r3, #0]
    123e:	1d7b      	adds	r3, r7, #5
    1240:	1c02      	adds	r2, r0, #0
    1242:	701a      	strb	r2, [r3, #0]
    1244:	1d3b      	adds	r3, r7, #4
    1246:	1c0a      	adds	r2, r1, #0
    1248:	701a      	strb	r2, [r3, #0]
    124a:	1d3b      	adds	r3, r7, #4
    124c:	781b      	ldrb	r3, [r3, #0]
    124e:	2b00      	cmp	r3, #0
    1250:	d10d      	bne.n	126e <gfx_mono_ssd1306_put_byte+0x4a>
    1252:	1dbb      	adds	r3, r7, #6
    1254:	781a      	ldrb	r2, [r3, #0]
    1256:	1dfb      	adds	r3, r7, #7
    1258:	781b      	ldrb	r3, [r3, #0]
    125a:	0011      	movs	r1, r2
    125c:	0018      	movs	r0, r3
    125e:	4b12      	ldr	r3, [pc, #72]	; (12a8 <gfx_mono_ssd1306_put_byte+0x84>)
    1260:	4798      	blx	r3
    1262:	0003      	movs	r3, r0
    1264:	001a      	movs	r2, r3
    1266:	1d7b      	adds	r3, r7, #5
    1268:	781b      	ldrb	r3, [r3, #0]
    126a:	4293      	cmp	r3, r2
    126c:	d018      	beq.n	12a0 <gfx_mono_ssd1306_put_byte+0x7c>
    126e:	1d7b      	adds	r3, r7, #5
    1270:	781a      	ldrb	r2, [r3, #0]
    1272:	1dbb      	adds	r3, r7, #6
    1274:	7819      	ldrb	r1, [r3, #0]
    1276:	1dfb      	adds	r3, r7, #7
    1278:	781b      	ldrb	r3, [r3, #0]
    127a:	0018      	movs	r0, r3
    127c:	4b0b      	ldr	r3, [pc, #44]	; (12ac <gfx_mono_ssd1306_put_byte+0x88>)
    127e:	4798      	blx	r3
    1280:	1dfb      	adds	r3, r7, #7
    1282:	781b      	ldrb	r3, [r3, #0]
    1284:	0018      	movs	r0, r3
    1286:	4b0a      	ldr	r3, [pc, #40]	; (12b0 <gfx_mono_ssd1306_put_byte+0x8c>)
    1288:	4798      	blx	r3
    128a:	1dbb      	adds	r3, r7, #6
    128c:	781b      	ldrb	r3, [r3, #0]
    128e:	0018      	movs	r0, r3
    1290:	4b08      	ldr	r3, [pc, #32]	; (12b4 <gfx_mono_ssd1306_put_byte+0x90>)
    1292:	4798      	blx	r3
    1294:	1d7b      	adds	r3, r7, #5
    1296:	781b      	ldrb	r3, [r3, #0]
    1298:	0018      	movs	r0, r3
    129a:	4b07      	ldr	r3, [pc, #28]	; (12b8 <gfx_mono_ssd1306_put_byte+0x94>)
    129c:	4798      	blx	r3
    129e:	e000      	b.n	12a2 <gfx_mono_ssd1306_put_byte+0x7e>
    12a0:	46c0      	nop			; (mov r8, r8)
    12a2:	46bd      	mov	sp, r7
    12a4:	b002      	add	sp, #8
    12a6:	bdb0      	pop	{r4, r5, r7, pc}
    12a8:	000009ed 	.word	0x000009ed
    12ac:	000009a9 	.word	0x000009a9
    12b0:	00000419 	.word	0x00000419
    12b4:	00000451 	.word	0x00000451
    12b8:	0000082d 	.word	0x0000082d

000012bc <gfx_mono_ssd1306_get_byte>:
    12bc:	b580      	push	{r7, lr}
    12be:	b082      	sub	sp, #8
    12c0:	af00      	add	r7, sp, #0
    12c2:	0002      	movs	r2, r0
    12c4:	1dfb      	adds	r3, r7, #7
    12c6:	701a      	strb	r2, [r3, #0]
    12c8:	1dbb      	adds	r3, r7, #6
    12ca:	1c0a      	adds	r2, r1, #0
    12cc:	701a      	strb	r2, [r3, #0]
    12ce:	1dbb      	adds	r3, r7, #6
    12d0:	781a      	ldrb	r2, [r3, #0]
    12d2:	1dfb      	adds	r3, r7, #7
    12d4:	781b      	ldrb	r3, [r3, #0]
    12d6:	0011      	movs	r1, r2
    12d8:	0018      	movs	r0, r3
    12da:	4b03      	ldr	r3, [pc, #12]	; (12e8 <gfx_mono_ssd1306_get_byte+0x2c>)
    12dc:	4798      	blx	r3
    12de:	0003      	movs	r3, r0
    12e0:	0018      	movs	r0, r3
    12e2:	46bd      	mov	sp, r7
    12e4:	b002      	add	sp, #8
    12e6:	bd80      	pop	{r7, pc}
    12e8:	000009ed 	.word	0x000009ed

000012ec <pinMode>:
    12ec:	b590      	push	{r4, r7, lr}
    12ee:	b083      	sub	sp, #12
    12f0:	af00      	add	r7, sp, #0
    12f2:	0004      	movs	r4, r0
    12f4:	0008      	movs	r0, r1
    12f6:	0011      	movs	r1, r2
    12f8:	1dfb      	adds	r3, r7, #7
    12fa:	1c22      	adds	r2, r4, #0
    12fc:	701a      	strb	r2, [r3, #0]
    12fe:	1dbb      	adds	r3, r7, #6
    1300:	1c02      	adds	r2, r0, #0
    1302:	701a      	strb	r2, [r3, #0]
    1304:	1d7b      	adds	r3, r7, #5
    1306:	1c0a      	adds	r2, r1, #0
    1308:	701a      	strb	r2, [r3, #0]
    130a:	1dfb      	adds	r3, r7, #7
    130c:	781b      	ldrb	r3, [r3, #0]
    130e:	2b01      	cmp	r3, #1
    1310:	d900      	bls.n	1314 <pinMode+0x28>
    1312:	e0af      	b.n	1474 <pinMode+0x188>
    1314:	1dbb      	adds	r3, r7, #6
    1316:	781b      	ldrb	r3, [r3, #0]
    1318:	2b1f      	cmp	r3, #31
    131a:	d900      	bls.n	131e <pinMode+0x32>
    131c:	e0ac      	b.n	1478 <pinMode+0x18c>
    131e:	1d7b      	adds	r3, r7, #5
    1320:	781b      	ldrb	r3, [r3, #0]
    1322:	2b04      	cmp	r3, #4
    1324:	d900      	bls.n	1328 <pinMode+0x3c>
    1326:	e0a9      	b.n	147c <pinMode+0x190>
    1328:	009a      	lsls	r2, r3, #2
    132a:	4b56      	ldr	r3, [pc, #344]	; (1484 <pinMode+0x198>)
    132c:	18d3      	adds	r3, r2, r3
    132e:	681b      	ldr	r3, [r3, #0]
    1330:	469f      	mov	pc, r3
    1332:	4955      	ldr	r1, [pc, #340]	; (1488 <pinMode+0x19c>)
    1334:	1dfb      	adds	r3, r7, #7
    1336:	781b      	ldrb	r3, [r3, #0]
    1338:	1dba      	adds	r2, r7, #6
    133a:	7812      	ldrb	r2, [r2, #0]
    133c:	2001      	movs	r0, #1
    133e:	4090      	lsls	r0, r2
    1340:	0002      	movs	r2, r0
    1342:	01db      	lsls	r3, r3, #7
    1344:	18cb      	adds	r3, r1, r3
    1346:	3304      	adds	r3, #4
    1348:	601a      	str	r2, [r3, #0]
    134a:	484f      	ldr	r0, [pc, #316]	; (1488 <pinMode+0x19c>)
    134c:	1dfb      	adds	r3, r7, #7
    134e:	781a      	ldrb	r2, [r3, #0]
    1350:	1dbb      	adds	r3, r7, #6
    1352:	781b      	ldrb	r3, [r3, #0]
    1354:	2140      	movs	r1, #64	; 0x40
    1356:	01d2      	lsls	r2, r2, #7
    1358:	1882      	adds	r2, r0, r2
    135a:	18d3      	adds	r3, r2, r3
    135c:	185b      	adds	r3, r3, r1
    135e:	2200      	movs	r2, #0
    1360:	701a      	strb	r2, [r3, #0]
    1362:	e08c      	b.n	147e <pinMode+0x192>
    1364:	4948      	ldr	r1, [pc, #288]	; (1488 <pinMode+0x19c>)
    1366:	1dfb      	adds	r3, r7, #7
    1368:	781b      	ldrb	r3, [r3, #0]
    136a:	1dba      	adds	r2, r7, #6
    136c:	7812      	ldrb	r2, [r2, #0]
    136e:	2001      	movs	r0, #1
    1370:	4090      	lsls	r0, r2
    1372:	0002      	movs	r2, r0
    1374:	01db      	lsls	r3, r3, #7
    1376:	18cb      	adds	r3, r1, r3
    1378:	3308      	adds	r3, #8
    137a:	601a      	str	r2, [r3, #0]
    137c:	4942      	ldr	r1, [pc, #264]	; (1488 <pinMode+0x19c>)
    137e:	1dfb      	adds	r3, r7, #7
    1380:	781b      	ldrb	r3, [r3, #0]
    1382:	1dba      	adds	r2, r7, #6
    1384:	7812      	ldrb	r2, [r2, #0]
    1386:	2001      	movs	r0, #1
    1388:	4090      	lsls	r0, r2
    138a:	0002      	movs	r2, r0
    138c:	01db      	lsls	r3, r3, #7
    138e:	18cb      	adds	r3, r1, r3
    1390:	3314      	adds	r3, #20
    1392:	601a      	str	r2, [r3, #0]
    1394:	483c      	ldr	r0, [pc, #240]	; (1488 <pinMode+0x19c>)
    1396:	1dfb      	adds	r3, r7, #7
    1398:	781a      	ldrb	r2, [r3, #0]
    139a:	1dbb      	adds	r3, r7, #6
    139c:	781b      	ldrb	r3, [r3, #0]
    139e:	2140      	movs	r1, #64	; 0x40
    13a0:	01d2      	lsls	r2, r2, #7
    13a2:	1882      	adds	r2, r0, r2
    13a4:	18d3      	adds	r3, r2, r3
    13a6:	185b      	adds	r3, r3, r1
    13a8:	2200      	movs	r2, #0
    13aa:	701a      	strb	r2, [r3, #0]
    13ac:	e067      	b.n	147e <pinMode+0x192>
    13ae:	4936      	ldr	r1, [pc, #216]	; (1488 <pinMode+0x19c>)
    13b0:	1dfb      	adds	r3, r7, #7
    13b2:	781b      	ldrb	r3, [r3, #0]
    13b4:	1dba      	adds	r2, r7, #6
    13b6:	7812      	ldrb	r2, [r2, #0]
    13b8:	2001      	movs	r0, #1
    13ba:	4090      	lsls	r0, r2
    13bc:	0002      	movs	r2, r0
    13be:	01db      	lsls	r3, r3, #7
    13c0:	18cb      	adds	r3, r1, r3
    13c2:	3304      	adds	r3, #4
    13c4:	601a      	str	r2, [r3, #0]
    13c6:	4830      	ldr	r0, [pc, #192]	; (1488 <pinMode+0x19c>)
    13c8:	1dfb      	adds	r3, r7, #7
    13ca:	781a      	ldrb	r2, [r3, #0]
    13cc:	1dbb      	adds	r3, r7, #6
    13ce:	781b      	ldrb	r3, [r3, #0]
    13d0:	2140      	movs	r1, #64	; 0x40
    13d2:	01d2      	lsls	r2, r2, #7
    13d4:	1882      	adds	r2, r0, r2
    13d6:	18d3      	adds	r3, r2, r3
    13d8:	185b      	adds	r3, r3, r1
    13da:	2202      	movs	r2, #2
    13dc:	701a      	strb	r2, [r3, #0]
    13de:	e04e      	b.n	147e <pinMode+0x192>
    13e0:	4929      	ldr	r1, [pc, #164]	; (1488 <pinMode+0x19c>)
    13e2:	1dfb      	adds	r3, r7, #7
    13e4:	781b      	ldrb	r3, [r3, #0]
    13e6:	1dba      	adds	r2, r7, #6
    13e8:	7812      	ldrb	r2, [r2, #0]
    13ea:	2001      	movs	r0, #1
    13ec:	4090      	lsls	r0, r2
    13ee:	0002      	movs	r2, r0
    13f0:	01db      	lsls	r3, r3, #7
    13f2:	18cb      	adds	r3, r1, r3
    13f4:	3304      	adds	r3, #4
    13f6:	601a      	str	r2, [r3, #0]
    13f8:	4923      	ldr	r1, [pc, #140]	; (1488 <pinMode+0x19c>)
    13fa:	1dfb      	adds	r3, r7, #7
    13fc:	781b      	ldrb	r3, [r3, #0]
    13fe:	1dba      	adds	r2, r7, #6
    1400:	7812      	ldrb	r2, [r2, #0]
    1402:	2001      	movs	r0, #1
    1404:	4090      	lsls	r0, r2
    1406:	0002      	movs	r2, r0
    1408:	01db      	lsls	r3, r3, #7
    140a:	18cb      	adds	r3, r1, r3
    140c:	3318      	adds	r3, #24
    140e:	601a      	str	r2, [r3, #0]
    1410:	481d      	ldr	r0, [pc, #116]	; (1488 <pinMode+0x19c>)
    1412:	1dfb      	adds	r3, r7, #7
    1414:	781a      	ldrb	r2, [r3, #0]
    1416:	1dbb      	adds	r3, r7, #6
    1418:	781b      	ldrb	r3, [r3, #0]
    141a:	2140      	movs	r1, #64	; 0x40
    141c:	01d2      	lsls	r2, r2, #7
    141e:	1882      	adds	r2, r0, r2
    1420:	18d3      	adds	r3, r2, r3
    1422:	185b      	adds	r3, r3, r1
    1424:	2206      	movs	r2, #6
    1426:	701a      	strb	r2, [r3, #0]
    1428:	e029      	b.n	147e <pinMode+0x192>
    142a:	4917      	ldr	r1, [pc, #92]	; (1488 <pinMode+0x19c>)
    142c:	1dfb      	adds	r3, r7, #7
    142e:	781b      	ldrb	r3, [r3, #0]
    1430:	1dba      	adds	r2, r7, #6
    1432:	7812      	ldrb	r2, [r2, #0]
    1434:	2001      	movs	r0, #1
    1436:	4090      	lsls	r0, r2
    1438:	0002      	movs	r2, r0
    143a:	01db      	lsls	r3, r3, #7
    143c:	18cb      	adds	r3, r1, r3
    143e:	3304      	adds	r3, #4
    1440:	601a      	str	r2, [r3, #0]
    1442:	4911      	ldr	r1, [pc, #68]	; (1488 <pinMode+0x19c>)
    1444:	1dfb      	adds	r3, r7, #7
    1446:	781b      	ldrb	r3, [r3, #0]
    1448:	1dba      	adds	r2, r7, #6
    144a:	7812      	ldrb	r2, [r2, #0]
    144c:	2001      	movs	r0, #1
    144e:	4090      	lsls	r0, r2
    1450:	0002      	movs	r2, r0
    1452:	01db      	lsls	r3, r3, #7
    1454:	18cb      	adds	r3, r1, r3
    1456:	3314      	adds	r3, #20
    1458:	601a      	str	r2, [r3, #0]
    145a:	480b      	ldr	r0, [pc, #44]	; (1488 <pinMode+0x19c>)
    145c:	1dfb      	adds	r3, r7, #7
    145e:	781a      	ldrb	r2, [r3, #0]
    1460:	1dbb      	adds	r3, r7, #6
    1462:	781b      	ldrb	r3, [r3, #0]
    1464:	2140      	movs	r1, #64	; 0x40
    1466:	01d2      	lsls	r2, r2, #7
    1468:	1882      	adds	r2, r0, r2
    146a:	18d3      	adds	r3, r2, r3
    146c:	185b      	adds	r3, r3, r1
    146e:	2206      	movs	r2, #6
    1470:	701a      	strb	r2, [r3, #0]
    1472:	e004      	b.n	147e <pinMode+0x192>
    1474:	46c0      	nop			; (mov r8, r8)
    1476:	e002      	b.n	147e <pinMode+0x192>
    1478:	46c0      	nop			; (mov r8, r8)
    147a:	e000      	b.n	147e <pinMode+0x192>
    147c:	46c0      	nop			; (mov r8, r8)
    147e:	46bd      	mov	sp, r7
    1480:	b003      	add	sp, #12
    1482:	bd90      	pop	{r4, r7, pc}
    1484:	0000469c 	.word	0x0000469c
    1488:	41004400 	.word	0x41004400

0000148c <digitalWrite>:
    148c:	b580      	push	{r7, lr}
    148e:	b082      	sub	sp, #8
    1490:	af00      	add	r7, sp, #0
    1492:	603a      	str	r2, [r7, #0]
    1494:	1dfb      	adds	r3, r7, #7
    1496:	1c02      	adds	r2, r0, #0
    1498:	701a      	strb	r2, [r3, #0]
    149a:	1dbb      	adds	r3, r7, #6
    149c:	1c0a      	adds	r2, r1, #0
    149e:	701a      	strb	r2, [r3, #0]
    14a0:	1dfb      	adds	r3, r7, #7
    14a2:	781b      	ldrb	r3, [r3, #0]
    14a4:	2b01      	cmp	r3, #1
    14a6:	d820      	bhi.n	14ea <digitalWrite+0x5e>
    14a8:	1dbb      	adds	r3, r7, #6
    14aa:	781b      	ldrb	r3, [r3, #0]
    14ac:	2b1f      	cmp	r3, #31
    14ae:	d81e      	bhi.n	14ee <digitalWrite+0x62>
    14b0:	683b      	ldr	r3, [r7, #0]
    14b2:	2b00      	cmp	r3, #0
    14b4:	d00c      	beq.n	14d0 <digitalWrite+0x44>
    14b6:	4910      	ldr	r1, [pc, #64]	; (14f8 <digitalWrite+0x6c>)
    14b8:	1dfb      	adds	r3, r7, #7
    14ba:	781b      	ldrb	r3, [r3, #0]
    14bc:	1dba      	adds	r2, r7, #6
    14be:	7812      	ldrb	r2, [r2, #0]
    14c0:	2001      	movs	r0, #1
    14c2:	4090      	lsls	r0, r2
    14c4:	0002      	movs	r2, r0
    14c6:	01db      	lsls	r3, r3, #7
    14c8:	18cb      	adds	r3, r1, r3
    14ca:	3318      	adds	r3, #24
    14cc:	601a      	str	r2, [r3, #0]
    14ce:	e00f      	b.n	14f0 <digitalWrite+0x64>
    14d0:	4909      	ldr	r1, [pc, #36]	; (14f8 <digitalWrite+0x6c>)
    14d2:	1dfb      	adds	r3, r7, #7
    14d4:	781b      	ldrb	r3, [r3, #0]
    14d6:	1dba      	adds	r2, r7, #6
    14d8:	7812      	ldrb	r2, [r2, #0]
    14da:	2001      	movs	r0, #1
    14dc:	4090      	lsls	r0, r2
    14de:	0002      	movs	r2, r0
    14e0:	01db      	lsls	r3, r3, #7
    14e2:	18cb      	adds	r3, r1, r3
    14e4:	3314      	adds	r3, #20
    14e6:	601a      	str	r2, [r3, #0]
    14e8:	e002      	b.n	14f0 <digitalWrite+0x64>
    14ea:	46c0      	nop			; (mov r8, r8)
    14ec:	e000      	b.n	14f0 <digitalWrite+0x64>
    14ee:	46c0      	nop			; (mov r8, r8)
    14f0:	46bd      	mov	sp, r7
    14f2:	b002      	add	sp, #8
    14f4:	bd80      	pop	{r7, pc}
    14f6:	46c0      	nop			; (mov r8, r8)
    14f8:	41004400 	.word	0x41004400

000014fc <pinMux>:
    14fc:	b5f0      	push	{r4, r5, r6, r7, lr}
    14fe:	b085      	sub	sp, #20
    1500:	af00      	add	r7, sp, #0
    1502:	0004      	movs	r4, r0
    1504:	0008      	movs	r0, r1
    1506:	0011      	movs	r1, r2
    1508:	1dfb      	adds	r3, r7, #7
    150a:	1c22      	adds	r2, r4, #0
    150c:	701a      	strb	r2, [r3, #0]
    150e:	1dbb      	adds	r3, r7, #6
    1510:	1c02      	adds	r2, r0, #0
    1512:	701a      	strb	r2, [r3, #0]
    1514:	1d7b      	adds	r3, r7, #5
    1516:	1c0a      	adds	r2, r1, #0
    1518:	701a      	strb	r2, [r3, #0]
    151a:	1dfb      	adds	r3, r7, #7
    151c:	781b      	ldrb	r3, [r3, #0]
    151e:	2b01      	cmp	r3, #1
    1520:	d85f      	bhi.n	15e2 <pinMux+0xe6>
    1522:	1dbb      	adds	r3, r7, #6
    1524:	781b      	ldrb	r3, [r3, #0]
    1526:	2b1f      	cmp	r3, #31
    1528:	d85d      	bhi.n	15e6 <pinMux+0xea>
    152a:	1d7b      	adds	r3, r7, #5
    152c:	781b      	ldrb	r3, [r3, #0]
    152e:	2b07      	cmp	r3, #7
    1530:	d85b      	bhi.n	15ea <pinMux+0xee>
    1532:	230b      	movs	r3, #11
    1534:	18fb      	adds	r3, r7, r3
    1536:	1dba      	adds	r2, r7, #6
    1538:	7812      	ldrb	r2, [r2, #0]
    153a:	0852      	lsrs	r2, r2, #1
    153c:	701a      	strb	r2, [r3, #0]
    153e:	482d      	ldr	r0, [pc, #180]	; (15f4 <pinMux+0xf8>)
    1540:	1dfb      	adds	r3, r7, #7
    1542:	781a      	ldrb	r2, [r3, #0]
    1544:	230b      	movs	r3, #11
    1546:	18fb      	adds	r3, r7, r3
    1548:	781b      	ldrb	r3, [r3, #0]
    154a:	2130      	movs	r1, #48	; 0x30
    154c:	01d2      	lsls	r2, r2, #7
    154e:	1882      	adds	r2, r0, r2
    1550:	18d3      	adds	r3, r2, r3
    1552:	185b      	adds	r3, r3, r1
    1554:	781b      	ldrb	r3, [r3, #0]
    1556:	b2db      	uxtb	r3, r3
    1558:	60fb      	str	r3, [r7, #12]
    155a:	1dbb      	adds	r3, r7, #6
    155c:	781b      	ldrb	r3, [r3, #0]
    155e:	2201      	movs	r2, #1
    1560:	4013      	ands	r3, r2
    1562:	d00a      	beq.n	157a <pinMux+0x7e>
    1564:	68fb      	ldr	r3, [r7, #12]
    1566:	220f      	movs	r2, #15
    1568:	4013      	ands	r3, r2
    156a:	60fb      	str	r3, [r7, #12]
    156c:	1d7b      	adds	r3, r7, #5
    156e:	781b      	ldrb	r3, [r3, #0]
    1570:	011b      	lsls	r3, r3, #4
    1572:	68fa      	ldr	r2, [r7, #12]
    1574:	4313      	orrs	r3, r2
    1576:	60fb      	str	r3, [r7, #12]
    1578:	e008      	b.n	158c <pinMux+0x90>
    157a:	68fb      	ldr	r3, [r7, #12]
    157c:	22f0      	movs	r2, #240	; 0xf0
    157e:	4013      	ands	r3, r2
    1580:	60fb      	str	r3, [r7, #12]
    1582:	1d7b      	adds	r3, r7, #5
    1584:	781b      	ldrb	r3, [r3, #0]
    1586:	68fa      	ldr	r2, [r7, #12]
    1588:	4313      	orrs	r3, r2
    158a:	60fb      	str	r3, [r7, #12]
    158c:	4819      	ldr	r0, [pc, #100]	; (15f4 <pinMux+0xf8>)
    158e:	1dfb      	adds	r3, r7, #7
    1590:	781a      	ldrb	r2, [r3, #0]
    1592:	230b      	movs	r3, #11
    1594:	18fb      	adds	r3, r7, r3
    1596:	781b      	ldrb	r3, [r3, #0]
    1598:	68f9      	ldr	r1, [r7, #12]
    159a:	b2cc      	uxtb	r4, r1
    159c:	2130      	movs	r1, #48	; 0x30
    159e:	01d2      	lsls	r2, r2, #7
    15a0:	1882      	adds	r2, r0, r2
    15a2:	18d3      	adds	r3, r2, r3
    15a4:	185b      	adds	r3, r3, r1
    15a6:	1c22      	adds	r2, r4, #0
    15a8:	701a      	strb	r2, [r3, #0]
    15aa:	4c12      	ldr	r4, [pc, #72]	; (15f4 <pinMux+0xf8>)
    15ac:	1dfb      	adds	r3, r7, #7
    15ae:	781a      	ldrb	r2, [r3, #0]
    15b0:	1dbb      	adds	r3, r7, #6
    15b2:	781b      	ldrb	r3, [r3, #0]
    15b4:	4e0f      	ldr	r6, [pc, #60]	; (15f4 <pinMux+0xf8>)
    15b6:	1df9      	adds	r1, r7, #7
    15b8:	7808      	ldrb	r0, [r1, #0]
    15ba:	1db9      	adds	r1, r7, #6
    15bc:	7809      	ldrb	r1, [r1, #0]
    15be:	2540      	movs	r5, #64	; 0x40
    15c0:	01c0      	lsls	r0, r0, #7
    15c2:	1830      	adds	r0, r6, r0
    15c4:	1841      	adds	r1, r0, r1
    15c6:	1949      	adds	r1, r1, r5
    15c8:	7809      	ldrb	r1, [r1, #0]
    15ca:	b2c9      	uxtb	r1, r1
    15cc:	2001      	movs	r0, #1
    15ce:	4301      	orrs	r1, r0
    15d0:	b2c8      	uxtb	r0, r1
    15d2:	2140      	movs	r1, #64	; 0x40
    15d4:	01d2      	lsls	r2, r2, #7
    15d6:	18a2      	adds	r2, r4, r2
    15d8:	18d3      	adds	r3, r2, r3
    15da:	185b      	adds	r3, r3, r1
    15dc:	1c02      	adds	r2, r0, #0
    15de:	701a      	strb	r2, [r3, #0]
    15e0:	e004      	b.n	15ec <pinMux+0xf0>
    15e2:	46c0      	nop			; (mov r8, r8)
    15e4:	e002      	b.n	15ec <pinMux+0xf0>
    15e6:	46c0      	nop			; (mov r8, r8)
    15e8:	e000      	b.n	15ec <pinMux+0xf0>
    15ea:	46c0      	nop			; (mov r8, r8)
    15ec:	46bd      	mov	sp, r7
    15ee:	b005      	add	sp, #20
    15f0:	bdf0      	pop	{r4, r5, r6, r7, pc}
    15f2:	46c0      	nop			; (mov r8, r8)
    15f4:	41004400 	.word	0x41004400

000015f8 <redirectPrintf>:
    15f8:	b580      	push	{r7, lr}
    15fa:	b082      	sub	sp, #8
    15fc:	af00      	add	r7, sp, #0
    15fe:	6078      	str	r0, [r7, #4]
    1600:	687b      	ldr	r3, [r7, #4]
    1602:	2b02      	cmp	r3, #2
    1604:	d803      	bhi.n	160e <redirectPrintf+0x16>
    1606:	687a      	ldr	r2, [r7, #4]
    1608:	4b03      	ldr	r3, [pc, #12]	; (1618 <redirectPrintf+0x20>)
    160a:	601a      	str	r2, [r3, #0]
    160c:	e000      	b.n	1610 <redirectPrintf+0x18>
    160e:	46c0      	nop			; (mov r8, r8)
    1610:	46bd      	mov	sp, r7
    1612:	b002      	add	sp, #8
    1614:	bd80      	pop	{r7, pc}
    1616:	46c0      	nop			; (mov r8, r8)
    1618:	20000018 	.word	0x20000018

0000161c <_write>:
    161c:	b580      	push	{r7, lr}
    161e:	b086      	sub	sp, #24
    1620:	af00      	add	r7, sp, #0
    1622:	60f8      	str	r0, [r7, #12]
    1624:	60b9      	str	r1, [r7, #8]
    1626:	607a      	str	r2, [r7, #4]
    1628:	2300      	movs	r3, #0
    162a:	617b      	str	r3, [r7, #20]
    162c:	68fb      	ldr	r3, [r7, #12]
    162e:	2b01      	cmp	r3, #1
    1630:	d002      	beq.n	1638 <_write+0x1c>
    1632:	2301      	movs	r3, #1
    1634:	425b      	negs	r3, r3
    1636:	e02b      	b.n	1690 <_write+0x74>
    1638:	4b17      	ldr	r3, [pc, #92]	; (1698 <_write+0x7c>)
    163a:	681b      	ldr	r3, [r3, #0]
    163c:	2b01      	cmp	r3, #1
    163e:	d111      	bne.n	1664 <_write+0x48>
    1640:	2300      	movs	r3, #0
    1642:	617b      	str	r3, [r7, #20]
    1644:	e009      	b.n	165a <_write+0x3e>
    1646:	697b      	ldr	r3, [r7, #20]
    1648:	68ba      	ldr	r2, [r7, #8]
    164a:	18d3      	adds	r3, r2, r3
    164c:	781b      	ldrb	r3, [r3, #0]
    164e:	0018      	movs	r0, r3
    1650:	4b12      	ldr	r3, [pc, #72]	; (169c <_write+0x80>)
    1652:	4798      	blx	r3
    1654:	697b      	ldr	r3, [r7, #20]
    1656:	3301      	adds	r3, #1
    1658:	617b      	str	r3, [r7, #20]
    165a:	697a      	ldr	r2, [r7, #20]
    165c:	687b      	ldr	r3, [r7, #4]
    165e:	429a      	cmp	r2, r3
    1660:	dbf1      	blt.n	1646 <_write+0x2a>
    1662:	e014      	b.n	168e <_write+0x72>
    1664:	4b0c      	ldr	r3, [pc, #48]	; (1698 <_write+0x7c>)
    1666:	681b      	ldr	r3, [r3, #0]
    1668:	2b02      	cmp	r3, #2
    166a:	d110      	bne.n	168e <_write+0x72>
    166c:	2300      	movs	r3, #0
    166e:	617b      	str	r3, [r7, #20]
    1670:	e009      	b.n	1686 <_write+0x6a>
    1672:	697b      	ldr	r3, [r7, #20]
    1674:	68ba      	ldr	r2, [r7, #8]
    1676:	18d3      	adds	r3, r2, r3
    1678:	781b      	ldrb	r3, [r3, #0]
    167a:	0018      	movs	r0, r3
    167c:	4b08      	ldr	r3, [pc, #32]	; (16a0 <_write+0x84>)
    167e:	4798      	blx	r3
    1680:	697b      	ldr	r3, [r7, #20]
    1682:	3301      	adds	r3, #1
    1684:	617b      	str	r3, [r7, #20]
    1686:	697a      	ldr	r2, [r7, #20]
    1688:	687b      	ldr	r3, [r7, #4]
    168a:	429a      	cmp	r2, r3
    168c:	dbf1      	blt.n	1672 <_write+0x56>
    168e:	697b      	ldr	r3, [r7, #20]
    1690:	0018      	movs	r0, r3
    1692:	46bd      	mov	sp, r7
    1694:	b006      	add	sp, #24
    1696:	bd80      	pop	{r7, pc}
    1698:	20000018 	.word	0x20000018
    169c:	000005c1 	.word	0x000005c1
    16a0:	000016a5 	.word	0x000016a5

000016a4 <SERIALPutchar>:
    16a4:	b580      	push	{r7, lr}
    16a6:	b082      	sub	sp, #8
    16a8:	af00      	add	r7, sp, #0
    16aa:	0002      	movs	r2, r0
    16ac:	1dfb      	adds	r3, r7, #7
    16ae:	701a      	strb	r2, [r3, #0]
    16b0:	1dfb      	adds	r3, r7, #7
    16b2:	781b      	ldrb	r3, [r3, #0]
    16b4:	2b0a      	cmp	r3, #10
    16b6:	d102      	bne.n	16be <SERIALPutchar+0x1a>
    16b8:	200d      	movs	r0, #13
    16ba:	f7ff fff3 	bl	16a4 <SERIALPutchar>
    16be:	46c0      	nop			; (mov r8, r8)
    16c0:	4b0d      	ldr	r3, [pc, #52]	; (16f8 <SERIALPutchar+0x54>)
    16c2:	681b      	ldr	r3, [r3, #0]
    16c4:	7e1b      	ldrb	r3, [r3, #24]
    16c6:	07db      	lsls	r3, r3, #31
    16c8:	0fdb      	lsrs	r3, r3, #31
    16ca:	b2db      	uxtb	r3, r3
    16cc:	2b00      	cmp	r3, #0
    16ce:	d0f7      	beq.n	16c0 <SERIALPutchar+0x1c>
    16d0:	4b09      	ldr	r3, [pc, #36]	; (16f8 <SERIALPutchar+0x54>)
    16d2:	681b      	ldr	r3, [r3, #0]
    16d4:	1dfa      	adds	r2, r7, #7
    16d6:	7812      	ldrb	r2, [r2, #0]
    16d8:	b292      	uxth	r2, r2
    16da:	851a      	strh	r2, [r3, #40]	; 0x28
    16dc:	46c0      	nop			; (mov r8, r8)
    16de:	4b06      	ldr	r3, [pc, #24]	; (16f8 <SERIALPutchar+0x54>)
    16e0:	681b      	ldr	r3, [r3, #0]
    16e2:	7e1b      	ldrb	r3, [r3, #24]
    16e4:	079b      	lsls	r3, r3, #30
    16e6:	0fdb      	lsrs	r3, r3, #31
    16e8:	b2db      	uxtb	r3, r3
    16ea:	2b00      	cmp	r3, #0
    16ec:	d0f7      	beq.n	16de <SERIALPutchar+0x3a>
    16ee:	46c0      	nop			; (mov r8, r8)
    16f0:	46bd      	mov	sp, r7
    16f2:	b002      	add	sp, #8
    16f4:	bd80      	pop	{r7, pc}
    16f6:	46c0      	nop			; (mov r8, r8)
    16f8:	2000001c 	.word	0x2000001c

000016fc <main>:

#define DELTA_FREQUENCE (float)1//Espacement en Hz entre chaques raies de la FFT
#define FREQUENCE_ECHANTILLONAGE (float)44100//Frquence en Hz de l'chantillonage du signal audio

int main(void)//fonction principale du programme
{
    16fc:	b5f0      	push	{r4, r5, r6, r7, lr}
    16fe:	b08d      	sub	sp, #52	; 0x34
    1700:	af00      	add	r7, sp, #0
    1702:	466b      	mov	r3, sp
    1704:	607b      	str	r3, [r7, #4]
	float dt=1000000/FREQUENCE_ECHANTILLONAGE;//Espacement en us entre chaque acquisition sur l'adc
	float freq = 0; //contient la frquence mesure de la note
	char note = 0; //contient la note calcule  partir de la frquence, voir les diffrentes valeurs dans define_notes.h
	char degre = 0; //contient le degr, ou l'octave de la note calcule  partir de la frqence
	float relativeError = 1.0;//spcifie l'erreur relative autorise en % entre la frquence mesure et la frquence relle correspondant  la note*/
	setup();//Fonction d'initialisation
    1706:	4b2b      	ldr	r3, [pc, #172]	; (17b4 <main+0xb8>)
    1708:	4798      	blx	r3
	/*FFTInit(1);
	adcFFTInit(1);
	displayTitle(); //affiche le titre du projet en haut de l'cran OLED*/
	//while(1)
	//{		
		OLEDClear();
    170a:	4b2b      	ldr	r3, [pc, #172]	; (17b8 <main+0xbc>)
    170c:	4798      	blx	r3
		OLEDSetLine(1);
    170e:	2001      	movs	r0, #1
    1710:	4b2a      	ldr	r3, [pc, #168]	; (17bc <main+0xc0>)
    1712:	4798      	blx	r3
		printf("salut\n");
    1714:	4b2a      	ldr	r3, [pc, #168]	; (17c0 <main+0xc4>)
    1716:	0018      	movs	r0, r3
    1718:	4b2a      	ldr	r3, [pc, #168]	; (17c4 <main+0xc8>)
    171a:	4798      	blx	r3
		
		OLEDSetLine(0);
    171c:	2000      	movs	r0, #0
    171e:	4b27      	ldr	r3, [pc, #156]	; (17bc <main+0xc0>)
    1720:	4798      	blx	r3
		
		int size = 10900;
    1722:	4b29      	ldr	r3, [pc, #164]	; (17c8 <main+0xcc>)
    1724:	62bb      	str	r3, [r7, #40]	; 0x28
		char tab[size];
    1726:	6abb      	ldr	r3, [r7, #40]	; 0x28
    1728:	1e5a      	subs	r2, r3, #1
    172a:	627a      	str	r2, [r7, #36]	; 0x24
    172c:	001a      	movs	r2, r3
    172e:	613a      	str	r2, [r7, #16]
    1730:	2200      	movs	r2, #0
    1732:	617a      	str	r2, [r7, #20]
    1734:	6938      	ldr	r0, [r7, #16]
    1736:	6979      	ldr	r1, [r7, #20]
    1738:	0002      	movs	r2, r0
    173a:	0f52      	lsrs	r2, r2, #29
    173c:	000e      	movs	r6, r1
    173e:	00f6      	lsls	r6, r6, #3
    1740:	61fe      	str	r6, [r7, #28]
    1742:	69fe      	ldr	r6, [r7, #28]
    1744:	4316      	orrs	r6, r2
    1746:	61fe      	str	r6, [r7, #28]
    1748:	0002      	movs	r2, r0
    174a:	00d2      	lsls	r2, r2, #3
    174c:	61ba      	str	r2, [r7, #24]
    174e:	001a      	movs	r2, r3
    1750:	60ba      	str	r2, [r7, #8]
    1752:	2200      	movs	r2, #0
    1754:	60fa      	str	r2, [r7, #12]
    1756:	68b8      	ldr	r0, [r7, #8]
    1758:	68f9      	ldr	r1, [r7, #12]
    175a:	0002      	movs	r2, r0
    175c:	0f52      	lsrs	r2, r2, #29
    175e:	000e      	movs	r6, r1
    1760:	00f5      	lsls	r5, r6, #3
    1762:	4315      	orrs	r5, r2
    1764:	0002      	movs	r2, r0
    1766:	00d4      	lsls	r4, r2, #3
    1768:	3307      	adds	r3, #7
    176a:	08db      	lsrs	r3, r3, #3
    176c:	00db      	lsls	r3, r3, #3
    176e:	466a      	mov	r2, sp
    1770:	1ad3      	subs	r3, r2, r3
    1772:	469d      	mov	sp, r3
    1774:	466b      	mov	r3, sp
    1776:	3300      	adds	r3, #0
    1778:	623b      	str	r3, [r7, #32]
		for(int i=0; i<size;i++)
    177a:	2300      	movs	r3, #0
    177c:	62fb      	str	r3, [r7, #44]	; 0x2c
    177e:	e007      	b.n	1790 <main+0x94>
		{
			tab[i]=1;
    1780:	6a3a      	ldr	r2, [r7, #32]
    1782:	6afb      	ldr	r3, [r7, #44]	; 0x2c
    1784:	18d3      	adds	r3, r2, r3
    1786:	2201      	movs	r2, #1
    1788:	701a      	strb	r2, [r3, #0]
		
		OLEDSetLine(0);
		
		int size = 10900;
		char tab[size];
		for(int i=0; i<size;i++)
    178a:	6afb      	ldr	r3, [r7, #44]	; 0x2c
    178c:	3301      	adds	r3, #1
    178e:	62fb      	str	r3, [r7, #44]	; 0x2c
    1790:	6afa      	ldr	r2, [r7, #44]	; 0x2c
    1792:	6abb      	ldr	r3, [r7, #40]	; 0x28
    1794:	429a      	cmp	r2, r3
    1796:	dbf3      	blt.n	1780 <main+0x84>
		{
			tab[i]=1;
		}
		
		OLEDSetLine(0);
    1798:	2000      	movs	r0, #0
    179a:	4b08      	ldr	r3, [pc, #32]	; (17bc <main+0xc0>)
    179c:	4798      	blx	r3
		printf("salut\n");
    179e:	4b08      	ldr	r3, [pc, #32]	; (17c0 <main+0xc4>)
    17a0:	0018      	movs	r0, r3
    17a2:	4b08      	ldr	r3, [pc, #32]	; (17c4 <main+0xc8>)
    17a4:	4798      	blx	r3
		//displayNote(note); //On affiche la note sur l'afficheur OLED
		//displayDegre(degre); //On affiche le degr sur l'afficheur OLED
		
	//}
	
	return 0; //Le programme renvoit 0x0000 si l'execution c'est correctement termine
    17a6:	2300      	movs	r3, #0
    17a8:	687a      	ldr	r2, [r7, #4]
    17aa:	4695      	mov	sp, r2
}
    17ac:	0018      	movs	r0, r3
    17ae:	46bd      	mov	sp, r7
    17b0:	b00d      	add	sp, #52	; 0x34
    17b2:	bdf0      	pop	{r4, r5, r6, r7, pc}
    17b4:	00001909 	.word	0x00001909
    17b8:	00000661 	.word	0x00000661
    17bc:	00000591 	.word	0x00000591
    17c0:	000046b0 	.word	0x000046b0
    17c4:	00002af5 	.word	0x00002af5
    17c8:	00002a94 	.word	0x00002a94

000017cc <NVIC_EnableIRQ>:
    The function enables a device-specific interrupt in the NVIC interrupt controller.

    \param [in]      IRQn  External interrupt number. Value cannot be negative.
 */
__STATIC_INLINE void NVIC_EnableIRQ(IRQn_Type IRQn)
{
    17cc:	b580      	push	{r7, lr}
    17ce:	b082      	sub	sp, #8
    17d0:	af00      	add	r7, sp, #0
    17d2:	0002      	movs	r2, r0
    17d4:	1dfb      	adds	r3, r7, #7
    17d6:	701a      	strb	r2, [r3, #0]
  NVIC->ISER[0] = (1 << ((uint32_t)(IRQn) & 0x1F));
    17d8:	4b06      	ldr	r3, [pc, #24]	; (17f4 <NVIC_EnableIRQ+0x28>)
    17da:	1dfa      	adds	r2, r7, #7
    17dc:	7812      	ldrb	r2, [r2, #0]
    17de:	0011      	movs	r1, r2
    17e0:	221f      	movs	r2, #31
    17e2:	400a      	ands	r2, r1
    17e4:	2101      	movs	r1, #1
    17e6:	4091      	lsls	r1, r2
    17e8:	000a      	movs	r2, r1
    17ea:	601a      	str	r2, [r3, #0]
}
    17ec:	46c0      	nop			; (mov r8, r8)
    17ee:	46bd      	mov	sp, r7
    17f0:	b002      	add	sp, #8
    17f2:	bd80      	pop	{r7, pc}
    17f4:	e000e100 	.word	0xe000e100

000017f8 <NVIC_DisableIRQ>:
    The function disables a device-specific interrupt in the NVIC interrupt controller.

    \param [in]      IRQn  External interrupt number. Value cannot be negative.
 */
__STATIC_INLINE void NVIC_DisableIRQ(IRQn_Type IRQn)
{
    17f8:	b580      	push	{r7, lr}
    17fa:	b082      	sub	sp, #8
    17fc:	af00      	add	r7, sp, #0
    17fe:	0002      	movs	r2, r0
    1800:	1dfb      	adds	r3, r7, #7
    1802:	701a      	strb	r2, [r3, #0]
  NVIC->ICER[0] = (1 << ((uint32_t)(IRQn) & 0x1F));
    1804:	4a07      	ldr	r2, [pc, #28]	; (1824 <NVIC_DisableIRQ+0x2c>)
    1806:	1dfb      	adds	r3, r7, #7
    1808:	781b      	ldrb	r3, [r3, #0]
    180a:	0019      	movs	r1, r3
    180c:	231f      	movs	r3, #31
    180e:	400b      	ands	r3, r1
    1810:	2101      	movs	r1, #1
    1812:	4099      	lsls	r1, r3
    1814:	000b      	movs	r3, r1
    1816:	0019      	movs	r1, r3
    1818:	2380      	movs	r3, #128	; 0x80
    181a:	50d1      	str	r1, [r2, r3]
}
    181c:	46c0      	nop			; (mov r8, r8)
    181e:	46bd      	mov	sp, r7
    1820:	b002      	add	sp, #8
    1822:	bd80      	pop	{r7, pc}
    1824:	e000e100 	.word	0xe000e100

00001828 <EIC_Handler>:
* Author : BIZON Alexis
* Params : none
* Return : none
*/
void EIC_Handler()
{
    1828:	b5b0      	push	{r4, r5, r7, lr}
    182a:	af00      	add	r7, sp, #0
	NVIC_DisableIRQ(EIC_IRQn);// dsacivation des interuptions sur EIC
    182c:	2004      	movs	r0, #4
    182e:	4b29      	ldr	r3, [pc, #164]	; (18d4 <EIC_Handler+0xac>)
    1830:	4798      	blx	r3
	static char countOn;//Variable static dfinnissant si l'on est entrain de compter
	if((EIC->INTFLAG.reg & (1<<15)) && (!countOn)) // Si on ne compte pas
    1832:	4b29      	ldr	r3, [pc, #164]	; (18d8 <EIC_Handler+0xb0>)
    1834:	691a      	ldr	r2, [r3, #16]
    1836:	2380      	movs	r3, #128	; 0x80
    1838:	021b      	lsls	r3, r3, #8
    183a:	4013      	ands	r3, r2
    183c:	d011      	beq.n	1862 <EIC_Handler+0x3a>
    183e:	4b27      	ldr	r3, [pc, #156]	; (18dc <EIC_Handler+0xb4>)
    1840:	781b      	ldrb	r3, [r3, #0]
    1842:	2b00      	cmp	r3, #0
    1844:	d10d      	bne.n	1862 <EIC_Handler+0x3a>
	{
		countOn =1;//Alors maintenant on compte
    1846:	4b25      	ldr	r3, [pc, #148]	; (18dc <EIC_Handler+0xb4>)
    1848:	2201      	movs	r2, #1
    184a:	701a      	strb	r2, [r3, #0]
		TC3->COUNT16.COUNT.reg=0; // RAZ du compteur
    184c:	4b24      	ldr	r3, [pc, #144]	; (18e0 <EIC_Handler+0xb8>)
    184e:	2200      	movs	r2, #0
    1850:	821a      	strh	r2, [r3, #16]
		EIC->INTFLAG.reg |= 1<<15; // RAZ de la dtection EIC
    1852:	4b21      	ldr	r3, [pc, #132]	; (18d8 <EIC_Handler+0xb0>)
    1854:	4a20      	ldr	r2, [pc, #128]	; (18d8 <EIC_Handler+0xb0>)
    1856:	6912      	ldr	r2, [r2, #16]
    1858:	2180      	movs	r1, #128	; 0x80
    185a:	0209      	lsls	r1, r1, #8
    185c:	430a      	orrs	r2, r1
    185e:	611a      	str	r2, [r3, #16]
    1860:	e031      	b.n	18c6 <EIC_Handler+0x9e>
	}
	else if((EIC->INTFLAG.reg & (1<<15)) && (countOn)) // Si on tait en train de compter
    1862:	4b1d      	ldr	r3, [pc, #116]	; (18d8 <EIC_Handler+0xb0>)
    1864:	691a      	ldr	r2, [r3, #16]
    1866:	2380      	movs	r3, #128	; 0x80
    1868:	021b      	lsls	r3, r3, #8
    186a:	4013      	ands	r3, r2
    186c:	d02b      	beq.n	18c6 <EIC_Handler+0x9e>
    186e:	4b1b      	ldr	r3, [pc, #108]	; (18dc <EIC_Handler+0xb4>)
    1870:	781b      	ldrb	r3, [r3, #0]
    1872:	2b00      	cmp	r3, #0
    1874:	d027      	beq.n	18c6 <EIC_Handler+0x9e>
	{
		countOn =0;//Alors maintenant on ne compte plus
    1876:	4b19      	ldr	r3, [pc, #100]	; (18dc <EIC_Handler+0xb4>)
    1878:	2200      	movs	r2, #0
    187a:	701a      	strb	r2, [r3, #0]
		__freq = (float)(1/((TC3->COUNT16.COUNT.reg)*(0.000008))) ; // 1/(x*8us) 
    187c:	4b18      	ldr	r3, [pc, #96]	; (18e0 <EIC_Handler+0xb8>)
    187e:	8a1b      	ldrh	r3, [r3, #16]
    1880:	b29b      	uxth	r3, r3
    1882:	001a      	movs	r2, r3
    1884:	4b17      	ldr	r3, [pc, #92]	; (18e4 <EIC_Handler+0xbc>)
    1886:	0010      	movs	r0, r2
    1888:	4798      	blx	r3
    188a:	4c17      	ldr	r4, [pc, #92]	; (18e8 <EIC_Handler+0xc0>)
    188c:	4a17      	ldr	r2, [pc, #92]	; (18ec <EIC_Handler+0xc4>)
    188e:	4b18      	ldr	r3, [pc, #96]	; (18f0 <EIC_Handler+0xc8>)
    1890:	47a0      	blx	r4
    1892:	0003      	movs	r3, r0
    1894:	000c      	movs	r4, r1
    1896:	001a      	movs	r2, r3
    1898:	0023      	movs	r3, r4
    189a:	4c16      	ldr	r4, [pc, #88]	; (18f4 <EIC_Handler+0xcc>)
    189c:	2000      	movs	r0, #0
    189e:	4916      	ldr	r1, [pc, #88]	; (18f8 <EIC_Handler+0xd0>)
    18a0:	47a0      	blx	r4
    18a2:	0003      	movs	r3, r0
    18a4:	000c      	movs	r4, r1
    18a6:	0019      	movs	r1, r3
    18a8:	0022      	movs	r2, r4
    18aa:	4b14      	ldr	r3, [pc, #80]	; (18fc <EIC_Handler+0xd4>)
    18ac:	0008      	movs	r0, r1
    18ae:	0011      	movs	r1, r2
    18b0:	4798      	blx	r3
    18b2:	1c02      	adds	r2, r0, #0
    18b4:	4b12      	ldr	r3, [pc, #72]	; (1900 <EIC_Handler+0xd8>)
    18b6:	601a      	str	r2, [r3, #0]
		EIC->INTFLAG.reg |= 1<<15; // RAZ de la dtection EIC
    18b8:	4b07      	ldr	r3, [pc, #28]	; (18d8 <EIC_Handler+0xb0>)
    18ba:	4a07      	ldr	r2, [pc, #28]	; (18d8 <EIC_Handler+0xb0>)
    18bc:	6912      	ldr	r2, [r2, #16]
    18be:	2180      	movs	r1, #128	; 0x80
    18c0:	0209      	lsls	r1, r1, #8
    18c2:	430a      	orrs	r2, r1
    18c4:	611a      	str	r2, [r3, #16]
	}
	NVIC_EnableIRQ(EIC_IRQn);// acivation des interuptions sur EIC
    18c6:	2004      	movs	r0, #4
    18c8:	4b0e      	ldr	r3, [pc, #56]	; (1904 <EIC_Handler+0xdc>)
    18ca:	4798      	blx	r3
}
    18cc:	46c0      	nop			; (mov r8, r8)
    18ce:	46bd      	mov	sp, r7
    18d0:	bdb0      	pop	{r4, r5, r7, pc}
    18d2:	46c0      	nop			; (mov r8, r8)
    18d4:	000017f9 	.word	0x000017f9
    18d8:	40001800 	.word	0x40001800
    18dc:	20000a80 	.word	0x20000a80
    18e0:	42002c00 	.word	0x42002c00
    18e4:	0000275d 	.word	0x0000275d
    18e8:	00002269 	.word	0x00002269
    18ec:	a0b5ed8d 	.word	0xa0b5ed8d
    18f0:	3ee0c6f7 	.word	0x3ee0c6f7
    18f4:	00001c3d 	.word	0x00001c3d
    18f8:	3ff00000 	.word	0x3ff00000
    18fc:	000027e1 	.word	0x000027e1
    1900:	20000ac0 	.word	0x20000ac0
    1904:	000017cd 	.word	0x000017cd

00001908 <setup>:
* Author : METAYER Simon
* Params : none
* Return : none
*/
void setup()
{
    1908:	b580      	push	{r7, lr}
    190a:	af00      	add	r7, sp, #0
	SystemInit();//Initialisation des paramtres systmes
    190c:	4b0c      	ldr	r3, [pc, #48]	; (1940 <setup+0x38>)
    190e:	4798      	blx	r3
	redirectPrintf(PRINTF_OLED);//On redirige les instructions de la fonction printf sur l'afficheur OLED
    1910:	2001      	movs	r0, #1
    1912:	4b0c      	ldr	r3, [pc, #48]	; (1944 <setup+0x3c>)
    1914:	4798      	blx	r3
	OLEDInit(1);//On initialise notre afficheur OLED avec aucune image
    1916:	2001      	movs	r0, #1
    1918:	4b0b      	ldr	r3, [pc, #44]	; (1948 <setup+0x40>)
    191a:	4798      	blx	r3
	// initFreq(); // initialisation du frquencemtre
	// Initialisation des leds d'aide  l'accordage :
	pinMode(PORTA, 12, OUTPUT); 
    191c:	2201      	movs	r2, #1
    191e:	210c      	movs	r1, #12
    1920:	2000      	movs	r0, #0
    1922:	4b0a      	ldr	r3, [pc, #40]	; (194c <setup+0x44>)
    1924:	4798      	blx	r3
	pinMode(PORTA, 13, OUTPUT);
    1926:	2201      	movs	r2, #1
    1928:	210d      	movs	r1, #13
    192a:	2000      	movs	r0, #0
    192c:	4b07      	ldr	r3, [pc, #28]	; (194c <setup+0x44>)
    192e:	4798      	blx	r3
	pinMode(PORTA, 15, OUTPUT);
    1930:	2201      	movs	r2, #1
    1932:	210f      	movs	r1, #15
    1934:	2000      	movs	r0, #0
    1936:	4b05      	ldr	r3, [pc, #20]	; (194c <setup+0x44>)
    1938:	4798      	blx	r3
}
    193a:	46c0      	nop			; (mov r8, r8)
    193c:	46bd      	mov	sp, r7
    193e:	bd80      	pop	{r7, pc}
    1940:	00000239 	.word	0x00000239
    1944:	000015f9 	.word	0x000015f9
    1948:	00000521 	.word	0x00000521
    194c:	000012ed 	.word	0x000012ed

00001950 <__aeabi_uidiv>:
    1950:	2200      	movs	r2, #0
    1952:	0843      	lsrs	r3, r0, #1
    1954:	428b      	cmp	r3, r1
    1956:	d374      	bcc.n	1a42 <__aeabi_uidiv+0xf2>
    1958:	0903      	lsrs	r3, r0, #4
    195a:	428b      	cmp	r3, r1
    195c:	d35f      	bcc.n	1a1e <__aeabi_uidiv+0xce>
    195e:	0a03      	lsrs	r3, r0, #8
    1960:	428b      	cmp	r3, r1
    1962:	d344      	bcc.n	19ee <__aeabi_uidiv+0x9e>
    1964:	0b03      	lsrs	r3, r0, #12
    1966:	428b      	cmp	r3, r1
    1968:	d328      	bcc.n	19bc <__aeabi_uidiv+0x6c>
    196a:	0c03      	lsrs	r3, r0, #16
    196c:	428b      	cmp	r3, r1
    196e:	d30d      	bcc.n	198c <__aeabi_uidiv+0x3c>
    1970:	22ff      	movs	r2, #255	; 0xff
    1972:	0209      	lsls	r1, r1, #8
    1974:	ba12      	rev	r2, r2
    1976:	0c03      	lsrs	r3, r0, #16
    1978:	428b      	cmp	r3, r1
    197a:	d302      	bcc.n	1982 <__aeabi_uidiv+0x32>
    197c:	1212      	asrs	r2, r2, #8
    197e:	0209      	lsls	r1, r1, #8
    1980:	d065      	beq.n	1a4e <__aeabi_uidiv+0xfe>
    1982:	0b03      	lsrs	r3, r0, #12
    1984:	428b      	cmp	r3, r1
    1986:	d319      	bcc.n	19bc <__aeabi_uidiv+0x6c>
    1988:	e000      	b.n	198c <__aeabi_uidiv+0x3c>
    198a:	0a09      	lsrs	r1, r1, #8
    198c:	0bc3      	lsrs	r3, r0, #15
    198e:	428b      	cmp	r3, r1
    1990:	d301      	bcc.n	1996 <__aeabi_uidiv+0x46>
    1992:	03cb      	lsls	r3, r1, #15
    1994:	1ac0      	subs	r0, r0, r3
    1996:	4152      	adcs	r2, r2
    1998:	0b83      	lsrs	r3, r0, #14
    199a:	428b      	cmp	r3, r1
    199c:	d301      	bcc.n	19a2 <__aeabi_uidiv+0x52>
    199e:	038b      	lsls	r3, r1, #14
    19a0:	1ac0      	subs	r0, r0, r3
    19a2:	4152      	adcs	r2, r2
    19a4:	0b43      	lsrs	r3, r0, #13
    19a6:	428b      	cmp	r3, r1
    19a8:	d301      	bcc.n	19ae <__aeabi_uidiv+0x5e>
    19aa:	034b      	lsls	r3, r1, #13
    19ac:	1ac0      	subs	r0, r0, r3
    19ae:	4152      	adcs	r2, r2
    19b0:	0b03      	lsrs	r3, r0, #12
    19b2:	428b      	cmp	r3, r1
    19b4:	d301      	bcc.n	19ba <__aeabi_uidiv+0x6a>
    19b6:	030b      	lsls	r3, r1, #12
    19b8:	1ac0      	subs	r0, r0, r3
    19ba:	4152      	adcs	r2, r2
    19bc:	0ac3      	lsrs	r3, r0, #11
    19be:	428b      	cmp	r3, r1
    19c0:	d301      	bcc.n	19c6 <__aeabi_uidiv+0x76>
    19c2:	02cb      	lsls	r3, r1, #11
    19c4:	1ac0      	subs	r0, r0, r3
    19c6:	4152      	adcs	r2, r2
    19c8:	0a83      	lsrs	r3, r0, #10
    19ca:	428b      	cmp	r3, r1
    19cc:	d301      	bcc.n	19d2 <__aeabi_uidiv+0x82>
    19ce:	028b      	lsls	r3, r1, #10
    19d0:	1ac0      	subs	r0, r0, r3
    19d2:	4152      	adcs	r2, r2
    19d4:	0a43      	lsrs	r3, r0, #9
    19d6:	428b      	cmp	r3, r1
    19d8:	d301      	bcc.n	19de <__aeabi_uidiv+0x8e>
    19da:	024b      	lsls	r3, r1, #9
    19dc:	1ac0      	subs	r0, r0, r3
    19de:	4152      	adcs	r2, r2
    19e0:	0a03      	lsrs	r3, r0, #8
    19e2:	428b      	cmp	r3, r1
    19e4:	d301      	bcc.n	19ea <__aeabi_uidiv+0x9a>
    19e6:	020b      	lsls	r3, r1, #8
    19e8:	1ac0      	subs	r0, r0, r3
    19ea:	4152      	adcs	r2, r2
    19ec:	d2cd      	bcs.n	198a <__aeabi_uidiv+0x3a>
    19ee:	09c3      	lsrs	r3, r0, #7
    19f0:	428b      	cmp	r3, r1
    19f2:	d301      	bcc.n	19f8 <__aeabi_uidiv+0xa8>
    19f4:	01cb      	lsls	r3, r1, #7
    19f6:	1ac0      	subs	r0, r0, r3
    19f8:	4152      	adcs	r2, r2
    19fa:	0983      	lsrs	r3, r0, #6
    19fc:	428b      	cmp	r3, r1
    19fe:	d301      	bcc.n	1a04 <__aeabi_uidiv+0xb4>
    1a00:	018b      	lsls	r3, r1, #6
    1a02:	1ac0      	subs	r0, r0, r3
    1a04:	4152      	adcs	r2, r2
    1a06:	0943      	lsrs	r3, r0, #5
    1a08:	428b      	cmp	r3, r1
    1a0a:	d301      	bcc.n	1a10 <__aeabi_uidiv+0xc0>
    1a0c:	014b      	lsls	r3, r1, #5
    1a0e:	1ac0      	subs	r0, r0, r3
    1a10:	4152      	adcs	r2, r2
    1a12:	0903      	lsrs	r3, r0, #4
    1a14:	428b      	cmp	r3, r1
    1a16:	d301      	bcc.n	1a1c <__aeabi_uidiv+0xcc>
    1a18:	010b      	lsls	r3, r1, #4
    1a1a:	1ac0      	subs	r0, r0, r3
    1a1c:	4152      	adcs	r2, r2
    1a1e:	08c3      	lsrs	r3, r0, #3
    1a20:	428b      	cmp	r3, r1
    1a22:	d301      	bcc.n	1a28 <__aeabi_uidiv+0xd8>
    1a24:	00cb      	lsls	r3, r1, #3
    1a26:	1ac0      	subs	r0, r0, r3
    1a28:	4152      	adcs	r2, r2
    1a2a:	0883      	lsrs	r3, r0, #2
    1a2c:	428b      	cmp	r3, r1
    1a2e:	d301      	bcc.n	1a34 <__aeabi_uidiv+0xe4>
    1a30:	008b      	lsls	r3, r1, #2
    1a32:	1ac0      	subs	r0, r0, r3
    1a34:	4152      	adcs	r2, r2
    1a36:	0843      	lsrs	r3, r0, #1
    1a38:	428b      	cmp	r3, r1
    1a3a:	d301      	bcc.n	1a40 <__aeabi_uidiv+0xf0>
    1a3c:	004b      	lsls	r3, r1, #1
    1a3e:	1ac0      	subs	r0, r0, r3
    1a40:	4152      	adcs	r2, r2
    1a42:	1a41      	subs	r1, r0, r1
    1a44:	d200      	bcs.n	1a48 <__aeabi_uidiv+0xf8>
    1a46:	4601      	mov	r1, r0
    1a48:	4152      	adcs	r2, r2
    1a4a:	4610      	mov	r0, r2
    1a4c:	4770      	bx	lr
    1a4e:	e7ff      	b.n	1a50 <__aeabi_uidiv+0x100>
    1a50:	b501      	push	{r0, lr}
    1a52:	2000      	movs	r0, #0
    1a54:	f000 f8f0 	bl	1c38 <__aeabi_idiv0>
    1a58:	bd02      	pop	{r1, pc}
    1a5a:	46c0      	nop			; (mov r8, r8)

00001a5c <__aeabi_uidivmod>:
    1a5c:	2900      	cmp	r1, #0
    1a5e:	d0f7      	beq.n	1a50 <__aeabi_uidiv+0x100>
    1a60:	e776      	b.n	1950 <__aeabi_uidiv>
    1a62:	4770      	bx	lr

00001a64 <__aeabi_idiv>:
    1a64:	4603      	mov	r3, r0
    1a66:	430b      	orrs	r3, r1
    1a68:	d47f      	bmi.n	1b6a <__aeabi_idiv+0x106>
    1a6a:	2200      	movs	r2, #0
    1a6c:	0843      	lsrs	r3, r0, #1
    1a6e:	428b      	cmp	r3, r1
    1a70:	d374      	bcc.n	1b5c <__aeabi_idiv+0xf8>
    1a72:	0903      	lsrs	r3, r0, #4
    1a74:	428b      	cmp	r3, r1
    1a76:	d35f      	bcc.n	1b38 <__aeabi_idiv+0xd4>
    1a78:	0a03      	lsrs	r3, r0, #8
    1a7a:	428b      	cmp	r3, r1
    1a7c:	d344      	bcc.n	1b08 <__aeabi_idiv+0xa4>
    1a7e:	0b03      	lsrs	r3, r0, #12
    1a80:	428b      	cmp	r3, r1
    1a82:	d328      	bcc.n	1ad6 <__aeabi_idiv+0x72>
    1a84:	0c03      	lsrs	r3, r0, #16
    1a86:	428b      	cmp	r3, r1
    1a88:	d30d      	bcc.n	1aa6 <__aeabi_idiv+0x42>
    1a8a:	22ff      	movs	r2, #255	; 0xff
    1a8c:	0209      	lsls	r1, r1, #8
    1a8e:	ba12      	rev	r2, r2
    1a90:	0c03      	lsrs	r3, r0, #16
    1a92:	428b      	cmp	r3, r1
    1a94:	d302      	bcc.n	1a9c <__aeabi_idiv+0x38>
    1a96:	1212      	asrs	r2, r2, #8
    1a98:	0209      	lsls	r1, r1, #8
    1a9a:	d065      	beq.n	1b68 <__aeabi_idiv+0x104>
    1a9c:	0b03      	lsrs	r3, r0, #12
    1a9e:	428b      	cmp	r3, r1
    1aa0:	d319      	bcc.n	1ad6 <__aeabi_idiv+0x72>
    1aa2:	e000      	b.n	1aa6 <__aeabi_idiv+0x42>
    1aa4:	0a09      	lsrs	r1, r1, #8
    1aa6:	0bc3      	lsrs	r3, r0, #15
    1aa8:	428b      	cmp	r3, r1
    1aaa:	d301      	bcc.n	1ab0 <__aeabi_idiv+0x4c>
    1aac:	03cb      	lsls	r3, r1, #15
    1aae:	1ac0      	subs	r0, r0, r3
    1ab0:	4152      	adcs	r2, r2
    1ab2:	0b83      	lsrs	r3, r0, #14
    1ab4:	428b      	cmp	r3, r1
    1ab6:	d301      	bcc.n	1abc <__aeabi_idiv+0x58>
    1ab8:	038b      	lsls	r3, r1, #14
    1aba:	1ac0      	subs	r0, r0, r3
    1abc:	4152      	adcs	r2, r2
    1abe:	0b43      	lsrs	r3, r0, #13
    1ac0:	428b      	cmp	r3, r1
    1ac2:	d301      	bcc.n	1ac8 <__aeabi_idiv+0x64>
    1ac4:	034b      	lsls	r3, r1, #13
    1ac6:	1ac0      	subs	r0, r0, r3
    1ac8:	4152      	adcs	r2, r2
    1aca:	0b03      	lsrs	r3, r0, #12
    1acc:	428b      	cmp	r3, r1
    1ace:	d301      	bcc.n	1ad4 <__aeabi_idiv+0x70>
    1ad0:	030b      	lsls	r3, r1, #12
    1ad2:	1ac0      	subs	r0, r0, r3
    1ad4:	4152      	adcs	r2, r2
    1ad6:	0ac3      	lsrs	r3, r0, #11
    1ad8:	428b      	cmp	r3, r1
    1ada:	d301      	bcc.n	1ae0 <__aeabi_idiv+0x7c>
    1adc:	02cb      	lsls	r3, r1, #11
    1ade:	1ac0      	subs	r0, r0, r3
    1ae0:	4152      	adcs	r2, r2
    1ae2:	0a83      	lsrs	r3, r0, #10
    1ae4:	428b      	cmp	r3, r1
    1ae6:	d301      	bcc.n	1aec <__aeabi_idiv+0x88>
    1ae8:	028b      	lsls	r3, r1, #10
    1aea:	1ac0      	subs	r0, r0, r3
    1aec:	4152      	adcs	r2, r2
    1aee:	0a43      	lsrs	r3, r0, #9
    1af0:	428b      	cmp	r3, r1
    1af2:	d301      	bcc.n	1af8 <__aeabi_idiv+0x94>
    1af4:	024b      	lsls	r3, r1, #9
    1af6:	1ac0      	subs	r0, r0, r3
    1af8:	4152      	adcs	r2, r2
    1afa:	0a03      	lsrs	r3, r0, #8
    1afc:	428b      	cmp	r3, r1
    1afe:	d301      	bcc.n	1b04 <__aeabi_idiv+0xa0>
    1b00:	020b      	lsls	r3, r1, #8
    1b02:	1ac0      	subs	r0, r0, r3
    1b04:	4152      	adcs	r2, r2
    1b06:	d2cd      	bcs.n	1aa4 <__aeabi_idiv+0x40>
    1b08:	09c3      	lsrs	r3, r0, #7
    1b0a:	428b      	cmp	r3, r1
    1b0c:	d301      	bcc.n	1b12 <__aeabi_idiv+0xae>
    1b0e:	01cb      	lsls	r3, r1, #7
    1b10:	1ac0      	subs	r0, r0, r3
    1b12:	4152      	adcs	r2, r2
    1b14:	0983      	lsrs	r3, r0, #6
    1b16:	428b      	cmp	r3, r1
    1b18:	d301      	bcc.n	1b1e <__aeabi_idiv+0xba>
    1b1a:	018b      	lsls	r3, r1, #6
    1b1c:	1ac0      	subs	r0, r0, r3
    1b1e:	4152      	adcs	r2, r2
    1b20:	0943      	lsrs	r3, r0, #5
    1b22:	428b      	cmp	r3, r1
    1b24:	d301      	bcc.n	1b2a <__aeabi_idiv+0xc6>
    1b26:	014b      	lsls	r3, r1, #5
    1b28:	1ac0      	subs	r0, r0, r3
    1b2a:	4152      	adcs	r2, r2
    1b2c:	0903      	lsrs	r3, r0, #4
    1b2e:	428b      	cmp	r3, r1
    1b30:	d301      	bcc.n	1b36 <__aeabi_idiv+0xd2>
    1b32:	010b      	lsls	r3, r1, #4
    1b34:	1ac0      	subs	r0, r0, r3
    1b36:	4152      	adcs	r2, r2
    1b38:	08c3      	lsrs	r3, r0, #3
    1b3a:	428b      	cmp	r3, r1
    1b3c:	d301      	bcc.n	1b42 <__aeabi_idiv+0xde>
    1b3e:	00cb      	lsls	r3, r1, #3
    1b40:	1ac0      	subs	r0, r0, r3
    1b42:	4152      	adcs	r2, r2
    1b44:	0883      	lsrs	r3, r0, #2
    1b46:	428b      	cmp	r3, r1
    1b48:	d301      	bcc.n	1b4e <__aeabi_idiv+0xea>
    1b4a:	008b      	lsls	r3, r1, #2
    1b4c:	1ac0      	subs	r0, r0, r3
    1b4e:	4152      	adcs	r2, r2
    1b50:	0843      	lsrs	r3, r0, #1
    1b52:	428b      	cmp	r3, r1
    1b54:	d301      	bcc.n	1b5a <__aeabi_idiv+0xf6>
    1b56:	004b      	lsls	r3, r1, #1
    1b58:	1ac0      	subs	r0, r0, r3
    1b5a:	4152      	adcs	r2, r2
    1b5c:	1a41      	subs	r1, r0, r1
    1b5e:	d200      	bcs.n	1b62 <__aeabi_idiv+0xfe>
    1b60:	4601      	mov	r1, r0
    1b62:	4152      	adcs	r2, r2
    1b64:	4610      	mov	r0, r2
    1b66:	4770      	bx	lr
    1b68:	e05d      	b.n	1c26 <__aeabi_idiv+0x1c2>
    1b6a:	0fca      	lsrs	r2, r1, #31
    1b6c:	d000      	beq.n	1b70 <__aeabi_idiv+0x10c>
    1b6e:	4249      	negs	r1, r1
    1b70:	1003      	asrs	r3, r0, #32
    1b72:	d300      	bcc.n	1b76 <__aeabi_idiv+0x112>
    1b74:	4240      	negs	r0, r0
    1b76:	4053      	eors	r3, r2
    1b78:	2200      	movs	r2, #0
    1b7a:	469c      	mov	ip, r3
    1b7c:	0903      	lsrs	r3, r0, #4
    1b7e:	428b      	cmp	r3, r1
    1b80:	d32d      	bcc.n	1bde <__aeabi_idiv+0x17a>
    1b82:	0a03      	lsrs	r3, r0, #8
    1b84:	428b      	cmp	r3, r1
    1b86:	d312      	bcc.n	1bae <__aeabi_idiv+0x14a>
    1b88:	22fc      	movs	r2, #252	; 0xfc
    1b8a:	0189      	lsls	r1, r1, #6
    1b8c:	ba12      	rev	r2, r2
    1b8e:	0a03      	lsrs	r3, r0, #8
    1b90:	428b      	cmp	r3, r1
    1b92:	d30c      	bcc.n	1bae <__aeabi_idiv+0x14a>
    1b94:	0189      	lsls	r1, r1, #6
    1b96:	1192      	asrs	r2, r2, #6
    1b98:	428b      	cmp	r3, r1
    1b9a:	d308      	bcc.n	1bae <__aeabi_idiv+0x14a>
    1b9c:	0189      	lsls	r1, r1, #6
    1b9e:	1192      	asrs	r2, r2, #6
    1ba0:	428b      	cmp	r3, r1
    1ba2:	d304      	bcc.n	1bae <__aeabi_idiv+0x14a>
    1ba4:	0189      	lsls	r1, r1, #6
    1ba6:	d03a      	beq.n	1c1e <__aeabi_idiv+0x1ba>
    1ba8:	1192      	asrs	r2, r2, #6
    1baa:	e000      	b.n	1bae <__aeabi_idiv+0x14a>
    1bac:	0989      	lsrs	r1, r1, #6
    1bae:	09c3      	lsrs	r3, r0, #7
    1bb0:	428b      	cmp	r3, r1
    1bb2:	d301      	bcc.n	1bb8 <__aeabi_idiv+0x154>
    1bb4:	01cb      	lsls	r3, r1, #7
    1bb6:	1ac0      	subs	r0, r0, r3
    1bb8:	4152      	adcs	r2, r2
    1bba:	0983      	lsrs	r3, r0, #6
    1bbc:	428b      	cmp	r3, r1
    1bbe:	d301      	bcc.n	1bc4 <__aeabi_idiv+0x160>
    1bc0:	018b      	lsls	r3, r1, #6
    1bc2:	1ac0      	subs	r0, r0, r3
    1bc4:	4152      	adcs	r2, r2
    1bc6:	0943      	lsrs	r3, r0, #5
    1bc8:	428b      	cmp	r3, r1
    1bca:	d301      	bcc.n	1bd0 <__aeabi_idiv+0x16c>
    1bcc:	014b      	lsls	r3, r1, #5
    1bce:	1ac0      	subs	r0, r0, r3
    1bd0:	4152      	adcs	r2, r2
    1bd2:	0903      	lsrs	r3, r0, #4
    1bd4:	428b      	cmp	r3, r1
    1bd6:	d301      	bcc.n	1bdc <__aeabi_idiv+0x178>
    1bd8:	010b      	lsls	r3, r1, #4
    1bda:	1ac0      	subs	r0, r0, r3
    1bdc:	4152      	adcs	r2, r2
    1bde:	08c3      	lsrs	r3, r0, #3
    1be0:	428b      	cmp	r3, r1
    1be2:	d301      	bcc.n	1be8 <__aeabi_idiv+0x184>
    1be4:	00cb      	lsls	r3, r1, #3
    1be6:	1ac0      	subs	r0, r0, r3
    1be8:	4152      	adcs	r2, r2
    1bea:	0883      	lsrs	r3, r0, #2
    1bec:	428b      	cmp	r3, r1
    1bee:	d301      	bcc.n	1bf4 <__aeabi_idiv+0x190>
    1bf0:	008b      	lsls	r3, r1, #2
    1bf2:	1ac0      	subs	r0, r0, r3
    1bf4:	4152      	adcs	r2, r2
    1bf6:	d2d9      	bcs.n	1bac <__aeabi_idiv+0x148>
    1bf8:	0843      	lsrs	r3, r0, #1
    1bfa:	428b      	cmp	r3, r1
    1bfc:	d301      	bcc.n	1c02 <__aeabi_idiv+0x19e>
    1bfe:	004b      	lsls	r3, r1, #1
    1c00:	1ac0      	subs	r0, r0, r3
    1c02:	4152      	adcs	r2, r2
    1c04:	1a41      	subs	r1, r0, r1
    1c06:	d200      	bcs.n	1c0a <__aeabi_idiv+0x1a6>
    1c08:	4601      	mov	r1, r0
    1c0a:	4663      	mov	r3, ip
    1c0c:	4152      	adcs	r2, r2
    1c0e:	105b      	asrs	r3, r3, #1
    1c10:	4610      	mov	r0, r2
    1c12:	d301      	bcc.n	1c18 <__aeabi_idiv+0x1b4>
    1c14:	4240      	negs	r0, r0
    1c16:	2b00      	cmp	r3, #0
    1c18:	d500      	bpl.n	1c1c <__aeabi_idiv+0x1b8>
    1c1a:	4249      	negs	r1, r1
    1c1c:	4770      	bx	lr
    1c1e:	4663      	mov	r3, ip
    1c20:	105b      	asrs	r3, r3, #1
    1c22:	d300      	bcc.n	1c26 <__aeabi_idiv+0x1c2>
    1c24:	4240      	negs	r0, r0
    1c26:	b501      	push	{r0, lr}
    1c28:	2000      	movs	r0, #0
    1c2a:	f000 f805 	bl	1c38 <__aeabi_idiv0>
    1c2e:	bd02      	pop	{r1, pc}

00001c30 <__aeabi_idivmod>:
    1c30:	2900      	cmp	r1, #0
    1c32:	d0f8      	beq.n	1c26 <__aeabi_idiv+0x1c2>
    1c34:	e716      	b.n	1a64 <__aeabi_idiv>
    1c36:	4770      	bx	lr

00001c38 <__aeabi_idiv0>:
    1c38:	4770      	bx	lr
    1c3a:	46c0      	nop			; (mov r8, r8)

00001c3c <__aeabi_ddiv>:
    1c3c:	b5f0      	push	{r4, r5, r6, r7, lr}
    1c3e:	4656      	mov	r6, sl
    1c40:	464d      	mov	r5, r9
    1c42:	4644      	mov	r4, r8
    1c44:	465f      	mov	r7, fp
    1c46:	b4f0      	push	{r4, r5, r6, r7}
    1c48:	001d      	movs	r5, r3
    1c4a:	030e      	lsls	r6, r1, #12
    1c4c:	004c      	lsls	r4, r1, #1
    1c4e:	0fcb      	lsrs	r3, r1, #31
    1c50:	b087      	sub	sp, #28
    1c52:	0007      	movs	r7, r0
    1c54:	4692      	mov	sl, r2
    1c56:	4681      	mov	r9, r0
    1c58:	0b36      	lsrs	r6, r6, #12
    1c5a:	0d64      	lsrs	r4, r4, #21
    1c5c:	4698      	mov	r8, r3
    1c5e:	d06a      	beq.n	1d36 <__aeabi_ddiv+0xfa>
    1c60:	4b6d      	ldr	r3, [pc, #436]	; (1e18 <__aeabi_ddiv+0x1dc>)
    1c62:	429c      	cmp	r4, r3
    1c64:	d035      	beq.n	1cd2 <__aeabi_ddiv+0x96>
    1c66:	2280      	movs	r2, #128	; 0x80
    1c68:	0f43      	lsrs	r3, r0, #29
    1c6a:	0412      	lsls	r2, r2, #16
    1c6c:	4313      	orrs	r3, r2
    1c6e:	00f6      	lsls	r6, r6, #3
    1c70:	431e      	orrs	r6, r3
    1c72:	00c3      	lsls	r3, r0, #3
    1c74:	4699      	mov	r9, r3
    1c76:	4b69      	ldr	r3, [pc, #420]	; (1e1c <__aeabi_ddiv+0x1e0>)
    1c78:	2700      	movs	r7, #0
    1c7a:	469c      	mov	ip, r3
    1c7c:	2300      	movs	r3, #0
    1c7e:	4464      	add	r4, ip
    1c80:	9302      	str	r3, [sp, #8]
    1c82:	032b      	lsls	r3, r5, #12
    1c84:	0068      	lsls	r0, r5, #1
    1c86:	0b1b      	lsrs	r3, r3, #12
    1c88:	0fed      	lsrs	r5, r5, #31
    1c8a:	4651      	mov	r1, sl
    1c8c:	469b      	mov	fp, r3
    1c8e:	0d40      	lsrs	r0, r0, #21
    1c90:	9500      	str	r5, [sp, #0]
    1c92:	d100      	bne.n	1c96 <__aeabi_ddiv+0x5a>
    1c94:	e078      	b.n	1d88 <__aeabi_ddiv+0x14c>
    1c96:	4b60      	ldr	r3, [pc, #384]	; (1e18 <__aeabi_ddiv+0x1dc>)
    1c98:	4298      	cmp	r0, r3
    1c9a:	d06c      	beq.n	1d76 <__aeabi_ddiv+0x13a>
    1c9c:	465b      	mov	r3, fp
    1c9e:	00da      	lsls	r2, r3, #3
    1ca0:	0f4b      	lsrs	r3, r1, #29
    1ca2:	2180      	movs	r1, #128	; 0x80
    1ca4:	0409      	lsls	r1, r1, #16
    1ca6:	430b      	orrs	r3, r1
    1ca8:	4313      	orrs	r3, r2
    1caa:	469b      	mov	fp, r3
    1cac:	4653      	mov	r3, sl
    1cae:	00d9      	lsls	r1, r3, #3
    1cb0:	4b5a      	ldr	r3, [pc, #360]	; (1e1c <__aeabi_ddiv+0x1e0>)
    1cb2:	469c      	mov	ip, r3
    1cb4:	2300      	movs	r3, #0
    1cb6:	4460      	add	r0, ip
    1cb8:	4642      	mov	r2, r8
    1cba:	1a20      	subs	r0, r4, r0
    1cbc:	406a      	eors	r2, r5
    1cbe:	4692      	mov	sl, r2
    1cc0:	9001      	str	r0, [sp, #4]
    1cc2:	431f      	orrs	r7, r3
    1cc4:	2f0f      	cmp	r7, #15
    1cc6:	d900      	bls.n	1cca <__aeabi_ddiv+0x8e>
    1cc8:	e0b0      	b.n	1e2c <__aeabi_ddiv+0x1f0>
    1cca:	4855      	ldr	r0, [pc, #340]	; (1e20 <__aeabi_ddiv+0x1e4>)
    1ccc:	00bf      	lsls	r7, r7, #2
    1cce:	59c0      	ldr	r0, [r0, r7]
    1cd0:	4687      	mov	pc, r0
    1cd2:	4337      	orrs	r7, r6
    1cd4:	d000      	beq.n	1cd8 <__aeabi_ddiv+0x9c>
    1cd6:	e088      	b.n	1dea <__aeabi_ddiv+0x1ae>
    1cd8:	2300      	movs	r3, #0
    1cda:	4699      	mov	r9, r3
    1cdc:	3302      	adds	r3, #2
    1cde:	2708      	movs	r7, #8
    1ce0:	2600      	movs	r6, #0
    1ce2:	9302      	str	r3, [sp, #8]
    1ce4:	e7cd      	b.n	1c82 <__aeabi_ddiv+0x46>
    1ce6:	4643      	mov	r3, r8
    1ce8:	46b3      	mov	fp, r6
    1cea:	4649      	mov	r1, r9
    1cec:	9300      	str	r3, [sp, #0]
    1cee:	9b02      	ldr	r3, [sp, #8]
    1cf0:	9a00      	ldr	r2, [sp, #0]
    1cf2:	4692      	mov	sl, r2
    1cf4:	2b02      	cmp	r3, #2
    1cf6:	d000      	beq.n	1cfa <__aeabi_ddiv+0xbe>
    1cf8:	e1bf      	b.n	207a <STACK_SIZE+0x7a>
    1cfa:	2100      	movs	r1, #0
    1cfc:	4653      	mov	r3, sl
    1cfe:	2201      	movs	r2, #1
    1d00:	2600      	movs	r6, #0
    1d02:	4689      	mov	r9, r1
    1d04:	401a      	ands	r2, r3
    1d06:	4b44      	ldr	r3, [pc, #272]	; (1e18 <__aeabi_ddiv+0x1dc>)
    1d08:	2100      	movs	r1, #0
    1d0a:	0336      	lsls	r6, r6, #12
    1d0c:	0d0c      	lsrs	r4, r1, #20
    1d0e:	0524      	lsls	r4, r4, #20
    1d10:	0b36      	lsrs	r6, r6, #12
    1d12:	4326      	orrs	r6, r4
    1d14:	4c43      	ldr	r4, [pc, #268]	; (1e24 <__aeabi_ddiv+0x1e8>)
    1d16:	051b      	lsls	r3, r3, #20
    1d18:	4026      	ands	r6, r4
    1d1a:	431e      	orrs	r6, r3
    1d1c:	0076      	lsls	r6, r6, #1
    1d1e:	07d2      	lsls	r2, r2, #31
    1d20:	0876      	lsrs	r6, r6, #1
    1d22:	4316      	orrs	r6, r2
    1d24:	4648      	mov	r0, r9
    1d26:	0031      	movs	r1, r6
    1d28:	b007      	add	sp, #28
    1d2a:	bc3c      	pop	{r2, r3, r4, r5}
    1d2c:	4690      	mov	r8, r2
    1d2e:	4699      	mov	r9, r3
    1d30:	46a2      	mov	sl, r4
    1d32:	46ab      	mov	fp, r5
    1d34:	bdf0      	pop	{r4, r5, r6, r7, pc}
    1d36:	0033      	movs	r3, r6
    1d38:	4303      	orrs	r3, r0
    1d3a:	d04f      	beq.n	1ddc <__aeabi_ddiv+0x1a0>
    1d3c:	2e00      	cmp	r6, #0
    1d3e:	d100      	bne.n	1d42 <__aeabi_ddiv+0x106>
    1d40:	e1bc      	b.n	20bc <STACK_SIZE+0xbc>
    1d42:	0030      	movs	r0, r6
    1d44:	f000 fdd8 	bl	28f8 <__clzsi2>
    1d48:	0003      	movs	r3, r0
    1d4a:	3b0b      	subs	r3, #11
    1d4c:	2b1c      	cmp	r3, #28
    1d4e:	dd00      	ble.n	1d52 <__aeabi_ddiv+0x116>
    1d50:	e1ad      	b.n	20ae <STACK_SIZE+0xae>
    1d52:	221d      	movs	r2, #29
    1d54:	0001      	movs	r1, r0
    1d56:	1ad3      	subs	r3, r2, r3
    1d58:	3908      	subs	r1, #8
    1d5a:	003a      	movs	r2, r7
    1d5c:	408f      	lsls	r7, r1
    1d5e:	408e      	lsls	r6, r1
    1d60:	40da      	lsrs	r2, r3
    1d62:	46b9      	mov	r9, r7
    1d64:	4316      	orrs	r6, r2
    1d66:	4b30      	ldr	r3, [pc, #192]	; (1e28 <__aeabi_ddiv+0x1ec>)
    1d68:	2700      	movs	r7, #0
    1d6a:	469c      	mov	ip, r3
    1d6c:	2300      	movs	r3, #0
    1d6e:	4460      	add	r0, ip
    1d70:	4244      	negs	r4, r0
    1d72:	9302      	str	r3, [sp, #8]
    1d74:	e785      	b.n	1c82 <__aeabi_ddiv+0x46>
    1d76:	4653      	mov	r3, sl
    1d78:	465a      	mov	r2, fp
    1d7a:	4313      	orrs	r3, r2
    1d7c:	d12c      	bne.n	1dd8 <__aeabi_ddiv+0x19c>
    1d7e:	2300      	movs	r3, #0
    1d80:	2100      	movs	r1, #0
    1d82:	469b      	mov	fp, r3
    1d84:	3302      	adds	r3, #2
    1d86:	e797      	b.n	1cb8 <__aeabi_ddiv+0x7c>
    1d88:	430b      	orrs	r3, r1
    1d8a:	d020      	beq.n	1dce <__aeabi_ddiv+0x192>
    1d8c:	465b      	mov	r3, fp
    1d8e:	2b00      	cmp	r3, #0
    1d90:	d100      	bne.n	1d94 <__aeabi_ddiv+0x158>
    1d92:	e19e      	b.n	20d2 <STACK_SIZE+0xd2>
    1d94:	4658      	mov	r0, fp
    1d96:	f000 fdaf 	bl	28f8 <__clzsi2>
    1d9a:	0003      	movs	r3, r0
    1d9c:	3b0b      	subs	r3, #11
    1d9e:	2b1c      	cmp	r3, #28
    1da0:	dd00      	ble.n	1da4 <__aeabi_ddiv+0x168>
    1da2:	e18f      	b.n	20c4 <STACK_SIZE+0xc4>
    1da4:	0002      	movs	r2, r0
    1da6:	4659      	mov	r1, fp
    1da8:	3a08      	subs	r2, #8
    1daa:	4091      	lsls	r1, r2
    1dac:	468b      	mov	fp, r1
    1dae:	211d      	movs	r1, #29
    1db0:	1acb      	subs	r3, r1, r3
    1db2:	4651      	mov	r1, sl
    1db4:	40d9      	lsrs	r1, r3
    1db6:	000b      	movs	r3, r1
    1db8:	4659      	mov	r1, fp
    1dba:	430b      	orrs	r3, r1
    1dbc:	4651      	mov	r1, sl
    1dbe:	469b      	mov	fp, r3
    1dc0:	4091      	lsls	r1, r2
    1dc2:	4b19      	ldr	r3, [pc, #100]	; (1e28 <__aeabi_ddiv+0x1ec>)
    1dc4:	469c      	mov	ip, r3
    1dc6:	4460      	add	r0, ip
    1dc8:	4240      	negs	r0, r0
    1dca:	2300      	movs	r3, #0
    1dcc:	e774      	b.n	1cb8 <__aeabi_ddiv+0x7c>
    1dce:	2300      	movs	r3, #0
    1dd0:	2100      	movs	r1, #0
    1dd2:	469b      	mov	fp, r3
    1dd4:	3301      	adds	r3, #1
    1dd6:	e76f      	b.n	1cb8 <__aeabi_ddiv+0x7c>
    1dd8:	2303      	movs	r3, #3
    1dda:	e76d      	b.n	1cb8 <__aeabi_ddiv+0x7c>
    1ddc:	2300      	movs	r3, #0
    1dde:	4699      	mov	r9, r3
    1de0:	3301      	adds	r3, #1
    1de2:	2704      	movs	r7, #4
    1de4:	2600      	movs	r6, #0
    1de6:	9302      	str	r3, [sp, #8]
    1de8:	e74b      	b.n	1c82 <__aeabi_ddiv+0x46>
    1dea:	2303      	movs	r3, #3
    1dec:	270c      	movs	r7, #12
    1dee:	9302      	str	r3, [sp, #8]
    1df0:	e747      	b.n	1c82 <__aeabi_ddiv+0x46>
    1df2:	2201      	movs	r2, #1
    1df4:	1ad5      	subs	r5, r2, r3
    1df6:	2d38      	cmp	r5, #56	; 0x38
    1df8:	dc00      	bgt.n	1dfc <__aeabi_ddiv+0x1c0>
    1dfa:	e1b0      	b.n	215e <STACK_SIZE+0x15e>
    1dfc:	4653      	mov	r3, sl
    1dfe:	401a      	ands	r2, r3
    1e00:	2100      	movs	r1, #0
    1e02:	2300      	movs	r3, #0
    1e04:	2600      	movs	r6, #0
    1e06:	4689      	mov	r9, r1
    1e08:	e77e      	b.n	1d08 <__aeabi_ddiv+0xcc>
    1e0a:	2300      	movs	r3, #0
    1e0c:	2680      	movs	r6, #128	; 0x80
    1e0e:	4699      	mov	r9, r3
    1e10:	2200      	movs	r2, #0
    1e12:	0336      	lsls	r6, r6, #12
    1e14:	4b00      	ldr	r3, [pc, #0]	; (1e18 <__aeabi_ddiv+0x1dc>)
    1e16:	e777      	b.n	1d08 <__aeabi_ddiv+0xcc>
    1e18:	000007ff 	.word	0x000007ff
    1e1c:	fffffc01 	.word	0xfffffc01
    1e20:	000046b8 	.word	0x000046b8
    1e24:	800fffff 	.word	0x800fffff
    1e28:	000003f3 	.word	0x000003f3
    1e2c:	455e      	cmp	r6, fp
    1e2e:	d900      	bls.n	1e32 <__aeabi_ddiv+0x1f6>
    1e30:	e172      	b.n	2118 <STACK_SIZE+0x118>
    1e32:	d100      	bne.n	1e36 <__aeabi_ddiv+0x1fa>
    1e34:	e16d      	b.n	2112 <STACK_SIZE+0x112>
    1e36:	9b01      	ldr	r3, [sp, #4]
    1e38:	464d      	mov	r5, r9
    1e3a:	3b01      	subs	r3, #1
    1e3c:	9301      	str	r3, [sp, #4]
    1e3e:	2300      	movs	r3, #0
    1e40:	0034      	movs	r4, r6
    1e42:	9302      	str	r3, [sp, #8]
    1e44:	465b      	mov	r3, fp
    1e46:	021e      	lsls	r6, r3, #8
    1e48:	0e0b      	lsrs	r3, r1, #24
    1e4a:	431e      	orrs	r6, r3
    1e4c:	020b      	lsls	r3, r1, #8
    1e4e:	9303      	str	r3, [sp, #12]
    1e50:	0c33      	lsrs	r3, r6, #16
    1e52:	4699      	mov	r9, r3
    1e54:	0433      	lsls	r3, r6, #16
    1e56:	0c1b      	lsrs	r3, r3, #16
    1e58:	4649      	mov	r1, r9
    1e5a:	0020      	movs	r0, r4
    1e5c:	9300      	str	r3, [sp, #0]
    1e5e:	f7ff fd77 	bl	1950 <__aeabi_uidiv>
    1e62:	9b00      	ldr	r3, [sp, #0]
    1e64:	0037      	movs	r7, r6
    1e66:	4343      	muls	r3, r0
    1e68:	0006      	movs	r6, r0
    1e6a:	4649      	mov	r1, r9
    1e6c:	0020      	movs	r0, r4
    1e6e:	4698      	mov	r8, r3
    1e70:	f7ff fdf4 	bl	1a5c <__aeabi_uidivmod>
    1e74:	0c2c      	lsrs	r4, r5, #16
    1e76:	0409      	lsls	r1, r1, #16
    1e78:	430c      	orrs	r4, r1
    1e7a:	45a0      	cmp	r8, r4
    1e7c:	d909      	bls.n	1e92 <__aeabi_ddiv+0x256>
    1e7e:	19e4      	adds	r4, r4, r7
    1e80:	1e73      	subs	r3, r6, #1
    1e82:	42a7      	cmp	r7, r4
    1e84:	d900      	bls.n	1e88 <__aeabi_ddiv+0x24c>
    1e86:	e15c      	b.n	2142 <STACK_SIZE+0x142>
    1e88:	45a0      	cmp	r8, r4
    1e8a:	d800      	bhi.n	1e8e <__aeabi_ddiv+0x252>
    1e8c:	e159      	b.n	2142 <STACK_SIZE+0x142>
    1e8e:	3e02      	subs	r6, #2
    1e90:	19e4      	adds	r4, r4, r7
    1e92:	4643      	mov	r3, r8
    1e94:	1ae4      	subs	r4, r4, r3
    1e96:	4649      	mov	r1, r9
    1e98:	0020      	movs	r0, r4
    1e9a:	f7ff fd59 	bl	1950 <__aeabi_uidiv>
    1e9e:	0003      	movs	r3, r0
    1ea0:	9a00      	ldr	r2, [sp, #0]
    1ea2:	4680      	mov	r8, r0
    1ea4:	4353      	muls	r3, r2
    1ea6:	4649      	mov	r1, r9
    1ea8:	0020      	movs	r0, r4
    1eaa:	469b      	mov	fp, r3
    1eac:	f7ff fdd6 	bl	1a5c <__aeabi_uidivmod>
    1eb0:	042a      	lsls	r2, r5, #16
    1eb2:	0409      	lsls	r1, r1, #16
    1eb4:	0c12      	lsrs	r2, r2, #16
    1eb6:	430a      	orrs	r2, r1
    1eb8:	4593      	cmp	fp, r2
    1eba:	d90d      	bls.n	1ed8 <__aeabi_ddiv+0x29c>
    1ebc:	4643      	mov	r3, r8
    1ebe:	19d2      	adds	r2, r2, r7
    1ec0:	3b01      	subs	r3, #1
    1ec2:	4297      	cmp	r7, r2
    1ec4:	d900      	bls.n	1ec8 <__aeabi_ddiv+0x28c>
    1ec6:	e13a      	b.n	213e <STACK_SIZE+0x13e>
    1ec8:	4593      	cmp	fp, r2
    1eca:	d800      	bhi.n	1ece <__aeabi_ddiv+0x292>
    1ecc:	e137      	b.n	213e <STACK_SIZE+0x13e>
    1ece:	2302      	movs	r3, #2
    1ed0:	425b      	negs	r3, r3
    1ed2:	469c      	mov	ip, r3
    1ed4:	19d2      	adds	r2, r2, r7
    1ed6:	44e0      	add	r8, ip
    1ed8:	465b      	mov	r3, fp
    1eda:	1ad2      	subs	r2, r2, r3
    1edc:	4643      	mov	r3, r8
    1ede:	0436      	lsls	r6, r6, #16
    1ee0:	4333      	orrs	r3, r6
    1ee2:	469b      	mov	fp, r3
    1ee4:	9903      	ldr	r1, [sp, #12]
    1ee6:	0c18      	lsrs	r0, r3, #16
    1ee8:	0c0b      	lsrs	r3, r1, #16
    1eea:	001d      	movs	r5, r3
    1eec:	9305      	str	r3, [sp, #20]
    1eee:	0409      	lsls	r1, r1, #16
    1ef0:	465b      	mov	r3, fp
    1ef2:	0c09      	lsrs	r1, r1, #16
    1ef4:	000c      	movs	r4, r1
    1ef6:	041b      	lsls	r3, r3, #16
    1ef8:	0c1b      	lsrs	r3, r3, #16
    1efa:	4344      	muls	r4, r0
    1efc:	9104      	str	r1, [sp, #16]
    1efe:	4359      	muls	r1, r3
    1f00:	436b      	muls	r3, r5
    1f02:	4368      	muls	r0, r5
    1f04:	191b      	adds	r3, r3, r4
    1f06:	0c0d      	lsrs	r5, r1, #16
    1f08:	18eb      	adds	r3, r5, r3
    1f0a:	429c      	cmp	r4, r3
    1f0c:	d903      	bls.n	1f16 <__aeabi_ddiv+0x2da>
    1f0e:	2480      	movs	r4, #128	; 0x80
    1f10:	0264      	lsls	r4, r4, #9
    1f12:	46a4      	mov	ip, r4
    1f14:	4460      	add	r0, ip
    1f16:	0c1c      	lsrs	r4, r3, #16
    1f18:	0409      	lsls	r1, r1, #16
    1f1a:	041b      	lsls	r3, r3, #16
    1f1c:	0c09      	lsrs	r1, r1, #16
    1f1e:	1820      	adds	r0, r4, r0
    1f20:	185d      	adds	r5, r3, r1
    1f22:	4282      	cmp	r2, r0
    1f24:	d200      	bcs.n	1f28 <__aeabi_ddiv+0x2ec>
    1f26:	e0de      	b.n	20e6 <STACK_SIZE+0xe6>
    1f28:	d100      	bne.n	1f2c <__aeabi_ddiv+0x2f0>
    1f2a:	e0d7      	b.n	20dc <STACK_SIZE+0xdc>
    1f2c:	1a16      	subs	r6, r2, r0
    1f2e:	9b02      	ldr	r3, [sp, #8]
    1f30:	469c      	mov	ip, r3
    1f32:	1b5d      	subs	r5, r3, r5
    1f34:	45ac      	cmp	ip, r5
    1f36:	419b      	sbcs	r3, r3
    1f38:	425b      	negs	r3, r3
    1f3a:	1af6      	subs	r6, r6, r3
    1f3c:	42b7      	cmp	r7, r6
    1f3e:	d100      	bne.n	1f42 <__aeabi_ddiv+0x306>
    1f40:	e106      	b.n	2150 <STACK_SIZE+0x150>
    1f42:	4649      	mov	r1, r9
    1f44:	0030      	movs	r0, r6
    1f46:	f7ff fd03 	bl	1950 <__aeabi_uidiv>
    1f4a:	9b00      	ldr	r3, [sp, #0]
    1f4c:	0004      	movs	r4, r0
    1f4e:	4343      	muls	r3, r0
    1f50:	4649      	mov	r1, r9
    1f52:	0030      	movs	r0, r6
    1f54:	4698      	mov	r8, r3
    1f56:	f7ff fd81 	bl	1a5c <__aeabi_uidivmod>
    1f5a:	0c2e      	lsrs	r6, r5, #16
    1f5c:	0409      	lsls	r1, r1, #16
    1f5e:	430e      	orrs	r6, r1
    1f60:	45b0      	cmp	r8, r6
    1f62:	d909      	bls.n	1f78 <__aeabi_ddiv+0x33c>
    1f64:	19f6      	adds	r6, r6, r7
    1f66:	1e63      	subs	r3, r4, #1
    1f68:	42b7      	cmp	r7, r6
    1f6a:	d900      	bls.n	1f6e <__aeabi_ddiv+0x332>
    1f6c:	e0f3      	b.n	2156 <STACK_SIZE+0x156>
    1f6e:	45b0      	cmp	r8, r6
    1f70:	d800      	bhi.n	1f74 <__aeabi_ddiv+0x338>
    1f72:	e0f0      	b.n	2156 <STACK_SIZE+0x156>
    1f74:	3c02      	subs	r4, #2
    1f76:	19f6      	adds	r6, r6, r7
    1f78:	4643      	mov	r3, r8
    1f7a:	1af3      	subs	r3, r6, r3
    1f7c:	4649      	mov	r1, r9
    1f7e:	0018      	movs	r0, r3
    1f80:	9302      	str	r3, [sp, #8]
    1f82:	f7ff fce5 	bl	1950 <__aeabi_uidiv>
    1f86:	9b00      	ldr	r3, [sp, #0]
    1f88:	0006      	movs	r6, r0
    1f8a:	4343      	muls	r3, r0
    1f8c:	4649      	mov	r1, r9
    1f8e:	9802      	ldr	r0, [sp, #8]
    1f90:	4698      	mov	r8, r3
    1f92:	f7ff fd63 	bl	1a5c <__aeabi_uidivmod>
    1f96:	042d      	lsls	r5, r5, #16
    1f98:	0409      	lsls	r1, r1, #16
    1f9a:	0c2d      	lsrs	r5, r5, #16
    1f9c:	430d      	orrs	r5, r1
    1f9e:	45a8      	cmp	r8, r5
    1fa0:	d909      	bls.n	1fb6 <__aeabi_ddiv+0x37a>
    1fa2:	19ed      	adds	r5, r5, r7
    1fa4:	1e73      	subs	r3, r6, #1
    1fa6:	42af      	cmp	r7, r5
    1fa8:	d900      	bls.n	1fac <__aeabi_ddiv+0x370>
    1faa:	e0d6      	b.n	215a <STACK_SIZE+0x15a>
    1fac:	45a8      	cmp	r8, r5
    1fae:	d800      	bhi.n	1fb2 <__aeabi_ddiv+0x376>
    1fb0:	e0d3      	b.n	215a <STACK_SIZE+0x15a>
    1fb2:	3e02      	subs	r6, #2
    1fb4:	19ed      	adds	r5, r5, r7
    1fb6:	0424      	lsls	r4, r4, #16
    1fb8:	0021      	movs	r1, r4
    1fba:	4643      	mov	r3, r8
    1fbc:	4331      	orrs	r1, r6
    1fbe:	9e04      	ldr	r6, [sp, #16]
    1fc0:	9a05      	ldr	r2, [sp, #20]
    1fc2:	0030      	movs	r0, r6
    1fc4:	1aed      	subs	r5, r5, r3
    1fc6:	040b      	lsls	r3, r1, #16
    1fc8:	0c0c      	lsrs	r4, r1, #16
    1fca:	0c1b      	lsrs	r3, r3, #16
    1fcc:	4358      	muls	r0, r3
    1fce:	4366      	muls	r6, r4
    1fd0:	4353      	muls	r3, r2
    1fd2:	4354      	muls	r4, r2
    1fd4:	199a      	adds	r2, r3, r6
    1fd6:	0c03      	lsrs	r3, r0, #16
    1fd8:	189b      	adds	r3, r3, r2
    1fda:	429e      	cmp	r6, r3
    1fdc:	d903      	bls.n	1fe6 <__aeabi_ddiv+0x3aa>
    1fde:	2280      	movs	r2, #128	; 0x80
    1fe0:	0252      	lsls	r2, r2, #9
    1fe2:	4694      	mov	ip, r2
    1fe4:	4464      	add	r4, ip
    1fe6:	0c1a      	lsrs	r2, r3, #16
    1fe8:	0400      	lsls	r0, r0, #16
    1fea:	041b      	lsls	r3, r3, #16
    1fec:	0c00      	lsrs	r0, r0, #16
    1fee:	1914      	adds	r4, r2, r4
    1ff0:	181b      	adds	r3, r3, r0
    1ff2:	42a5      	cmp	r5, r4
    1ff4:	d350      	bcc.n	2098 <STACK_SIZE+0x98>
    1ff6:	d04d      	beq.n	2094 <STACK_SIZE+0x94>
    1ff8:	2301      	movs	r3, #1
    1ffa:	4319      	orrs	r1, r3
    1ffc:	4a96      	ldr	r2, [pc, #600]	; (2258 <STACK_SIZE+0x258>)
    1ffe:	9b01      	ldr	r3, [sp, #4]
    2000:	4694      	mov	ip, r2
    2002:	4463      	add	r3, ip
    2004:	2b00      	cmp	r3, #0
    2006:	dc00      	bgt.n	200a <STACK_SIZE+0xa>
    2008:	e6f3      	b.n	1df2 <__aeabi_ddiv+0x1b6>
    200a:	074a      	lsls	r2, r1, #29
    200c:	d009      	beq.n	2022 <STACK_SIZE+0x22>
    200e:	220f      	movs	r2, #15
    2010:	400a      	ands	r2, r1
    2012:	2a04      	cmp	r2, #4
    2014:	d005      	beq.n	2022 <STACK_SIZE+0x22>
    2016:	1d0a      	adds	r2, r1, #4
    2018:	428a      	cmp	r2, r1
    201a:	4189      	sbcs	r1, r1
    201c:	4249      	negs	r1, r1
    201e:	448b      	add	fp, r1
    2020:	0011      	movs	r1, r2
    2022:	465a      	mov	r2, fp
    2024:	01d2      	lsls	r2, r2, #7
    2026:	d508      	bpl.n	203a <STACK_SIZE+0x3a>
    2028:	465a      	mov	r2, fp
    202a:	4b8c      	ldr	r3, [pc, #560]	; (225c <STACK_SIZE+0x25c>)
    202c:	401a      	ands	r2, r3
    202e:	4693      	mov	fp, r2
    2030:	2280      	movs	r2, #128	; 0x80
    2032:	00d2      	lsls	r2, r2, #3
    2034:	4694      	mov	ip, r2
    2036:	9b01      	ldr	r3, [sp, #4]
    2038:	4463      	add	r3, ip
    203a:	4a89      	ldr	r2, [pc, #548]	; (2260 <STACK_SIZE+0x260>)
    203c:	4293      	cmp	r3, r2
    203e:	dd00      	ble.n	2042 <STACK_SIZE+0x42>
    2040:	e65b      	b.n	1cfa <__aeabi_ddiv+0xbe>
    2042:	465a      	mov	r2, fp
    2044:	08c9      	lsrs	r1, r1, #3
    2046:	0750      	lsls	r0, r2, #29
    2048:	4308      	orrs	r0, r1
    204a:	0256      	lsls	r6, r2, #9
    204c:	4651      	mov	r1, sl
    204e:	2201      	movs	r2, #1
    2050:	055b      	lsls	r3, r3, #21
    2052:	4681      	mov	r9, r0
    2054:	0b36      	lsrs	r6, r6, #12
    2056:	0d5b      	lsrs	r3, r3, #21
    2058:	400a      	ands	r2, r1
    205a:	e655      	b.n	1d08 <__aeabi_ddiv+0xcc>
    205c:	2380      	movs	r3, #128	; 0x80
    205e:	031b      	lsls	r3, r3, #12
    2060:	421e      	tst	r6, r3
    2062:	d011      	beq.n	2088 <STACK_SIZE+0x88>
    2064:	465a      	mov	r2, fp
    2066:	421a      	tst	r2, r3
    2068:	d10e      	bne.n	2088 <STACK_SIZE+0x88>
    206a:	465e      	mov	r6, fp
    206c:	431e      	orrs	r6, r3
    206e:	0336      	lsls	r6, r6, #12
    2070:	0b36      	lsrs	r6, r6, #12
    2072:	002a      	movs	r2, r5
    2074:	4689      	mov	r9, r1
    2076:	4b7b      	ldr	r3, [pc, #492]	; (2264 <STACK_SIZE+0x264>)
    2078:	e646      	b.n	1d08 <__aeabi_ddiv+0xcc>
    207a:	2b03      	cmp	r3, #3
    207c:	d100      	bne.n	2080 <STACK_SIZE+0x80>
    207e:	e0e1      	b.n	2244 <STACK_SIZE+0x244>
    2080:	2b01      	cmp	r3, #1
    2082:	d1bb      	bne.n	1ffc <__aeabi_ddiv+0x3c0>
    2084:	401a      	ands	r2, r3
    2086:	e6bb      	b.n	1e00 <__aeabi_ddiv+0x1c4>
    2088:	431e      	orrs	r6, r3
    208a:	0336      	lsls	r6, r6, #12
    208c:	0b36      	lsrs	r6, r6, #12
    208e:	4642      	mov	r2, r8
    2090:	4b74      	ldr	r3, [pc, #464]	; (2264 <STACK_SIZE+0x264>)
    2092:	e639      	b.n	1d08 <__aeabi_ddiv+0xcc>
    2094:	2b00      	cmp	r3, #0
    2096:	d0b1      	beq.n	1ffc <__aeabi_ddiv+0x3c0>
    2098:	197d      	adds	r5, r7, r5
    209a:	1e4a      	subs	r2, r1, #1
    209c:	42af      	cmp	r7, r5
    209e:	d952      	bls.n	2146 <STACK_SIZE+0x146>
    20a0:	0011      	movs	r1, r2
    20a2:	42a5      	cmp	r5, r4
    20a4:	d1a8      	bne.n	1ff8 <__aeabi_ddiv+0x3bc>
    20a6:	9a03      	ldr	r2, [sp, #12]
    20a8:	429a      	cmp	r2, r3
    20aa:	d1a5      	bne.n	1ff8 <__aeabi_ddiv+0x3bc>
    20ac:	e7a6      	b.n	1ffc <__aeabi_ddiv+0x3c0>
    20ae:	0003      	movs	r3, r0
    20b0:	003e      	movs	r6, r7
    20b2:	3b28      	subs	r3, #40	; 0x28
    20b4:	409e      	lsls	r6, r3
    20b6:	2300      	movs	r3, #0
    20b8:	4699      	mov	r9, r3
    20ba:	e654      	b.n	1d66 <__aeabi_ddiv+0x12a>
    20bc:	f000 fc1c 	bl	28f8 <__clzsi2>
    20c0:	3020      	adds	r0, #32
    20c2:	e641      	b.n	1d48 <__aeabi_ddiv+0x10c>
    20c4:	0003      	movs	r3, r0
    20c6:	4652      	mov	r2, sl
    20c8:	3b28      	subs	r3, #40	; 0x28
    20ca:	409a      	lsls	r2, r3
    20cc:	2100      	movs	r1, #0
    20ce:	4693      	mov	fp, r2
    20d0:	e677      	b.n	1dc2 <__aeabi_ddiv+0x186>
    20d2:	4650      	mov	r0, sl
    20d4:	f000 fc10 	bl	28f8 <__clzsi2>
    20d8:	3020      	adds	r0, #32
    20da:	e65e      	b.n	1d9a <__aeabi_ddiv+0x15e>
    20dc:	9b02      	ldr	r3, [sp, #8]
    20de:	2600      	movs	r6, #0
    20e0:	42ab      	cmp	r3, r5
    20e2:	d300      	bcc.n	20e6 <STACK_SIZE+0xe6>
    20e4:	e723      	b.n	1f2e <__aeabi_ddiv+0x2f2>
    20e6:	9e03      	ldr	r6, [sp, #12]
    20e8:	9902      	ldr	r1, [sp, #8]
    20ea:	46b4      	mov	ip, r6
    20ec:	4461      	add	r1, ip
    20ee:	4688      	mov	r8, r1
    20f0:	45b0      	cmp	r8, r6
    20f2:	41b6      	sbcs	r6, r6
    20f4:	465b      	mov	r3, fp
    20f6:	4276      	negs	r6, r6
    20f8:	19f6      	adds	r6, r6, r7
    20fa:	18b2      	adds	r2, r6, r2
    20fc:	3b01      	subs	r3, #1
    20fe:	9102      	str	r1, [sp, #8]
    2100:	4297      	cmp	r7, r2
    2102:	d213      	bcs.n	212c <STACK_SIZE+0x12c>
    2104:	4290      	cmp	r0, r2
    2106:	d84f      	bhi.n	21a8 <STACK_SIZE+0x1a8>
    2108:	d100      	bne.n	210c <STACK_SIZE+0x10c>
    210a:	e08e      	b.n	222a <STACK_SIZE+0x22a>
    210c:	1a16      	subs	r6, r2, r0
    210e:	469b      	mov	fp, r3
    2110:	e70d      	b.n	1f2e <__aeabi_ddiv+0x2f2>
    2112:	4589      	cmp	r9, r1
    2114:	d200      	bcs.n	2118 <STACK_SIZE+0x118>
    2116:	e68e      	b.n	1e36 <__aeabi_ddiv+0x1fa>
    2118:	0874      	lsrs	r4, r6, #1
    211a:	464b      	mov	r3, r9
    211c:	07f6      	lsls	r6, r6, #31
    211e:	0035      	movs	r5, r6
    2120:	085b      	lsrs	r3, r3, #1
    2122:	431d      	orrs	r5, r3
    2124:	464b      	mov	r3, r9
    2126:	07db      	lsls	r3, r3, #31
    2128:	9302      	str	r3, [sp, #8]
    212a:	e68b      	b.n	1e44 <__aeabi_ddiv+0x208>
    212c:	4297      	cmp	r7, r2
    212e:	d1ed      	bne.n	210c <STACK_SIZE+0x10c>
    2130:	9903      	ldr	r1, [sp, #12]
    2132:	9c02      	ldr	r4, [sp, #8]
    2134:	42a1      	cmp	r1, r4
    2136:	d9e5      	bls.n	2104 <STACK_SIZE+0x104>
    2138:	1a3e      	subs	r6, r7, r0
    213a:	469b      	mov	fp, r3
    213c:	e6f7      	b.n	1f2e <__aeabi_ddiv+0x2f2>
    213e:	4698      	mov	r8, r3
    2140:	e6ca      	b.n	1ed8 <__aeabi_ddiv+0x29c>
    2142:	001e      	movs	r6, r3
    2144:	e6a5      	b.n	1e92 <__aeabi_ddiv+0x256>
    2146:	42ac      	cmp	r4, r5
    2148:	d83e      	bhi.n	21c8 <STACK_SIZE+0x1c8>
    214a:	d074      	beq.n	2236 <STACK_SIZE+0x236>
    214c:	0011      	movs	r1, r2
    214e:	e753      	b.n	1ff8 <__aeabi_ddiv+0x3bc>
    2150:	2101      	movs	r1, #1
    2152:	4249      	negs	r1, r1
    2154:	e752      	b.n	1ffc <__aeabi_ddiv+0x3c0>
    2156:	001c      	movs	r4, r3
    2158:	e70e      	b.n	1f78 <__aeabi_ddiv+0x33c>
    215a:	001e      	movs	r6, r3
    215c:	e72b      	b.n	1fb6 <__aeabi_ddiv+0x37a>
    215e:	2d1f      	cmp	r5, #31
    2160:	dc3c      	bgt.n	21dc <STACK_SIZE+0x1dc>
    2162:	2320      	movs	r3, #32
    2164:	000a      	movs	r2, r1
    2166:	4658      	mov	r0, fp
    2168:	1b5b      	subs	r3, r3, r5
    216a:	4098      	lsls	r0, r3
    216c:	40ea      	lsrs	r2, r5
    216e:	4099      	lsls	r1, r3
    2170:	4302      	orrs	r2, r0
    2172:	1e48      	subs	r0, r1, #1
    2174:	4181      	sbcs	r1, r0
    2176:	465e      	mov	r6, fp
    2178:	4311      	orrs	r1, r2
    217a:	40ee      	lsrs	r6, r5
    217c:	074b      	lsls	r3, r1, #29
    217e:	d009      	beq.n	2194 <STACK_SIZE+0x194>
    2180:	230f      	movs	r3, #15
    2182:	400b      	ands	r3, r1
    2184:	2b04      	cmp	r3, #4
    2186:	d005      	beq.n	2194 <STACK_SIZE+0x194>
    2188:	000b      	movs	r3, r1
    218a:	1d19      	adds	r1, r3, #4
    218c:	4299      	cmp	r1, r3
    218e:	419b      	sbcs	r3, r3
    2190:	425b      	negs	r3, r3
    2192:	18f6      	adds	r6, r6, r3
    2194:	0233      	lsls	r3, r6, #8
    2196:	d53c      	bpl.n	2212 <STACK_SIZE+0x212>
    2198:	4653      	mov	r3, sl
    219a:	2201      	movs	r2, #1
    219c:	2100      	movs	r1, #0
    219e:	401a      	ands	r2, r3
    21a0:	2600      	movs	r6, #0
    21a2:	2301      	movs	r3, #1
    21a4:	4689      	mov	r9, r1
    21a6:	e5af      	b.n	1d08 <__aeabi_ddiv+0xcc>
    21a8:	2302      	movs	r3, #2
    21aa:	425b      	negs	r3, r3
    21ac:	469c      	mov	ip, r3
    21ae:	9c03      	ldr	r4, [sp, #12]
    21b0:	44e3      	add	fp, ip
    21b2:	46a4      	mov	ip, r4
    21b4:	9b02      	ldr	r3, [sp, #8]
    21b6:	4463      	add	r3, ip
    21b8:	4698      	mov	r8, r3
    21ba:	45a0      	cmp	r8, r4
    21bc:	41b6      	sbcs	r6, r6
    21be:	4276      	negs	r6, r6
    21c0:	19f6      	adds	r6, r6, r7
    21c2:	9302      	str	r3, [sp, #8]
    21c4:	18b2      	adds	r2, r6, r2
    21c6:	e6b1      	b.n	1f2c <__aeabi_ddiv+0x2f0>
    21c8:	9803      	ldr	r0, [sp, #12]
    21ca:	1e8a      	subs	r2, r1, #2
    21cc:	0041      	lsls	r1, r0, #1
    21ce:	4281      	cmp	r1, r0
    21d0:	41b6      	sbcs	r6, r6
    21d2:	4276      	negs	r6, r6
    21d4:	19f6      	adds	r6, r6, r7
    21d6:	19ad      	adds	r5, r5, r6
    21d8:	9103      	str	r1, [sp, #12]
    21da:	e761      	b.n	20a0 <STACK_SIZE+0xa0>
    21dc:	221f      	movs	r2, #31
    21de:	4252      	negs	r2, r2
    21e0:	1ad3      	subs	r3, r2, r3
    21e2:	465a      	mov	r2, fp
    21e4:	40da      	lsrs	r2, r3
    21e6:	0013      	movs	r3, r2
    21e8:	2d20      	cmp	r5, #32
    21ea:	d029      	beq.n	2240 <STACK_SIZE+0x240>
    21ec:	2240      	movs	r2, #64	; 0x40
    21ee:	4658      	mov	r0, fp
    21f0:	1b55      	subs	r5, r2, r5
    21f2:	40a8      	lsls	r0, r5
    21f4:	4301      	orrs	r1, r0
    21f6:	1e48      	subs	r0, r1, #1
    21f8:	4181      	sbcs	r1, r0
    21fa:	2007      	movs	r0, #7
    21fc:	430b      	orrs	r3, r1
    21fe:	4018      	ands	r0, r3
    2200:	2600      	movs	r6, #0
    2202:	2800      	cmp	r0, #0
    2204:	d009      	beq.n	221a <STACK_SIZE+0x21a>
    2206:	220f      	movs	r2, #15
    2208:	2600      	movs	r6, #0
    220a:	401a      	ands	r2, r3
    220c:	0019      	movs	r1, r3
    220e:	2a04      	cmp	r2, #4
    2210:	d1bb      	bne.n	218a <STACK_SIZE+0x18a>
    2212:	000b      	movs	r3, r1
    2214:	0770      	lsls	r0, r6, #29
    2216:	0276      	lsls	r6, r6, #9
    2218:	0b36      	lsrs	r6, r6, #12
    221a:	08db      	lsrs	r3, r3, #3
    221c:	4303      	orrs	r3, r0
    221e:	4699      	mov	r9, r3
    2220:	2201      	movs	r2, #1
    2222:	4653      	mov	r3, sl
    2224:	401a      	ands	r2, r3
    2226:	2300      	movs	r3, #0
    2228:	e56e      	b.n	1d08 <__aeabi_ddiv+0xcc>
    222a:	9902      	ldr	r1, [sp, #8]
    222c:	428d      	cmp	r5, r1
    222e:	d8bb      	bhi.n	21a8 <STACK_SIZE+0x1a8>
    2230:	469b      	mov	fp, r3
    2232:	2600      	movs	r6, #0
    2234:	e67b      	b.n	1f2e <__aeabi_ddiv+0x2f2>
    2236:	9803      	ldr	r0, [sp, #12]
    2238:	4298      	cmp	r0, r3
    223a:	d3c5      	bcc.n	21c8 <STACK_SIZE+0x1c8>
    223c:	0011      	movs	r1, r2
    223e:	e732      	b.n	20a6 <STACK_SIZE+0xa6>
    2240:	2000      	movs	r0, #0
    2242:	e7d7      	b.n	21f4 <STACK_SIZE+0x1f4>
    2244:	2680      	movs	r6, #128	; 0x80
    2246:	465b      	mov	r3, fp
    2248:	0336      	lsls	r6, r6, #12
    224a:	431e      	orrs	r6, r3
    224c:	0336      	lsls	r6, r6, #12
    224e:	0b36      	lsrs	r6, r6, #12
    2250:	9a00      	ldr	r2, [sp, #0]
    2252:	4689      	mov	r9, r1
    2254:	4b03      	ldr	r3, [pc, #12]	; (2264 <STACK_SIZE+0x264>)
    2256:	e557      	b.n	1d08 <__aeabi_ddiv+0xcc>
    2258:	000003ff 	.word	0x000003ff
    225c:	feffffff 	.word	0xfeffffff
    2260:	000007fe 	.word	0x000007fe
    2264:	000007ff 	.word	0x000007ff

00002268 <__aeabi_dmul>:
    2268:	b5f0      	push	{r4, r5, r6, r7, lr}
    226a:	465f      	mov	r7, fp
    226c:	4656      	mov	r6, sl
    226e:	464d      	mov	r5, r9
    2270:	4644      	mov	r4, r8
    2272:	b4f0      	push	{r4, r5, r6, r7}
    2274:	030d      	lsls	r5, r1, #12
    2276:	4699      	mov	r9, r3
    2278:	004e      	lsls	r6, r1, #1
    227a:	0b2b      	lsrs	r3, r5, #12
    227c:	b087      	sub	sp, #28
    227e:	0007      	movs	r7, r0
    2280:	4692      	mov	sl, r2
    2282:	4680      	mov	r8, r0
    2284:	469b      	mov	fp, r3
    2286:	0d76      	lsrs	r6, r6, #21
    2288:	0fcc      	lsrs	r4, r1, #31
    228a:	2e00      	cmp	r6, #0
    228c:	d069      	beq.n	2362 <__aeabi_dmul+0xfa>
    228e:	4b6d      	ldr	r3, [pc, #436]	; (2444 <__aeabi_dmul+0x1dc>)
    2290:	429e      	cmp	r6, r3
    2292:	d035      	beq.n	2300 <__aeabi_dmul+0x98>
    2294:	465b      	mov	r3, fp
    2296:	2280      	movs	r2, #128	; 0x80
    2298:	00dd      	lsls	r5, r3, #3
    229a:	0412      	lsls	r2, r2, #16
    229c:	0f43      	lsrs	r3, r0, #29
    229e:	4313      	orrs	r3, r2
    22a0:	432b      	orrs	r3, r5
    22a2:	469b      	mov	fp, r3
    22a4:	00c3      	lsls	r3, r0, #3
    22a6:	4698      	mov	r8, r3
    22a8:	4b67      	ldr	r3, [pc, #412]	; (2448 <__aeabi_dmul+0x1e0>)
    22aa:	2700      	movs	r7, #0
    22ac:	469c      	mov	ip, r3
    22ae:	2300      	movs	r3, #0
    22b0:	4466      	add	r6, ip
    22b2:	9301      	str	r3, [sp, #4]
    22b4:	464a      	mov	r2, r9
    22b6:	0315      	lsls	r5, r2, #12
    22b8:	0050      	lsls	r0, r2, #1
    22ba:	0fd2      	lsrs	r2, r2, #31
    22bc:	4653      	mov	r3, sl
    22be:	0b2d      	lsrs	r5, r5, #12
    22c0:	0d40      	lsrs	r0, r0, #21
    22c2:	4691      	mov	r9, r2
    22c4:	d100      	bne.n	22c8 <__aeabi_dmul+0x60>
    22c6:	e076      	b.n	23b6 <__aeabi_dmul+0x14e>
    22c8:	4a5e      	ldr	r2, [pc, #376]	; (2444 <__aeabi_dmul+0x1dc>)
    22ca:	4290      	cmp	r0, r2
    22cc:	d06c      	beq.n	23a8 <__aeabi_dmul+0x140>
    22ce:	2280      	movs	r2, #128	; 0x80
    22d0:	0f5b      	lsrs	r3, r3, #29
    22d2:	0412      	lsls	r2, r2, #16
    22d4:	4313      	orrs	r3, r2
    22d6:	4a5c      	ldr	r2, [pc, #368]	; (2448 <__aeabi_dmul+0x1e0>)
    22d8:	00ed      	lsls	r5, r5, #3
    22da:	4694      	mov	ip, r2
    22dc:	431d      	orrs	r5, r3
    22de:	4653      	mov	r3, sl
    22e0:	2200      	movs	r2, #0
    22e2:	00db      	lsls	r3, r3, #3
    22e4:	4460      	add	r0, ip
    22e6:	4649      	mov	r1, r9
    22e8:	1836      	adds	r6, r6, r0
    22ea:	1c70      	adds	r0, r6, #1
    22ec:	4061      	eors	r1, r4
    22ee:	9002      	str	r0, [sp, #8]
    22f0:	4317      	orrs	r7, r2
    22f2:	2f0f      	cmp	r7, #15
    22f4:	d900      	bls.n	22f8 <__aeabi_dmul+0x90>
    22f6:	e0af      	b.n	2458 <__aeabi_dmul+0x1f0>
    22f8:	4854      	ldr	r0, [pc, #336]	; (244c <__aeabi_dmul+0x1e4>)
    22fa:	00bf      	lsls	r7, r7, #2
    22fc:	59c7      	ldr	r7, [r0, r7]
    22fe:	46bf      	mov	pc, r7
    2300:	465b      	mov	r3, fp
    2302:	431f      	orrs	r7, r3
    2304:	d000      	beq.n	2308 <__aeabi_dmul+0xa0>
    2306:	e088      	b.n	241a <__aeabi_dmul+0x1b2>
    2308:	2300      	movs	r3, #0
    230a:	469b      	mov	fp, r3
    230c:	4698      	mov	r8, r3
    230e:	3302      	adds	r3, #2
    2310:	2708      	movs	r7, #8
    2312:	9301      	str	r3, [sp, #4]
    2314:	e7ce      	b.n	22b4 <__aeabi_dmul+0x4c>
    2316:	4649      	mov	r1, r9
    2318:	2a02      	cmp	r2, #2
    231a:	d06a      	beq.n	23f2 <__aeabi_dmul+0x18a>
    231c:	2a03      	cmp	r2, #3
    231e:	d100      	bne.n	2322 <__aeabi_dmul+0xba>
    2320:	e209      	b.n	2736 <__aeabi_dmul+0x4ce>
    2322:	2a01      	cmp	r2, #1
    2324:	d000      	beq.n	2328 <__aeabi_dmul+0xc0>
    2326:	e1bb      	b.n	26a0 <__aeabi_dmul+0x438>
    2328:	4011      	ands	r1, r2
    232a:	2200      	movs	r2, #0
    232c:	2300      	movs	r3, #0
    232e:	2500      	movs	r5, #0
    2330:	4690      	mov	r8, r2
    2332:	b2cc      	uxtb	r4, r1
    2334:	2100      	movs	r1, #0
    2336:	032d      	lsls	r5, r5, #12
    2338:	0d0a      	lsrs	r2, r1, #20
    233a:	0512      	lsls	r2, r2, #20
    233c:	0b2d      	lsrs	r5, r5, #12
    233e:	4315      	orrs	r5, r2
    2340:	4a43      	ldr	r2, [pc, #268]	; (2450 <__aeabi_dmul+0x1e8>)
    2342:	051b      	lsls	r3, r3, #20
    2344:	4015      	ands	r5, r2
    2346:	431d      	orrs	r5, r3
    2348:	006d      	lsls	r5, r5, #1
    234a:	07e4      	lsls	r4, r4, #31
    234c:	086d      	lsrs	r5, r5, #1
    234e:	4325      	orrs	r5, r4
    2350:	4640      	mov	r0, r8
    2352:	0029      	movs	r1, r5
    2354:	b007      	add	sp, #28
    2356:	bc3c      	pop	{r2, r3, r4, r5}
    2358:	4690      	mov	r8, r2
    235a:	4699      	mov	r9, r3
    235c:	46a2      	mov	sl, r4
    235e:	46ab      	mov	fp, r5
    2360:	bdf0      	pop	{r4, r5, r6, r7, pc}
    2362:	4303      	orrs	r3, r0
    2364:	d052      	beq.n	240c <__aeabi_dmul+0x1a4>
    2366:	465b      	mov	r3, fp
    2368:	2b00      	cmp	r3, #0
    236a:	d100      	bne.n	236e <__aeabi_dmul+0x106>
    236c:	e18a      	b.n	2684 <__aeabi_dmul+0x41c>
    236e:	4658      	mov	r0, fp
    2370:	f000 fac2 	bl	28f8 <__clzsi2>
    2374:	0003      	movs	r3, r0
    2376:	3b0b      	subs	r3, #11
    2378:	2b1c      	cmp	r3, #28
    237a:	dd00      	ble.n	237e <__aeabi_dmul+0x116>
    237c:	e17b      	b.n	2676 <__aeabi_dmul+0x40e>
    237e:	221d      	movs	r2, #29
    2380:	1ad3      	subs	r3, r2, r3
    2382:	003a      	movs	r2, r7
    2384:	0001      	movs	r1, r0
    2386:	465d      	mov	r5, fp
    2388:	40da      	lsrs	r2, r3
    238a:	3908      	subs	r1, #8
    238c:	408d      	lsls	r5, r1
    238e:	0013      	movs	r3, r2
    2390:	408f      	lsls	r7, r1
    2392:	432b      	orrs	r3, r5
    2394:	469b      	mov	fp, r3
    2396:	46b8      	mov	r8, r7
    2398:	4b2e      	ldr	r3, [pc, #184]	; (2454 <__aeabi_dmul+0x1ec>)
    239a:	2700      	movs	r7, #0
    239c:	469c      	mov	ip, r3
    239e:	2300      	movs	r3, #0
    23a0:	4460      	add	r0, ip
    23a2:	4246      	negs	r6, r0
    23a4:	9301      	str	r3, [sp, #4]
    23a6:	e785      	b.n	22b4 <__aeabi_dmul+0x4c>
    23a8:	4652      	mov	r2, sl
    23aa:	432a      	orrs	r2, r5
    23ac:	d12c      	bne.n	2408 <__aeabi_dmul+0x1a0>
    23ae:	2500      	movs	r5, #0
    23b0:	2300      	movs	r3, #0
    23b2:	2202      	movs	r2, #2
    23b4:	e797      	b.n	22e6 <__aeabi_dmul+0x7e>
    23b6:	4652      	mov	r2, sl
    23b8:	432a      	orrs	r2, r5
    23ba:	d021      	beq.n	2400 <__aeabi_dmul+0x198>
    23bc:	2d00      	cmp	r5, #0
    23be:	d100      	bne.n	23c2 <__aeabi_dmul+0x15a>
    23c0:	e154      	b.n	266c <__aeabi_dmul+0x404>
    23c2:	0028      	movs	r0, r5
    23c4:	f000 fa98 	bl	28f8 <__clzsi2>
    23c8:	0003      	movs	r3, r0
    23ca:	3b0b      	subs	r3, #11
    23cc:	2b1c      	cmp	r3, #28
    23ce:	dd00      	ble.n	23d2 <__aeabi_dmul+0x16a>
    23d0:	e146      	b.n	2660 <__aeabi_dmul+0x3f8>
    23d2:	211d      	movs	r1, #29
    23d4:	1acb      	subs	r3, r1, r3
    23d6:	4651      	mov	r1, sl
    23d8:	0002      	movs	r2, r0
    23da:	40d9      	lsrs	r1, r3
    23dc:	4653      	mov	r3, sl
    23de:	3a08      	subs	r2, #8
    23e0:	4095      	lsls	r5, r2
    23e2:	4093      	lsls	r3, r2
    23e4:	430d      	orrs	r5, r1
    23e6:	4a1b      	ldr	r2, [pc, #108]	; (2454 <__aeabi_dmul+0x1ec>)
    23e8:	4694      	mov	ip, r2
    23ea:	4460      	add	r0, ip
    23ec:	4240      	negs	r0, r0
    23ee:	2200      	movs	r2, #0
    23f0:	e779      	b.n	22e6 <__aeabi_dmul+0x7e>
    23f2:	2401      	movs	r4, #1
    23f4:	2200      	movs	r2, #0
    23f6:	400c      	ands	r4, r1
    23f8:	4b12      	ldr	r3, [pc, #72]	; (2444 <__aeabi_dmul+0x1dc>)
    23fa:	2500      	movs	r5, #0
    23fc:	4690      	mov	r8, r2
    23fe:	e799      	b.n	2334 <__aeabi_dmul+0xcc>
    2400:	2500      	movs	r5, #0
    2402:	2300      	movs	r3, #0
    2404:	2201      	movs	r2, #1
    2406:	e76e      	b.n	22e6 <__aeabi_dmul+0x7e>
    2408:	2203      	movs	r2, #3
    240a:	e76c      	b.n	22e6 <__aeabi_dmul+0x7e>
    240c:	2300      	movs	r3, #0
    240e:	469b      	mov	fp, r3
    2410:	4698      	mov	r8, r3
    2412:	3301      	adds	r3, #1
    2414:	2704      	movs	r7, #4
    2416:	9301      	str	r3, [sp, #4]
    2418:	e74c      	b.n	22b4 <__aeabi_dmul+0x4c>
    241a:	2303      	movs	r3, #3
    241c:	270c      	movs	r7, #12
    241e:	9301      	str	r3, [sp, #4]
    2420:	e748      	b.n	22b4 <__aeabi_dmul+0x4c>
    2422:	2300      	movs	r3, #0
    2424:	2580      	movs	r5, #128	; 0x80
    2426:	4698      	mov	r8, r3
    2428:	2400      	movs	r4, #0
    242a:	032d      	lsls	r5, r5, #12
    242c:	4b05      	ldr	r3, [pc, #20]	; (2444 <__aeabi_dmul+0x1dc>)
    242e:	e781      	b.n	2334 <__aeabi_dmul+0xcc>
    2430:	465d      	mov	r5, fp
    2432:	4643      	mov	r3, r8
    2434:	9a01      	ldr	r2, [sp, #4]
    2436:	e76f      	b.n	2318 <__aeabi_dmul+0xb0>
    2438:	465d      	mov	r5, fp
    243a:	4643      	mov	r3, r8
    243c:	0021      	movs	r1, r4
    243e:	9a01      	ldr	r2, [sp, #4]
    2440:	e76a      	b.n	2318 <__aeabi_dmul+0xb0>
    2442:	46c0      	nop			; (mov r8, r8)
    2444:	000007ff 	.word	0x000007ff
    2448:	fffffc01 	.word	0xfffffc01
    244c:	000046f8 	.word	0x000046f8
    2450:	800fffff 	.word	0x800fffff
    2454:	000003f3 	.word	0x000003f3
    2458:	4642      	mov	r2, r8
    245a:	0c12      	lsrs	r2, r2, #16
    245c:	4691      	mov	r9, r2
    245e:	0c1a      	lsrs	r2, r3, #16
    2460:	4694      	mov	ip, r2
    2462:	4642      	mov	r2, r8
    2464:	0417      	lsls	r7, r2, #16
    2466:	464a      	mov	r2, r9
    2468:	041b      	lsls	r3, r3, #16
    246a:	0c1b      	lsrs	r3, r3, #16
    246c:	435a      	muls	r2, r3
    246e:	4660      	mov	r0, ip
    2470:	4690      	mov	r8, r2
    2472:	464a      	mov	r2, r9
    2474:	4342      	muls	r2, r0
    2476:	0010      	movs	r0, r2
    2478:	9203      	str	r2, [sp, #12]
    247a:	4662      	mov	r2, ip
    247c:	001c      	movs	r4, r3
    247e:	0c3f      	lsrs	r7, r7, #16
    2480:	437a      	muls	r2, r7
    2482:	437c      	muls	r4, r7
    2484:	4442      	add	r2, r8
    2486:	9201      	str	r2, [sp, #4]
    2488:	0c22      	lsrs	r2, r4, #16
    248a:	4692      	mov	sl, r2
    248c:	9a01      	ldr	r2, [sp, #4]
    248e:	4452      	add	r2, sl
    2490:	4590      	cmp	r8, r2
    2492:	d906      	bls.n	24a2 <__aeabi_dmul+0x23a>
    2494:	4682      	mov	sl, r0
    2496:	2080      	movs	r0, #128	; 0x80
    2498:	0240      	lsls	r0, r0, #9
    249a:	4680      	mov	r8, r0
    249c:	44c2      	add	sl, r8
    249e:	4650      	mov	r0, sl
    24a0:	9003      	str	r0, [sp, #12]
    24a2:	0c10      	lsrs	r0, r2, #16
    24a4:	9004      	str	r0, [sp, #16]
    24a6:	4648      	mov	r0, r9
    24a8:	0424      	lsls	r4, r4, #16
    24aa:	0c24      	lsrs	r4, r4, #16
    24ac:	0412      	lsls	r2, r2, #16
    24ae:	1912      	adds	r2, r2, r4
    24b0:	9205      	str	r2, [sp, #20]
    24b2:	0c2a      	lsrs	r2, r5, #16
    24b4:	042d      	lsls	r5, r5, #16
    24b6:	0c2d      	lsrs	r5, r5, #16
    24b8:	4368      	muls	r0, r5
    24ba:	002c      	movs	r4, r5
    24bc:	4682      	mov	sl, r0
    24be:	4648      	mov	r0, r9
    24c0:	437c      	muls	r4, r7
    24c2:	4350      	muls	r0, r2
    24c4:	4681      	mov	r9, r0
    24c6:	0c20      	lsrs	r0, r4, #16
    24c8:	4680      	mov	r8, r0
    24ca:	4357      	muls	r7, r2
    24cc:	4457      	add	r7, sl
    24ce:	4447      	add	r7, r8
    24d0:	45ba      	cmp	sl, r7
    24d2:	d903      	bls.n	24dc <__aeabi_dmul+0x274>
    24d4:	2080      	movs	r0, #128	; 0x80
    24d6:	0240      	lsls	r0, r0, #9
    24d8:	4680      	mov	r8, r0
    24da:	44c1      	add	r9, r8
    24dc:	0c38      	lsrs	r0, r7, #16
    24de:	043f      	lsls	r7, r7, #16
    24e0:	46b8      	mov	r8, r7
    24e2:	4448      	add	r0, r9
    24e4:	0424      	lsls	r4, r4, #16
    24e6:	0c24      	lsrs	r4, r4, #16
    24e8:	9001      	str	r0, [sp, #4]
    24ea:	9804      	ldr	r0, [sp, #16]
    24ec:	44a0      	add	r8, r4
    24ee:	4440      	add	r0, r8
    24f0:	9004      	str	r0, [sp, #16]
    24f2:	4658      	mov	r0, fp
    24f4:	0c00      	lsrs	r0, r0, #16
    24f6:	4681      	mov	r9, r0
    24f8:	4658      	mov	r0, fp
    24fa:	0404      	lsls	r4, r0, #16
    24fc:	0c20      	lsrs	r0, r4, #16
    24fe:	4682      	mov	sl, r0
    2500:	0007      	movs	r7, r0
    2502:	4648      	mov	r0, r9
    2504:	435f      	muls	r7, r3
    2506:	464c      	mov	r4, r9
    2508:	4343      	muls	r3, r0
    250a:	4660      	mov	r0, ip
    250c:	4360      	muls	r0, r4
    250e:	4664      	mov	r4, ip
    2510:	4683      	mov	fp, r0
    2512:	4650      	mov	r0, sl
    2514:	4344      	muls	r4, r0
    2516:	0c38      	lsrs	r0, r7, #16
    2518:	4684      	mov	ip, r0
    251a:	18e4      	adds	r4, r4, r3
    251c:	4464      	add	r4, ip
    251e:	42a3      	cmp	r3, r4
    2520:	d903      	bls.n	252a <__aeabi_dmul+0x2c2>
    2522:	2380      	movs	r3, #128	; 0x80
    2524:	025b      	lsls	r3, r3, #9
    2526:	469c      	mov	ip, r3
    2528:	44e3      	add	fp, ip
    252a:	4648      	mov	r0, r9
    252c:	043f      	lsls	r7, r7, #16
    252e:	0c23      	lsrs	r3, r4, #16
    2530:	0c3f      	lsrs	r7, r7, #16
    2532:	0424      	lsls	r4, r4, #16
    2534:	19e4      	adds	r4, r4, r7
    2536:	4657      	mov	r7, sl
    2538:	4368      	muls	r0, r5
    253a:	436f      	muls	r7, r5
    253c:	4684      	mov	ip, r0
    253e:	464d      	mov	r5, r9
    2540:	4650      	mov	r0, sl
    2542:	4355      	muls	r5, r2
    2544:	4342      	muls	r2, r0
    2546:	0c38      	lsrs	r0, r7, #16
    2548:	4681      	mov	r9, r0
    254a:	4462      	add	r2, ip
    254c:	444a      	add	r2, r9
    254e:	445b      	add	r3, fp
    2550:	4594      	cmp	ip, r2
    2552:	d903      	bls.n	255c <__aeabi_dmul+0x2f4>
    2554:	2080      	movs	r0, #128	; 0x80
    2556:	0240      	lsls	r0, r0, #9
    2558:	4684      	mov	ip, r0
    255a:	4465      	add	r5, ip
    255c:	9803      	ldr	r0, [sp, #12]
    255e:	043f      	lsls	r7, r7, #16
    2560:	4683      	mov	fp, r0
    2562:	9804      	ldr	r0, [sp, #16]
    2564:	0c3f      	lsrs	r7, r7, #16
    2566:	4684      	mov	ip, r0
    2568:	44e3      	add	fp, ip
    256a:	45c3      	cmp	fp, r8
    256c:	4180      	sbcs	r0, r0
    256e:	4240      	negs	r0, r0
    2570:	4682      	mov	sl, r0
    2572:	0410      	lsls	r0, r2, #16
    2574:	4684      	mov	ip, r0
    2576:	9801      	ldr	r0, [sp, #4]
    2578:	4467      	add	r7, ip
    257a:	4684      	mov	ip, r0
    257c:	4467      	add	r7, ip
    257e:	44a3      	add	fp, r4
    2580:	46bc      	mov	ip, r7
    2582:	45a3      	cmp	fp, r4
    2584:	41a4      	sbcs	r4, r4
    2586:	4699      	mov	r9, r3
    2588:	44d4      	add	ip, sl
    258a:	4264      	negs	r4, r4
    258c:	4287      	cmp	r7, r0
    258e:	41bf      	sbcs	r7, r7
    2590:	45d4      	cmp	ip, sl
    2592:	4180      	sbcs	r0, r0
    2594:	44e1      	add	r9, ip
    2596:	46a0      	mov	r8, r4
    2598:	4599      	cmp	r9, r3
    259a:	419b      	sbcs	r3, r3
    259c:	427f      	negs	r7, r7
    259e:	4240      	negs	r0, r0
    25a0:	44c8      	add	r8, r9
    25a2:	4307      	orrs	r7, r0
    25a4:	0c12      	lsrs	r2, r2, #16
    25a6:	18ba      	adds	r2, r7, r2
    25a8:	45a0      	cmp	r8, r4
    25aa:	41a4      	sbcs	r4, r4
    25ac:	425f      	negs	r7, r3
    25ae:	003b      	movs	r3, r7
    25b0:	4264      	negs	r4, r4
    25b2:	4323      	orrs	r3, r4
    25b4:	18d7      	adds	r7, r2, r3
    25b6:	4643      	mov	r3, r8
    25b8:	197d      	adds	r5, r7, r5
    25ba:	0ddb      	lsrs	r3, r3, #23
    25bc:	026d      	lsls	r5, r5, #9
    25be:	431d      	orrs	r5, r3
    25c0:	465b      	mov	r3, fp
    25c2:	025a      	lsls	r2, r3, #9
    25c4:	9b05      	ldr	r3, [sp, #20]
    25c6:	431a      	orrs	r2, r3
    25c8:	1e53      	subs	r3, r2, #1
    25ca:	419a      	sbcs	r2, r3
    25cc:	465b      	mov	r3, fp
    25ce:	0ddb      	lsrs	r3, r3, #23
    25d0:	431a      	orrs	r2, r3
    25d2:	4643      	mov	r3, r8
    25d4:	025b      	lsls	r3, r3, #9
    25d6:	4313      	orrs	r3, r2
    25d8:	01ea      	lsls	r2, r5, #7
    25da:	d507      	bpl.n	25ec <__aeabi_dmul+0x384>
    25dc:	2201      	movs	r2, #1
    25de:	085c      	lsrs	r4, r3, #1
    25e0:	4013      	ands	r3, r2
    25e2:	4323      	orrs	r3, r4
    25e4:	07ea      	lsls	r2, r5, #31
    25e6:	9e02      	ldr	r6, [sp, #8]
    25e8:	4313      	orrs	r3, r2
    25ea:	086d      	lsrs	r5, r5, #1
    25ec:	4a57      	ldr	r2, [pc, #348]	; (274c <__aeabi_dmul+0x4e4>)
    25ee:	18b2      	adds	r2, r6, r2
    25f0:	2a00      	cmp	r2, #0
    25f2:	dd4b      	ble.n	268c <__aeabi_dmul+0x424>
    25f4:	0758      	lsls	r0, r3, #29
    25f6:	d009      	beq.n	260c <__aeabi_dmul+0x3a4>
    25f8:	200f      	movs	r0, #15
    25fa:	4018      	ands	r0, r3
    25fc:	2804      	cmp	r0, #4
    25fe:	d005      	beq.n	260c <__aeabi_dmul+0x3a4>
    2600:	1d18      	adds	r0, r3, #4
    2602:	4298      	cmp	r0, r3
    2604:	419b      	sbcs	r3, r3
    2606:	425b      	negs	r3, r3
    2608:	18ed      	adds	r5, r5, r3
    260a:	0003      	movs	r3, r0
    260c:	01e8      	lsls	r0, r5, #7
    260e:	d504      	bpl.n	261a <__aeabi_dmul+0x3b2>
    2610:	4a4f      	ldr	r2, [pc, #316]	; (2750 <__aeabi_dmul+0x4e8>)
    2612:	4015      	ands	r5, r2
    2614:	2280      	movs	r2, #128	; 0x80
    2616:	00d2      	lsls	r2, r2, #3
    2618:	18b2      	adds	r2, r6, r2
    261a:	484e      	ldr	r0, [pc, #312]	; (2754 <__aeabi_dmul+0x4ec>)
    261c:	4282      	cmp	r2, r0
    261e:	dd00      	ble.n	2622 <__aeabi_dmul+0x3ba>
    2620:	e6e7      	b.n	23f2 <__aeabi_dmul+0x18a>
    2622:	2401      	movs	r4, #1
    2624:	08db      	lsrs	r3, r3, #3
    2626:	0768      	lsls	r0, r5, #29
    2628:	4318      	orrs	r0, r3
    262a:	026d      	lsls	r5, r5, #9
    262c:	0553      	lsls	r3, r2, #21
    262e:	4680      	mov	r8, r0
    2630:	0b2d      	lsrs	r5, r5, #12
    2632:	0d5b      	lsrs	r3, r3, #21
    2634:	400c      	ands	r4, r1
    2636:	e67d      	b.n	2334 <__aeabi_dmul+0xcc>
    2638:	2280      	movs	r2, #128	; 0x80
    263a:	4659      	mov	r1, fp
    263c:	0312      	lsls	r2, r2, #12
    263e:	4211      	tst	r1, r2
    2640:	d008      	beq.n	2654 <__aeabi_dmul+0x3ec>
    2642:	4215      	tst	r5, r2
    2644:	d106      	bne.n	2654 <__aeabi_dmul+0x3ec>
    2646:	4315      	orrs	r5, r2
    2648:	032d      	lsls	r5, r5, #12
    264a:	4698      	mov	r8, r3
    264c:	0b2d      	lsrs	r5, r5, #12
    264e:	464c      	mov	r4, r9
    2650:	4b41      	ldr	r3, [pc, #260]	; (2758 <__aeabi_dmul+0x4f0>)
    2652:	e66f      	b.n	2334 <__aeabi_dmul+0xcc>
    2654:	465d      	mov	r5, fp
    2656:	4315      	orrs	r5, r2
    2658:	032d      	lsls	r5, r5, #12
    265a:	0b2d      	lsrs	r5, r5, #12
    265c:	4b3e      	ldr	r3, [pc, #248]	; (2758 <__aeabi_dmul+0x4f0>)
    265e:	e669      	b.n	2334 <__aeabi_dmul+0xcc>
    2660:	0003      	movs	r3, r0
    2662:	4655      	mov	r5, sl
    2664:	3b28      	subs	r3, #40	; 0x28
    2666:	409d      	lsls	r5, r3
    2668:	2300      	movs	r3, #0
    266a:	e6bc      	b.n	23e6 <__aeabi_dmul+0x17e>
    266c:	4650      	mov	r0, sl
    266e:	f000 f943 	bl	28f8 <__clzsi2>
    2672:	3020      	adds	r0, #32
    2674:	e6a8      	b.n	23c8 <__aeabi_dmul+0x160>
    2676:	0003      	movs	r3, r0
    2678:	3b28      	subs	r3, #40	; 0x28
    267a:	409f      	lsls	r7, r3
    267c:	2300      	movs	r3, #0
    267e:	46bb      	mov	fp, r7
    2680:	4698      	mov	r8, r3
    2682:	e689      	b.n	2398 <__aeabi_dmul+0x130>
    2684:	f000 f938 	bl	28f8 <__clzsi2>
    2688:	3020      	adds	r0, #32
    268a:	e673      	b.n	2374 <__aeabi_dmul+0x10c>
    268c:	2401      	movs	r4, #1
    268e:	1aa6      	subs	r6, r4, r2
    2690:	2e38      	cmp	r6, #56	; 0x38
    2692:	dd07      	ble.n	26a4 <__aeabi_dmul+0x43c>
    2694:	2200      	movs	r2, #0
    2696:	400c      	ands	r4, r1
    2698:	2300      	movs	r3, #0
    269a:	2500      	movs	r5, #0
    269c:	4690      	mov	r8, r2
    269e:	e649      	b.n	2334 <__aeabi_dmul+0xcc>
    26a0:	9e02      	ldr	r6, [sp, #8]
    26a2:	e7a3      	b.n	25ec <__aeabi_dmul+0x384>
    26a4:	2e1f      	cmp	r6, #31
    26a6:	dc20      	bgt.n	26ea <__aeabi_dmul+0x482>
    26a8:	2220      	movs	r2, #32
    26aa:	002c      	movs	r4, r5
    26ac:	0018      	movs	r0, r3
    26ae:	1b92      	subs	r2, r2, r6
    26b0:	40f0      	lsrs	r0, r6
    26b2:	4094      	lsls	r4, r2
    26b4:	4093      	lsls	r3, r2
    26b6:	4304      	orrs	r4, r0
    26b8:	1e58      	subs	r0, r3, #1
    26ba:	4183      	sbcs	r3, r0
    26bc:	431c      	orrs	r4, r3
    26be:	40f5      	lsrs	r5, r6
    26c0:	0763      	lsls	r3, r4, #29
    26c2:	d009      	beq.n	26d8 <__aeabi_dmul+0x470>
    26c4:	230f      	movs	r3, #15
    26c6:	4023      	ands	r3, r4
    26c8:	2b04      	cmp	r3, #4
    26ca:	d005      	beq.n	26d8 <__aeabi_dmul+0x470>
    26cc:	0023      	movs	r3, r4
    26ce:	1d1c      	adds	r4, r3, #4
    26d0:	429c      	cmp	r4, r3
    26d2:	4192      	sbcs	r2, r2
    26d4:	4252      	negs	r2, r2
    26d6:	18ad      	adds	r5, r5, r2
    26d8:	022b      	lsls	r3, r5, #8
    26da:	d51f      	bpl.n	271c <__aeabi_dmul+0x4b4>
    26dc:	2401      	movs	r4, #1
    26de:	2200      	movs	r2, #0
    26e0:	400c      	ands	r4, r1
    26e2:	2301      	movs	r3, #1
    26e4:	2500      	movs	r5, #0
    26e6:	4690      	mov	r8, r2
    26e8:	e624      	b.n	2334 <__aeabi_dmul+0xcc>
    26ea:	201f      	movs	r0, #31
    26ec:	002c      	movs	r4, r5
    26ee:	4240      	negs	r0, r0
    26f0:	1a82      	subs	r2, r0, r2
    26f2:	40d4      	lsrs	r4, r2
    26f4:	2e20      	cmp	r6, #32
    26f6:	d01c      	beq.n	2732 <__aeabi_dmul+0x4ca>
    26f8:	2240      	movs	r2, #64	; 0x40
    26fa:	1b96      	subs	r6, r2, r6
    26fc:	40b5      	lsls	r5, r6
    26fe:	432b      	orrs	r3, r5
    2700:	1e58      	subs	r0, r3, #1
    2702:	4183      	sbcs	r3, r0
    2704:	2007      	movs	r0, #7
    2706:	4323      	orrs	r3, r4
    2708:	4018      	ands	r0, r3
    270a:	2500      	movs	r5, #0
    270c:	2800      	cmp	r0, #0
    270e:	d009      	beq.n	2724 <__aeabi_dmul+0x4bc>
    2710:	220f      	movs	r2, #15
    2712:	2500      	movs	r5, #0
    2714:	401a      	ands	r2, r3
    2716:	001c      	movs	r4, r3
    2718:	2a04      	cmp	r2, #4
    271a:	d1d8      	bne.n	26ce <__aeabi_dmul+0x466>
    271c:	0023      	movs	r3, r4
    271e:	0768      	lsls	r0, r5, #29
    2720:	026d      	lsls	r5, r5, #9
    2722:	0b2d      	lsrs	r5, r5, #12
    2724:	2401      	movs	r4, #1
    2726:	08db      	lsrs	r3, r3, #3
    2728:	4303      	orrs	r3, r0
    272a:	4698      	mov	r8, r3
    272c:	400c      	ands	r4, r1
    272e:	2300      	movs	r3, #0
    2730:	e600      	b.n	2334 <__aeabi_dmul+0xcc>
    2732:	2500      	movs	r5, #0
    2734:	e7e3      	b.n	26fe <__aeabi_dmul+0x496>
    2736:	2280      	movs	r2, #128	; 0x80
    2738:	2401      	movs	r4, #1
    273a:	0312      	lsls	r2, r2, #12
    273c:	4315      	orrs	r5, r2
    273e:	032d      	lsls	r5, r5, #12
    2740:	4698      	mov	r8, r3
    2742:	0b2d      	lsrs	r5, r5, #12
    2744:	400c      	ands	r4, r1
    2746:	4b04      	ldr	r3, [pc, #16]	; (2758 <__aeabi_dmul+0x4f0>)
    2748:	e5f4      	b.n	2334 <__aeabi_dmul+0xcc>
    274a:	46c0      	nop			; (mov r8, r8)
    274c:	000003ff 	.word	0x000003ff
    2750:	feffffff 	.word	0xfeffffff
    2754:	000007fe 	.word	0x000007fe
    2758:	000007ff 	.word	0x000007ff

0000275c <__aeabi_i2d>:
    275c:	b570      	push	{r4, r5, r6, lr}
    275e:	2800      	cmp	r0, #0
    2760:	d030      	beq.n	27c4 <__aeabi_i2d+0x68>
    2762:	17c3      	asrs	r3, r0, #31
    2764:	18c4      	adds	r4, r0, r3
    2766:	405c      	eors	r4, r3
    2768:	0fc5      	lsrs	r5, r0, #31
    276a:	0020      	movs	r0, r4
    276c:	f000 f8c4 	bl	28f8 <__clzsi2>
    2770:	4b17      	ldr	r3, [pc, #92]	; (27d0 <__aeabi_i2d+0x74>)
    2772:	4a18      	ldr	r2, [pc, #96]	; (27d4 <__aeabi_i2d+0x78>)
    2774:	1a1b      	subs	r3, r3, r0
    2776:	1ad2      	subs	r2, r2, r3
    2778:	2a1f      	cmp	r2, #31
    277a:	dd18      	ble.n	27ae <__aeabi_i2d+0x52>
    277c:	4a16      	ldr	r2, [pc, #88]	; (27d8 <__aeabi_i2d+0x7c>)
    277e:	1ad2      	subs	r2, r2, r3
    2780:	4094      	lsls	r4, r2
    2782:	2200      	movs	r2, #0
    2784:	0324      	lsls	r4, r4, #12
    2786:	055b      	lsls	r3, r3, #21
    2788:	0b24      	lsrs	r4, r4, #12
    278a:	0d5b      	lsrs	r3, r3, #21
    278c:	2100      	movs	r1, #0
    278e:	0010      	movs	r0, r2
    2790:	0324      	lsls	r4, r4, #12
    2792:	0d0a      	lsrs	r2, r1, #20
    2794:	0512      	lsls	r2, r2, #20
    2796:	0b24      	lsrs	r4, r4, #12
    2798:	4314      	orrs	r4, r2
    279a:	4a10      	ldr	r2, [pc, #64]	; (27dc <__aeabi_i2d+0x80>)
    279c:	051b      	lsls	r3, r3, #20
    279e:	4014      	ands	r4, r2
    27a0:	431c      	orrs	r4, r3
    27a2:	0064      	lsls	r4, r4, #1
    27a4:	07ed      	lsls	r5, r5, #31
    27a6:	0864      	lsrs	r4, r4, #1
    27a8:	432c      	orrs	r4, r5
    27aa:	0021      	movs	r1, r4
    27ac:	bd70      	pop	{r4, r5, r6, pc}
    27ae:	0021      	movs	r1, r4
    27b0:	4091      	lsls	r1, r2
    27b2:	000a      	movs	r2, r1
    27b4:	210b      	movs	r1, #11
    27b6:	1a08      	subs	r0, r1, r0
    27b8:	40c4      	lsrs	r4, r0
    27ba:	055b      	lsls	r3, r3, #21
    27bc:	0324      	lsls	r4, r4, #12
    27be:	0b24      	lsrs	r4, r4, #12
    27c0:	0d5b      	lsrs	r3, r3, #21
    27c2:	e7e3      	b.n	278c <__aeabi_i2d+0x30>
    27c4:	2500      	movs	r5, #0
    27c6:	2300      	movs	r3, #0
    27c8:	2400      	movs	r4, #0
    27ca:	2200      	movs	r2, #0
    27cc:	e7de      	b.n	278c <__aeabi_i2d+0x30>
    27ce:	46c0      	nop			; (mov r8, r8)
    27d0:	0000041e 	.word	0x0000041e
    27d4:	00000433 	.word	0x00000433
    27d8:	00000413 	.word	0x00000413
    27dc:	800fffff 	.word	0x800fffff

000027e0 <__aeabi_d2f>:
    27e0:	004b      	lsls	r3, r1, #1
    27e2:	b570      	push	{r4, r5, r6, lr}
    27e4:	0d5e      	lsrs	r6, r3, #21
    27e6:	030c      	lsls	r4, r1, #12
    27e8:	1c75      	adds	r5, r6, #1
    27ea:	0a64      	lsrs	r4, r4, #9
    27ec:	0f42      	lsrs	r2, r0, #29
    27ee:	056d      	lsls	r5, r5, #21
    27f0:	4322      	orrs	r2, r4
    27f2:	0fc9      	lsrs	r1, r1, #31
    27f4:	00c4      	lsls	r4, r0, #3
    27f6:	0d6d      	lsrs	r5, r5, #21
    27f8:	2d01      	cmp	r5, #1
    27fa:	dd2a      	ble.n	2852 <__aeabi_d2f+0x72>
    27fc:	4b3b      	ldr	r3, [pc, #236]	; (28ec <__aeabi_d2f+0x10c>)
    27fe:	18f3      	adds	r3, r6, r3
    2800:	2bfe      	cmp	r3, #254	; 0xfe
    2802:	dc1a      	bgt.n	283a <__aeabi_d2f+0x5a>
    2804:	2b00      	cmp	r3, #0
    2806:	dd42      	ble.n	288e <__aeabi_d2f+0xae>
    2808:	0180      	lsls	r0, r0, #6
    280a:	1e45      	subs	r5, r0, #1
    280c:	41a8      	sbcs	r0, r5
    280e:	00d2      	lsls	r2, r2, #3
    2810:	4310      	orrs	r0, r2
    2812:	0f62      	lsrs	r2, r4, #29
    2814:	4302      	orrs	r2, r0
    2816:	0750      	lsls	r0, r2, #29
    2818:	d004      	beq.n	2824 <__aeabi_d2f+0x44>
    281a:	200f      	movs	r0, #15
    281c:	4010      	ands	r0, r2
    281e:	2804      	cmp	r0, #4
    2820:	d000      	beq.n	2824 <__aeabi_d2f+0x44>
    2822:	3204      	adds	r2, #4
    2824:	2080      	movs	r0, #128	; 0x80
    2826:	04c0      	lsls	r0, r0, #19
    2828:	4010      	ands	r0, r2
    282a:	d021      	beq.n	2870 <__aeabi_d2f+0x90>
    282c:	3301      	adds	r3, #1
    282e:	2bff      	cmp	r3, #255	; 0xff
    2830:	d003      	beq.n	283a <__aeabi_d2f+0x5a>
    2832:	0192      	lsls	r2, r2, #6
    2834:	0a52      	lsrs	r2, r2, #9
    2836:	b2db      	uxtb	r3, r3
    2838:	e001      	b.n	283e <__aeabi_d2f+0x5e>
    283a:	23ff      	movs	r3, #255	; 0xff
    283c:	2200      	movs	r2, #0
    283e:	0252      	lsls	r2, r2, #9
    2840:	0a52      	lsrs	r2, r2, #9
    2842:	05db      	lsls	r3, r3, #23
    2844:	4313      	orrs	r3, r2
    2846:	005b      	lsls	r3, r3, #1
    2848:	07c9      	lsls	r1, r1, #31
    284a:	085b      	lsrs	r3, r3, #1
    284c:	430b      	orrs	r3, r1
    284e:	0018      	movs	r0, r3
    2850:	bd70      	pop	{r4, r5, r6, pc}
    2852:	2e00      	cmp	r6, #0
    2854:	d007      	beq.n	2866 <__aeabi_d2f+0x86>
    2856:	4314      	orrs	r4, r2
    2858:	d0ef      	beq.n	283a <__aeabi_d2f+0x5a>
    285a:	2080      	movs	r0, #128	; 0x80
    285c:	00d2      	lsls	r2, r2, #3
    285e:	0480      	lsls	r0, r0, #18
    2860:	4302      	orrs	r2, r0
    2862:	23ff      	movs	r3, #255	; 0xff
    2864:	e7d7      	b.n	2816 <__aeabi_d2f+0x36>
    2866:	4322      	orrs	r2, r4
    2868:	2300      	movs	r3, #0
    286a:	2a00      	cmp	r2, #0
    286c:	d003      	beq.n	2876 <__aeabi_d2f+0x96>
    286e:	2205      	movs	r2, #5
    2870:	08d2      	lsrs	r2, r2, #3
    2872:	2bff      	cmp	r3, #255	; 0xff
    2874:	d003      	beq.n	287e <__aeabi_d2f+0x9e>
    2876:	0252      	lsls	r2, r2, #9
    2878:	0a52      	lsrs	r2, r2, #9
    287a:	b2db      	uxtb	r3, r3
    287c:	e7df      	b.n	283e <__aeabi_d2f+0x5e>
    287e:	2a00      	cmp	r2, #0
    2880:	d032      	beq.n	28e8 <__aeabi_d2f+0x108>
    2882:	2080      	movs	r0, #128	; 0x80
    2884:	03c0      	lsls	r0, r0, #15
    2886:	4302      	orrs	r2, r0
    2888:	0252      	lsls	r2, r2, #9
    288a:	0a52      	lsrs	r2, r2, #9
    288c:	e7d7      	b.n	283e <__aeabi_d2f+0x5e>
    288e:	0018      	movs	r0, r3
    2890:	3017      	adds	r0, #23
    2892:	db14      	blt.n	28be <__aeabi_d2f+0xde>
    2894:	2080      	movs	r0, #128	; 0x80
    2896:	0400      	lsls	r0, r0, #16
    2898:	4302      	orrs	r2, r0
    289a:	201e      	movs	r0, #30
    289c:	1ac0      	subs	r0, r0, r3
    289e:	281f      	cmp	r0, #31
    28a0:	dc0f      	bgt.n	28c2 <__aeabi_d2f+0xe2>
    28a2:	0025      	movs	r5, r4
    28a4:	4b12      	ldr	r3, [pc, #72]	; (28f0 <__aeabi_d2f+0x110>)
    28a6:	18f3      	adds	r3, r6, r3
    28a8:	409d      	lsls	r5, r3
    28aa:	1e6e      	subs	r6, r5, #1
    28ac:	41b5      	sbcs	r5, r6
    28ae:	409a      	lsls	r2, r3
    28b0:	002b      	movs	r3, r5
    28b2:	4313      	orrs	r3, r2
    28b4:	0022      	movs	r2, r4
    28b6:	40c2      	lsrs	r2, r0
    28b8:	431a      	orrs	r2, r3
    28ba:	2300      	movs	r3, #0
    28bc:	e7ab      	b.n	2816 <__aeabi_d2f+0x36>
    28be:	2300      	movs	r3, #0
    28c0:	e7d5      	b.n	286e <__aeabi_d2f+0x8e>
    28c2:	2502      	movs	r5, #2
    28c4:	426d      	negs	r5, r5
    28c6:	1aeb      	subs	r3, r5, r3
    28c8:	0015      	movs	r5, r2
    28ca:	40dd      	lsrs	r5, r3
    28cc:	2820      	cmp	r0, #32
    28ce:	d009      	beq.n	28e4 <__aeabi_d2f+0x104>
    28d0:	4b08      	ldr	r3, [pc, #32]	; (28f4 <__aeabi_d2f+0x114>)
    28d2:	18f3      	adds	r3, r6, r3
    28d4:	409a      	lsls	r2, r3
    28d6:	4314      	orrs	r4, r2
    28d8:	1e62      	subs	r2, r4, #1
    28da:	4194      	sbcs	r4, r2
    28dc:	0022      	movs	r2, r4
    28de:	2300      	movs	r3, #0
    28e0:	432a      	orrs	r2, r5
    28e2:	e798      	b.n	2816 <__aeabi_d2f+0x36>
    28e4:	2200      	movs	r2, #0
    28e6:	e7f6      	b.n	28d6 <__aeabi_d2f+0xf6>
    28e8:	2200      	movs	r2, #0
    28ea:	e7a8      	b.n	283e <__aeabi_d2f+0x5e>
    28ec:	fffffc80 	.word	0xfffffc80
    28f0:	fffffc82 	.word	0xfffffc82
    28f4:	fffffca2 	.word	0xfffffca2

000028f8 <__clzsi2>:
    28f8:	211c      	movs	r1, #28
    28fa:	2301      	movs	r3, #1
    28fc:	041b      	lsls	r3, r3, #16
    28fe:	4298      	cmp	r0, r3
    2900:	d301      	bcc.n	2906 <__clzsi2+0xe>
    2902:	0c00      	lsrs	r0, r0, #16
    2904:	3910      	subs	r1, #16
    2906:	0a1b      	lsrs	r3, r3, #8
    2908:	4298      	cmp	r0, r3
    290a:	d301      	bcc.n	2910 <__clzsi2+0x18>
    290c:	0a00      	lsrs	r0, r0, #8
    290e:	3908      	subs	r1, #8
    2910:	091b      	lsrs	r3, r3, #4
    2912:	4298      	cmp	r0, r3
    2914:	d301      	bcc.n	291a <__clzsi2+0x22>
    2916:	0900      	lsrs	r0, r0, #4
    2918:	3904      	subs	r1, #4
    291a:	a202      	add	r2, pc, #8	; (adr r2, 2924 <__clzsi2+0x2c>)
    291c:	5c10      	ldrb	r0, [r2, r0]
    291e:	1840      	adds	r0, r0, r1
    2920:	4770      	bx	lr
    2922:	46c0      	nop			; (mov r8, r8)
    2924:	02020304 	.word	0x02020304
    2928:	01010101 	.word	0x01010101
	...

00002934 <__libc_init_array>:
    2934:	b570      	push	{r4, r5, r6, lr}
    2936:	4e0d      	ldr	r6, [pc, #52]	; (296c <__libc_init_array+0x38>)
    2938:	4d0d      	ldr	r5, [pc, #52]	; (2970 <__libc_init_array+0x3c>)
    293a:	2400      	movs	r4, #0
    293c:	1bad      	subs	r5, r5, r6
    293e:	10ad      	asrs	r5, r5, #2
    2940:	d005      	beq.n	294e <__libc_init_array+0x1a>
    2942:	00a3      	lsls	r3, r4, #2
    2944:	58f3      	ldr	r3, [r6, r3]
    2946:	3401      	adds	r4, #1
    2948:	4798      	blx	r3
    294a:	42a5      	cmp	r5, r4
    294c:	d1f9      	bne.n	2942 <__libc_init_array+0xe>
    294e:	f001 fef9 	bl	4744 <_init>
    2952:	4e08      	ldr	r6, [pc, #32]	; (2974 <__libc_init_array+0x40>)
    2954:	4d08      	ldr	r5, [pc, #32]	; (2978 <__libc_init_array+0x44>)
    2956:	2400      	movs	r4, #0
    2958:	1bad      	subs	r5, r5, r6
    295a:	10ad      	asrs	r5, r5, #2
    295c:	d005      	beq.n	296a <__libc_init_array+0x36>
    295e:	00a3      	lsls	r3, r4, #2
    2960:	58f3      	ldr	r3, [r6, r3]
    2962:	3401      	adds	r4, #1
    2964:	4798      	blx	r3
    2966:	42a5      	cmp	r5, r4
    2968:	d1f9      	bne.n	295e <__libc_init_array+0x2a>
    296a:	bd70      	pop	{r4, r5, r6, pc}
    296c:	00004750 	.word	0x00004750
    2970:	00004750 	.word	0x00004750
    2974:	00004750 	.word	0x00004750
    2978:	00004758 	.word	0x00004758

0000297c <memcpy>:
    297c:	b570      	push	{r4, r5, r6, lr}
    297e:	2a0f      	cmp	r2, #15
    2980:	d932      	bls.n	29e8 <memcpy+0x6c>
    2982:	000c      	movs	r4, r1
    2984:	4304      	orrs	r4, r0
    2986:	000b      	movs	r3, r1
    2988:	07a4      	lsls	r4, r4, #30
    298a:	d131      	bne.n	29f0 <memcpy+0x74>
    298c:	0015      	movs	r5, r2
    298e:	0004      	movs	r4, r0
    2990:	3d10      	subs	r5, #16
    2992:	092d      	lsrs	r5, r5, #4
    2994:	3501      	adds	r5, #1
    2996:	012d      	lsls	r5, r5, #4
    2998:	1949      	adds	r1, r1, r5
    299a:	681e      	ldr	r6, [r3, #0]
    299c:	6026      	str	r6, [r4, #0]
    299e:	685e      	ldr	r6, [r3, #4]
    29a0:	6066      	str	r6, [r4, #4]
    29a2:	689e      	ldr	r6, [r3, #8]
    29a4:	60a6      	str	r6, [r4, #8]
    29a6:	68de      	ldr	r6, [r3, #12]
    29a8:	3310      	adds	r3, #16
    29aa:	60e6      	str	r6, [r4, #12]
    29ac:	3410      	adds	r4, #16
    29ae:	4299      	cmp	r1, r3
    29b0:	d1f3      	bne.n	299a <memcpy+0x1e>
    29b2:	230f      	movs	r3, #15
    29b4:	1945      	adds	r5, r0, r5
    29b6:	4013      	ands	r3, r2
    29b8:	2b03      	cmp	r3, #3
    29ba:	d91b      	bls.n	29f4 <memcpy+0x78>
    29bc:	1f1c      	subs	r4, r3, #4
    29be:	2300      	movs	r3, #0
    29c0:	08a4      	lsrs	r4, r4, #2
    29c2:	3401      	adds	r4, #1
    29c4:	00a4      	lsls	r4, r4, #2
    29c6:	58ce      	ldr	r6, [r1, r3]
    29c8:	50ee      	str	r6, [r5, r3]
    29ca:	3304      	adds	r3, #4
    29cc:	429c      	cmp	r4, r3
    29ce:	d1fa      	bne.n	29c6 <memcpy+0x4a>
    29d0:	2303      	movs	r3, #3
    29d2:	192d      	adds	r5, r5, r4
    29d4:	1909      	adds	r1, r1, r4
    29d6:	401a      	ands	r2, r3
    29d8:	d005      	beq.n	29e6 <memcpy+0x6a>
    29da:	2300      	movs	r3, #0
    29dc:	5ccc      	ldrb	r4, [r1, r3]
    29de:	54ec      	strb	r4, [r5, r3]
    29e0:	3301      	adds	r3, #1
    29e2:	429a      	cmp	r2, r3
    29e4:	d1fa      	bne.n	29dc <memcpy+0x60>
    29e6:	bd70      	pop	{r4, r5, r6, pc}
    29e8:	0005      	movs	r5, r0
    29ea:	2a00      	cmp	r2, #0
    29ec:	d1f5      	bne.n	29da <memcpy+0x5e>
    29ee:	e7fa      	b.n	29e6 <memcpy+0x6a>
    29f0:	0005      	movs	r5, r0
    29f2:	e7f2      	b.n	29da <memcpy+0x5e>
    29f4:	001a      	movs	r2, r3
    29f6:	e7f8      	b.n	29ea <memcpy+0x6e>

000029f8 <memset>:
    29f8:	b570      	push	{r4, r5, r6, lr}
    29fa:	0783      	lsls	r3, r0, #30
    29fc:	d03f      	beq.n	2a7e <memset+0x86>
    29fe:	1e54      	subs	r4, r2, #1
    2a00:	2a00      	cmp	r2, #0
    2a02:	d03b      	beq.n	2a7c <memset+0x84>
    2a04:	b2ce      	uxtb	r6, r1
    2a06:	0003      	movs	r3, r0
    2a08:	2503      	movs	r5, #3
    2a0a:	e003      	b.n	2a14 <memset+0x1c>
    2a0c:	1e62      	subs	r2, r4, #1
    2a0e:	2c00      	cmp	r4, #0
    2a10:	d034      	beq.n	2a7c <memset+0x84>
    2a12:	0014      	movs	r4, r2
    2a14:	3301      	adds	r3, #1
    2a16:	1e5a      	subs	r2, r3, #1
    2a18:	7016      	strb	r6, [r2, #0]
    2a1a:	422b      	tst	r3, r5
    2a1c:	d1f6      	bne.n	2a0c <memset+0x14>
    2a1e:	2c03      	cmp	r4, #3
    2a20:	d924      	bls.n	2a6c <memset+0x74>
    2a22:	25ff      	movs	r5, #255	; 0xff
    2a24:	400d      	ands	r5, r1
    2a26:	022a      	lsls	r2, r5, #8
    2a28:	4315      	orrs	r5, r2
    2a2a:	042a      	lsls	r2, r5, #16
    2a2c:	4315      	orrs	r5, r2
    2a2e:	2c0f      	cmp	r4, #15
    2a30:	d911      	bls.n	2a56 <memset+0x5e>
    2a32:	0026      	movs	r6, r4
    2a34:	3e10      	subs	r6, #16
    2a36:	0936      	lsrs	r6, r6, #4
    2a38:	3601      	adds	r6, #1
    2a3a:	0136      	lsls	r6, r6, #4
    2a3c:	001a      	movs	r2, r3
    2a3e:	199b      	adds	r3, r3, r6
    2a40:	6015      	str	r5, [r2, #0]
    2a42:	6055      	str	r5, [r2, #4]
    2a44:	6095      	str	r5, [r2, #8]
    2a46:	60d5      	str	r5, [r2, #12]
    2a48:	3210      	adds	r2, #16
    2a4a:	4293      	cmp	r3, r2
    2a4c:	d1f8      	bne.n	2a40 <memset+0x48>
    2a4e:	220f      	movs	r2, #15
    2a50:	4014      	ands	r4, r2
    2a52:	2c03      	cmp	r4, #3
    2a54:	d90a      	bls.n	2a6c <memset+0x74>
    2a56:	1f26      	subs	r6, r4, #4
    2a58:	08b6      	lsrs	r6, r6, #2
    2a5a:	3601      	adds	r6, #1
    2a5c:	00b6      	lsls	r6, r6, #2
    2a5e:	001a      	movs	r2, r3
    2a60:	199b      	adds	r3, r3, r6
    2a62:	c220      	stmia	r2!, {r5}
    2a64:	4293      	cmp	r3, r2
    2a66:	d1fc      	bne.n	2a62 <memset+0x6a>
    2a68:	2203      	movs	r2, #3
    2a6a:	4014      	ands	r4, r2
    2a6c:	2c00      	cmp	r4, #0
    2a6e:	d005      	beq.n	2a7c <memset+0x84>
    2a70:	b2c9      	uxtb	r1, r1
    2a72:	191c      	adds	r4, r3, r4
    2a74:	7019      	strb	r1, [r3, #0]
    2a76:	3301      	adds	r3, #1
    2a78:	429c      	cmp	r4, r3
    2a7a:	d1fb      	bne.n	2a74 <memset+0x7c>
    2a7c:	bd70      	pop	{r4, r5, r6, pc}
    2a7e:	0014      	movs	r4, r2
    2a80:	0003      	movs	r3, r0
    2a82:	e7cc      	b.n	2a1e <memset+0x26>

00002a84 <_puts_r>:
    2a84:	b530      	push	{r4, r5, lr}
    2a86:	0005      	movs	r5, r0
    2a88:	b089      	sub	sp, #36	; 0x24
    2a8a:	0008      	movs	r0, r1
    2a8c:	000c      	movs	r4, r1
    2a8e:	f000 f83b 	bl	2b08 <strlen>
    2a92:	ab04      	add	r3, sp, #16
    2a94:	4a15      	ldr	r2, [pc, #84]	; (2aec <_puts_r+0x68>)
    2a96:	9301      	str	r3, [sp, #4]
    2a98:	2302      	movs	r3, #2
    2a9a:	9206      	str	r2, [sp, #24]
    2a9c:	2201      	movs	r2, #1
    2a9e:	9302      	str	r3, [sp, #8]
    2aa0:	6bab      	ldr	r3, [r5, #56]	; 0x38
    2aa2:	9005      	str	r0, [sp, #20]
    2aa4:	3001      	adds	r0, #1
    2aa6:	9404      	str	r4, [sp, #16]
    2aa8:	9207      	str	r2, [sp, #28]
    2aaa:	9003      	str	r0, [sp, #12]
    2aac:	68ac      	ldr	r4, [r5, #8]
    2aae:	2b00      	cmp	r3, #0
    2ab0:	d017      	beq.n	2ae2 <_puts_r+0x5e>
    2ab2:	220c      	movs	r2, #12
    2ab4:	5ea3      	ldrsh	r3, [r4, r2]
    2ab6:	2280      	movs	r2, #128	; 0x80
    2ab8:	0192      	lsls	r2, r2, #6
    2aba:	4213      	tst	r3, r2
    2abc:	d105      	bne.n	2aca <_puts_r+0x46>
    2abe:	4313      	orrs	r3, r2
    2ac0:	81a3      	strh	r3, [r4, #12]
    2ac2:	6e62      	ldr	r2, [r4, #100]	; 0x64
    2ac4:	4b0a      	ldr	r3, [pc, #40]	; (2af0 <_puts_r+0x6c>)
    2ac6:	4013      	ands	r3, r2
    2ac8:	6663      	str	r3, [r4, #100]	; 0x64
    2aca:	aa01      	add	r2, sp, #4
    2acc:	0021      	movs	r1, r4
    2ace:	0028      	movs	r0, r5
    2ad0:	f000 fb62 	bl	3198 <__sfvwrite_r>
    2ad4:	1e43      	subs	r3, r0, #1
    2ad6:	4198      	sbcs	r0, r3
    2ad8:	230a      	movs	r3, #10
    2ada:	4240      	negs	r0, r0
    2adc:	4318      	orrs	r0, r3
    2ade:	b009      	add	sp, #36	; 0x24
    2ae0:	bd30      	pop	{r4, r5, pc}
    2ae2:	0028      	movs	r0, r5
    2ae4:	f000 fa00 	bl	2ee8 <__sinit>
    2ae8:	e7e3      	b.n	2ab2 <_puts_r+0x2e>
    2aea:	46c0      	nop			; (mov r8, r8)
    2aec:	00004740 	.word	0x00004740
    2af0:	ffffdfff 	.word	0xffffdfff

00002af4 <puts>:
    2af4:	b510      	push	{r4, lr}
    2af6:	4b03      	ldr	r3, [pc, #12]	; (2b04 <puts+0x10>)
    2af8:	0001      	movs	r1, r0
    2afa:	6818      	ldr	r0, [r3, #0]
    2afc:	f7ff ffc2 	bl	2a84 <_puts_r>
    2b00:	bd10      	pop	{r4, pc}
    2b02:	46c0      	nop			; (mov r8, r8)
    2b04:	20000448 	.word	0x20000448

00002b08 <strlen>:
    2b08:	b510      	push	{r4, lr}
    2b0a:	0783      	lsls	r3, r0, #30
    2b0c:	d027      	beq.n	2b5e <strlen+0x56>
    2b0e:	7803      	ldrb	r3, [r0, #0]
    2b10:	2b00      	cmp	r3, #0
    2b12:	d026      	beq.n	2b62 <strlen+0x5a>
    2b14:	0003      	movs	r3, r0
    2b16:	2103      	movs	r1, #3
    2b18:	e002      	b.n	2b20 <strlen+0x18>
    2b1a:	781a      	ldrb	r2, [r3, #0]
    2b1c:	2a00      	cmp	r2, #0
    2b1e:	d01c      	beq.n	2b5a <strlen+0x52>
    2b20:	3301      	adds	r3, #1
    2b22:	420b      	tst	r3, r1
    2b24:	d1f9      	bne.n	2b1a <strlen+0x12>
    2b26:	6819      	ldr	r1, [r3, #0]
    2b28:	4a0f      	ldr	r2, [pc, #60]	; (2b68 <strlen+0x60>)
    2b2a:	4c10      	ldr	r4, [pc, #64]	; (2b6c <strlen+0x64>)
    2b2c:	188a      	adds	r2, r1, r2
    2b2e:	438a      	bics	r2, r1
    2b30:	4222      	tst	r2, r4
    2b32:	d10f      	bne.n	2b54 <strlen+0x4c>
    2b34:	3304      	adds	r3, #4
    2b36:	6819      	ldr	r1, [r3, #0]
    2b38:	4a0b      	ldr	r2, [pc, #44]	; (2b68 <strlen+0x60>)
    2b3a:	188a      	adds	r2, r1, r2
    2b3c:	438a      	bics	r2, r1
    2b3e:	4222      	tst	r2, r4
    2b40:	d108      	bne.n	2b54 <strlen+0x4c>
    2b42:	3304      	adds	r3, #4
    2b44:	6819      	ldr	r1, [r3, #0]
    2b46:	4a08      	ldr	r2, [pc, #32]	; (2b68 <strlen+0x60>)
    2b48:	188a      	adds	r2, r1, r2
    2b4a:	438a      	bics	r2, r1
    2b4c:	4222      	tst	r2, r4
    2b4e:	d0f1      	beq.n	2b34 <strlen+0x2c>
    2b50:	e000      	b.n	2b54 <strlen+0x4c>
    2b52:	3301      	adds	r3, #1
    2b54:	781a      	ldrb	r2, [r3, #0]
    2b56:	2a00      	cmp	r2, #0
    2b58:	d1fb      	bne.n	2b52 <strlen+0x4a>
    2b5a:	1a18      	subs	r0, r3, r0
    2b5c:	bd10      	pop	{r4, pc}
    2b5e:	0003      	movs	r3, r0
    2b60:	e7e1      	b.n	2b26 <strlen+0x1e>
    2b62:	2000      	movs	r0, #0
    2b64:	e7fa      	b.n	2b5c <strlen+0x54>
    2b66:	46c0      	nop			; (mov r8, r8)
    2b68:	fefefeff 	.word	0xfefefeff
    2b6c:	80808080 	.word	0x80808080

00002b70 <__swsetup_r>:
    2b70:	4b33      	ldr	r3, [pc, #204]	; (2c40 <__swsetup_r+0xd0>)
    2b72:	b570      	push	{r4, r5, r6, lr}
    2b74:	0005      	movs	r5, r0
    2b76:	6818      	ldr	r0, [r3, #0]
    2b78:	000c      	movs	r4, r1
    2b7a:	2800      	cmp	r0, #0
    2b7c:	d002      	beq.n	2b84 <__swsetup_r+0x14>
    2b7e:	6b83      	ldr	r3, [r0, #56]	; 0x38
    2b80:	2b00      	cmp	r3, #0
    2b82:	d03d      	beq.n	2c00 <__swsetup_r+0x90>
    2b84:	230c      	movs	r3, #12
    2b86:	5ee0      	ldrsh	r0, [r4, r3]
    2b88:	b283      	uxth	r3, r0
    2b8a:	071a      	lsls	r2, r3, #28
    2b8c:	d50d      	bpl.n	2baa <__swsetup_r+0x3a>
    2b8e:	6921      	ldr	r1, [r4, #16]
    2b90:	2900      	cmp	r1, #0
    2b92:	d016      	beq.n	2bc2 <__swsetup_r+0x52>
    2b94:	07da      	lsls	r2, r3, #31
    2b96:	d522      	bpl.n	2bde <__swsetup_r+0x6e>
    2b98:	2300      	movs	r3, #0
    2b9a:	60a3      	str	r3, [r4, #8]
    2b9c:	6963      	ldr	r3, [r4, #20]
    2b9e:	2000      	movs	r0, #0
    2ba0:	425b      	negs	r3, r3
    2ba2:	61a3      	str	r3, [r4, #24]
    2ba4:	2900      	cmp	r1, #0
    2ba6:	d022      	beq.n	2bee <__swsetup_r+0x7e>
    2ba8:	bd70      	pop	{r4, r5, r6, pc}
    2baa:	06da      	lsls	r2, r3, #27
    2bac:	d540      	bpl.n	2c30 <__swsetup_r+0xc0>
    2bae:	075b      	lsls	r3, r3, #29
    2bb0:	d429      	bmi.n	2c06 <__swsetup_r+0x96>
    2bb2:	6921      	ldr	r1, [r4, #16]
    2bb4:	2208      	movs	r2, #8
    2bb6:	0003      	movs	r3, r0
    2bb8:	4313      	orrs	r3, r2
    2bba:	81a3      	strh	r3, [r4, #12]
    2bbc:	b29b      	uxth	r3, r3
    2bbe:	2900      	cmp	r1, #0
    2bc0:	d1e8      	bne.n	2b94 <__swsetup_r+0x24>
    2bc2:	22a0      	movs	r2, #160	; 0xa0
    2bc4:	2080      	movs	r0, #128	; 0x80
    2bc6:	0092      	lsls	r2, r2, #2
    2bc8:	401a      	ands	r2, r3
    2bca:	0080      	lsls	r0, r0, #2
    2bcc:	4282      	cmp	r2, r0
    2bce:	d0e1      	beq.n	2b94 <__swsetup_r+0x24>
    2bd0:	0021      	movs	r1, r4
    2bd2:	0028      	movs	r0, r5
    2bd4:	f000 fcc4 	bl	3560 <__smakebuf_r>
    2bd8:	89a3      	ldrh	r3, [r4, #12]
    2bda:	6921      	ldr	r1, [r4, #16]
    2bdc:	e7da      	b.n	2b94 <__swsetup_r+0x24>
    2bde:	2200      	movs	r2, #0
    2be0:	079b      	lsls	r3, r3, #30
    2be2:	d400      	bmi.n	2be6 <__swsetup_r+0x76>
    2be4:	6962      	ldr	r2, [r4, #20]
    2be6:	60a2      	str	r2, [r4, #8]
    2be8:	2000      	movs	r0, #0
    2bea:	2900      	cmp	r1, #0
    2bec:	d1dc      	bne.n	2ba8 <__swsetup_r+0x38>
    2bee:	220c      	movs	r2, #12
    2bf0:	5ea3      	ldrsh	r3, [r4, r2]
    2bf2:	061a      	lsls	r2, r3, #24
    2bf4:	d5d8      	bpl.n	2ba8 <__swsetup_r+0x38>
    2bf6:	2240      	movs	r2, #64	; 0x40
    2bf8:	4313      	orrs	r3, r2
    2bfa:	81a3      	strh	r3, [r4, #12]
    2bfc:	3801      	subs	r0, #1
    2bfe:	e7d3      	b.n	2ba8 <__swsetup_r+0x38>
    2c00:	f000 f972 	bl	2ee8 <__sinit>
    2c04:	e7be      	b.n	2b84 <__swsetup_r+0x14>
    2c06:	6b21      	ldr	r1, [r4, #48]	; 0x30
    2c08:	2900      	cmp	r1, #0
    2c0a:	d00a      	beq.n	2c22 <__swsetup_r+0xb2>
    2c0c:	0023      	movs	r3, r4
    2c0e:	3340      	adds	r3, #64	; 0x40
    2c10:	4299      	cmp	r1, r3
    2c12:	d004      	beq.n	2c1e <__swsetup_r+0xae>
    2c14:	0028      	movs	r0, r5
    2c16:	f000 f9dd 	bl	2fd4 <_free_r>
    2c1a:	230c      	movs	r3, #12
    2c1c:	5ee0      	ldrsh	r0, [r4, r3]
    2c1e:	2300      	movs	r3, #0
    2c20:	6323      	str	r3, [r4, #48]	; 0x30
    2c22:	2324      	movs	r3, #36	; 0x24
    2c24:	4398      	bics	r0, r3
    2c26:	2300      	movs	r3, #0
    2c28:	6921      	ldr	r1, [r4, #16]
    2c2a:	6063      	str	r3, [r4, #4]
    2c2c:	6021      	str	r1, [r4, #0]
    2c2e:	e7c1      	b.n	2bb4 <__swsetup_r+0x44>
    2c30:	2309      	movs	r3, #9
    2c32:	602b      	str	r3, [r5, #0]
    2c34:	2340      	movs	r3, #64	; 0x40
    2c36:	4303      	orrs	r3, r0
    2c38:	2001      	movs	r0, #1
    2c3a:	81a3      	strh	r3, [r4, #12]
    2c3c:	4240      	negs	r0, r0
    2c3e:	e7b3      	b.n	2ba8 <__swsetup_r+0x38>
    2c40:	20000448 	.word	0x20000448

00002c44 <register_fini>:
    2c44:	4b03      	ldr	r3, [pc, #12]	; (2c54 <register_fini+0x10>)
    2c46:	b510      	push	{r4, lr}
    2c48:	2b00      	cmp	r3, #0
    2c4a:	d002      	beq.n	2c52 <register_fini+0xe>
    2c4c:	4802      	ldr	r0, [pc, #8]	; (2c58 <register_fini+0x14>)
    2c4e:	f000 f805 	bl	2c5c <atexit>
    2c52:	bd10      	pop	{r4, pc}
    2c54:	00000000 	.word	0x00000000
    2c58:	00002f01 	.word	0x00002f01

00002c5c <atexit>:
    2c5c:	b510      	push	{r4, lr}
    2c5e:	0001      	movs	r1, r0
    2c60:	2300      	movs	r3, #0
    2c62:	2200      	movs	r2, #0
    2c64:	2000      	movs	r0, #0
    2c66:	f001 fa63 	bl	4130 <__register_exitproc>
    2c6a:	bd10      	pop	{r4, pc}

00002c6c <__sflush_r>:
    2c6c:	b5f0      	push	{r4, r5, r6, r7, lr}
    2c6e:	4647      	mov	r7, r8
    2c70:	b480      	push	{r7}
    2c72:	220c      	movs	r2, #12
    2c74:	5e8b      	ldrsh	r3, [r1, r2]
    2c76:	4680      	mov	r8, r0
    2c78:	b29a      	uxth	r2, r3
    2c7a:	000c      	movs	r4, r1
    2c7c:	0711      	lsls	r1, r2, #28
    2c7e:	d440      	bmi.n	2d02 <__sflush_r+0x96>
    2c80:	2280      	movs	r2, #128	; 0x80
    2c82:	0112      	lsls	r2, r2, #4
    2c84:	4313      	orrs	r3, r2
    2c86:	6862      	ldr	r2, [r4, #4]
    2c88:	81a3      	strh	r3, [r4, #12]
    2c8a:	2a00      	cmp	r2, #0
    2c8c:	dc00      	bgt.n	2c90 <__sflush_r+0x24>
    2c8e:	e070      	b.n	2d72 <__sflush_r+0x106>
    2c90:	6aa6      	ldr	r6, [r4, #40]	; 0x28
    2c92:	2e00      	cmp	r6, #0
    2c94:	d031      	beq.n	2cfa <__sflush_r+0x8e>
    2c96:	4642      	mov	r2, r8
    2c98:	4641      	mov	r1, r8
    2c9a:	6815      	ldr	r5, [r2, #0]
    2c9c:	2200      	movs	r2, #0
    2c9e:	b29b      	uxth	r3, r3
    2ca0:	600a      	str	r2, [r1, #0]
    2ca2:	04da      	lsls	r2, r3, #19
    2ca4:	d400      	bmi.n	2ca8 <__sflush_r+0x3c>
    2ca6:	e069      	b.n	2d7c <__sflush_r+0x110>
    2ca8:	6d22      	ldr	r2, [r4, #80]	; 0x50
    2caa:	075b      	lsls	r3, r3, #29
    2cac:	d506      	bpl.n	2cbc <__sflush_r+0x50>
    2cae:	6863      	ldr	r3, [r4, #4]
    2cb0:	1ad2      	subs	r2, r2, r3
    2cb2:	6b23      	ldr	r3, [r4, #48]	; 0x30
    2cb4:	2b00      	cmp	r3, #0
    2cb6:	d001      	beq.n	2cbc <__sflush_r+0x50>
    2cb8:	6be3      	ldr	r3, [r4, #60]	; 0x3c
    2cba:	1ad2      	subs	r2, r2, r3
    2cbc:	2300      	movs	r3, #0
    2cbe:	69e1      	ldr	r1, [r4, #28]
    2cc0:	4640      	mov	r0, r8
    2cc2:	47b0      	blx	r6
    2cc4:	1c43      	adds	r3, r0, #1
    2cc6:	d03d      	beq.n	2d44 <__sflush_r+0xd8>
    2cc8:	89a2      	ldrh	r2, [r4, #12]
    2cca:	4b3a      	ldr	r3, [pc, #232]	; (2db4 <__sflush_r+0x148>)
    2ccc:	4013      	ands	r3, r2
    2cce:	2200      	movs	r2, #0
    2cd0:	6062      	str	r2, [r4, #4]
    2cd2:	6922      	ldr	r2, [r4, #16]
    2cd4:	b21b      	sxth	r3, r3
    2cd6:	81a3      	strh	r3, [r4, #12]
    2cd8:	6022      	str	r2, [r4, #0]
    2cda:	04db      	lsls	r3, r3, #19
    2cdc:	d447      	bmi.n	2d6e <__sflush_r+0x102>
    2cde:	4643      	mov	r3, r8
    2ce0:	6b21      	ldr	r1, [r4, #48]	; 0x30
    2ce2:	601d      	str	r5, [r3, #0]
    2ce4:	2900      	cmp	r1, #0
    2ce6:	d008      	beq.n	2cfa <__sflush_r+0x8e>
    2ce8:	0023      	movs	r3, r4
    2cea:	3340      	adds	r3, #64	; 0x40
    2cec:	4299      	cmp	r1, r3
    2cee:	d002      	beq.n	2cf6 <__sflush_r+0x8a>
    2cf0:	4640      	mov	r0, r8
    2cf2:	f000 f96f 	bl	2fd4 <_free_r>
    2cf6:	2300      	movs	r3, #0
    2cf8:	6323      	str	r3, [r4, #48]	; 0x30
    2cfa:	2000      	movs	r0, #0
    2cfc:	bc04      	pop	{r2}
    2cfe:	4690      	mov	r8, r2
    2d00:	bdf0      	pop	{r4, r5, r6, r7, pc}
    2d02:	6926      	ldr	r6, [r4, #16]
    2d04:	2e00      	cmp	r6, #0
    2d06:	d0f8      	beq.n	2cfa <__sflush_r+0x8e>
    2d08:	6823      	ldr	r3, [r4, #0]
    2d0a:	6026      	str	r6, [r4, #0]
    2d0c:	1b9d      	subs	r5, r3, r6
    2d0e:	2300      	movs	r3, #0
    2d10:	0792      	lsls	r2, r2, #30
    2d12:	d100      	bne.n	2d16 <__sflush_r+0xaa>
    2d14:	6963      	ldr	r3, [r4, #20]
    2d16:	60a3      	str	r3, [r4, #8]
    2d18:	2d00      	cmp	r5, #0
    2d1a:	dc04      	bgt.n	2d26 <__sflush_r+0xba>
    2d1c:	e7ed      	b.n	2cfa <__sflush_r+0x8e>
    2d1e:	1836      	adds	r6, r6, r0
    2d20:	1a2d      	subs	r5, r5, r0
    2d22:	2d00      	cmp	r5, #0
    2d24:	dde9      	ble.n	2cfa <__sflush_r+0x8e>
    2d26:	002b      	movs	r3, r5
    2d28:	0032      	movs	r2, r6
    2d2a:	69e1      	ldr	r1, [r4, #28]
    2d2c:	4640      	mov	r0, r8
    2d2e:	6a67      	ldr	r7, [r4, #36]	; 0x24
    2d30:	47b8      	blx	r7
    2d32:	2800      	cmp	r0, #0
    2d34:	dcf3      	bgt.n	2d1e <__sflush_r+0xb2>
    2d36:	2340      	movs	r3, #64	; 0x40
    2d38:	2001      	movs	r0, #1
    2d3a:	89a2      	ldrh	r2, [r4, #12]
    2d3c:	4240      	negs	r0, r0
    2d3e:	4313      	orrs	r3, r2
    2d40:	81a3      	strh	r3, [r4, #12]
    2d42:	e7db      	b.n	2cfc <__sflush_r+0x90>
    2d44:	4643      	mov	r3, r8
    2d46:	6819      	ldr	r1, [r3, #0]
    2d48:	291d      	cmp	r1, #29
    2d4a:	d8f4      	bhi.n	2d36 <__sflush_r+0xca>
    2d4c:	4b1a      	ldr	r3, [pc, #104]	; (2db8 <__sflush_r+0x14c>)
    2d4e:	2201      	movs	r2, #1
    2d50:	40cb      	lsrs	r3, r1
    2d52:	439a      	bics	r2, r3
    2d54:	d1ef      	bne.n	2d36 <__sflush_r+0xca>
    2d56:	89a6      	ldrh	r6, [r4, #12]
    2d58:	4b16      	ldr	r3, [pc, #88]	; (2db4 <__sflush_r+0x148>)
    2d5a:	6062      	str	r2, [r4, #4]
    2d5c:	4033      	ands	r3, r6
    2d5e:	6922      	ldr	r2, [r4, #16]
    2d60:	b21b      	sxth	r3, r3
    2d62:	81a3      	strh	r3, [r4, #12]
    2d64:	6022      	str	r2, [r4, #0]
    2d66:	04db      	lsls	r3, r3, #19
    2d68:	d5b9      	bpl.n	2cde <__sflush_r+0x72>
    2d6a:	2900      	cmp	r1, #0
    2d6c:	d1b7      	bne.n	2cde <__sflush_r+0x72>
    2d6e:	6520      	str	r0, [r4, #80]	; 0x50
    2d70:	e7b5      	b.n	2cde <__sflush_r+0x72>
    2d72:	6be2      	ldr	r2, [r4, #60]	; 0x3c
    2d74:	2a00      	cmp	r2, #0
    2d76:	dd00      	ble.n	2d7a <__sflush_r+0x10e>
    2d78:	e78a      	b.n	2c90 <__sflush_r+0x24>
    2d7a:	e7be      	b.n	2cfa <__sflush_r+0x8e>
    2d7c:	2200      	movs	r2, #0
    2d7e:	2301      	movs	r3, #1
    2d80:	69e1      	ldr	r1, [r4, #28]
    2d82:	4640      	mov	r0, r8
    2d84:	47b0      	blx	r6
    2d86:	0002      	movs	r2, r0
    2d88:	1c43      	adds	r3, r0, #1
    2d8a:	d002      	beq.n	2d92 <__sflush_r+0x126>
    2d8c:	89a3      	ldrh	r3, [r4, #12]
    2d8e:	6aa6      	ldr	r6, [r4, #40]	; 0x28
    2d90:	e78b      	b.n	2caa <__sflush_r+0x3e>
    2d92:	4643      	mov	r3, r8
    2d94:	681b      	ldr	r3, [r3, #0]
    2d96:	2b00      	cmp	r3, #0
    2d98:	d0f8      	beq.n	2d8c <__sflush_r+0x120>
    2d9a:	2b1d      	cmp	r3, #29
    2d9c:	d001      	beq.n	2da2 <__sflush_r+0x136>
    2d9e:	2b16      	cmp	r3, #22
    2da0:	d103      	bne.n	2daa <__sflush_r+0x13e>
    2da2:	4643      	mov	r3, r8
    2da4:	2000      	movs	r0, #0
    2da6:	601d      	str	r5, [r3, #0]
    2da8:	e7a8      	b.n	2cfc <__sflush_r+0x90>
    2daa:	2340      	movs	r3, #64	; 0x40
    2dac:	89a1      	ldrh	r1, [r4, #12]
    2dae:	430b      	orrs	r3, r1
    2db0:	81a3      	strh	r3, [r4, #12]
    2db2:	e7a3      	b.n	2cfc <__sflush_r+0x90>
    2db4:	fffff7ff 	.word	0xfffff7ff
    2db8:	20400001 	.word	0x20400001

00002dbc <_fflush_r>:
    2dbc:	b570      	push	{r4, r5, r6, lr}
    2dbe:	0004      	movs	r4, r0
    2dc0:	000d      	movs	r5, r1
    2dc2:	2800      	cmp	r0, #0
    2dc4:	d002      	beq.n	2dcc <_fflush_r+0x10>
    2dc6:	6b83      	ldr	r3, [r0, #56]	; 0x38
    2dc8:	2b00      	cmp	r3, #0
    2dca:	d009      	beq.n	2de0 <_fflush_r+0x24>
    2dcc:	220c      	movs	r2, #12
    2dce:	5eab      	ldrsh	r3, [r5, r2]
    2dd0:	2000      	movs	r0, #0
    2dd2:	2b00      	cmp	r3, #0
    2dd4:	d003      	beq.n	2dde <_fflush_r+0x22>
    2dd6:	0029      	movs	r1, r5
    2dd8:	0020      	movs	r0, r4
    2dda:	f7ff ff47 	bl	2c6c <__sflush_r>
    2dde:	bd70      	pop	{r4, r5, r6, pc}
    2de0:	f000 f882 	bl	2ee8 <__sinit>
    2de4:	e7f2      	b.n	2dcc <_fflush_r+0x10>
    2de6:	46c0      	nop			; (mov r8, r8)

00002de8 <_cleanup_r>:
    2de8:	b510      	push	{r4, lr}
    2dea:	4902      	ldr	r1, [pc, #8]	; (2df4 <_cleanup_r+0xc>)
    2dec:	f000 fb62 	bl	34b4 <_fwalk_reent>
    2df0:	bd10      	pop	{r4, pc}
    2df2:	46c0      	nop			; (mov r8, r8)
    2df4:	00004229 	.word	0x00004229

00002df8 <__sinit.part.1>:
    2df8:	b5f8      	push	{r3, r4, r5, r6, r7, lr}
    2dfa:	465f      	mov	r7, fp
    2dfc:	4656      	mov	r6, sl
    2dfe:	464d      	mov	r5, r9
    2e00:	4644      	mov	r4, r8
    2e02:	4b34      	ldr	r3, [pc, #208]	; (2ed4 <__sinit.part.1+0xdc>)
    2e04:	b4f0      	push	{r4, r5, r6, r7}
    2e06:	63c3      	str	r3, [r0, #60]	; 0x3c
    2e08:	23b8      	movs	r3, #184	; 0xb8
    2e0a:	2400      	movs	r4, #0
    2e0c:	2203      	movs	r2, #3
    2e0e:	009b      	lsls	r3, r3, #2
    2e10:	50c4      	str	r4, [r0, r3]
    2e12:	3304      	adds	r3, #4
    2e14:	6845      	ldr	r5, [r0, #4]
    2e16:	50c2      	str	r2, [r0, r3]
    2e18:	3308      	adds	r3, #8
    2e1a:	18c2      	adds	r2, r0, r3
    2e1c:	3b04      	subs	r3, #4
    2e1e:	50c2      	str	r2, [r0, r3]
    2e20:	0006      	movs	r6, r0
    2e22:	2304      	movs	r3, #4
    2e24:	0028      	movs	r0, r5
    2e26:	602c      	str	r4, [r5, #0]
    2e28:	606c      	str	r4, [r5, #4]
    2e2a:	60ac      	str	r4, [r5, #8]
    2e2c:	81ab      	strh	r3, [r5, #12]
    2e2e:	666c      	str	r4, [r5, #100]	; 0x64
    2e30:	81ec      	strh	r4, [r5, #14]
    2e32:	612c      	str	r4, [r5, #16]
    2e34:	616c      	str	r4, [r5, #20]
    2e36:	61ac      	str	r4, [r5, #24]
    2e38:	2208      	movs	r2, #8
    2e3a:	2100      	movs	r1, #0
    2e3c:	305c      	adds	r0, #92	; 0x5c
    2e3e:	f7ff fddb 	bl	29f8 <memset>
    2e42:	4b25      	ldr	r3, [pc, #148]	; (2ed8 <__sinit.part.1+0xe0>)
    2e44:	4f25      	ldr	r7, [pc, #148]	; (2edc <__sinit.part.1+0xe4>)
    2e46:	469a      	mov	sl, r3
    2e48:	622b      	str	r3, [r5, #32]
    2e4a:	4b25      	ldr	r3, [pc, #148]	; (2ee0 <__sinit.part.1+0xe8>)
    2e4c:	62ef      	str	r7, [r5, #44]	; 0x2c
    2e4e:	4699      	mov	r9, r3
    2e50:	626b      	str	r3, [r5, #36]	; 0x24
    2e52:	4b24      	ldr	r3, [pc, #144]	; (2ee4 <__sinit.part.1+0xec>)
    2e54:	61ed      	str	r5, [r5, #28]
    2e56:	62ab      	str	r3, [r5, #40]	; 0x28
    2e58:	68b5      	ldr	r5, [r6, #8]
    2e5a:	4698      	mov	r8, r3
    2e5c:	2309      	movs	r3, #9
    2e5e:	0028      	movs	r0, r5
    2e60:	81ab      	strh	r3, [r5, #12]
    2e62:	3b08      	subs	r3, #8
    2e64:	602c      	str	r4, [r5, #0]
    2e66:	606c      	str	r4, [r5, #4]
    2e68:	60ac      	str	r4, [r5, #8]
    2e6a:	666c      	str	r4, [r5, #100]	; 0x64
    2e6c:	81eb      	strh	r3, [r5, #14]
    2e6e:	612c      	str	r4, [r5, #16]
    2e70:	616c      	str	r4, [r5, #20]
    2e72:	61ac      	str	r4, [r5, #24]
    2e74:	2208      	movs	r2, #8
    2e76:	2100      	movs	r1, #0
    2e78:	305c      	adds	r0, #92	; 0x5c
    2e7a:	469b      	mov	fp, r3
    2e7c:	f7ff fdbc 	bl	29f8 <memset>
    2e80:	4653      	mov	r3, sl
    2e82:	622b      	str	r3, [r5, #32]
    2e84:	464b      	mov	r3, r9
    2e86:	626b      	str	r3, [r5, #36]	; 0x24
    2e88:	4643      	mov	r3, r8
    2e8a:	62ef      	str	r7, [r5, #44]	; 0x2c
    2e8c:	62ab      	str	r3, [r5, #40]	; 0x28
    2e8e:	61ed      	str	r5, [r5, #28]
    2e90:	68f5      	ldr	r5, [r6, #12]
    2e92:	2312      	movs	r3, #18
    2e94:	0028      	movs	r0, r5
    2e96:	81ab      	strh	r3, [r5, #12]
    2e98:	3b10      	subs	r3, #16
    2e9a:	81eb      	strh	r3, [r5, #14]
    2e9c:	602c      	str	r4, [r5, #0]
    2e9e:	606c      	str	r4, [r5, #4]
    2ea0:	60ac      	str	r4, [r5, #8]
    2ea2:	666c      	str	r4, [r5, #100]	; 0x64
    2ea4:	612c      	str	r4, [r5, #16]
    2ea6:	616c      	str	r4, [r5, #20]
    2ea8:	61ac      	str	r4, [r5, #24]
    2eaa:	2208      	movs	r2, #8
    2eac:	2100      	movs	r1, #0
    2eae:	305c      	adds	r0, #92	; 0x5c
    2eb0:	f7ff fda2 	bl	29f8 <memset>
    2eb4:	4653      	mov	r3, sl
    2eb6:	622b      	str	r3, [r5, #32]
    2eb8:	464b      	mov	r3, r9
    2eba:	626b      	str	r3, [r5, #36]	; 0x24
    2ebc:	4643      	mov	r3, r8
    2ebe:	62ab      	str	r3, [r5, #40]	; 0x28
    2ec0:	465b      	mov	r3, fp
    2ec2:	62ef      	str	r7, [r5, #44]	; 0x2c
    2ec4:	61ed      	str	r5, [r5, #28]
    2ec6:	63b3      	str	r3, [r6, #56]	; 0x38
    2ec8:	bc3c      	pop	{r2, r3, r4, r5}
    2eca:	4690      	mov	r8, r2
    2ecc:	4699      	mov	r9, r3
    2ece:	46a2      	mov	sl, r4
    2ed0:	46ab      	mov	fp, r5
    2ed2:	bdf8      	pop	{r3, r4, r5, r6, r7, pc}
    2ed4:	00002de9 	.word	0x00002de9
    2ed8:	0000406d 	.word	0x0000406d
    2edc:	000040fd 	.word	0x000040fd
    2ee0:	00004095 	.word	0x00004095
    2ee4:	000040d1 	.word	0x000040d1

00002ee8 <__sinit>:
    2ee8:	6b83      	ldr	r3, [r0, #56]	; 0x38
    2eea:	b510      	push	{r4, lr}
    2eec:	2b00      	cmp	r3, #0
    2eee:	d101      	bne.n	2ef4 <__sinit+0xc>
    2ef0:	f7ff ff82 	bl	2df8 <__sinit.part.1>
    2ef4:	bd10      	pop	{r4, pc}
    2ef6:	46c0      	nop			; (mov r8, r8)

00002ef8 <__sfp_lock_acquire>:
    2ef8:	4770      	bx	lr
    2efa:	46c0      	nop			; (mov r8, r8)

00002efc <__sfp_lock_release>:
    2efc:	4770      	bx	lr
    2efe:	46c0      	nop			; (mov r8, r8)

00002f00 <__libc_fini_array>:
    2f00:	b570      	push	{r4, r5, r6, lr}
    2f02:	4b09      	ldr	r3, [pc, #36]	; (2f28 <__libc_fini_array+0x28>)
    2f04:	4c09      	ldr	r4, [pc, #36]	; (2f2c <__libc_fini_array+0x2c>)
    2f06:	1ae4      	subs	r4, r4, r3
    2f08:	10a4      	asrs	r4, r4, #2
    2f0a:	d009      	beq.n	2f20 <__libc_fini_array+0x20>
    2f0c:	4a08      	ldr	r2, [pc, #32]	; (2f30 <__libc_fini_array+0x30>)
    2f0e:	18a5      	adds	r5, r4, r2
    2f10:	00ad      	lsls	r5, r5, #2
    2f12:	18ed      	adds	r5, r5, r3
    2f14:	682b      	ldr	r3, [r5, #0]
    2f16:	3c01      	subs	r4, #1
    2f18:	4798      	blx	r3
    2f1a:	3d04      	subs	r5, #4
    2f1c:	2c00      	cmp	r4, #0
    2f1e:	d1f9      	bne.n	2f14 <__libc_fini_array+0x14>
    2f20:	f001 fc1a 	bl	4758 <_fini>
    2f24:	bd70      	pop	{r4, r5, r6, pc}
    2f26:	46c0      	nop			; (mov r8, r8)
    2f28:	00004764 	.word	0x00004764
    2f2c:	00004768 	.word	0x00004768
    2f30:	3fffffff 	.word	0x3fffffff

00002f34 <_malloc_trim_r>:
    2f34:	b5f8      	push	{r3, r4, r5, r6, r7, lr}
    2f36:	000c      	movs	r4, r1
    2f38:	0006      	movs	r6, r0
    2f3a:	f000 fe93 	bl	3c64 <__malloc_lock>
    2f3e:	4f20      	ldr	r7, [pc, #128]	; (2fc0 <_malloc_trim_r+0x8c>)
    2f40:	68bb      	ldr	r3, [r7, #8]
    2f42:	685d      	ldr	r5, [r3, #4]
    2f44:	2303      	movs	r3, #3
    2f46:	439d      	bics	r5, r3
    2f48:	4b1e      	ldr	r3, [pc, #120]	; (2fc4 <_malloc_trim_r+0x90>)
    2f4a:	1b2c      	subs	r4, r5, r4
    2f4c:	469c      	mov	ip, r3
    2f4e:	4464      	add	r4, ip
    2f50:	0b24      	lsrs	r4, r4, #12
    2f52:	4b1d      	ldr	r3, [pc, #116]	; (2fc8 <_malloc_trim_r+0x94>)
    2f54:	3c01      	subs	r4, #1
    2f56:	0324      	lsls	r4, r4, #12
    2f58:	429c      	cmp	r4, r3
    2f5a:	dd07      	ble.n	2f6c <_malloc_trim_r+0x38>
    2f5c:	2100      	movs	r1, #0
    2f5e:	0030      	movs	r0, r6
    2f60:	f001 f872 	bl	4048 <_sbrk_r>
    2f64:	68bb      	ldr	r3, [r7, #8]
    2f66:	195b      	adds	r3, r3, r5
    2f68:	4298      	cmp	r0, r3
    2f6a:	d004      	beq.n	2f76 <_malloc_trim_r+0x42>
    2f6c:	0030      	movs	r0, r6
    2f6e:	f000 fe7b 	bl	3c68 <__malloc_unlock>
    2f72:	2000      	movs	r0, #0
    2f74:	bdf8      	pop	{r3, r4, r5, r6, r7, pc}
    2f76:	4261      	negs	r1, r4
    2f78:	0030      	movs	r0, r6
    2f7a:	f001 f865 	bl	4048 <_sbrk_r>
    2f7e:	1c43      	adds	r3, r0, #1
    2f80:	d00d      	beq.n	2f9e <_malloc_trim_r+0x6a>
    2f82:	2301      	movs	r3, #1
    2f84:	1b2d      	subs	r5, r5, r4
    2f86:	68ba      	ldr	r2, [r7, #8]
    2f88:	431d      	orrs	r5, r3
    2f8a:	4b10      	ldr	r3, [pc, #64]	; (2fcc <_malloc_trim_r+0x98>)
    2f8c:	6055      	str	r5, [r2, #4]
    2f8e:	681a      	ldr	r2, [r3, #0]
    2f90:	0030      	movs	r0, r6
    2f92:	1b14      	subs	r4, r2, r4
    2f94:	601c      	str	r4, [r3, #0]
    2f96:	f000 fe67 	bl	3c68 <__malloc_unlock>
    2f9a:	2001      	movs	r0, #1
    2f9c:	e7ea      	b.n	2f74 <_malloc_trim_r+0x40>
    2f9e:	2100      	movs	r1, #0
    2fa0:	0030      	movs	r0, r6
    2fa2:	f001 f851 	bl	4048 <_sbrk_r>
    2fa6:	68bb      	ldr	r3, [r7, #8]
    2fa8:	1ac2      	subs	r2, r0, r3
    2faa:	2a0f      	cmp	r2, #15
    2fac:	ddde      	ble.n	2f6c <_malloc_trim_r+0x38>
    2fae:	4908      	ldr	r1, [pc, #32]	; (2fd0 <_malloc_trim_r+0x9c>)
    2fb0:	6809      	ldr	r1, [r1, #0]
    2fb2:	1a40      	subs	r0, r0, r1
    2fb4:	4905      	ldr	r1, [pc, #20]	; (2fcc <_malloc_trim_r+0x98>)
    2fb6:	6008      	str	r0, [r1, #0]
    2fb8:	2101      	movs	r1, #1
    2fba:	430a      	orrs	r2, r1
    2fbc:	605a      	str	r2, [r3, #4]
    2fbe:	e7d5      	b.n	2f6c <_malloc_trim_r+0x38>
    2fc0:	2000044c 	.word	0x2000044c
    2fc4:	00000fef 	.word	0x00000fef
    2fc8:	00000fff 	.word	0x00000fff
    2fcc:	20000a90 	.word	0x20000a90
    2fd0:	20000858 	.word	0x20000858

00002fd4 <_free_r>:
    2fd4:	b5f0      	push	{r4, r5, r6, r7, lr}
    2fd6:	4647      	mov	r7, r8
    2fd8:	0005      	movs	r5, r0
    2fda:	b480      	push	{r7}
    2fdc:	1e0c      	subs	r4, r1, #0
    2fde:	d03e      	beq.n	305e <_free_r+0x8a>
    2fe0:	f000 fe40 	bl	3c64 <__malloc_lock>
    2fe4:	2301      	movs	r3, #1
    2fe6:	0021      	movs	r1, r4
    2fe8:	4698      	mov	r8, r3
    2fea:	3908      	subs	r1, #8
    2fec:	684e      	ldr	r6, [r1, #4]
    2fee:	4642      	mov	r2, r8
    2ff0:	0033      	movs	r3, r6
    2ff2:	2003      	movs	r0, #3
    2ff4:	4393      	bics	r3, r2
    2ff6:	18cc      	adds	r4, r1, r3
    2ff8:	6862      	ldr	r2, [r4, #4]
    2ffa:	4382      	bics	r2, r0
    2ffc:	4860      	ldr	r0, [pc, #384]	; (3180 <_free_r+0x1ac>)
    2ffe:	6887      	ldr	r7, [r0, #8]
    3000:	42bc      	cmp	r4, r7
    3002:	d05a      	beq.n	30ba <_free_r+0xe6>
    3004:	4647      	mov	r7, r8
    3006:	6062      	str	r2, [r4, #4]
    3008:	4237      	tst	r7, r6
    300a:	d10b      	bne.n	3024 <_free_r+0x50>
    300c:	2708      	movs	r7, #8
    300e:	46bc      	mov	ip, r7
    3010:	680e      	ldr	r6, [r1, #0]
    3012:	4484      	add	ip, r0
    3014:	1b89      	subs	r1, r1, r6
    3016:	199b      	adds	r3, r3, r6
    3018:	688e      	ldr	r6, [r1, #8]
    301a:	4566      	cmp	r6, ip
    301c:	d066      	beq.n	30ec <_free_r+0x118>
    301e:	68cf      	ldr	r7, [r1, #12]
    3020:	60f7      	str	r7, [r6, #12]
    3022:	60be      	str	r6, [r7, #8]
    3024:	2601      	movs	r6, #1
    3026:	18a7      	adds	r7, r4, r2
    3028:	687f      	ldr	r7, [r7, #4]
    302a:	4237      	tst	r7, r6
    302c:	d036      	beq.n	309c <_free_r+0xc8>
    302e:	4a55      	ldr	r2, [pc, #340]	; (3184 <_free_r+0x1b0>)
    3030:	431e      	orrs	r6, r3
    3032:	604e      	str	r6, [r1, #4]
    3034:	50cb      	str	r3, [r1, r3]
    3036:	4293      	cmp	r3, r2
    3038:	d814      	bhi.n	3064 <_free_r+0x90>
    303a:	08db      	lsrs	r3, r3, #3
    303c:	3aff      	subs	r2, #255	; 0xff
    303e:	109c      	asrs	r4, r3, #2
    3040:	3aff      	subs	r2, #255	; 0xff
    3042:	40a2      	lsls	r2, r4
    3044:	6844      	ldr	r4, [r0, #4]
    3046:	00db      	lsls	r3, r3, #3
    3048:	4322      	orrs	r2, r4
    304a:	6042      	str	r2, [r0, #4]
    304c:	1818      	adds	r0, r3, r0
    304e:	6883      	ldr	r3, [r0, #8]
    3050:	60c8      	str	r0, [r1, #12]
    3052:	608b      	str	r3, [r1, #8]
    3054:	6081      	str	r1, [r0, #8]
    3056:	60d9      	str	r1, [r3, #12]
    3058:	0028      	movs	r0, r5
    305a:	f000 fe05 	bl	3c68 <__malloc_unlock>
    305e:	bc04      	pop	{r2}
    3060:	4690      	mov	r8, r2
    3062:	bdf0      	pop	{r4, r5, r6, r7, pc}
    3064:	0a5a      	lsrs	r2, r3, #9
    3066:	2a04      	cmp	r2, #4
    3068:	d84f      	bhi.n	310a <_free_r+0x136>
    306a:	099c      	lsrs	r4, r3, #6
    306c:	0026      	movs	r6, r4
    306e:	3439      	adds	r4, #57	; 0x39
    3070:	3638      	adds	r6, #56	; 0x38
    3072:	0064      	lsls	r4, r4, #1
    3074:	00a4      	lsls	r4, r4, #2
    3076:	1904      	adds	r4, r0, r4
    3078:	3c08      	subs	r4, #8
    307a:	68a2      	ldr	r2, [r4, #8]
    307c:	2703      	movs	r7, #3
    307e:	4294      	cmp	r4, r2
    3080:	d04a      	beq.n	3118 <_free_r+0x144>
    3082:	6850      	ldr	r0, [r2, #4]
    3084:	43b8      	bics	r0, r7
    3086:	4283      	cmp	r3, r0
    3088:	d202      	bcs.n	3090 <_free_r+0xbc>
    308a:	6892      	ldr	r2, [r2, #8]
    308c:	4294      	cmp	r4, r2
    308e:	d1f8      	bne.n	3082 <_free_r+0xae>
    3090:	68d4      	ldr	r4, [r2, #12]
    3092:	60cc      	str	r4, [r1, #12]
    3094:	608a      	str	r2, [r1, #8]
    3096:	60a1      	str	r1, [r4, #8]
    3098:	60d1      	str	r1, [r2, #12]
    309a:	e7dd      	b.n	3058 <_free_r+0x84>
    309c:	189b      	adds	r3, r3, r2
    309e:	4f3a      	ldr	r7, [pc, #232]	; (3188 <_free_r+0x1b4>)
    30a0:	68a2      	ldr	r2, [r4, #8]
    30a2:	42ba      	cmp	r2, r7
    30a4:	d040      	beq.n	3128 <_free_r+0x154>
    30a6:	68e4      	ldr	r4, [r4, #12]
    30a8:	431e      	orrs	r6, r3
    30aa:	60d4      	str	r4, [r2, #12]
    30ac:	60a2      	str	r2, [r4, #8]
    30ae:	4a35      	ldr	r2, [pc, #212]	; (3184 <_free_r+0x1b0>)
    30b0:	604e      	str	r6, [r1, #4]
    30b2:	50cb      	str	r3, [r1, r3]
    30b4:	4293      	cmp	r3, r2
    30b6:	d8d5      	bhi.n	3064 <_free_r+0x90>
    30b8:	e7bf      	b.n	303a <_free_r+0x66>
    30ba:	189b      	adds	r3, r3, r2
    30bc:	4642      	mov	r2, r8
    30be:	4232      	tst	r2, r6
    30c0:	d106      	bne.n	30d0 <_free_r+0xfc>
    30c2:	680a      	ldr	r2, [r1, #0]
    30c4:	1a89      	subs	r1, r1, r2
    30c6:	688c      	ldr	r4, [r1, #8]
    30c8:	189b      	adds	r3, r3, r2
    30ca:	68ca      	ldr	r2, [r1, #12]
    30cc:	60e2      	str	r2, [r4, #12]
    30ce:	6094      	str	r4, [r2, #8]
    30d0:	2401      	movs	r4, #1
    30d2:	4a2e      	ldr	r2, [pc, #184]	; (318c <_free_r+0x1b8>)
    30d4:	431c      	orrs	r4, r3
    30d6:	6812      	ldr	r2, [r2, #0]
    30d8:	604c      	str	r4, [r1, #4]
    30da:	6081      	str	r1, [r0, #8]
    30dc:	4293      	cmp	r3, r2
    30de:	d3bb      	bcc.n	3058 <_free_r+0x84>
    30e0:	4b2b      	ldr	r3, [pc, #172]	; (3190 <_free_r+0x1bc>)
    30e2:	0028      	movs	r0, r5
    30e4:	6819      	ldr	r1, [r3, #0]
    30e6:	f7ff ff25 	bl	2f34 <_malloc_trim_r>
    30ea:	e7b5      	b.n	3058 <_free_r+0x84>
    30ec:	4646      	mov	r6, r8
    30ee:	18a0      	adds	r0, r4, r2
    30f0:	6840      	ldr	r0, [r0, #4]
    30f2:	4230      	tst	r0, r6
    30f4:	d13e      	bne.n	3174 <_free_r+0x1a0>
    30f6:	68a0      	ldr	r0, [r4, #8]
    30f8:	18d3      	adds	r3, r2, r3
    30fa:	68e2      	ldr	r2, [r4, #12]
    30fc:	60c2      	str	r2, [r0, #12]
    30fe:	6090      	str	r0, [r2, #8]
    3100:	4642      	mov	r2, r8
    3102:	431a      	orrs	r2, r3
    3104:	604a      	str	r2, [r1, #4]
    3106:	50cb      	str	r3, [r1, r3]
    3108:	e7a6      	b.n	3058 <_free_r+0x84>
    310a:	2a14      	cmp	r2, #20
    310c:	d814      	bhi.n	3138 <_free_r+0x164>
    310e:	0016      	movs	r6, r2
    3110:	325c      	adds	r2, #92	; 0x5c
    3112:	365b      	adds	r6, #91	; 0x5b
    3114:	0054      	lsls	r4, r2, #1
    3116:	e7ad      	b.n	3074 <_free_r+0xa0>
    3118:	2301      	movs	r3, #1
    311a:	10b6      	asrs	r6, r6, #2
    311c:	40b3      	lsls	r3, r6
    311e:	6842      	ldr	r2, [r0, #4]
    3120:	4313      	orrs	r3, r2
    3122:	6043      	str	r3, [r0, #4]
    3124:	0022      	movs	r2, r4
    3126:	e7b4      	b.n	3092 <_free_r+0xbe>
    3128:	431e      	orrs	r6, r3
    312a:	60d1      	str	r1, [r2, #12]
    312c:	6091      	str	r1, [r2, #8]
    312e:	60ca      	str	r2, [r1, #12]
    3130:	608a      	str	r2, [r1, #8]
    3132:	604e      	str	r6, [r1, #4]
    3134:	50cb      	str	r3, [r1, r3]
    3136:	e78f      	b.n	3058 <_free_r+0x84>
    3138:	2a54      	cmp	r2, #84	; 0x54
    313a:	d805      	bhi.n	3148 <_free_r+0x174>
    313c:	0b1c      	lsrs	r4, r3, #12
    313e:	0026      	movs	r6, r4
    3140:	346f      	adds	r4, #111	; 0x6f
    3142:	366e      	adds	r6, #110	; 0x6e
    3144:	0064      	lsls	r4, r4, #1
    3146:	e795      	b.n	3074 <_free_r+0xa0>
    3148:	24aa      	movs	r4, #170	; 0xaa
    314a:	0064      	lsls	r4, r4, #1
    314c:	42a2      	cmp	r2, r4
    314e:	d805      	bhi.n	315c <_free_r+0x188>
    3150:	0bdc      	lsrs	r4, r3, #15
    3152:	0026      	movs	r6, r4
    3154:	3478      	adds	r4, #120	; 0x78
    3156:	3677      	adds	r6, #119	; 0x77
    3158:	0064      	lsls	r4, r4, #1
    315a:	e78b      	b.n	3074 <_free_r+0xa0>
    315c:	4c0d      	ldr	r4, [pc, #52]	; (3194 <_free_r+0x1c0>)
    315e:	42a2      	cmp	r2, r4
    3160:	d805      	bhi.n	316e <_free_r+0x19a>
    3162:	0c9c      	lsrs	r4, r3, #18
    3164:	0026      	movs	r6, r4
    3166:	347d      	adds	r4, #125	; 0x7d
    3168:	367c      	adds	r6, #124	; 0x7c
    316a:	0064      	lsls	r4, r4, #1
    316c:	e782      	b.n	3074 <_free_r+0xa0>
    316e:	24fe      	movs	r4, #254	; 0xfe
    3170:	267e      	movs	r6, #126	; 0x7e
    3172:	e77f      	b.n	3074 <_free_r+0xa0>
    3174:	4642      	mov	r2, r8
    3176:	431a      	orrs	r2, r3
    3178:	604a      	str	r2, [r1, #4]
    317a:	50cb      	str	r3, [r1, r3]
    317c:	e76c      	b.n	3058 <_free_r+0x84>
    317e:	46c0      	nop			; (mov r8, r8)
    3180:	2000044c 	.word	0x2000044c
    3184:	000001ff 	.word	0x000001ff
    3188:	20000454 	.word	0x20000454
    318c:	20000854 	.word	0x20000854
    3190:	20000a8c 	.word	0x20000a8c
    3194:	00000554 	.word	0x00000554

00003198 <__sfvwrite_r>:
    3198:	b5f0      	push	{r4, r5, r6, r7, lr}
    319a:	4656      	mov	r6, sl
    319c:	4644      	mov	r4, r8
    319e:	465f      	mov	r7, fp
    31a0:	464d      	mov	r5, r9
    31a2:	b4f0      	push	{r4, r5, r6, r7}
    31a4:	6893      	ldr	r3, [r2, #8]
    31a6:	b085      	sub	sp, #20
    31a8:	9001      	str	r0, [sp, #4]
    31aa:	000c      	movs	r4, r1
    31ac:	4692      	mov	sl, r2
    31ae:	2b00      	cmp	r3, #0
    31b0:	d025      	beq.n	31fe <__sfvwrite_r+0x66>
    31b2:	898b      	ldrh	r3, [r1, #12]
    31b4:	071a      	lsls	r2, r3, #28
    31b6:	d52a      	bpl.n	320e <__sfvwrite_r+0x76>
    31b8:	690a      	ldr	r2, [r1, #16]
    31ba:	2a00      	cmp	r2, #0
    31bc:	d027      	beq.n	320e <__sfvwrite_r+0x76>
    31be:	4652      	mov	r2, sl
    31c0:	6812      	ldr	r2, [r2, #0]
    31c2:	4693      	mov	fp, r2
    31c4:	079a      	lsls	r2, r3, #30
    31c6:	d52f      	bpl.n	3228 <__sfvwrite_r+0x90>
    31c8:	4bb7      	ldr	r3, [pc, #732]	; (34a8 <__sfvwrite_r+0x310>)
    31ca:	2600      	movs	r6, #0
    31cc:	2500      	movs	r5, #0
    31ce:	4698      	mov	r8, r3
    31d0:	2d00      	cmp	r5, #0
    31d2:	d100      	bne.n	31d6 <__sfvwrite_r+0x3e>
    31d4:	e06d      	b.n	32b2 <__sfvwrite_r+0x11a>
    31d6:	1e2b      	subs	r3, r5, #0
    31d8:	4543      	cmp	r3, r8
    31da:	d900      	bls.n	31de <__sfvwrite_r+0x46>
    31dc:	4bb2      	ldr	r3, [pc, #712]	; (34a8 <__sfvwrite_r+0x310>)
    31de:	0032      	movs	r2, r6
    31e0:	69e1      	ldr	r1, [r4, #28]
    31e2:	9801      	ldr	r0, [sp, #4]
    31e4:	6a67      	ldr	r7, [r4, #36]	; 0x24
    31e6:	47b8      	blx	r7
    31e8:	2800      	cmp	r0, #0
    31ea:	dc00      	bgt.n	31ee <__sfvwrite_r+0x56>
    31ec:	e079      	b.n	32e2 <__sfvwrite_r+0x14a>
    31ee:	4653      	mov	r3, sl
    31f0:	689b      	ldr	r3, [r3, #8]
    31f2:	1836      	adds	r6, r6, r0
    31f4:	1a2d      	subs	r5, r5, r0
    31f6:	1a18      	subs	r0, r3, r0
    31f8:	4653      	mov	r3, sl
    31fa:	6098      	str	r0, [r3, #8]
    31fc:	d1e8      	bne.n	31d0 <__sfvwrite_r+0x38>
    31fe:	2000      	movs	r0, #0
    3200:	b005      	add	sp, #20
    3202:	bc3c      	pop	{r2, r3, r4, r5}
    3204:	4690      	mov	r8, r2
    3206:	4699      	mov	r9, r3
    3208:	46a2      	mov	sl, r4
    320a:	46ab      	mov	fp, r5
    320c:	bdf0      	pop	{r4, r5, r6, r7, pc}
    320e:	0021      	movs	r1, r4
    3210:	9801      	ldr	r0, [sp, #4]
    3212:	f7ff fcad 	bl	2b70 <__swsetup_r>
    3216:	2800      	cmp	r0, #0
    3218:	d000      	beq.n	321c <__sfvwrite_r+0x84>
    321a:	e13b      	b.n	3494 <__sfvwrite_r+0x2fc>
    321c:	4652      	mov	r2, sl
    321e:	89a3      	ldrh	r3, [r4, #12]
    3220:	6812      	ldr	r2, [r2, #0]
    3222:	4693      	mov	fp, r2
    3224:	079a      	lsls	r2, r3, #30
    3226:	d4cf      	bmi.n	31c8 <__sfvwrite_r+0x30>
    3228:	07da      	lsls	r2, r3, #31
    322a:	d562      	bpl.n	32f2 <__sfvwrite_r+0x15a>
    322c:	2300      	movs	r3, #0
    322e:	2700      	movs	r7, #0
    3230:	4699      	mov	r9, r3
    3232:	001d      	movs	r5, r3
    3234:	9302      	str	r3, [sp, #8]
    3236:	2f00      	cmp	r7, #0
    3238:	d030      	beq.n	329c <__sfvwrite_r+0x104>
    323a:	9b02      	ldr	r3, [sp, #8]
    323c:	2b00      	cmp	r3, #0
    323e:	d100      	bne.n	3242 <__sfvwrite_r+0xaa>
    3240:	e0c3      	b.n	33ca <__sfvwrite_r+0x232>
    3242:	1e2e      	subs	r6, r5, #0
    3244:	42be      	cmp	r6, r7
    3246:	d900      	bls.n	324a <__sfvwrite_r+0xb2>
    3248:	003e      	movs	r6, r7
    324a:	6820      	ldr	r0, [r4, #0]
    324c:	6922      	ldr	r2, [r4, #16]
    324e:	46b0      	mov	r8, r6
    3250:	6963      	ldr	r3, [r4, #20]
    3252:	4290      	cmp	r0, r2
    3254:	d907      	bls.n	3266 <__sfvwrite_r+0xce>
    3256:	68a2      	ldr	r2, [r4, #8]
    3258:	4694      	mov	ip, r2
    325a:	449c      	add	ip, r3
    325c:	4662      	mov	r2, ip
    325e:	9203      	str	r2, [sp, #12]
    3260:	4566      	cmp	r6, ip
    3262:	dd00      	ble.n	3266 <__sfvwrite_r+0xce>
    3264:	e0ef      	b.n	3446 <__sfvwrite_r+0x2ae>
    3266:	429e      	cmp	r6, r3
    3268:	da00      	bge.n	326c <__sfvwrite_r+0xd4>
    326a:	e092      	b.n	3392 <__sfvwrite_r+0x1fa>
    326c:	464a      	mov	r2, r9
    326e:	69e1      	ldr	r1, [r4, #28]
    3270:	9801      	ldr	r0, [sp, #4]
    3272:	6a66      	ldr	r6, [r4, #36]	; 0x24
    3274:	47b0      	blx	r6
    3276:	4680      	mov	r8, r0
    3278:	2800      	cmp	r0, #0
    327a:	dd32      	ble.n	32e2 <__sfvwrite_r+0x14a>
    327c:	4643      	mov	r3, r8
    327e:	1aed      	subs	r5, r5, r3
    3280:	d100      	bne.n	3284 <__sfvwrite_r+0xec>
    3282:	e095      	b.n	33b0 <__sfvwrite_r+0x218>
    3284:	4643      	mov	r3, r8
    3286:	1aff      	subs	r7, r7, r3
    3288:	4653      	mov	r3, sl
    328a:	4642      	mov	r2, r8
    328c:	689b      	ldr	r3, [r3, #8]
    328e:	44c1      	add	r9, r8
    3290:	1a9b      	subs	r3, r3, r2
    3292:	4652      	mov	r2, sl
    3294:	6093      	str	r3, [r2, #8]
    3296:	d0b2      	beq.n	31fe <__sfvwrite_r+0x66>
    3298:	2f00      	cmp	r7, #0
    329a:	d1ce      	bne.n	323a <__sfvwrite_r+0xa2>
    329c:	465b      	mov	r3, fp
    329e:	681b      	ldr	r3, [r3, #0]
    32a0:	4699      	mov	r9, r3
    32a2:	465b      	mov	r3, fp
    32a4:	685f      	ldr	r7, [r3, #4]
    32a6:	2308      	movs	r3, #8
    32a8:	469c      	mov	ip, r3
    32aa:	2300      	movs	r3, #0
    32ac:	44e3      	add	fp, ip
    32ae:	9302      	str	r3, [sp, #8]
    32b0:	e7c1      	b.n	3236 <__sfvwrite_r+0x9e>
    32b2:	465b      	mov	r3, fp
    32b4:	681e      	ldr	r6, [r3, #0]
    32b6:	685d      	ldr	r5, [r3, #4]
    32b8:	2308      	movs	r3, #8
    32ba:	469c      	mov	ip, r3
    32bc:	44e3      	add	fp, ip
    32be:	e787      	b.n	31d0 <__sfvwrite_r+0x38>
    32c0:	4b7a      	ldr	r3, [pc, #488]	; (34ac <__sfvwrite_r+0x314>)
    32c2:	1e30      	subs	r0, r6, #0
    32c4:	4298      	cmp	r0, r3
    32c6:	d900      	bls.n	32ca <__sfvwrite_r+0x132>
    32c8:	0018      	movs	r0, r3
    32ca:	4641      	mov	r1, r8
    32cc:	f7fe fbca 	bl	1a64 <__aeabi_idiv>
    32d0:	4643      	mov	r3, r8
    32d2:	003a      	movs	r2, r7
    32d4:	4343      	muls	r3, r0
    32d6:	69e1      	ldr	r1, [r4, #28]
    32d8:	9801      	ldr	r0, [sp, #4]
    32da:	6a65      	ldr	r5, [r4, #36]	; 0x24
    32dc:	47a8      	blx	r5
    32de:	2800      	cmp	r0, #0
    32e0:	dc23      	bgt.n	332a <__sfvwrite_r+0x192>
    32e2:	230c      	movs	r3, #12
    32e4:	5ee2      	ldrsh	r2, [r4, r3]
    32e6:	2340      	movs	r3, #64	; 0x40
    32e8:	2001      	movs	r0, #1
    32ea:	4313      	orrs	r3, r2
    32ec:	81a3      	strh	r3, [r4, #12]
    32ee:	4240      	negs	r0, r0
    32f0:	e786      	b.n	3200 <__sfvwrite_r+0x68>
    32f2:	2700      	movs	r7, #0
    32f4:	2600      	movs	r6, #0
    32f6:	2e00      	cmp	r6, #0
    32f8:	d023      	beq.n	3342 <__sfvwrite_r+0x1aa>
    32fa:	2280      	movs	r2, #128	; 0x80
    32fc:	0092      	lsls	r2, r2, #2
    32fe:	68a5      	ldr	r5, [r4, #8]
    3300:	4213      	tst	r3, r2
    3302:	d025      	beq.n	3350 <__sfvwrite_r+0x1b8>
    3304:	46a8      	mov	r8, r5
    3306:	42ae      	cmp	r6, r5
    3308:	d35b      	bcc.n	33c2 <__sfvwrite_r+0x22a>
    330a:	2290      	movs	r2, #144	; 0x90
    330c:	00d2      	lsls	r2, r2, #3
    330e:	4213      	tst	r3, r2
    3310:	d168      	bne.n	33e4 <__sfvwrite_r+0x24c>
    3312:	6820      	ldr	r0, [r4, #0]
    3314:	4642      	mov	r2, r8
    3316:	0039      	movs	r1, r7
    3318:	f000 fc58 	bl	3bcc <memmove>
    331c:	0030      	movs	r0, r6
    331e:	68a3      	ldr	r3, [r4, #8]
    3320:	1b5d      	subs	r5, r3, r5
    3322:	6823      	ldr	r3, [r4, #0]
    3324:	60a5      	str	r5, [r4, #8]
    3326:	4443      	add	r3, r8
    3328:	6023      	str	r3, [r4, #0]
    332a:	4653      	mov	r3, sl
    332c:	689b      	ldr	r3, [r3, #8]
    332e:	183f      	adds	r7, r7, r0
    3330:	1a36      	subs	r6, r6, r0
    3332:	1a18      	subs	r0, r3, r0
    3334:	4653      	mov	r3, sl
    3336:	6098      	str	r0, [r3, #8]
    3338:	d100      	bne.n	333c <__sfvwrite_r+0x1a4>
    333a:	e760      	b.n	31fe <__sfvwrite_r+0x66>
    333c:	89a3      	ldrh	r3, [r4, #12]
    333e:	2e00      	cmp	r6, #0
    3340:	d1db      	bne.n	32fa <__sfvwrite_r+0x162>
    3342:	465a      	mov	r2, fp
    3344:	6817      	ldr	r7, [r2, #0]
    3346:	6856      	ldr	r6, [r2, #4]
    3348:	2208      	movs	r2, #8
    334a:	4694      	mov	ip, r2
    334c:	44e3      	add	fp, ip
    334e:	e7d2      	b.n	32f6 <__sfvwrite_r+0x15e>
    3350:	6820      	ldr	r0, [r4, #0]
    3352:	6923      	ldr	r3, [r4, #16]
    3354:	4298      	cmp	r0, r3
    3356:	d803      	bhi.n	3360 <__sfvwrite_r+0x1c8>
    3358:	6963      	ldr	r3, [r4, #20]
    335a:	4698      	mov	r8, r3
    335c:	429e      	cmp	r6, r3
    335e:	d2af      	bcs.n	32c0 <__sfvwrite_r+0x128>
    3360:	42b5      	cmp	r5, r6
    3362:	d900      	bls.n	3366 <__sfvwrite_r+0x1ce>
    3364:	0035      	movs	r5, r6
    3366:	002a      	movs	r2, r5
    3368:	0039      	movs	r1, r7
    336a:	f000 fc2f 	bl	3bcc <memmove>
    336e:	68a3      	ldr	r3, [r4, #8]
    3370:	6822      	ldr	r2, [r4, #0]
    3372:	1b5b      	subs	r3, r3, r5
    3374:	1952      	adds	r2, r2, r5
    3376:	60a3      	str	r3, [r4, #8]
    3378:	6022      	str	r2, [r4, #0]
    337a:	2b00      	cmp	r3, #0
    337c:	d001      	beq.n	3382 <__sfvwrite_r+0x1ea>
    337e:	0028      	movs	r0, r5
    3380:	e7d3      	b.n	332a <__sfvwrite_r+0x192>
    3382:	0021      	movs	r1, r4
    3384:	9801      	ldr	r0, [sp, #4]
    3386:	f7ff fd19 	bl	2dbc <_fflush_r>
    338a:	2800      	cmp	r0, #0
    338c:	d1a9      	bne.n	32e2 <__sfvwrite_r+0x14a>
    338e:	0028      	movs	r0, r5
    3390:	e7cb      	b.n	332a <__sfvwrite_r+0x192>
    3392:	0032      	movs	r2, r6
    3394:	4649      	mov	r1, r9
    3396:	f000 fc19 	bl	3bcc <memmove>
    339a:	68a3      	ldr	r3, [r4, #8]
    339c:	1b9b      	subs	r3, r3, r6
    339e:	60a3      	str	r3, [r4, #8]
    33a0:	6823      	ldr	r3, [r4, #0]
    33a2:	469c      	mov	ip, r3
    33a4:	4643      	mov	r3, r8
    33a6:	4466      	add	r6, ip
    33a8:	6026      	str	r6, [r4, #0]
    33aa:	1aed      	subs	r5, r5, r3
    33ac:	d000      	beq.n	33b0 <__sfvwrite_r+0x218>
    33ae:	e769      	b.n	3284 <__sfvwrite_r+0xec>
    33b0:	0021      	movs	r1, r4
    33b2:	9801      	ldr	r0, [sp, #4]
    33b4:	f7ff fd02 	bl	2dbc <_fflush_r>
    33b8:	2800      	cmp	r0, #0
    33ba:	d192      	bne.n	32e2 <__sfvwrite_r+0x14a>
    33bc:	2300      	movs	r3, #0
    33be:	9302      	str	r3, [sp, #8]
    33c0:	e760      	b.n	3284 <__sfvwrite_r+0xec>
    33c2:	0035      	movs	r5, r6
    33c4:	6820      	ldr	r0, [r4, #0]
    33c6:	46b0      	mov	r8, r6
    33c8:	e7a4      	b.n	3314 <__sfvwrite_r+0x17c>
    33ca:	003a      	movs	r2, r7
    33cc:	210a      	movs	r1, #10
    33ce:	4648      	mov	r0, r9
    33d0:	f000 fbb4 	bl	3b3c <memchr>
    33d4:	2800      	cmp	r0, #0
    33d6:	d059      	beq.n	348c <__sfvwrite_r+0x2f4>
    33d8:	464b      	mov	r3, r9
    33da:	3001      	adds	r0, #1
    33dc:	1ac5      	subs	r5, r0, r3
    33de:	2301      	movs	r3, #1
    33e0:	9302      	str	r3, [sp, #8]
    33e2:	e72e      	b.n	3242 <__sfvwrite_r+0xaa>
    33e4:	6921      	ldr	r1, [r4, #16]
    33e6:	6822      	ldr	r2, [r4, #0]
    33e8:	1a52      	subs	r2, r2, r1
    33ea:	4691      	mov	r9, r2
    33ec:	6962      	ldr	r2, [r4, #20]
    33ee:	0050      	lsls	r0, r2, #1
    33f0:	1882      	adds	r2, r0, r2
    33f2:	0fd0      	lsrs	r0, r2, #31
    33f4:	1882      	adds	r2, r0, r2
    33f6:	1052      	asrs	r2, r2, #1
    33f8:	4690      	mov	r8, r2
    33fa:	464a      	mov	r2, r9
    33fc:	1c50      	adds	r0, r2, #1
    33fe:	1980      	adds	r0, r0, r6
    3400:	4642      	mov	r2, r8
    3402:	4540      	cmp	r0, r8
    3404:	d901      	bls.n	340a <__sfvwrite_r+0x272>
    3406:	4680      	mov	r8, r0
    3408:	0002      	movs	r2, r0
    340a:	055b      	lsls	r3, r3, #21
    340c:	d52d      	bpl.n	346a <__sfvwrite_r+0x2d2>
    340e:	0011      	movs	r1, r2
    3410:	9801      	ldr	r0, [sp, #4]
    3412:	f000 f8e9 	bl	35e8 <_malloc_r>
    3416:	1e05      	subs	r5, r0, #0
    3418:	d03f      	beq.n	349a <__sfvwrite_r+0x302>
    341a:	464a      	mov	r2, r9
    341c:	6921      	ldr	r1, [r4, #16]
    341e:	f7ff faad 	bl	297c <memcpy>
    3422:	89a2      	ldrh	r2, [r4, #12]
    3424:	4b22      	ldr	r3, [pc, #136]	; (34b0 <__sfvwrite_r+0x318>)
    3426:	4013      	ands	r3, r2
    3428:	2280      	movs	r2, #128	; 0x80
    342a:	4313      	orrs	r3, r2
    342c:	81a3      	strh	r3, [r4, #12]
    342e:	4643      	mov	r3, r8
    3430:	0028      	movs	r0, r5
    3432:	464a      	mov	r2, r9
    3434:	4448      	add	r0, r9
    3436:	6163      	str	r3, [r4, #20]
    3438:	1a9b      	subs	r3, r3, r2
    343a:	6125      	str	r5, [r4, #16]
    343c:	6020      	str	r0, [r4, #0]
    343e:	0035      	movs	r5, r6
    3440:	60a3      	str	r3, [r4, #8]
    3442:	46b0      	mov	r8, r6
    3444:	e766      	b.n	3314 <__sfvwrite_r+0x17c>
    3446:	4666      	mov	r6, ip
    3448:	4649      	mov	r1, r9
    344a:	f000 fbbf 	bl	3bcc <memmove>
    344e:	46b4      	mov	ip, r6
    3450:	6823      	ldr	r3, [r4, #0]
    3452:	0021      	movs	r1, r4
    3454:	4463      	add	r3, ip
    3456:	6023      	str	r3, [r4, #0]
    3458:	9801      	ldr	r0, [sp, #4]
    345a:	f7ff fcaf 	bl	2dbc <_fflush_r>
    345e:	2800      	cmp	r0, #0
    3460:	d000      	beq.n	3464 <__sfvwrite_r+0x2cc>
    3462:	e73e      	b.n	32e2 <__sfvwrite_r+0x14a>
    3464:	9b03      	ldr	r3, [sp, #12]
    3466:	4698      	mov	r8, r3
    3468:	e708      	b.n	327c <__sfvwrite_r+0xe4>
    346a:	9801      	ldr	r0, [sp, #4]
    346c:	f000 fbfe 	bl	3c6c <_realloc_r>
    3470:	1e05      	subs	r5, r0, #0
    3472:	d1dc      	bne.n	342e <__sfvwrite_r+0x296>
    3474:	9d01      	ldr	r5, [sp, #4]
    3476:	6921      	ldr	r1, [r4, #16]
    3478:	0028      	movs	r0, r5
    347a:	f7ff fdab 	bl	2fd4 <_free_r>
    347e:	2280      	movs	r2, #128	; 0x80
    3480:	89a3      	ldrh	r3, [r4, #12]
    3482:	4393      	bics	r3, r2
    3484:	b21a      	sxth	r2, r3
    3486:	230c      	movs	r3, #12
    3488:	602b      	str	r3, [r5, #0]
    348a:	e72c      	b.n	32e6 <__sfvwrite_r+0x14e>
    348c:	2301      	movs	r3, #1
    348e:	1c7d      	adds	r5, r7, #1
    3490:	9302      	str	r3, [sp, #8]
    3492:	e6d6      	b.n	3242 <__sfvwrite_r+0xaa>
    3494:	2001      	movs	r0, #1
    3496:	4240      	negs	r0, r0
    3498:	e6b2      	b.n	3200 <__sfvwrite_r+0x68>
    349a:	230c      	movs	r3, #12
    349c:	9a01      	ldr	r2, [sp, #4]
    349e:	6013      	str	r3, [r2, #0]
    34a0:	230c      	movs	r3, #12
    34a2:	5ee2      	ldrsh	r2, [r4, r3]
    34a4:	e71f      	b.n	32e6 <__sfvwrite_r+0x14e>
    34a6:	46c0      	nop			; (mov r8, r8)
    34a8:	7ffffc00 	.word	0x7ffffc00
    34ac:	7fffffff 	.word	0x7fffffff
    34b0:	fffffb7f 	.word	0xfffffb7f

000034b4 <_fwalk_reent>:
    34b4:	b5f8      	push	{r3, r4, r5, r6, r7, lr}
    34b6:	464f      	mov	r7, r9
    34b8:	4646      	mov	r6, r8
    34ba:	b4c0      	push	{r6, r7}
    34bc:	27b8      	movs	r7, #184	; 0xb8
    34be:	4680      	mov	r8, r0
    34c0:	00bf      	lsls	r7, r7, #2
    34c2:	4447      	add	r7, r8
    34c4:	4689      	mov	r9, r1
    34c6:	2600      	movs	r6, #0
    34c8:	2f00      	cmp	r7, #0
    34ca:	d014      	beq.n	34f6 <_fwalk_reent+0x42>
    34cc:	687b      	ldr	r3, [r7, #4]
    34ce:	68bc      	ldr	r4, [r7, #8]
    34d0:	1e5d      	subs	r5, r3, #1
    34d2:	d40d      	bmi.n	34f0 <_fwalk_reent+0x3c>
    34d4:	89a3      	ldrh	r3, [r4, #12]
    34d6:	2b01      	cmp	r3, #1
    34d8:	d907      	bls.n	34ea <_fwalk_reent+0x36>
    34da:	220e      	movs	r2, #14
    34dc:	5ea3      	ldrsh	r3, [r4, r2]
    34de:	3301      	adds	r3, #1
    34e0:	d003      	beq.n	34ea <_fwalk_reent+0x36>
    34e2:	0021      	movs	r1, r4
    34e4:	4640      	mov	r0, r8
    34e6:	47c8      	blx	r9
    34e8:	4306      	orrs	r6, r0
    34ea:	3468      	adds	r4, #104	; 0x68
    34ec:	3d01      	subs	r5, #1
    34ee:	d2f1      	bcs.n	34d4 <_fwalk_reent+0x20>
    34f0:	683f      	ldr	r7, [r7, #0]
    34f2:	2f00      	cmp	r7, #0
    34f4:	d1ea      	bne.n	34cc <_fwalk_reent+0x18>
    34f6:	0030      	movs	r0, r6
    34f8:	bc0c      	pop	{r2, r3}
    34fa:	4690      	mov	r8, r2
    34fc:	4699      	mov	r9, r3
    34fe:	bdf8      	pop	{r3, r4, r5, r6, r7, pc}

00003500 <__swhatbuf_r>:
    3500:	b570      	push	{r4, r5, r6, lr}
    3502:	000c      	movs	r4, r1
    3504:	001e      	movs	r6, r3
    3506:	230e      	movs	r3, #14
    3508:	5ec9      	ldrsh	r1, [r1, r3]
    350a:	b090      	sub	sp, #64	; 0x40
    350c:	0015      	movs	r5, r2
    350e:	2900      	cmp	r1, #0
    3510:	db15      	blt.n	353e <__swhatbuf_r+0x3e>
    3512:	aa01      	add	r2, sp, #4
    3514:	f000 fece 	bl	42b4 <_fstat_r>
    3518:	2800      	cmp	r0, #0
    351a:	db10      	blt.n	353e <__swhatbuf_r+0x3e>
    351c:	23f0      	movs	r3, #240	; 0xf0
    351e:	9a02      	ldr	r2, [sp, #8]
    3520:	021b      	lsls	r3, r3, #8
    3522:	4013      	ands	r3, r2
    3524:	4a0d      	ldr	r2, [pc, #52]	; (355c <__swhatbuf_r+0x5c>)
    3526:	2080      	movs	r0, #128	; 0x80
    3528:	4694      	mov	ip, r2
    352a:	4463      	add	r3, ip
    352c:	425a      	negs	r2, r3
    352e:	4153      	adcs	r3, r2
    3530:	6033      	str	r3, [r6, #0]
    3532:	2380      	movs	r3, #128	; 0x80
    3534:	00db      	lsls	r3, r3, #3
    3536:	602b      	str	r3, [r5, #0]
    3538:	0100      	lsls	r0, r0, #4
    353a:	b010      	add	sp, #64	; 0x40
    353c:	bd70      	pop	{r4, r5, r6, pc}
    353e:	2300      	movs	r3, #0
    3540:	6033      	str	r3, [r6, #0]
    3542:	89a3      	ldrh	r3, [r4, #12]
    3544:	061b      	lsls	r3, r3, #24
    3546:	d503      	bpl.n	3550 <__swhatbuf_r+0x50>
    3548:	2340      	movs	r3, #64	; 0x40
    354a:	2000      	movs	r0, #0
    354c:	602b      	str	r3, [r5, #0]
    354e:	e7f4      	b.n	353a <__swhatbuf_r+0x3a>
    3550:	2380      	movs	r3, #128	; 0x80
    3552:	00db      	lsls	r3, r3, #3
    3554:	602b      	str	r3, [r5, #0]
    3556:	2000      	movs	r0, #0
    3558:	e7ef      	b.n	353a <__swhatbuf_r+0x3a>
    355a:	46c0      	nop			; (mov r8, r8)
    355c:	ffffe000 	.word	0xffffe000

00003560 <__smakebuf_r>:
    3560:	b570      	push	{r4, r5, r6, lr}
    3562:	898b      	ldrh	r3, [r1, #12]
    3564:	b082      	sub	sp, #8
    3566:	0005      	movs	r5, r0
    3568:	000c      	movs	r4, r1
    356a:	079b      	lsls	r3, r3, #30
    356c:	d507      	bpl.n	357e <__smakebuf_r+0x1e>
    356e:	0023      	movs	r3, r4
    3570:	3343      	adds	r3, #67	; 0x43
    3572:	6023      	str	r3, [r4, #0]
    3574:	6123      	str	r3, [r4, #16]
    3576:	2301      	movs	r3, #1
    3578:	6163      	str	r3, [r4, #20]
    357a:	b002      	add	sp, #8
    357c:	bd70      	pop	{r4, r5, r6, pc}
    357e:	ab01      	add	r3, sp, #4
    3580:	466a      	mov	r2, sp
    3582:	f7ff ffbd 	bl	3500 <__swhatbuf_r>
    3586:	9900      	ldr	r1, [sp, #0]
    3588:	0006      	movs	r6, r0
    358a:	0028      	movs	r0, r5
    358c:	f000 f82c 	bl	35e8 <_malloc_r>
    3590:	2800      	cmp	r0, #0
    3592:	d01c      	beq.n	35ce <__smakebuf_r+0x6e>
    3594:	2280      	movs	r2, #128	; 0x80
    3596:	4b13      	ldr	r3, [pc, #76]	; (35e4 <__smakebuf_r+0x84>)
    3598:	63eb      	str	r3, [r5, #60]	; 0x3c
    359a:	89a3      	ldrh	r3, [r4, #12]
    359c:	6020      	str	r0, [r4, #0]
    359e:	4313      	orrs	r3, r2
    35a0:	9a00      	ldr	r2, [sp, #0]
    35a2:	b21b      	sxth	r3, r3
    35a4:	6162      	str	r2, [r4, #20]
    35a6:	9a01      	ldr	r2, [sp, #4]
    35a8:	81a3      	strh	r3, [r4, #12]
    35aa:	6120      	str	r0, [r4, #16]
    35ac:	2a00      	cmp	r2, #0
    35ae:	d102      	bne.n	35b6 <__smakebuf_r+0x56>
    35b0:	4333      	orrs	r3, r6
    35b2:	81a3      	strh	r3, [r4, #12]
    35b4:	e7e1      	b.n	357a <__smakebuf_r+0x1a>
    35b6:	230e      	movs	r3, #14
    35b8:	5ee1      	ldrsh	r1, [r4, r3]
    35ba:	0028      	movs	r0, r5
    35bc:	f000 fe8e 	bl	42dc <_isatty_r>
    35c0:	2800      	cmp	r0, #0
    35c2:	d00c      	beq.n	35de <__smakebuf_r+0x7e>
    35c4:	2201      	movs	r2, #1
    35c6:	89a3      	ldrh	r3, [r4, #12]
    35c8:	431a      	orrs	r2, r3
    35ca:	b213      	sxth	r3, r2
    35cc:	e7f0      	b.n	35b0 <__smakebuf_r+0x50>
    35ce:	220c      	movs	r2, #12
    35d0:	5ea3      	ldrsh	r3, [r4, r2]
    35d2:	059a      	lsls	r2, r3, #22
    35d4:	d4d1      	bmi.n	357a <__smakebuf_r+0x1a>
    35d6:	2202      	movs	r2, #2
    35d8:	4313      	orrs	r3, r2
    35da:	81a3      	strh	r3, [r4, #12]
    35dc:	e7c7      	b.n	356e <__smakebuf_r+0xe>
    35de:	220c      	movs	r2, #12
    35e0:	5ea3      	ldrsh	r3, [r4, r2]
    35e2:	e7e5      	b.n	35b0 <__smakebuf_r+0x50>
    35e4:	00002de9 	.word	0x00002de9

000035e8 <_malloc_r>:
    35e8:	b5f0      	push	{r4, r5, r6, r7, lr}
    35ea:	465f      	mov	r7, fp
    35ec:	464d      	mov	r5, r9
    35ee:	4656      	mov	r6, sl
    35f0:	4644      	mov	r4, r8
    35f2:	b4f0      	push	{r4, r5, r6, r7}
    35f4:	000d      	movs	r5, r1
    35f6:	350b      	adds	r5, #11
    35f8:	b083      	sub	sp, #12
    35fa:	0007      	movs	r7, r0
    35fc:	2d16      	cmp	r5, #22
    35fe:	d800      	bhi.n	3602 <_malloc_r+0x1a>
    3600:	e0a8      	b.n	3754 <_malloc_r+0x16c>
    3602:	2307      	movs	r3, #7
    3604:	439d      	bics	r5, r3
    3606:	d500      	bpl.n	360a <_malloc_r+0x22>
    3608:	e0ce      	b.n	37a8 <_malloc_r+0x1c0>
    360a:	42a9      	cmp	r1, r5
    360c:	d900      	bls.n	3610 <_malloc_r+0x28>
    360e:	e0cb      	b.n	37a8 <_malloc_r+0x1c0>
    3610:	f000 fb28 	bl	3c64 <__malloc_lock>
    3614:	23f8      	movs	r3, #248	; 0xf8
    3616:	33ff      	adds	r3, #255	; 0xff
    3618:	429d      	cmp	r5, r3
    361a:	d800      	bhi.n	361e <_malloc_r+0x36>
    361c:	e284      	b.n	3b28 <_malloc_r+0x540>
    361e:	0a6b      	lsrs	r3, r5, #9
    3620:	d100      	bne.n	3624 <_malloc_r+0x3c>
    3622:	e0c5      	b.n	37b0 <_malloc_r+0x1c8>
    3624:	2b04      	cmp	r3, #4
    3626:	d900      	bls.n	362a <_malloc_r+0x42>
    3628:	e16c      	b.n	3904 <_malloc_r+0x31c>
    362a:	2338      	movs	r3, #56	; 0x38
    362c:	09a9      	lsrs	r1, r5, #6
    362e:	469c      	mov	ip, r3
    3630:	3301      	adds	r3, #1
    3632:	4698      	mov	r8, r3
    3634:	4488      	add	r8, r1
    3636:	4643      	mov	r3, r8
    3638:	448c      	add	ip, r1
    363a:	0059      	lsls	r1, r3, #1
    363c:	4ec9      	ldr	r6, [pc, #804]	; (3964 <_malloc_r+0x37c>)
    363e:	0089      	lsls	r1, r1, #2
    3640:	1871      	adds	r1, r6, r1
    3642:	3908      	subs	r1, #8
    3644:	68cc      	ldr	r4, [r1, #12]
    3646:	42a1      	cmp	r1, r4
    3648:	d017      	beq.n	367a <_malloc_r+0x92>
    364a:	2303      	movs	r3, #3
    364c:	6862      	ldr	r2, [r4, #4]
    364e:	439a      	bics	r2, r3
    3650:	0013      	movs	r3, r2
    3652:	1b52      	subs	r2, r2, r5
    3654:	2a0f      	cmp	r2, #15
    3656:	dd00      	ble.n	365a <_malloc_r+0x72>
    3658:	e0b0      	b.n	37bc <_malloc_r+0x1d4>
    365a:	2003      	movs	r0, #3
    365c:	2a00      	cmp	r2, #0
    365e:	db09      	blt.n	3674 <_malloc_r+0x8c>
    3660:	e08d      	b.n	377e <_malloc_r+0x196>
    3662:	6863      	ldr	r3, [r4, #4]
    3664:	4383      	bics	r3, r0
    3666:	1b5a      	subs	r2, r3, r5
    3668:	2a0f      	cmp	r2, #15
    366a:	dd00      	ble.n	366e <_malloc_r+0x86>
    366c:	e0a6      	b.n	37bc <_malloc_r+0x1d4>
    366e:	2a00      	cmp	r2, #0
    3670:	db00      	blt.n	3674 <_malloc_r+0x8c>
    3672:	e084      	b.n	377e <_malloc_r+0x196>
    3674:	68e4      	ldr	r4, [r4, #12]
    3676:	42a1      	cmp	r1, r4
    3678:	d1f3      	bne.n	3662 <_malloc_r+0x7a>
    367a:	4643      	mov	r3, r8
    367c:	9300      	str	r3, [sp, #0]
    367e:	0032      	movs	r2, r6
    3680:	6934      	ldr	r4, [r6, #16]
    3682:	3208      	adds	r2, #8
    3684:	4294      	cmp	r4, r2
    3686:	d100      	bne.n	368a <_malloc_r+0xa2>
    3688:	e18f      	b.n	39aa <_malloc_r+0x3c2>
    368a:	2303      	movs	r3, #3
    368c:	6861      	ldr	r1, [r4, #4]
    368e:	4399      	bics	r1, r3
    3690:	000b      	movs	r3, r1
    3692:	1b48      	subs	r0, r1, r5
    3694:	280f      	cmp	r0, #15
    3696:	dd00      	ble.n	369a <_malloc_r+0xb2>
    3698:	e176      	b.n	3988 <_malloc_r+0x3a0>
    369a:	6172      	str	r2, [r6, #20]
    369c:	6132      	str	r2, [r6, #16]
    369e:	2800      	cmp	r0, #0
    36a0:	da71      	bge.n	3786 <_malloc_r+0x19e>
    36a2:	4ab1      	ldr	r2, [pc, #708]	; (3968 <_malloc_r+0x380>)
    36a4:	4291      	cmp	r1, r2
    36a6:	d900      	bls.n	36aa <_malloc_r+0xc2>
    36a8:	e134      	b.n	3914 <_malloc_r+0x32c>
    36aa:	2301      	movs	r3, #1
    36ac:	08c8      	lsrs	r0, r1, #3
    36ae:	1082      	asrs	r2, r0, #2
    36b0:	4093      	lsls	r3, r2
    36b2:	6872      	ldr	r2, [r6, #4]
    36b4:	431a      	orrs	r2, r3
    36b6:	00c3      	lsls	r3, r0, #3
    36b8:	199b      	adds	r3, r3, r6
    36ba:	6898      	ldr	r0, [r3, #8]
    36bc:	6072      	str	r2, [r6, #4]
    36be:	60e3      	str	r3, [r4, #12]
    36c0:	60a0      	str	r0, [r4, #8]
    36c2:	609c      	str	r4, [r3, #8]
    36c4:	0013      	movs	r3, r2
    36c6:	60c4      	str	r4, [r0, #12]
    36c8:	2001      	movs	r0, #1
    36ca:	9900      	ldr	r1, [sp, #0]
    36cc:	108a      	asrs	r2, r1, #2
    36ce:	4090      	lsls	r0, r2
    36d0:	4298      	cmp	r0, r3
    36d2:	d900      	bls.n	36d6 <_malloc_r+0xee>
    36d4:	e075      	b.n	37c2 <_malloc_r+0x1da>
    36d6:	4203      	tst	r3, r0
    36d8:	d10c      	bne.n	36f4 <_malloc_r+0x10c>
    36da:	2203      	movs	r2, #3
    36dc:	4391      	bics	r1, r2
    36de:	1d0a      	adds	r2, r1, #4
    36e0:	0040      	lsls	r0, r0, #1
    36e2:	9200      	str	r2, [sp, #0]
    36e4:	4203      	tst	r3, r0
    36e6:	d105      	bne.n	36f4 <_malloc_r+0x10c>
    36e8:	9a00      	ldr	r2, [sp, #0]
    36ea:	0040      	lsls	r0, r0, #1
    36ec:	3204      	adds	r2, #4
    36ee:	9200      	str	r2, [sp, #0]
    36f0:	4203      	tst	r3, r0
    36f2:	d0f9      	beq.n	36e8 <_malloc_r+0x100>
    36f4:	2303      	movs	r3, #3
    36f6:	4698      	mov	r8, r3
    36f8:	9a00      	ldr	r2, [sp, #0]
    36fa:	00d3      	lsls	r3, r2, #3
    36fc:	4699      	mov	r9, r3
    36fe:	44b1      	add	r9, r6
    3700:	46cc      	mov	ip, r9
    3702:	4692      	mov	sl, r2
    3704:	4663      	mov	r3, ip
    3706:	68dc      	ldr	r4, [r3, #12]
    3708:	45a4      	cmp	ip, r4
    370a:	d107      	bne.n	371c <_malloc_r+0x134>
    370c:	e14f      	b.n	39ae <_malloc_r+0x3c6>
    370e:	2a00      	cmp	r2, #0
    3710:	db00      	blt.n	3714 <_malloc_r+0x12c>
    3712:	e15f      	b.n	39d4 <_malloc_r+0x3ec>
    3714:	68e4      	ldr	r4, [r4, #12]
    3716:	45a4      	cmp	ip, r4
    3718:	d100      	bne.n	371c <_malloc_r+0x134>
    371a:	e148      	b.n	39ae <_malloc_r+0x3c6>
    371c:	4642      	mov	r2, r8
    371e:	6863      	ldr	r3, [r4, #4]
    3720:	4393      	bics	r3, r2
    3722:	1b5a      	subs	r2, r3, r5
    3724:	2a0f      	cmp	r2, #15
    3726:	ddf2      	ble.n	370e <_malloc_r+0x126>
    3728:	2101      	movs	r1, #1
    372a:	1963      	adds	r3, r4, r5
    372c:	430d      	orrs	r5, r1
    372e:	6065      	str	r5, [r4, #4]
    3730:	68e0      	ldr	r0, [r4, #12]
    3732:	68a5      	ldr	r5, [r4, #8]
    3734:	3608      	adds	r6, #8
    3736:	60e8      	str	r0, [r5, #12]
    3738:	4311      	orrs	r1, r2
    373a:	6085      	str	r5, [r0, #8]
    373c:	60f3      	str	r3, [r6, #12]
    373e:	60b3      	str	r3, [r6, #8]
    3740:	0038      	movs	r0, r7
    3742:	60de      	str	r6, [r3, #12]
    3744:	609e      	str	r6, [r3, #8]
    3746:	6059      	str	r1, [r3, #4]
    3748:	509a      	str	r2, [r3, r2]
    374a:	f000 fa8d 	bl	3c68 <__malloc_unlock>
    374e:	0020      	movs	r0, r4
    3750:	3008      	adds	r0, #8
    3752:	e022      	b.n	379a <_malloc_r+0x1b2>
    3754:	2910      	cmp	r1, #16
    3756:	d827      	bhi.n	37a8 <_malloc_r+0x1c0>
    3758:	0038      	movs	r0, r7
    375a:	f000 fa83 	bl	3c64 <__malloc_lock>
    375e:	2510      	movs	r5, #16
    3760:	2306      	movs	r3, #6
    3762:	2102      	movs	r1, #2
    3764:	4e7f      	ldr	r6, [pc, #508]	; (3964 <_malloc_r+0x37c>)
    3766:	009b      	lsls	r3, r3, #2
    3768:	18f3      	adds	r3, r6, r3
    376a:	001a      	movs	r2, r3
    376c:	685c      	ldr	r4, [r3, #4]
    376e:	3a08      	subs	r2, #8
    3770:	4294      	cmp	r4, r2
    3772:	d100      	bne.n	3776 <_malloc_r+0x18e>
    3774:	e127      	b.n	39c6 <_malloc_r+0x3de>
    3776:	2303      	movs	r3, #3
    3778:	6862      	ldr	r2, [r4, #4]
    377a:	439a      	bics	r2, r3
    377c:	0013      	movs	r3, r2
    377e:	68e2      	ldr	r2, [r4, #12]
    3780:	68a1      	ldr	r1, [r4, #8]
    3782:	60ca      	str	r2, [r1, #12]
    3784:	6091      	str	r1, [r2, #8]
    3786:	2201      	movs	r2, #1
    3788:	18e3      	adds	r3, r4, r3
    378a:	6859      	ldr	r1, [r3, #4]
    378c:	0038      	movs	r0, r7
    378e:	430a      	orrs	r2, r1
    3790:	605a      	str	r2, [r3, #4]
    3792:	f000 fa69 	bl	3c68 <__malloc_unlock>
    3796:	0020      	movs	r0, r4
    3798:	3008      	adds	r0, #8
    379a:	b003      	add	sp, #12
    379c:	bc3c      	pop	{r2, r3, r4, r5}
    379e:	4690      	mov	r8, r2
    37a0:	4699      	mov	r9, r3
    37a2:	46a2      	mov	sl, r4
    37a4:	46ab      	mov	fp, r5
    37a6:	bdf0      	pop	{r4, r5, r6, r7, pc}
    37a8:	230c      	movs	r3, #12
    37aa:	2000      	movs	r0, #0
    37ac:	603b      	str	r3, [r7, #0]
    37ae:	e7f4      	b.n	379a <_malloc_r+0x1b2>
    37b0:	2340      	movs	r3, #64	; 0x40
    37b2:	4698      	mov	r8, r3
    37b4:	3b01      	subs	r3, #1
    37b6:	2180      	movs	r1, #128	; 0x80
    37b8:	469c      	mov	ip, r3
    37ba:	e73f      	b.n	363c <_malloc_r+0x54>
    37bc:	4663      	mov	r3, ip
    37be:	9300      	str	r3, [sp, #0]
    37c0:	e75d      	b.n	367e <_malloc_r+0x96>
    37c2:	2303      	movs	r3, #3
    37c4:	68b4      	ldr	r4, [r6, #8]
    37c6:	6862      	ldr	r2, [r4, #4]
    37c8:	439a      	bics	r2, r3
    37ca:	4690      	mov	r8, r2
    37cc:	42aa      	cmp	r2, r5
    37ce:	d303      	bcc.n	37d8 <_malloc_r+0x1f0>
    37d0:	1b52      	subs	r2, r2, r5
    37d2:	2a0f      	cmp	r2, #15
    37d4:	dd00      	ble.n	37d8 <_malloc_r+0x1f0>
    37d6:	e087      	b.n	38e8 <_malloc_r+0x300>
    37d8:	0023      	movs	r3, r4
    37da:	4443      	add	r3, r8
    37dc:	4a63      	ldr	r2, [pc, #396]	; (396c <_malloc_r+0x384>)
    37de:	9301      	str	r3, [sp, #4]
    37e0:	4b63      	ldr	r3, [pc, #396]	; (3970 <_malloc_r+0x388>)
    37e2:	4693      	mov	fp, r2
    37e4:	681b      	ldr	r3, [r3, #0]
    37e6:	6812      	ldr	r2, [r2, #0]
    37e8:	18eb      	adds	r3, r5, r3
    37ea:	3201      	adds	r2, #1
    37ec:	d100      	bne.n	37f0 <_malloc_r+0x208>
    37ee:	e157      	b.n	3aa0 <_malloc_r+0x4b8>
    37f0:	4a60      	ldr	r2, [pc, #384]	; (3974 <_malloc_r+0x38c>)
    37f2:	4694      	mov	ip, r2
    37f4:	4463      	add	r3, ip
    37f6:	0b1b      	lsrs	r3, r3, #12
    37f8:	031b      	lsls	r3, r3, #12
    37fa:	9300      	str	r3, [sp, #0]
    37fc:	9900      	ldr	r1, [sp, #0]
    37fe:	0038      	movs	r0, r7
    3800:	f000 fc22 	bl	4048 <_sbrk_r>
    3804:	0003      	movs	r3, r0
    3806:	4681      	mov	r9, r0
    3808:	3301      	adds	r3, #1
    380a:	d061      	beq.n	38d0 <_malloc_r+0x2e8>
    380c:	9b01      	ldr	r3, [sp, #4]
    380e:	4283      	cmp	r3, r0
    3810:	d900      	bls.n	3814 <_malloc_r+0x22c>
    3812:	e0fd      	b.n	3a10 <_malloc_r+0x428>
    3814:	4b58      	ldr	r3, [pc, #352]	; (3978 <_malloc_r+0x390>)
    3816:	9a00      	ldr	r2, [sp, #0]
    3818:	469a      	mov	sl, r3
    381a:	681b      	ldr	r3, [r3, #0]
    381c:	469c      	mov	ip, r3
    381e:	4653      	mov	r3, sl
    3820:	4462      	add	r2, ip
    3822:	601a      	str	r2, [r3, #0]
    3824:	9b01      	ldr	r3, [sp, #4]
    3826:	0011      	movs	r1, r2
    3828:	454b      	cmp	r3, r9
    382a:	d100      	bne.n	382e <_malloc_r+0x246>
    382c:	e143      	b.n	3ab6 <_malloc_r+0x4ce>
    382e:	465b      	mov	r3, fp
    3830:	681b      	ldr	r3, [r3, #0]
    3832:	3301      	adds	r3, #1
    3834:	d100      	bne.n	3838 <_malloc_r+0x250>
    3836:	e14f      	b.n	3ad8 <_malloc_r+0x4f0>
    3838:	464b      	mov	r3, r9
    383a:	9a01      	ldr	r2, [sp, #4]
    383c:	1a9b      	subs	r3, r3, r2
    383e:	1859      	adds	r1, r3, r1
    3840:	4653      	mov	r3, sl
    3842:	6019      	str	r1, [r3, #0]
    3844:	2307      	movs	r3, #7
    3846:	464a      	mov	r2, r9
    3848:	4013      	ands	r3, r2
    384a:	d100      	bne.n	384e <_malloc_r+0x266>
    384c:	e117      	b.n	3a7e <_malloc_r+0x496>
    384e:	2108      	movs	r1, #8
    3850:	4689      	mov	r9, r1
    3852:	494a      	ldr	r1, [pc, #296]	; (397c <_malloc_r+0x394>)
    3854:	1ad2      	subs	r2, r2, r3
    3856:	4491      	add	r9, r2
    3858:	1ac9      	subs	r1, r1, r3
    385a:	9b00      	ldr	r3, [sp, #0]
    385c:	0038      	movs	r0, r7
    385e:	444b      	add	r3, r9
    3860:	051b      	lsls	r3, r3, #20
    3862:	0d1b      	lsrs	r3, r3, #20
    3864:	1acb      	subs	r3, r1, r3
    3866:	0019      	movs	r1, r3
    3868:	469b      	mov	fp, r3
    386a:	f000 fbed 	bl	4048 <_sbrk_r>
    386e:	1c43      	adds	r3, r0, #1
    3870:	d100      	bne.n	3874 <_malloc_r+0x28c>
    3872:	e135      	b.n	3ae0 <_malloc_r+0x4f8>
    3874:	464b      	mov	r3, r9
    3876:	1ac0      	subs	r0, r0, r3
    3878:	2301      	movs	r3, #1
    387a:	4458      	add	r0, fp
    387c:	4318      	orrs	r0, r3
    387e:	4653      	mov	r3, sl
    3880:	681b      	ldr	r3, [r3, #0]
    3882:	445b      	add	r3, fp
    3884:	0019      	movs	r1, r3
    3886:	4653      	mov	r3, sl
    3888:	6019      	str	r1, [r3, #0]
    388a:	464b      	mov	r3, r9
    388c:	60b3      	str	r3, [r6, #8]
    388e:	6058      	str	r0, [r3, #4]
    3890:	42b4      	cmp	r4, r6
    3892:	d013      	beq.n	38bc <_malloc_r+0x2d4>
    3894:	4643      	mov	r3, r8
    3896:	2b0f      	cmp	r3, #15
    3898:	d800      	bhi.n	389c <_malloc_r+0x2b4>
    389a:	e0e1      	b.n	3a60 <_malloc_r+0x478>
    389c:	4643      	mov	r3, r8
    389e:	2207      	movs	r2, #7
    38a0:	6860      	ldr	r0, [r4, #4]
    38a2:	3b0c      	subs	r3, #12
    38a4:	4393      	bics	r3, r2
    38a6:	3a06      	subs	r2, #6
    38a8:	4002      	ands	r2, r0
    38aa:	2005      	movs	r0, #5
    38ac:	431a      	orrs	r2, r3
    38ae:	6062      	str	r2, [r4, #4]
    38b0:	18e2      	adds	r2, r4, r3
    38b2:	6050      	str	r0, [r2, #4]
    38b4:	6090      	str	r0, [r2, #8]
    38b6:	2b0f      	cmp	r3, #15
    38b8:	d900      	bls.n	38bc <_malloc_r+0x2d4>
    38ba:	e115      	b.n	3ae8 <_malloc_r+0x500>
    38bc:	4b30      	ldr	r3, [pc, #192]	; (3980 <_malloc_r+0x398>)
    38be:	681a      	ldr	r2, [r3, #0]
    38c0:	4291      	cmp	r1, r2
    38c2:	d900      	bls.n	38c6 <_malloc_r+0x2de>
    38c4:	6019      	str	r1, [r3, #0]
    38c6:	4b2f      	ldr	r3, [pc, #188]	; (3984 <_malloc_r+0x39c>)
    38c8:	681a      	ldr	r2, [r3, #0]
    38ca:	4291      	cmp	r1, r2
    38cc:	d900      	bls.n	38d0 <_malloc_r+0x2e8>
    38ce:	6019      	str	r1, [r3, #0]
    38d0:	2303      	movs	r3, #3
    38d2:	68b4      	ldr	r4, [r6, #8]
    38d4:	6862      	ldr	r2, [r4, #4]
    38d6:	439a      	bics	r2, r3
    38d8:	0013      	movs	r3, r2
    38da:	1b52      	subs	r2, r2, r5
    38dc:	429d      	cmp	r5, r3
    38de:	d900      	bls.n	38e2 <_malloc_r+0x2fa>
    38e0:	e0c1      	b.n	3a66 <_malloc_r+0x47e>
    38e2:	2a0f      	cmp	r2, #15
    38e4:	dc00      	bgt.n	38e8 <_malloc_r+0x300>
    38e6:	e0be      	b.n	3a66 <_malloc_r+0x47e>
    38e8:	2301      	movs	r3, #1
    38ea:	0029      	movs	r1, r5
    38ec:	1965      	adds	r5, r4, r5
    38ee:	4319      	orrs	r1, r3
    38f0:	4313      	orrs	r3, r2
    38f2:	6061      	str	r1, [r4, #4]
    38f4:	0038      	movs	r0, r7
    38f6:	60b5      	str	r5, [r6, #8]
    38f8:	606b      	str	r3, [r5, #4]
    38fa:	f000 f9b5 	bl	3c68 <__malloc_unlock>
    38fe:	0020      	movs	r0, r4
    3900:	3008      	adds	r0, #8
    3902:	e74a      	b.n	379a <_malloc_r+0x1b2>
    3904:	2b14      	cmp	r3, #20
    3906:	d974      	bls.n	39f2 <_malloc_r+0x40a>
    3908:	2b54      	cmp	r3, #84	; 0x54
    390a:	d900      	bls.n	390e <_malloc_r+0x326>
    390c:	e0b0      	b.n	3a70 <_malloc_r+0x488>
    390e:	0b29      	lsrs	r1, r5, #12
    3910:	236e      	movs	r3, #110	; 0x6e
    3912:	e68c      	b.n	362e <_malloc_r+0x46>
    3914:	0a4a      	lsrs	r2, r1, #9
    3916:	2a04      	cmp	r2, #4
    3918:	d974      	bls.n	3a04 <_malloc_r+0x41c>
    391a:	2a14      	cmp	r2, #20
    391c:	d900      	bls.n	3920 <_malloc_r+0x338>
    391e:	e0c2      	b.n	3aa6 <_malloc_r+0x4be>
    3920:	0010      	movs	r0, r2
    3922:	325c      	adds	r2, #92	; 0x5c
    3924:	305b      	adds	r0, #91	; 0x5b
    3926:	0052      	lsls	r2, r2, #1
    3928:	2108      	movs	r1, #8
    392a:	4249      	negs	r1, r1
    392c:	468c      	mov	ip, r1
    392e:	0092      	lsls	r2, r2, #2
    3930:	18b2      	adds	r2, r6, r2
    3932:	4494      	add	ip, r2
    3934:	4662      	mov	r2, ip
    3936:	6892      	ldr	r2, [r2, #8]
    3938:	310b      	adds	r1, #11
    393a:	4688      	mov	r8, r1
    393c:	4594      	cmp	ip, r2
    393e:	d100      	bne.n	3942 <_malloc_r+0x35a>
    3940:	e0a0      	b.n	3a84 <_malloc_r+0x49c>
    3942:	4641      	mov	r1, r8
    3944:	6850      	ldr	r0, [r2, #4]
    3946:	4388      	bics	r0, r1
    3948:	4283      	cmp	r3, r0
    394a:	d202      	bcs.n	3952 <_malloc_r+0x36a>
    394c:	6892      	ldr	r2, [r2, #8]
    394e:	4594      	cmp	ip, r2
    3950:	d1f7      	bne.n	3942 <_malloc_r+0x35a>
    3952:	68d3      	ldr	r3, [r2, #12]
    3954:	469c      	mov	ip, r3
    3956:	6873      	ldr	r3, [r6, #4]
    3958:	4661      	mov	r1, ip
    395a:	60a2      	str	r2, [r4, #8]
    395c:	60e1      	str	r1, [r4, #12]
    395e:	608c      	str	r4, [r1, #8]
    3960:	60d4      	str	r4, [r2, #12]
    3962:	e6b1      	b.n	36c8 <_malloc_r+0xe0>
    3964:	2000044c 	.word	0x2000044c
    3968:	000001ff 	.word	0x000001ff
    396c:	20000858 	.word	0x20000858
    3970:	20000a8c 	.word	0x20000a8c
    3974:	0000100f 	.word	0x0000100f
    3978:	20000a90 	.word	0x20000a90
    397c:	00001008 	.word	0x00001008
    3980:	20000a88 	.word	0x20000a88
    3984:	20000a84 	.word	0x20000a84
    3988:	2101      	movs	r1, #1
    398a:	1963      	adds	r3, r4, r5
    398c:	430d      	orrs	r5, r1
    398e:	4301      	orrs	r1, r0
    3990:	6065      	str	r5, [r4, #4]
    3992:	6173      	str	r3, [r6, #20]
    3994:	6133      	str	r3, [r6, #16]
    3996:	60da      	str	r2, [r3, #12]
    3998:	609a      	str	r2, [r3, #8]
    399a:	6059      	str	r1, [r3, #4]
    399c:	5018      	str	r0, [r3, r0]
    399e:	0038      	movs	r0, r7
    39a0:	f000 f962 	bl	3c68 <__malloc_unlock>
    39a4:	0020      	movs	r0, r4
    39a6:	3008      	adds	r0, #8
    39a8:	e6f7      	b.n	379a <_malloc_r+0x1b2>
    39aa:	6873      	ldr	r3, [r6, #4]
    39ac:	e68c      	b.n	36c8 <_malloc_r+0xe0>
    39ae:	2308      	movs	r3, #8
    39b0:	469b      	mov	fp, r3
    39b2:	3b07      	subs	r3, #7
    39b4:	44dc      	add	ip, fp
    39b6:	469b      	mov	fp, r3
    39b8:	44da      	add	sl, fp
    39ba:	4643      	mov	r3, r8
    39bc:	4652      	mov	r2, sl
    39be:	4213      	tst	r3, r2
    39c0:	d000      	beq.n	39c4 <_malloc_r+0x3dc>
    39c2:	e69f      	b.n	3704 <_malloc_r+0x11c>
    39c4:	e033      	b.n	3a2e <_malloc_r+0x446>
    39c6:	68dc      	ldr	r4, [r3, #12]
    39c8:	1c8a      	adds	r2, r1, #2
    39ca:	9200      	str	r2, [sp, #0]
    39cc:	42a3      	cmp	r3, r4
    39ce:	d100      	bne.n	39d2 <_malloc_r+0x3ea>
    39d0:	e655      	b.n	367e <_malloc_r+0x96>
    39d2:	e6d0      	b.n	3776 <_malloc_r+0x18e>
    39d4:	2201      	movs	r2, #1
    39d6:	18e3      	adds	r3, r4, r3
    39d8:	6859      	ldr	r1, [r3, #4]
    39da:	0038      	movs	r0, r7
    39dc:	430a      	orrs	r2, r1
    39de:	605a      	str	r2, [r3, #4]
    39e0:	68e3      	ldr	r3, [r4, #12]
    39e2:	68a2      	ldr	r2, [r4, #8]
    39e4:	60d3      	str	r3, [r2, #12]
    39e6:	609a      	str	r2, [r3, #8]
    39e8:	f000 f93e 	bl	3c68 <__malloc_unlock>
    39ec:	0020      	movs	r0, r4
    39ee:	3008      	adds	r0, #8
    39f0:	e6d3      	b.n	379a <_malloc_r+0x1b2>
    39f2:	225b      	movs	r2, #91	; 0x5b
    39f4:	4694      	mov	ip, r2
    39f6:	3201      	adds	r2, #1
    39f8:	4690      	mov	r8, r2
    39fa:	4498      	add	r8, r3
    39fc:	449c      	add	ip, r3
    39fe:	4643      	mov	r3, r8
    3a00:	0059      	lsls	r1, r3, #1
    3a02:	e61b      	b.n	363c <_malloc_r+0x54>
    3a04:	098a      	lsrs	r2, r1, #6
    3a06:	0010      	movs	r0, r2
    3a08:	3239      	adds	r2, #57	; 0x39
    3a0a:	3038      	adds	r0, #56	; 0x38
    3a0c:	0052      	lsls	r2, r2, #1
    3a0e:	e78b      	b.n	3928 <_malloc_r+0x340>
    3a10:	42b4      	cmp	r4, r6
    3a12:	d000      	beq.n	3a16 <_malloc_r+0x42e>
    3a14:	e75c      	b.n	38d0 <_malloc_r+0x2e8>
    3a16:	e6fd      	b.n	3814 <_malloc_r+0x22c>
    3a18:	9b00      	ldr	r3, [sp, #0]
    3a1a:	3b01      	subs	r3, #1
    3a1c:	9300      	str	r3, [sp, #0]
    3a1e:	2308      	movs	r3, #8
    3a20:	425b      	negs	r3, r3
    3a22:	469c      	mov	ip, r3
    3a24:	44e1      	add	r9, ip
    3a26:	464b      	mov	r3, r9
    3a28:	689b      	ldr	r3, [r3, #8]
    3a2a:	4599      	cmp	r9, r3
    3a2c:	d17a      	bne.n	3b24 <_malloc_r+0x53c>
    3a2e:	4643      	mov	r3, r8
    3a30:	9a00      	ldr	r2, [sp, #0]
    3a32:	4213      	tst	r3, r2
    3a34:	d1f0      	bne.n	3a18 <_malloc_r+0x430>
    3a36:	6873      	ldr	r3, [r6, #4]
    3a38:	4383      	bics	r3, r0
    3a3a:	6073      	str	r3, [r6, #4]
    3a3c:	0040      	lsls	r0, r0, #1
    3a3e:	4298      	cmp	r0, r3
    3a40:	d900      	bls.n	3a44 <_malloc_r+0x45c>
    3a42:	e6be      	b.n	37c2 <_malloc_r+0x1da>
    3a44:	2800      	cmp	r0, #0
    3a46:	d100      	bne.n	3a4a <_malloc_r+0x462>
    3a48:	e6bb      	b.n	37c2 <_malloc_r+0x1da>
    3a4a:	4203      	tst	r3, r0
    3a4c:	d170      	bne.n	3b30 <_malloc_r+0x548>
    3a4e:	4652      	mov	r2, sl
    3a50:	9200      	str	r2, [sp, #0]
    3a52:	9a00      	ldr	r2, [sp, #0]
    3a54:	0040      	lsls	r0, r0, #1
    3a56:	3204      	adds	r2, #4
    3a58:	9200      	str	r2, [sp, #0]
    3a5a:	4203      	tst	r3, r0
    3a5c:	d0f9      	beq.n	3a52 <_malloc_r+0x46a>
    3a5e:	e64b      	b.n	36f8 <_malloc_r+0x110>
    3a60:	2301      	movs	r3, #1
    3a62:	464a      	mov	r2, r9
    3a64:	6053      	str	r3, [r2, #4]
    3a66:	0038      	movs	r0, r7
    3a68:	f000 f8fe 	bl	3c68 <__malloc_unlock>
    3a6c:	2000      	movs	r0, #0
    3a6e:	e694      	b.n	379a <_malloc_r+0x1b2>
    3a70:	22aa      	movs	r2, #170	; 0xaa
    3a72:	0052      	lsls	r2, r2, #1
    3a74:	4293      	cmp	r3, r2
    3a76:	d80d      	bhi.n	3a94 <_malloc_r+0x4ac>
    3a78:	0be9      	lsrs	r1, r5, #15
    3a7a:	2377      	movs	r3, #119	; 0x77
    3a7c:	e5d7      	b.n	362e <_malloc_r+0x46>
    3a7e:	2180      	movs	r1, #128	; 0x80
    3a80:	0149      	lsls	r1, r1, #5
    3a82:	e6ea      	b.n	385a <_malloc_r+0x272>
    3a84:	2301      	movs	r3, #1
    3a86:	1080      	asrs	r0, r0, #2
    3a88:	4083      	lsls	r3, r0
    3a8a:	6872      	ldr	r2, [r6, #4]
    3a8c:	4313      	orrs	r3, r2
    3a8e:	6073      	str	r3, [r6, #4]
    3a90:	4662      	mov	r2, ip
    3a92:	e761      	b.n	3958 <_malloc_r+0x370>
    3a94:	4a28      	ldr	r2, [pc, #160]	; (3b38 <_malloc_r+0x550>)
    3a96:	4293      	cmp	r3, r2
    3a98:	d818      	bhi.n	3acc <_malloc_r+0x4e4>
    3a9a:	0ca9      	lsrs	r1, r5, #18
    3a9c:	237c      	movs	r3, #124	; 0x7c
    3a9e:	e5c6      	b.n	362e <_malloc_r+0x46>
    3aa0:	3310      	adds	r3, #16
    3aa2:	9300      	str	r3, [sp, #0]
    3aa4:	e6aa      	b.n	37fc <_malloc_r+0x214>
    3aa6:	2a54      	cmp	r2, #84	; 0x54
    3aa8:	d826      	bhi.n	3af8 <_malloc_r+0x510>
    3aaa:	0b0a      	lsrs	r2, r1, #12
    3aac:	0010      	movs	r0, r2
    3aae:	326f      	adds	r2, #111	; 0x6f
    3ab0:	306e      	adds	r0, #110	; 0x6e
    3ab2:	0052      	lsls	r2, r2, #1
    3ab4:	e738      	b.n	3928 <_malloc_r+0x340>
    3ab6:	051b      	lsls	r3, r3, #20
    3ab8:	d000      	beq.n	3abc <_malloc_r+0x4d4>
    3aba:	e6b8      	b.n	382e <_malloc_r+0x246>
    3abc:	9b00      	ldr	r3, [sp, #0]
    3abe:	68b2      	ldr	r2, [r6, #8]
    3ac0:	4443      	add	r3, r8
    3ac2:	0018      	movs	r0, r3
    3ac4:	2301      	movs	r3, #1
    3ac6:	4303      	orrs	r3, r0
    3ac8:	6053      	str	r3, [r2, #4]
    3aca:	e6f7      	b.n	38bc <_malloc_r+0x2d4>
    3acc:	237f      	movs	r3, #127	; 0x7f
    3ace:	4698      	mov	r8, r3
    3ad0:	3b01      	subs	r3, #1
    3ad2:	21fe      	movs	r1, #254	; 0xfe
    3ad4:	469c      	mov	ip, r3
    3ad6:	e5b1      	b.n	363c <_malloc_r+0x54>
    3ad8:	465b      	mov	r3, fp
    3ada:	464a      	mov	r2, r9
    3adc:	601a      	str	r2, [r3, #0]
    3ade:	e6b1      	b.n	3844 <_malloc_r+0x25c>
    3ae0:	2300      	movs	r3, #0
    3ae2:	2001      	movs	r0, #1
    3ae4:	469b      	mov	fp, r3
    3ae6:	e6ca      	b.n	387e <_malloc_r+0x296>
    3ae8:	0021      	movs	r1, r4
    3aea:	0038      	movs	r0, r7
    3aec:	3108      	adds	r1, #8
    3aee:	f7ff fa71 	bl	2fd4 <_free_r>
    3af2:	4653      	mov	r3, sl
    3af4:	6819      	ldr	r1, [r3, #0]
    3af6:	e6e1      	b.n	38bc <_malloc_r+0x2d4>
    3af8:	20aa      	movs	r0, #170	; 0xaa
    3afa:	0040      	lsls	r0, r0, #1
    3afc:	4282      	cmp	r2, r0
    3afe:	d805      	bhi.n	3b0c <_malloc_r+0x524>
    3b00:	0bca      	lsrs	r2, r1, #15
    3b02:	0010      	movs	r0, r2
    3b04:	3278      	adds	r2, #120	; 0x78
    3b06:	3077      	adds	r0, #119	; 0x77
    3b08:	0052      	lsls	r2, r2, #1
    3b0a:	e70d      	b.n	3928 <_malloc_r+0x340>
    3b0c:	480a      	ldr	r0, [pc, #40]	; (3b38 <_malloc_r+0x550>)
    3b0e:	4282      	cmp	r2, r0
    3b10:	d805      	bhi.n	3b1e <_malloc_r+0x536>
    3b12:	0c8a      	lsrs	r2, r1, #18
    3b14:	0010      	movs	r0, r2
    3b16:	327d      	adds	r2, #125	; 0x7d
    3b18:	307c      	adds	r0, #124	; 0x7c
    3b1a:	0052      	lsls	r2, r2, #1
    3b1c:	e704      	b.n	3928 <_malloc_r+0x340>
    3b1e:	22fe      	movs	r2, #254	; 0xfe
    3b20:	207e      	movs	r0, #126	; 0x7e
    3b22:	e701      	b.n	3928 <_malloc_r+0x340>
    3b24:	6873      	ldr	r3, [r6, #4]
    3b26:	e789      	b.n	3a3c <_malloc_r+0x454>
    3b28:	08e9      	lsrs	r1, r5, #3
    3b2a:	1c4b      	adds	r3, r1, #1
    3b2c:	005b      	lsls	r3, r3, #1
    3b2e:	e619      	b.n	3764 <_malloc_r+0x17c>
    3b30:	4653      	mov	r3, sl
    3b32:	9300      	str	r3, [sp, #0]
    3b34:	e5e0      	b.n	36f8 <_malloc_r+0x110>
    3b36:	46c0      	nop			; (mov r8, r8)
    3b38:	00000554 	.word	0x00000554

00003b3c <memchr>:
    3b3c:	b570      	push	{r4, r5, r6, lr}
    3b3e:	b2cd      	uxtb	r5, r1
    3b40:	0783      	lsls	r3, r0, #30
    3b42:	d03c      	beq.n	3bbe <memchr+0x82>
    3b44:	1e53      	subs	r3, r2, #1
    3b46:	2a00      	cmp	r2, #0
    3b48:	d01f      	beq.n	3b8a <memchr+0x4e>
    3b4a:	7802      	ldrb	r2, [r0, #0]
    3b4c:	42aa      	cmp	r2, r5
    3b4e:	d01d      	beq.n	3b8c <memchr+0x50>
    3b50:	2403      	movs	r4, #3
    3b52:	e005      	b.n	3b60 <memchr+0x24>
    3b54:	2b00      	cmp	r3, #0
    3b56:	d018      	beq.n	3b8a <memchr+0x4e>
    3b58:	7802      	ldrb	r2, [r0, #0]
    3b5a:	3b01      	subs	r3, #1
    3b5c:	42aa      	cmp	r2, r5
    3b5e:	d015      	beq.n	3b8c <memchr+0x50>
    3b60:	3001      	adds	r0, #1
    3b62:	4220      	tst	r0, r4
    3b64:	d1f6      	bne.n	3b54 <memchr+0x18>
    3b66:	2b03      	cmp	r3, #3
    3b68:	d811      	bhi.n	3b8e <memchr+0x52>
    3b6a:	2b00      	cmp	r3, #0
    3b6c:	d00d      	beq.n	3b8a <memchr+0x4e>
    3b6e:	7802      	ldrb	r2, [r0, #0]
    3b70:	42aa      	cmp	r2, r5
    3b72:	d00b      	beq.n	3b8c <memchr+0x50>
    3b74:	1c42      	adds	r2, r0, #1
    3b76:	18c0      	adds	r0, r0, r3
    3b78:	e004      	b.n	3b84 <memchr+0x48>
    3b7a:	3201      	adds	r2, #1
    3b7c:	1e51      	subs	r1, r2, #1
    3b7e:	7809      	ldrb	r1, [r1, #0]
    3b80:	42a9      	cmp	r1, r5
    3b82:	d01a      	beq.n	3bba <memchr+0x7e>
    3b84:	0013      	movs	r3, r2
    3b86:	4290      	cmp	r0, r2
    3b88:	d1f7      	bne.n	3b7a <memchr+0x3e>
    3b8a:	2000      	movs	r0, #0
    3b8c:	bd70      	pop	{r4, r5, r6, pc}
    3b8e:	22ff      	movs	r2, #255	; 0xff
    3b90:	020c      	lsls	r4, r1, #8
    3b92:	0212      	lsls	r2, r2, #8
    3b94:	4022      	ands	r2, r4
    3b96:	24ff      	movs	r4, #255	; 0xff
    3b98:	4021      	ands	r1, r4
    3b9a:	4311      	orrs	r1, r2
    3b9c:	040c      	lsls	r4, r1, #16
    3b9e:	4e09      	ldr	r6, [pc, #36]	; (3bc4 <memchr+0x88>)
    3ba0:	430c      	orrs	r4, r1
    3ba2:	6802      	ldr	r2, [r0, #0]
    3ba4:	4908      	ldr	r1, [pc, #32]	; (3bc8 <memchr+0x8c>)
    3ba6:	4062      	eors	r2, r4
    3ba8:	1851      	adds	r1, r2, r1
    3baa:	4391      	bics	r1, r2
    3bac:	4231      	tst	r1, r6
    3bae:	d1de      	bne.n	3b6e <memchr+0x32>
    3bb0:	3b04      	subs	r3, #4
    3bb2:	3004      	adds	r0, #4
    3bb4:	2b03      	cmp	r3, #3
    3bb6:	d8f4      	bhi.n	3ba2 <memchr+0x66>
    3bb8:	e7d7      	b.n	3b6a <memchr+0x2e>
    3bba:	0018      	movs	r0, r3
    3bbc:	e7e6      	b.n	3b8c <memchr+0x50>
    3bbe:	0013      	movs	r3, r2
    3bc0:	e7d1      	b.n	3b66 <memchr+0x2a>
    3bc2:	46c0      	nop			; (mov r8, r8)
    3bc4:	80808080 	.word	0x80808080
    3bc8:	fefefeff 	.word	0xfefefeff

00003bcc <memmove>:
    3bcc:	b570      	push	{r4, r5, r6, lr}
    3bce:	4288      	cmp	r0, r1
    3bd0:	d90b      	bls.n	3bea <memmove+0x1e>
    3bd2:	188b      	adds	r3, r1, r2
    3bd4:	4298      	cmp	r0, r3
    3bd6:	d208      	bcs.n	3bea <memmove+0x1e>
    3bd8:	1a99      	subs	r1, r3, r2
    3bda:	1e53      	subs	r3, r2, #1
    3bdc:	2a00      	cmp	r2, #0
    3bde:	d003      	beq.n	3be8 <memmove+0x1c>
    3be0:	5cca      	ldrb	r2, [r1, r3]
    3be2:	54c2      	strb	r2, [r0, r3]
    3be4:	3b01      	subs	r3, #1
    3be6:	d2fb      	bcs.n	3be0 <memmove+0x14>
    3be8:	bd70      	pop	{r4, r5, r6, pc}
    3bea:	2a0f      	cmp	r2, #15
    3bec:	d809      	bhi.n	3c02 <memmove+0x36>
    3bee:	0005      	movs	r5, r0
    3bf0:	2a00      	cmp	r2, #0
    3bf2:	d0f9      	beq.n	3be8 <memmove+0x1c>
    3bf4:	2300      	movs	r3, #0
    3bf6:	5ccc      	ldrb	r4, [r1, r3]
    3bf8:	54ec      	strb	r4, [r5, r3]
    3bfa:	3301      	adds	r3, #1
    3bfc:	429a      	cmp	r2, r3
    3bfe:	d1fa      	bne.n	3bf6 <memmove+0x2a>
    3c00:	e7f2      	b.n	3be8 <memmove+0x1c>
    3c02:	000c      	movs	r4, r1
    3c04:	4304      	orrs	r4, r0
    3c06:	000b      	movs	r3, r1
    3c08:	07a4      	lsls	r4, r4, #30
    3c0a:	d126      	bne.n	3c5a <memmove+0x8e>
    3c0c:	0015      	movs	r5, r2
    3c0e:	0004      	movs	r4, r0
    3c10:	3d10      	subs	r5, #16
    3c12:	092d      	lsrs	r5, r5, #4
    3c14:	3501      	adds	r5, #1
    3c16:	012d      	lsls	r5, r5, #4
    3c18:	1949      	adds	r1, r1, r5
    3c1a:	681e      	ldr	r6, [r3, #0]
    3c1c:	6026      	str	r6, [r4, #0]
    3c1e:	685e      	ldr	r6, [r3, #4]
    3c20:	6066      	str	r6, [r4, #4]
    3c22:	689e      	ldr	r6, [r3, #8]
    3c24:	60a6      	str	r6, [r4, #8]
    3c26:	68de      	ldr	r6, [r3, #12]
    3c28:	3310      	adds	r3, #16
    3c2a:	60e6      	str	r6, [r4, #12]
    3c2c:	3410      	adds	r4, #16
    3c2e:	4299      	cmp	r1, r3
    3c30:	d1f3      	bne.n	3c1a <memmove+0x4e>
    3c32:	240f      	movs	r4, #15
    3c34:	1945      	adds	r5, r0, r5
    3c36:	4014      	ands	r4, r2
    3c38:	2c03      	cmp	r4, #3
    3c3a:	d910      	bls.n	3c5e <memmove+0x92>
    3c3c:	2300      	movs	r3, #0
    3c3e:	3c04      	subs	r4, #4
    3c40:	08a4      	lsrs	r4, r4, #2
    3c42:	3401      	adds	r4, #1
    3c44:	00a4      	lsls	r4, r4, #2
    3c46:	58ce      	ldr	r6, [r1, r3]
    3c48:	50ee      	str	r6, [r5, r3]
    3c4a:	3304      	adds	r3, #4
    3c4c:	429c      	cmp	r4, r3
    3c4e:	d1fa      	bne.n	3c46 <memmove+0x7a>
    3c50:	2303      	movs	r3, #3
    3c52:	192d      	adds	r5, r5, r4
    3c54:	1909      	adds	r1, r1, r4
    3c56:	401a      	ands	r2, r3
    3c58:	e7ca      	b.n	3bf0 <memmove+0x24>
    3c5a:	0005      	movs	r5, r0
    3c5c:	e7ca      	b.n	3bf4 <memmove+0x28>
    3c5e:	0022      	movs	r2, r4
    3c60:	e7c6      	b.n	3bf0 <memmove+0x24>
    3c62:	46c0      	nop			; (mov r8, r8)

00003c64 <__malloc_lock>:
    3c64:	4770      	bx	lr
    3c66:	46c0      	nop			; (mov r8, r8)

00003c68 <__malloc_unlock>:
    3c68:	4770      	bx	lr
    3c6a:	46c0      	nop			; (mov r8, r8)

00003c6c <_realloc_r>:
    3c6c:	b5f0      	push	{r4, r5, r6, r7, lr}
    3c6e:	4656      	mov	r6, sl
    3c70:	464d      	mov	r5, r9
    3c72:	4644      	mov	r4, r8
    3c74:	465f      	mov	r7, fp
    3c76:	b4f0      	push	{r4, r5, r6, r7}
    3c78:	4680      	mov	r8, r0
    3c7a:	b085      	sub	sp, #20
    3c7c:	1e0e      	subs	r6, r1, #0
    3c7e:	4691      	mov	r9, r2
    3c80:	d100      	bne.n	3c84 <_realloc_r+0x18>
    3c82:	e0cb      	b.n	3e1c <_realloc_r+0x1b0>
    3c84:	0037      	movs	r7, r6
    3c86:	3f08      	subs	r7, #8
    3c88:	f7ff ffec 	bl	3c64 <__malloc_lock>
    3c8c:	687a      	ldr	r2, [r7, #4]
    3c8e:	464d      	mov	r5, r9
    3c90:	2303      	movs	r3, #3
    3c92:	0014      	movs	r4, r2
    3c94:	350b      	adds	r5, #11
    3c96:	46ba      	mov	sl, r7
    3c98:	439c      	bics	r4, r3
    3c9a:	2d16      	cmp	r5, #22
    3c9c:	d84a      	bhi.n	3d34 <_realloc_r+0xc8>
    3c9e:	2310      	movs	r3, #16
    3ca0:	2510      	movs	r5, #16
    3ca2:	45a9      	cmp	r9, r5
    3ca4:	d84a      	bhi.n	3d3c <_realloc_r+0xd0>
    3ca6:	429c      	cmp	r4, r3
    3ca8:	da7b      	bge.n	3da2 <_realloc_r+0x136>
    3caa:	49d3      	ldr	r1, [pc, #844]	; (3ff8 <_realloc_r+0x38c>)
    3cac:	1938      	adds	r0, r7, r4
    3cae:	6889      	ldr	r1, [r1, #8]
    3cb0:	9001      	str	r0, [sp, #4]
    3cb2:	4288      	cmp	r0, r1
    3cb4:	d100      	bne.n	3cb8 <_realloc_r+0x4c>
    3cb6:	e0ec      	b.n	3e92 <_realloc_r+0x226>
    3cb8:	6840      	ldr	r0, [r0, #4]
    3cba:	0001      	movs	r1, r0
    3cbc:	9002      	str	r0, [sp, #8]
    3cbe:	2001      	movs	r0, #1
    3cc0:	9003      	str	r0, [sp, #12]
    3cc2:	0008      	movs	r0, r1
    3cc4:	2101      	movs	r1, #1
    3cc6:	4388      	bics	r0, r1
    3cc8:	9901      	ldr	r1, [sp, #4]
    3cca:	4684      	mov	ip, r0
    3ccc:	468b      	mov	fp, r1
    3cce:	44dc      	add	ip, fp
    3cd0:	4661      	mov	r1, ip
    3cd2:	2001      	movs	r0, #1
    3cd4:	6849      	ldr	r1, [r1, #4]
    3cd6:	4201      	tst	r1, r0
    3cd8:	d100      	bne.n	3cdc <_realloc_r+0x70>
    3cda:	e07c      	b.n	3dd6 <_realloc_r+0x16a>
    3cdc:	2101      	movs	r1, #1
    3cde:	4211      	tst	r1, r2
    3ce0:	d031      	beq.n	3d46 <_realloc_r+0xda>
    3ce2:	4649      	mov	r1, r9
    3ce4:	4640      	mov	r0, r8
    3ce6:	f7ff fc7f 	bl	35e8 <_malloc_r>
    3cea:	4681      	mov	r9, r0
    3cec:	2800      	cmp	r0, #0
    3cee:	d100      	bne.n	3cf2 <_realloc_r+0x86>
    3cf0:	e19c      	b.n	402c <_realloc_r+0x3c0>
    3cf2:	2301      	movs	r3, #1
    3cf4:	0002      	movs	r2, r0
    3cf6:	6879      	ldr	r1, [r7, #4]
    3cf8:	3a08      	subs	r2, #8
    3cfa:	4399      	bics	r1, r3
    3cfc:	187f      	adds	r7, r7, r1
    3cfe:	42ba      	cmp	r2, r7
    3d00:	d100      	bne.n	3d04 <_realloc_r+0x98>
    3d02:	e13c      	b.n	3f7e <_realloc_r+0x312>
    3d04:	1f22      	subs	r2, r4, #4
    3d06:	2a24      	cmp	r2, #36	; 0x24
    3d08:	d900      	bls.n	3d0c <_realloc_r+0xa0>
    3d0a:	e129      	b.n	3f60 <_realloc_r+0x2f4>
    3d0c:	0003      	movs	r3, r0
    3d0e:	2a13      	cmp	r2, #19
    3d10:	d900      	bls.n	3d14 <_realloc_r+0xa8>
    3d12:	e10b      	b.n	3f2c <_realloc_r+0x2c0>
    3d14:	0032      	movs	r2, r6
    3d16:	6811      	ldr	r1, [r2, #0]
    3d18:	6019      	str	r1, [r3, #0]
    3d1a:	6851      	ldr	r1, [r2, #4]
    3d1c:	6059      	str	r1, [r3, #4]
    3d1e:	6892      	ldr	r2, [r2, #8]
    3d20:	609a      	str	r2, [r3, #8]
    3d22:	0031      	movs	r1, r6
    3d24:	4640      	mov	r0, r8
    3d26:	f7ff f955 	bl	2fd4 <_free_r>
    3d2a:	4640      	mov	r0, r8
    3d2c:	f7ff ff9c 	bl	3c68 <__malloc_unlock>
    3d30:	4648      	mov	r0, r9
    3d32:	e049      	b.n	3dc8 <_realloc_r+0x15c>
    3d34:	3304      	adds	r3, #4
    3d36:	439d      	bics	r5, r3
    3d38:	1e2b      	subs	r3, r5, #0
    3d3a:	dab2      	bge.n	3ca2 <_realloc_r+0x36>
    3d3c:	230c      	movs	r3, #12
    3d3e:	4642      	mov	r2, r8
    3d40:	2000      	movs	r0, #0
    3d42:	6013      	str	r3, [r2, #0]
    3d44:	e040      	b.n	3dc8 <_realloc_r+0x15c>
    3d46:	683a      	ldr	r2, [r7, #0]
    3d48:	1aba      	subs	r2, r7, r2
    3d4a:	4693      	mov	fp, r2
    3d4c:	4659      	mov	r1, fp
    3d4e:	2203      	movs	r2, #3
    3d50:	6849      	ldr	r1, [r1, #4]
    3d52:	4391      	bics	r1, r2
    3d54:	000a      	movs	r2, r1
    3d56:	18a2      	adds	r2, r4, r2
    3d58:	9201      	str	r2, [sp, #4]
    3d5a:	429a      	cmp	r2, r3
    3d5c:	dbc1      	blt.n	3ce2 <_realloc_r+0x76>
    3d5e:	465b      	mov	r3, fp
    3d60:	465a      	mov	r2, fp
    3d62:	465f      	mov	r7, fp
    3d64:	6892      	ldr	r2, [r2, #8]
    3d66:	68db      	ldr	r3, [r3, #12]
    3d68:	3708      	adds	r7, #8
    3d6a:	60d3      	str	r3, [r2, #12]
    3d6c:	609a      	str	r2, [r3, #8]
    3d6e:	1f22      	subs	r2, r4, #4
    3d70:	2a24      	cmp	r2, #36	; 0x24
    3d72:	d900      	bls.n	3d76 <_realloc_r+0x10a>
    3d74:	e110      	b.n	3f98 <_realloc_r+0x32c>
    3d76:	003b      	movs	r3, r7
    3d78:	2a13      	cmp	r2, #19
    3d7a:	d909      	bls.n	3d90 <_realloc_r+0x124>
    3d7c:	465b      	mov	r3, fp
    3d7e:	6831      	ldr	r1, [r6, #0]
    3d80:	6099      	str	r1, [r3, #8]
    3d82:	6871      	ldr	r1, [r6, #4]
    3d84:	60d9      	str	r1, [r3, #12]
    3d86:	2a1b      	cmp	r2, #27
    3d88:	d900      	bls.n	3d8c <_realloc_r+0x120>
    3d8a:	e121      	b.n	3fd0 <_realloc_r+0x364>
    3d8c:	3310      	adds	r3, #16
    3d8e:	3608      	adds	r6, #8
    3d90:	6832      	ldr	r2, [r6, #0]
    3d92:	46da      	mov	sl, fp
    3d94:	601a      	str	r2, [r3, #0]
    3d96:	6872      	ldr	r2, [r6, #4]
    3d98:	9c01      	ldr	r4, [sp, #4]
    3d9a:	605a      	str	r2, [r3, #4]
    3d9c:	68b2      	ldr	r2, [r6, #8]
    3d9e:	003e      	movs	r6, r7
    3da0:	609a      	str	r2, [r3, #8]
    3da2:	1b63      	subs	r3, r4, r5
    3da4:	2b0f      	cmp	r3, #15
    3da6:	d824      	bhi.n	3df2 <_realloc_r+0x186>
    3da8:	4653      	mov	r3, sl
    3daa:	2101      	movs	r1, #1
    3dac:	4652      	mov	r2, sl
    3dae:	685b      	ldr	r3, [r3, #4]
    3db0:	400b      	ands	r3, r1
    3db2:	4323      	orrs	r3, r4
    3db4:	6053      	str	r3, [r2, #4]
    3db6:	0022      	movs	r2, r4
    3db8:	4452      	add	r2, sl
    3dba:	6853      	ldr	r3, [r2, #4]
    3dbc:	4319      	orrs	r1, r3
    3dbe:	6051      	str	r1, [r2, #4]
    3dc0:	4640      	mov	r0, r8
    3dc2:	f7ff ff51 	bl	3c68 <__malloc_unlock>
    3dc6:	0030      	movs	r0, r6
    3dc8:	b005      	add	sp, #20
    3dca:	bc3c      	pop	{r2, r3, r4, r5}
    3dcc:	4690      	mov	r8, r2
    3dce:	4699      	mov	r9, r3
    3dd0:	46a2      	mov	sl, r4
    3dd2:	46ab      	mov	fp, r5
    3dd4:	bdf0      	pop	{r4, r5, r6, r7, pc}
    3dd6:	2103      	movs	r1, #3
    3dd8:	9802      	ldr	r0, [sp, #8]
    3dda:	468c      	mov	ip, r1
    3ddc:	4388      	bics	r0, r1
    3dde:	1901      	adds	r1, r0, r4
    3de0:	4299      	cmp	r1, r3
    3de2:	db1f      	blt.n	3e24 <_realloc_r+0x1b8>
    3de4:	9a01      	ldr	r2, [sp, #4]
    3de6:	000c      	movs	r4, r1
    3de8:	68d3      	ldr	r3, [r2, #12]
    3dea:	6892      	ldr	r2, [r2, #8]
    3dec:	60d3      	str	r3, [r2, #12]
    3dee:	609a      	str	r2, [r3, #8]
    3df0:	e7d7      	b.n	3da2 <_realloc_r+0x136>
    3df2:	4652      	mov	r2, sl
    3df4:	4650      	mov	r0, sl
    3df6:	1951      	adds	r1, r2, r5
    3df8:	2201      	movs	r2, #1
    3dfa:	6840      	ldr	r0, [r0, #4]
    3dfc:	4010      	ands	r0, r2
    3dfe:	4305      	orrs	r5, r0
    3e00:	4650      	mov	r0, sl
    3e02:	6045      	str	r5, [r0, #4]
    3e04:	0018      	movs	r0, r3
    3e06:	4310      	orrs	r0, r2
    3e08:	18cb      	adds	r3, r1, r3
    3e0a:	6048      	str	r0, [r1, #4]
    3e0c:	6858      	ldr	r0, [r3, #4]
    3e0e:	3108      	adds	r1, #8
    3e10:	4302      	orrs	r2, r0
    3e12:	605a      	str	r2, [r3, #4]
    3e14:	4640      	mov	r0, r8
    3e16:	f7ff f8dd 	bl	2fd4 <_free_r>
    3e1a:	e7d1      	b.n	3dc0 <_realloc_r+0x154>
    3e1c:	0011      	movs	r1, r2
    3e1e:	f7ff fbe3 	bl	35e8 <_malloc_r>
    3e22:	e7d1      	b.n	3dc8 <_realloc_r+0x15c>
    3e24:	2001      	movs	r0, #1
    3e26:	4210      	tst	r0, r2
    3e28:	d000      	beq.n	3e2c <_realloc_r+0x1c0>
    3e2a:	e75a      	b.n	3ce2 <_realloc_r+0x76>
    3e2c:	4660      	mov	r0, ip
    3e2e:	683a      	ldr	r2, [r7, #0]
    3e30:	1aba      	subs	r2, r7, r2
    3e32:	4693      	mov	fp, r2
    3e34:	6852      	ldr	r2, [r2, #4]
    3e36:	4382      	bics	r2, r0
    3e38:	1889      	adds	r1, r1, r2
    3e3a:	9102      	str	r1, [sp, #8]
    3e3c:	4299      	cmp	r1, r3
    3e3e:	da00      	bge.n	3e42 <_realloc_r+0x1d6>
    3e40:	e789      	b.n	3d56 <_realloc_r+0xea>
    3e42:	9a01      	ldr	r2, [sp, #4]
    3e44:	465f      	mov	r7, fp
    3e46:	68d3      	ldr	r3, [r2, #12]
    3e48:	6892      	ldr	r2, [r2, #8]
    3e4a:	3708      	adds	r7, #8
    3e4c:	60d3      	str	r3, [r2, #12]
    3e4e:	609a      	str	r2, [r3, #8]
    3e50:	465b      	mov	r3, fp
    3e52:	465a      	mov	r2, fp
    3e54:	68db      	ldr	r3, [r3, #12]
    3e56:	6892      	ldr	r2, [r2, #8]
    3e58:	60d3      	str	r3, [r2, #12]
    3e5a:	609a      	str	r2, [r3, #8]
    3e5c:	1f22      	subs	r2, r4, #4
    3e5e:	2a24      	cmp	r2, #36	; 0x24
    3e60:	d900      	bls.n	3e64 <_realloc_r+0x1f8>
    3e62:	e091      	b.n	3f88 <_realloc_r+0x31c>
    3e64:	003b      	movs	r3, r7
    3e66:	2a13      	cmp	r2, #19
    3e68:	d909      	bls.n	3e7e <_realloc_r+0x212>
    3e6a:	465b      	mov	r3, fp
    3e6c:	6831      	ldr	r1, [r6, #0]
    3e6e:	6099      	str	r1, [r3, #8]
    3e70:	6871      	ldr	r1, [r6, #4]
    3e72:	60d9      	str	r1, [r3, #12]
    3e74:	2a1b      	cmp	r2, #27
    3e76:	d900      	bls.n	3e7a <_realloc_r+0x20e>
    3e78:	e096      	b.n	3fa8 <_realloc_r+0x33c>
    3e7a:	3310      	adds	r3, #16
    3e7c:	3608      	adds	r6, #8
    3e7e:	6832      	ldr	r2, [r6, #0]
    3e80:	9c02      	ldr	r4, [sp, #8]
    3e82:	601a      	str	r2, [r3, #0]
    3e84:	6872      	ldr	r2, [r6, #4]
    3e86:	46da      	mov	sl, fp
    3e88:	605a      	str	r2, [r3, #4]
    3e8a:	68b2      	ldr	r2, [r6, #8]
    3e8c:	003e      	movs	r6, r7
    3e8e:	609a      	str	r2, [r3, #8]
    3e90:	e787      	b.n	3da2 <_realloc_r+0x136>
    3e92:	2003      	movs	r0, #3
    3e94:	9901      	ldr	r1, [sp, #4]
    3e96:	4684      	mov	ip, r0
    3e98:	6849      	ldr	r1, [r1, #4]
    3e9a:	4381      	bics	r1, r0
    3e9c:	0028      	movs	r0, r5
    3e9e:	1909      	adds	r1, r1, r4
    3ea0:	3010      	adds	r0, #16
    3ea2:	9001      	str	r0, [sp, #4]
    3ea4:	4281      	cmp	r1, r0
    3ea6:	da4b      	bge.n	3f40 <_realloc_r+0x2d4>
    3ea8:	07d2      	lsls	r2, r2, #31
    3eaa:	d500      	bpl.n	3eae <_realloc_r+0x242>
    3eac:	e719      	b.n	3ce2 <_realloc_r+0x76>
    3eae:	4660      	mov	r0, ip
    3eb0:	683a      	ldr	r2, [r7, #0]
    3eb2:	1aba      	subs	r2, r7, r2
    3eb4:	4693      	mov	fp, r2
    3eb6:	6852      	ldr	r2, [r2, #4]
    3eb8:	4382      	bics	r2, r0
    3eba:	9801      	ldr	r0, [sp, #4]
    3ebc:	1851      	adds	r1, r2, r1
    3ebe:	9102      	str	r1, [sp, #8]
    3ec0:	4288      	cmp	r0, r1
    3ec2:	dd00      	ble.n	3ec6 <_realloc_r+0x25a>
    3ec4:	e747      	b.n	3d56 <_realloc_r+0xea>
    3ec6:	465b      	mov	r3, fp
    3ec8:	465a      	mov	r2, fp
    3eca:	465f      	mov	r7, fp
    3ecc:	6892      	ldr	r2, [r2, #8]
    3ece:	68db      	ldr	r3, [r3, #12]
    3ed0:	3708      	adds	r7, #8
    3ed2:	60d3      	str	r3, [r2, #12]
    3ed4:	609a      	str	r2, [r3, #8]
    3ed6:	1f22      	subs	r2, r4, #4
    3ed8:	2a24      	cmp	r2, #36	; 0x24
    3eda:	d900      	bls.n	3ede <_realloc_r+0x272>
    3edc:	e097      	b.n	400e <_realloc_r+0x3a2>
    3ede:	003b      	movs	r3, r7
    3ee0:	2a13      	cmp	r2, #19
    3ee2:	d909      	bls.n	3ef8 <_realloc_r+0x28c>
    3ee4:	465b      	mov	r3, fp
    3ee6:	6831      	ldr	r1, [r6, #0]
    3ee8:	6099      	str	r1, [r3, #8]
    3eea:	6871      	ldr	r1, [r6, #4]
    3eec:	60d9      	str	r1, [r3, #12]
    3eee:	2a1b      	cmp	r2, #27
    3ef0:	d900      	bls.n	3ef4 <_realloc_r+0x288>
    3ef2:	e091      	b.n	4018 <_realloc_r+0x3ac>
    3ef4:	3310      	adds	r3, #16
    3ef6:	3608      	adds	r6, #8
    3ef8:	6832      	ldr	r2, [r6, #0]
    3efa:	601a      	str	r2, [r3, #0]
    3efc:	6872      	ldr	r2, [r6, #4]
    3efe:	605a      	str	r2, [r3, #4]
    3f00:	68b2      	ldr	r2, [r6, #8]
    3f02:	609a      	str	r2, [r3, #8]
    3f04:	465b      	mov	r3, fp
    3f06:	1959      	adds	r1, r3, r5
    3f08:	4b3b      	ldr	r3, [pc, #236]	; (3ff8 <_realloc_r+0x38c>)
    3f0a:	4640      	mov	r0, r8
    3f0c:	6099      	str	r1, [r3, #8]
    3f0e:	9b02      	ldr	r3, [sp, #8]
    3f10:	1b5a      	subs	r2, r3, r5
    3f12:	2301      	movs	r3, #1
    3f14:	431a      	orrs	r2, r3
    3f16:	604a      	str	r2, [r1, #4]
    3f18:	465a      	mov	r2, fp
    3f1a:	6852      	ldr	r2, [r2, #4]
    3f1c:	4013      	ands	r3, r2
    3f1e:	431d      	orrs	r5, r3
    3f20:	465b      	mov	r3, fp
    3f22:	605d      	str	r5, [r3, #4]
    3f24:	f7ff fea0 	bl	3c68 <__malloc_unlock>
    3f28:	0038      	movs	r0, r7
    3f2a:	e74d      	b.n	3dc8 <_realloc_r+0x15c>
    3f2c:	6831      	ldr	r1, [r6, #0]
    3f2e:	6001      	str	r1, [r0, #0]
    3f30:	6871      	ldr	r1, [r6, #4]
    3f32:	6041      	str	r1, [r0, #4]
    3f34:	2a1b      	cmp	r2, #27
    3f36:	d817      	bhi.n	3f68 <_realloc_r+0x2fc>
    3f38:	0032      	movs	r2, r6
    3f3a:	3308      	adds	r3, #8
    3f3c:	3208      	adds	r2, #8
    3f3e:	e6ea      	b.n	3d16 <_realloc_r+0xaa>
    3f40:	4b2d      	ldr	r3, [pc, #180]	; (3ff8 <_realloc_r+0x38c>)
    3f42:	197a      	adds	r2, r7, r5
    3f44:	609a      	str	r2, [r3, #8]
    3f46:	2301      	movs	r3, #1
    3f48:	1b49      	subs	r1, r1, r5
    3f4a:	4319      	orrs	r1, r3
    3f4c:	6051      	str	r1, [r2, #4]
    3f4e:	687a      	ldr	r2, [r7, #4]
    3f50:	4640      	mov	r0, r8
    3f52:	4013      	ands	r3, r2
    3f54:	431d      	orrs	r5, r3
    3f56:	607d      	str	r5, [r7, #4]
    3f58:	f7ff fe86 	bl	3c68 <__malloc_unlock>
    3f5c:	0030      	movs	r0, r6
    3f5e:	e733      	b.n	3dc8 <_realloc_r+0x15c>
    3f60:	0031      	movs	r1, r6
    3f62:	f7ff fe33 	bl	3bcc <memmove>
    3f66:	e6dc      	b.n	3d22 <_realloc_r+0xb6>
    3f68:	68b1      	ldr	r1, [r6, #8]
    3f6a:	0003      	movs	r3, r0
    3f6c:	6081      	str	r1, [r0, #8]
    3f6e:	68f1      	ldr	r1, [r6, #12]
    3f70:	60c1      	str	r1, [r0, #12]
    3f72:	2a24      	cmp	r2, #36	; 0x24
    3f74:	d022      	beq.n	3fbc <_realloc_r+0x350>
    3f76:	0032      	movs	r2, r6
    3f78:	3310      	adds	r3, #16
    3f7a:	3210      	adds	r2, #16
    3f7c:	e6cb      	b.n	3d16 <_realloc_r+0xaa>
    3f7e:	6853      	ldr	r3, [r2, #4]
    3f80:	2203      	movs	r2, #3
    3f82:	4393      	bics	r3, r2
    3f84:	18e4      	adds	r4, r4, r3
    3f86:	e70c      	b.n	3da2 <_realloc_r+0x136>
    3f88:	0031      	movs	r1, r6
    3f8a:	0038      	movs	r0, r7
    3f8c:	f7ff fe1e 	bl	3bcc <memmove>
    3f90:	003e      	movs	r6, r7
    3f92:	9c02      	ldr	r4, [sp, #8]
    3f94:	46da      	mov	sl, fp
    3f96:	e704      	b.n	3da2 <_realloc_r+0x136>
    3f98:	0031      	movs	r1, r6
    3f9a:	0038      	movs	r0, r7
    3f9c:	f7ff fe16 	bl	3bcc <memmove>
    3fa0:	003e      	movs	r6, r7
    3fa2:	9c01      	ldr	r4, [sp, #4]
    3fa4:	46da      	mov	sl, fp
    3fa6:	e6fc      	b.n	3da2 <_realloc_r+0x136>
    3fa8:	465b      	mov	r3, fp
    3faa:	68b1      	ldr	r1, [r6, #8]
    3fac:	6119      	str	r1, [r3, #16]
    3fae:	68f1      	ldr	r1, [r6, #12]
    3fb0:	6159      	str	r1, [r3, #20]
    3fb2:	2a24      	cmp	r2, #36	; 0x24
    3fb4:	d016      	beq.n	3fe4 <_realloc_r+0x378>
    3fb6:	3318      	adds	r3, #24
    3fb8:	3610      	adds	r6, #16
    3fba:	e760      	b.n	3e7e <_realloc_r+0x212>
    3fbc:	6932      	ldr	r2, [r6, #16]
    3fbe:	0003      	movs	r3, r0
    3fc0:	6102      	str	r2, [r0, #16]
    3fc2:	0001      	movs	r1, r0
    3fc4:	0032      	movs	r2, r6
    3fc6:	6970      	ldr	r0, [r6, #20]
    3fc8:	3318      	adds	r3, #24
    3fca:	3218      	adds	r2, #24
    3fcc:	6148      	str	r0, [r1, #20]
    3fce:	e6a2      	b.n	3d16 <_realloc_r+0xaa>
    3fd0:	465b      	mov	r3, fp
    3fd2:	68b1      	ldr	r1, [r6, #8]
    3fd4:	6119      	str	r1, [r3, #16]
    3fd6:	68f1      	ldr	r1, [r6, #12]
    3fd8:	6159      	str	r1, [r3, #20]
    3fda:	2a24      	cmp	r2, #36	; 0x24
    3fdc:	d00e      	beq.n	3ffc <_realloc_r+0x390>
    3fde:	3318      	adds	r3, #24
    3fe0:	3610      	adds	r6, #16
    3fe2:	e6d5      	b.n	3d90 <_realloc_r+0x124>
    3fe4:	465b      	mov	r3, fp
    3fe6:	6932      	ldr	r2, [r6, #16]
    3fe8:	619a      	str	r2, [r3, #24]
    3fea:	465a      	mov	r2, fp
    3fec:	6971      	ldr	r1, [r6, #20]
    3fee:	3320      	adds	r3, #32
    3ff0:	61d1      	str	r1, [r2, #28]
    3ff2:	3618      	adds	r6, #24
    3ff4:	e743      	b.n	3e7e <_realloc_r+0x212>
    3ff6:	46c0      	nop			; (mov r8, r8)
    3ff8:	2000044c 	.word	0x2000044c
    3ffc:	465b      	mov	r3, fp
    3ffe:	6932      	ldr	r2, [r6, #16]
    4000:	619a      	str	r2, [r3, #24]
    4002:	465a      	mov	r2, fp
    4004:	6971      	ldr	r1, [r6, #20]
    4006:	3320      	adds	r3, #32
    4008:	61d1      	str	r1, [r2, #28]
    400a:	3618      	adds	r6, #24
    400c:	e6c0      	b.n	3d90 <_realloc_r+0x124>
    400e:	0031      	movs	r1, r6
    4010:	0038      	movs	r0, r7
    4012:	f7ff fddb 	bl	3bcc <memmove>
    4016:	e775      	b.n	3f04 <_realloc_r+0x298>
    4018:	465b      	mov	r3, fp
    401a:	68b1      	ldr	r1, [r6, #8]
    401c:	6119      	str	r1, [r3, #16]
    401e:	68f1      	ldr	r1, [r6, #12]
    4020:	6159      	str	r1, [r3, #20]
    4022:	2a24      	cmp	r2, #36	; 0x24
    4024:	d007      	beq.n	4036 <_realloc_r+0x3ca>
    4026:	3318      	adds	r3, #24
    4028:	3610      	adds	r6, #16
    402a:	e765      	b.n	3ef8 <_realloc_r+0x28c>
    402c:	4640      	mov	r0, r8
    402e:	f7ff fe1b 	bl	3c68 <__malloc_unlock>
    4032:	2000      	movs	r0, #0
    4034:	e6c8      	b.n	3dc8 <_realloc_r+0x15c>
    4036:	465b      	mov	r3, fp
    4038:	6932      	ldr	r2, [r6, #16]
    403a:	619a      	str	r2, [r3, #24]
    403c:	465a      	mov	r2, fp
    403e:	6971      	ldr	r1, [r6, #20]
    4040:	3320      	adds	r3, #32
    4042:	61d1      	str	r1, [r2, #28]
    4044:	3618      	adds	r6, #24
    4046:	e757      	b.n	3ef8 <_realloc_r+0x28c>

00004048 <_sbrk_r>:
    4048:	2300      	movs	r3, #0
    404a:	b570      	push	{r4, r5, r6, lr}
    404c:	4c06      	ldr	r4, [pc, #24]	; (4068 <_sbrk_r+0x20>)
    404e:	0005      	movs	r5, r0
    4050:	0008      	movs	r0, r1
    4052:	6023      	str	r3, [r4, #0]
    4054:	f7fc f8a4 	bl	1a0 <_sbrk>
    4058:	1c43      	adds	r3, r0, #1
    405a:	d000      	beq.n	405e <_sbrk_r+0x16>
    405c:	bd70      	pop	{r4, r5, r6, pc}
    405e:	6823      	ldr	r3, [r4, #0]
    4060:	2b00      	cmp	r3, #0
    4062:	d0fb      	beq.n	405c <_sbrk_r+0x14>
    4064:	602b      	str	r3, [r5, #0]
    4066:	e7f9      	b.n	405c <_sbrk_r+0x14>
    4068:	20000ac4 	.word	0x20000ac4

0000406c <__sread>:
    406c:	b570      	push	{r4, r5, r6, lr}
    406e:	000c      	movs	r4, r1
    4070:	250e      	movs	r5, #14
    4072:	5f49      	ldrsh	r1, [r1, r5]
    4074:	f000 f958 	bl	4328 <_read_r>
    4078:	2800      	cmp	r0, #0
    407a:	db03      	blt.n	4084 <__sread+0x18>
    407c:	6d23      	ldr	r3, [r4, #80]	; 0x50
    407e:	181b      	adds	r3, r3, r0
    4080:	6523      	str	r3, [r4, #80]	; 0x50
    4082:	bd70      	pop	{r4, r5, r6, pc}
    4084:	89a2      	ldrh	r2, [r4, #12]
    4086:	4b02      	ldr	r3, [pc, #8]	; (4090 <__sread+0x24>)
    4088:	4013      	ands	r3, r2
    408a:	81a3      	strh	r3, [r4, #12]
    408c:	e7f9      	b.n	4082 <__sread+0x16>
    408e:	46c0      	nop			; (mov r8, r8)
    4090:	ffffefff 	.word	0xffffefff

00004094 <__swrite>:
    4094:	b5f8      	push	{r3, r4, r5, r6, r7, lr}
    4096:	0016      	movs	r6, r2
    4098:	001f      	movs	r7, r3
    409a:	230c      	movs	r3, #12
    409c:	5eca      	ldrsh	r2, [r1, r3]
    409e:	0005      	movs	r5, r0
    40a0:	000c      	movs	r4, r1
    40a2:	05d3      	lsls	r3, r2, #23
    40a4:	d507      	bpl.n	40b6 <__swrite+0x22>
    40a6:	230e      	movs	r3, #14
    40a8:	5ec9      	ldrsh	r1, [r1, r3]
    40aa:	2200      	movs	r2, #0
    40ac:	2302      	movs	r3, #2
    40ae:	f000 f927 	bl	4300 <_lseek_r>
    40b2:	230c      	movs	r3, #12
    40b4:	5ee2      	ldrsh	r2, [r4, r3]
    40b6:	4b05      	ldr	r3, [pc, #20]	; (40cc <__swrite+0x38>)
    40b8:	0028      	movs	r0, r5
    40ba:	4013      	ands	r3, r2
    40bc:	81a3      	strh	r3, [r4, #12]
    40be:	0032      	movs	r2, r6
    40c0:	230e      	movs	r3, #14
    40c2:	5ee1      	ldrsh	r1, [r4, r3]
    40c4:	003b      	movs	r3, r7
    40c6:	f000 f81f 	bl	4108 <_write_r>
    40ca:	bdf8      	pop	{r3, r4, r5, r6, r7, pc}
    40cc:	ffffefff 	.word	0xffffefff

000040d0 <__sseek>:
    40d0:	b570      	push	{r4, r5, r6, lr}
    40d2:	000c      	movs	r4, r1
    40d4:	250e      	movs	r5, #14
    40d6:	5f49      	ldrsh	r1, [r1, r5]
    40d8:	f000 f912 	bl	4300 <_lseek_r>
    40dc:	1c43      	adds	r3, r0, #1
    40de:	d006      	beq.n	40ee <__sseek+0x1e>
    40e0:	2280      	movs	r2, #128	; 0x80
    40e2:	89a3      	ldrh	r3, [r4, #12]
    40e4:	0152      	lsls	r2, r2, #5
    40e6:	4313      	orrs	r3, r2
    40e8:	81a3      	strh	r3, [r4, #12]
    40ea:	6520      	str	r0, [r4, #80]	; 0x50
    40ec:	bd70      	pop	{r4, r5, r6, pc}
    40ee:	89a2      	ldrh	r2, [r4, #12]
    40f0:	4b01      	ldr	r3, [pc, #4]	; (40f8 <__sseek+0x28>)
    40f2:	4013      	ands	r3, r2
    40f4:	81a3      	strh	r3, [r4, #12]
    40f6:	e7f9      	b.n	40ec <__sseek+0x1c>
    40f8:	ffffefff 	.word	0xffffefff

000040fc <__sclose>:
    40fc:	b510      	push	{r4, lr}
    40fe:	230e      	movs	r3, #14
    4100:	5ec9      	ldrsh	r1, [r1, r3]
    4102:	f000 f87f 	bl	4204 <_close_r>
    4106:	bd10      	pop	{r4, pc}

00004108 <_write_r>:
    4108:	b570      	push	{r4, r5, r6, lr}
    410a:	0005      	movs	r5, r0
    410c:	0008      	movs	r0, r1
    410e:	0011      	movs	r1, r2
    4110:	2200      	movs	r2, #0
    4112:	4c06      	ldr	r4, [pc, #24]	; (412c <_write_r+0x24>)
    4114:	6022      	str	r2, [r4, #0]
    4116:	001a      	movs	r2, r3
    4118:	f7fd fa80 	bl	161c <_write>
    411c:	1c43      	adds	r3, r0, #1
    411e:	d000      	beq.n	4122 <_write_r+0x1a>
    4120:	bd70      	pop	{r4, r5, r6, pc}
    4122:	6823      	ldr	r3, [r4, #0]
    4124:	2b00      	cmp	r3, #0
    4126:	d0fb      	beq.n	4120 <_write_r+0x18>
    4128:	602b      	str	r3, [r5, #0]
    412a:	e7f9      	b.n	4120 <_write_r+0x18>
    412c:	20000ac4 	.word	0x20000ac4

00004130 <__register_exitproc>:
    4130:	b5f8      	push	{r3, r4, r5, r6, r7, lr}
    4132:	4644      	mov	r4, r8
    4134:	465f      	mov	r7, fp
    4136:	4656      	mov	r6, sl
    4138:	464d      	mov	r5, r9
    413a:	469b      	mov	fp, r3
    413c:	4b2f      	ldr	r3, [pc, #188]	; (41fc <__register_exitproc+0xcc>)
    413e:	b4f0      	push	{r4, r5, r6, r7}
    4140:	681c      	ldr	r4, [r3, #0]
    4142:	23a4      	movs	r3, #164	; 0xa4
    4144:	005b      	lsls	r3, r3, #1
    4146:	0005      	movs	r5, r0
    4148:	58e0      	ldr	r0, [r4, r3]
    414a:	000e      	movs	r6, r1
    414c:	4690      	mov	r8, r2
    414e:	2800      	cmp	r0, #0
    4150:	d04b      	beq.n	41ea <__register_exitproc+0xba>
    4152:	6843      	ldr	r3, [r0, #4]
    4154:	2b1f      	cmp	r3, #31
    4156:	dc0d      	bgt.n	4174 <__register_exitproc+0x44>
    4158:	1c5c      	adds	r4, r3, #1
    415a:	2d00      	cmp	r5, #0
    415c:	d121      	bne.n	41a2 <__register_exitproc+0x72>
    415e:	3302      	adds	r3, #2
    4160:	009b      	lsls	r3, r3, #2
    4162:	6044      	str	r4, [r0, #4]
    4164:	501e      	str	r6, [r3, r0]
    4166:	2000      	movs	r0, #0
    4168:	bc3c      	pop	{r2, r3, r4, r5}
    416a:	4690      	mov	r8, r2
    416c:	4699      	mov	r9, r3
    416e:	46a2      	mov	sl, r4
    4170:	46ab      	mov	fp, r5
    4172:	bdf8      	pop	{r3, r4, r5, r6, r7, pc}
    4174:	4b22      	ldr	r3, [pc, #136]	; (4200 <__register_exitproc+0xd0>)
    4176:	2b00      	cmp	r3, #0
    4178:	d03c      	beq.n	41f4 <__register_exitproc+0xc4>
    417a:	20c8      	movs	r0, #200	; 0xc8
    417c:	0040      	lsls	r0, r0, #1
    417e:	e000      	b.n	4182 <__register_exitproc+0x52>
    4180:	bf00      	nop
    4182:	2800      	cmp	r0, #0
    4184:	d036      	beq.n	41f4 <__register_exitproc+0xc4>
    4186:	22a4      	movs	r2, #164	; 0xa4
    4188:	2300      	movs	r3, #0
    418a:	0052      	lsls	r2, r2, #1
    418c:	58a1      	ldr	r1, [r4, r2]
    418e:	6043      	str	r3, [r0, #4]
    4190:	6001      	str	r1, [r0, #0]
    4192:	50a0      	str	r0, [r4, r2]
    4194:	3240      	adds	r2, #64	; 0x40
    4196:	5083      	str	r3, [r0, r2]
    4198:	3204      	adds	r2, #4
    419a:	5083      	str	r3, [r0, r2]
    419c:	2401      	movs	r4, #1
    419e:	2d00      	cmp	r5, #0
    41a0:	d0dd      	beq.n	415e <__register_exitproc+0x2e>
    41a2:	009a      	lsls	r2, r3, #2
    41a4:	4691      	mov	r9, r2
    41a6:	4481      	add	r9, r0
    41a8:	4642      	mov	r2, r8
    41aa:	2188      	movs	r1, #136	; 0x88
    41ac:	464f      	mov	r7, r9
    41ae:	507a      	str	r2, [r7, r1]
    41b0:	22c4      	movs	r2, #196	; 0xc4
    41b2:	0052      	lsls	r2, r2, #1
    41b4:	4690      	mov	r8, r2
    41b6:	4480      	add	r8, r0
    41b8:	4642      	mov	r2, r8
    41ba:	3987      	subs	r1, #135	; 0x87
    41bc:	4099      	lsls	r1, r3
    41be:	6812      	ldr	r2, [r2, #0]
    41c0:	468a      	mov	sl, r1
    41c2:	430a      	orrs	r2, r1
    41c4:	4694      	mov	ip, r2
    41c6:	4642      	mov	r2, r8
    41c8:	4661      	mov	r1, ip
    41ca:	6011      	str	r1, [r2, #0]
    41cc:	2284      	movs	r2, #132	; 0x84
    41ce:	4649      	mov	r1, r9
    41d0:	465f      	mov	r7, fp
    41d2:	0052      	lsls	r2, r2, #1
    41d4:	508f      	str	r7, [r1, r2]
    41d6:	2d02      	cmp	r5, #2
    41d8:	d1c1      	bne.n	415e <__register_exitproc+0x2e>
    41da:	0002      	movs	r2, r0
    41dc:	4655      	mov	r5, sl
    41de:	328d      	adds	r2, #141	; 0x8d
    41e0:	32ff      	adds	r2, #255	; 0xff
    41e2:	6811      	ldr	r1, [r2, #0]
    41e4:	430d      	orrs	r5, r1
    41e6:	6015      	str	r5, [r2, #0]
    41e8:	e7b9      	b.n	415e <__register_exitproc+0x2e>
    41ea:	0020      	movs	r0, r4
    41ec:	304d      	adds	r0, #77	; 0x4d
    41ee:	30ff      	adds	r0, #255	; 0xff
    41f0:	50e0      	str	r0, [r4, r3]
    41f2:	e7ae      	b.n	4152 <__register_exitproc+0x22>
    41f4:	2001      	movs	r0, #1
    41f6:	4240      	negs	r0, r0
    41f8:	e7b6      	b.n	4168 <__register_exitproc+0x38>
    41fa:	46c0      	nop			; (mov r8, r8)
    41fc:	0000473c 	.word	0x0000473c
    4200:	00000000 	.word	0x00000000

00004204 <_close_r>:
    4204:	2300      	movs	r3, #0
    4206:	b570      	push	{r4, r5, r6, lr}
    4208:	4c06      	ldr	r4, [pc, #24]	; (4224 <_close_r+0x20>)
    420a:	0005      	movs	r5, r0
    420c:	0008      	movs	r0, r1
    420e:	6023      	str	r3, [r4, #0]
    4210:	f7fb ffe4 	bl	1dc <_close>
    4214:	1c43      	adds	r3, r0, #1
    4216:	d000      	beq.n	421a <_close_r+0x16>
    4218:	bd70      	pop	{r4, r5, r6, pc}
    421a:	6823      	ldr	r3, [r4, #0]
    421c:	2b00      	cmp	r3, #0
    421e:	d0fb      	beq.n	4218 <_close_r+0x14>
    4220:	602b      	str	r3, [r5, #0]
    4222:	e7f9      	b.n	4218 <_close_r+0x14>
    4224:	20000ac4 	.word	0x20000ac4

00004228 <_fclose_r>:
    4228:	b570      	push	{r4, r5, r6, lr}
    422a:	0005      	movs	r5, r0
    422c:	1e0c      	subs	r4, r1, #0
    422e:	d008      	beq.n	4242 <_fclose_r+0x1a>
    4230:	2800      	cmp	r0, #0
    4232:	d002      	beq.n	423a <_fclose_r+0x12>
    4234:	6b83      	ldr	r3, [r0, #56]	; 0x38
    4236:	2b00      	cmp	r3, #0
    4238:	d031      	beq.n	429e <_fclose_r+0x76>
    423a:	220c      	movs	r2, #12
    423c:	5ea3      	ldrsh	r3, [r4, r2]
    423e:	2b00      	cmp	r3, #0
    4240:	d101      	bne.n	4246 <_fclose_r+0x1e>
    4242:	2000      	movs	r0, #0
    4244:	bd70      	pop	{r4, r5, r6, pc}
    4246:	0021      	movs	r1, r4
    4248:	0028      	movs	r0, r5
    424a:	f7fe fd0f 	bl	2c6c <__sflush_r>
    424e:	6ae3      	ldr	r3, [r4, #44]	; 0x2c
    4250:	0006      	movs	r6, r0
    4252:	2b00      	cmp	r3, #0
    4254:	d004      	beq.n	4260 <_fclose_r+0x38>
    4256:	69e1      	ldr	r1, [r4, #28]
    4258:	0028      	movs	r0, r5
    425a:	4798      	blx	r3
    425c:	2800      	cmp	r0, #0
    425e:	db21      	blt.n	42a4 <_fclose_r+0x7c>
    4260:	89a3      	ldrh	r3, [r4, #12]
    4262:	061b      	lsls	r3, r3, #24
    4264:	d421      	bmi.n	42aa <_fclose_r+0x82>
    4266:	6b21      	ldr	r1, [r4, #48]	; 0x30
    4268:	2900      	cmp	r1, #0
    426a:	d008      	beq.n	427e <_fclose_r+0x56>
    426c:	0023      	movs	r3, r4
    426e:	3340      	adds	r3, #64	; 0x40
    4270:	4299      	cmp	r1, r3
    4272:	d002      	beq.n	427a <_fclose_r+0x52>
    4274:	0028      	movs	r0, r5
    4276:	f7fe fead 	bl	2fd4 <_free_r>
    427a:	2300      	movs	r3, #0
    427c:	6323      	str	r3, [r4, #48]	; 0x30
    427e:	6c61      	ldr	r1, [r4, #68]	; 0x44
    4280:	2900      	cmp	r1, #0
    4282:	d004      	beq.n	428e <_fclose_r+0x66>
    4284:	0028      	movs	r0, r5
    4286:	f7fe fea5 	bl	2fd4 <_free_r>
    428a:	2300      	movs	r3, #0
    428c:	6463      	str	r3, [r4, #68]	; 0x44
    428e:	f7fe fe33 	bl	2ef8 <__sfp_lock_acquire>
    4292:	2300      	movs	r3, #0
    4294:	81a3      	strh	r3, [r4, #12]
    4296:	f7fe fe31 	bl	2efc <__sfp_lock_release>
    429a:	0030      	movs	r0, r6
    429c:	e7d2      	b.n	4244 <_fclose_r+0x1c>
    429e:	f7fe fe23 	bl	2ee8 <__sinit>
    42a2:	e7ca      	b.n	423a <_fclose_r+0x12>
    42a4:	2601      	movs	r6, #1
    42a6:	4276      	negs	r6, r6
    42a8:	e7da      	b.n	4260 <_fclose_r+0x38>
    42aa:	6921      	ldr	r1, [r4, #16]
    42ac:	0028      	movs	r0, r5
    42ae:	f7fe fe91 	bl	2fd4 <_free_r>
    42b2:	e7d8      	b.n	4266 <_fclose_r+0x3e>

000042b4 <_fstat_r>:
    42b4:	2300      	movs	r3, #0
    42b6:	b570      	push	{r4, r5, r6, lr}
    42b8:	4c07      	ldr	r4, [pc, #28]	; (42d8 <_fstat_r+0x24>)
    42ba:	0005      	movs	r5, r0
    42bc:	0008      	movs	r0, r1
    42be:	0011      	movs	r1, r2
    42c0:	6023      	str	r3, [r4, #0]
    42c2:	f7fb ff95 	bl	1f0 <_fstat>
    42c6:	1c43      	adds	r3, r0, #1
    42c8:	d000      	beq.n	42cc <_fstat_r+0x18>
    42ca:	bd70      	pop	{r4, r5, r6, pc}
    42cc:	6823      	ldr	r3, [r4, #0]
    42ce:	2b00      	cmp	r3, #0
    42d0:	d0fb      	beq.n	42ca <_fstat_r+0x16>
    42d2:	602b      	str	r3, [r5, #0]
    42d4:	e7f9      	b.n	42ca <_fstat_r+0x16>
    42d6:	46c0      	nop			; (mov r8, r8)
    42d8:	20000ac4 	.word	0x20000ac4

000042dc <_isatty_r>:
    42dc:	2300      	movs	r3, #0
    42de:	b570      	push	{r4, r5, r6, lr}
    42e0:	4c06      	ldr	r4, [pc, #24]	; (42fc <_isatty_r+0x20>)
    42e2:	0005      	movs	r5, r0
    42e4:	0008      	movs	r0, r1
    42e6:	6023      	str	r3, [r4, #0]
    42e8:	f7fb ff90 	bl	20c <_isatty>
    42ec:	1c43      	adds	r3, r0, #1
    42ee:	d000      	beq.n	42f2 <_isatty_r+0x16>
    42f0:	bd70      	pop	{r4, r5, r6, pc}
    42f2:	6823      	ldr	r3, [r4, #0]
    42f4:	2b00      	cmp	r3, #0
    42f6:	d0fb      	beq.n	42f0 <_isatty_r+0x14>
    42f8:	602b      	str	r3, [r5, #0]
    42fa:	e7f9      	b.n	42f0 <_isatty_r+0x14>
    42fc:	20000ac4 	.word	0x20000ac4

00004300 <_lseek_r>:
    4300:	b570      	push	{r4, r5, r6, lr}
    4302:	0005      	movs	r5, r0
    4304:	0008      	movs	r0, r1
    4306:	0011      	movs	r1, r2
    4308:	2200      	movs	r2, #0
    430a:	4c06      	ldr	r4, [pc, #24]	; (4324 <_lseek_r+0x24>)
    430c:	6022      	str	r2, [r4, #0]
    430e:	001a      	movs	r2, r3
    4310:	f7fb ff86 	bl	220 <_lseek>
    4314:	1c43      	adds	r3, r0, #1
    4316:	d000      	beq.n	431a <_lseek_r+0x1a>
    4318:	bd70      	pop	{r4, r5, r6, pc}
    431a:	6823      	ldr	r3, [r4, #0]
    431c:	2b00      	cmp	r3, #0
    431e:	d0fb      	beq.n	4318 <_lseek_r+0x18>
    4320:	602b      	str	r3, [r5, #0]
    4322:	e7f9      	b.n	4318 <_lseek_r+0x18>
    4324:	20000ac4 	.word	0x20000ac4

00004328 <_read_r>:
    4328:	b570      	push	{r4, r5, r6, lr}
    432a:	0005      	movs	r5, r0
    432c:	0008      	movs	r0, r1
    432e:	0011      	movs	r1, r2
    4330:	2200      	movs	r2, #0
    4332:	4c06      	ldr	r4, [pc, #24]	; (434c <_read_r+0x24>)
    4334:	6022      	str	r2, [r4, #0]
    4336:	001a      	movs	r2, r3
    4338:	f000 f80a 	bl	4350 <_read>
    433c:	1c43      	adds	r3, r0, #1
    433e:	d000      	beq.n	4342 <_read_r+0x1a>
    4340:	bd70      	pop	{r4, r5, r6, pc}
    4342:	6823      	ldr	r3, [r4, #0]
    4344:	2b00      	cmp	r3, #0
    4346:	d0fb      	beq.n	4340 <_read_r+0x18>
    4348:	602b      	str	r3, [r5, #0]
    434a:	e7f9      	b.n	4340 <_read_r+0x18>
    434c:	20000ac4 	.word	0x20000ac4

00004350 <_read>:
    4350:	2258      	movs	r2, #88	; 0x58
    4352:	2001      	movs	r0, #1
    4354:	4b01      	ldr	r3, [pc, #4]	; (435c <_read+0xc>)
    4356:	4240      	negs	r0, r0
    4358:	601a      	str	r2, [r3, #0]
    435a:	4770      	bx	lr
    435c:	20000ac4 	.word	0x20000ac4
    4360:	20545549 	.word	0x20545549
    4364:	4e206564 	.word	0x4e206564
    4368:	65746e61 	.word	0x65746e61
    436c:	00000073 	.word	0x00000073
    4370:	74706544 	.word	0x74706544
    4374:	49454720 	.word	0x49454720
    4378:	00000049 	.word	0x00000049

0000437c <img>:
    437c:	fc1804f8 0202020e 0e660302 f00000f0     ..........f.....
    438c:	00000000 00808000 00000000 e0e0e000     ................
    439c:	01000000 5a3c2e03 c2d6f450 11242048     ......<ZP...H $.
    43ac:	fefffef8 ff000000 0000ffff f0f00000     ................
    43bc:	f0ffffff 000060f0 00000000 00ffffff     .....`..........
    43cc:	ff000000 00ffffff ffff0000 000000ff     ................
    43dc:	ff000000 0000ffff 00000000 7f400000     ..............@.
    43ec:	00007f7f 3f0f0000 78707f7f 7f7f3f7c     .......?..px|?..
    43fc:	00002078 7f1f0000 0020787f              x .......x .

00004408 <sysfont_glyphs>:
    4408:	00000000 20000000 20202020 50502000     .......     . PP
    4418:	00000050 f8505000 5050f850 70a07820     P....PP.P.PP x.p
    4428:	c020f028 402010c8 90601898 90a840a0     (. ... @..`..@..
    4438:	40206068 00000000 40402010 40102040     h` @..... @@@ .@
    4448:	10101020 50004020 5020f820 20200000      ... @.P . P..  
    4458:	002020f8 00000000 00402060 00f80000     .  .....` @.....
    4468:	00000000 60000000 10080060 00804020     .......``... @..
    4478:	a8988870 207088c8 20202060 88707020     p.....p `    pp.
    4488:	40201008 2010f8f8 70880810 90503010     .. @... ...p.0P.
    4498:	f81010f8 0808f080 40307088 8888f080     .........p0@....
    44a8:	1008f870 40404020 70888870 70708888     p... @@@p..p..pp
    44b8:	08788888 60006010 60600060 60600000     ..x..`.``.``..``
    44c8:	40206000 40201008 00081020 f800f800     .` @.. @ .......
    44d8:	40800000 40201020 08887080 20002010     ...@ . @.p... . 
    44e8:	68088870 7070a8a8 f8888888 88f08888     p..h..pp........
    44f8:	8888f088 808870f0 70888080 888890e0     .....p.....p....
    4508:	f8e09088 80f08080 80f8f880 8080e080     ................
    4518:	80887080 70889880 f8888888 70888888     .p.....p.......p
    4528:	20202020 10387020 90101010 a0908860          p8.....`...
    4538:	8890a0c0 80808080 88f88080 8888a8d8     ................
    4548:	88888888 8898a8c8 88887088 70888888     .........p.....p
    4558:	f08888f0 70808080 a8888888 88f06890     .......p.....h..
    4568:	90a0f088 80807888 f0080870 202020f8     .....x..p....   
    4578:	88202020 88888888 88887088 50888888        ......p.....P
    4588:	88888820 88d8a8a8 20508888 88888850      .........P P...
    4598:	20205088 08f82020 80402010 202038f8     .P    ... @..8  
    45a8:	38202020 20408000 e0000810 20202020        8..@ ....    
    45b8:	5020e020 00000088 00000000 f8000000      . P............
    45c8:	00102040 00000000 78087000 80807888     @ .......p.x.x..
    45d8:	8888c8b0 700000f0 70888080 98680808     .......p...p..h.
    45e8:	00788888 f8887000 48307080 4040e040     ..x..p...p0H@.@@
    45f8:	78000040 30087888 c8b08080 20888888     @..x.x.0....... 
    4608:	20206000 00107020 90101030 48404060     .`   p..0...`@@H
    4618:	48506050 20202060 00702020 a8a8d000     P`PH`     p.....
    4628:	00008888 8888c8b0 70000088 70888888     ...........p...p
    4638:	88f00000 008080f0 78986800 00000808     .........h.x....
    4648:	8080c8b0 70000080 f0087080 40e04040     .......p.p..@@.@
    4658:	00304840 88888800 00006898 50888888     @H0......h.....P
    4668:	88000020 50a8a888 50880000 00885020      ......P...P P..
    4678:	78888800 00007008 402010f8 202010f8     ...x.p.... @..  
    4688:	10202040 20202020 40202020 20102020     @  .       @  . 
    4698:	00004020 00001332 00001364 000013ae      @..2...d.......
    46a8:	000013e0 0000142a 756c6173 00000074     ....*...salut...
    46b8:	00001e2c 00001cfa 00001e00 00001cf0     ,...............
    46c8:	00001e00 00001e0a 00001e00 00001cf0     ................
    46d8:	00001cfa 00001cfa 00001e0a 00001cf0     ................
    46e8:	00001ce6 00001ce6 00001ce6 0000205c     ............\ ..
    46f8:	00002458 00002318 00002318 00002316     X$...#...#...#..
    4708:	00002430 00002430 00002422 00002316     0$..0$.."$...#..
    4718:	00002430 00002422 00002430 00002316     0$.."$..0$...#..
    4728:	00002438 00002438 00002438 00002638     8$..8$..8$..8&..
    4738:	00000043                                C...

0000473c <_global_impure_ptr>:
    473c:	20000020 0000000a                        .. ....

00004744 <_init>:
    4744:	b5f8      	push	{r3, r4, r5, r6, r7, lr}
    4746:	46c0      	nop			; (mov r8, r8)
    4748:	bcf8      	pop	{r3, r4, r5, r6, r7}
    474a:	bc08      	pop	{r3}
    474c:	469e      	mov	lr, r3
    474e:	4770      	bx	lr

00004750 <__init_array_start>:
    4750:	00002c45 	.word	0x00002c45

00004754 <__frame_dummy_init_array_entry>:
    4754:	000000dd                                ....

00004758 <_fini>:
    4758:	b5f8      	push	{r3, r4, r5, r6, r7, lr}
    475a:	46c0      	nop			; (mov r8, r8)
    475c:	bcf8      	pop	{r3, r4, r5, r6, r7}
    475e:	bc08      	pop	{r3}
    4760:	469e      	mov	lr, r3
    4762:	4770      	bx	lr

00004764 <__fini_array_start>:
    4764:	000000b5 	.word	0x000000b5
